ARM GAS  /var/folders/d0/cymppscj10lcmm48h781wrc80000gn/T//ccgORTcb.s 			page 1


   1              		.cpu cortex-m7
   2              		.arch armv7e-m
   3              		.fpu fpv5-d16
   4              		.eabi_attribute 28, 1
   5              		.eabi_attribute 20, 1
   6              		.eabi_attribute 21, 1
   7              		.eabi_attribute 23, 3
   8              		.eabi_attribute 24, 1
   9              		.eabi_attribute 25, 1
  10              		.eabi_attribute 26, 1
  11              		.eabi_attribute 30, 6
  12              		.eabi_attribute 34, 1
  13              		.eabi_attribute 18, 4
  14              		.file	"can.c"
  15              		.text
  16              	.Ltext0:
  17              		.cfi_sections	.debug_frame
  18              		.global	Tx_Buffer
  19              		.section	.data.Tx_Buffer,"aw"
  20              		.align	2
  23              	Tx_Buffer:
  24 0000 11223344 		.ascii	"\021\"3DUfw\210"
  24      55667788 
  25              		.global	Tx_length
  26              		.section	.data.Tx_length,"aw"
  29              	Tx_length:
  30 0000 08       		.byte	8
  31              		.global	CAN1
  32              		.section	.bss.CAN1,"aw",%nobits
  33              		.align	2
  36              	CAN1:
  37 0000 00000000 		.space	36
  37      00000000 
  37      00000000 
  37      00000000 
  37      00000000 
  38              		.global	CAN2
  39              		.section	.bss.CAN2,"aw",%nobits
  40              		.align	2
  43              	CAN2:
  44 0000 00000000 		.space	36
  44      00000000 
  44      00000000 
  44      00000000 
  44      00000000 
  45              		.global	CAN1_Start_status
  46              		.section	.bss.CAN1_Start_status,"aw",%nobits
  49              	CAN1_Start_status:
  50 0000 00       		.space	1
  51              		.global	CAN2_Start_status
  52              		.section	.bss.CAN2_Start_status,"aw",%nobits
  55              	CAN2_Start_status:
  56 0000 00       		.space	1
  57              		.global	CAN1_Tx_status
  58              		.section	.bss.CAN1_Tx_status,"aw",%nobits
  61              	CAN1_Tx_status:
  62 0000 00       		.space	1
ARM GAS  /var/folders/d0/cymppscj10lcmm48h781wrc80000gn/T//ccgORTcb.s 			page 2


  63              		.global	CAN2_Tx_status
  64              		.section	.bss.CAN2_Tx_status,"aw",%nobits
  67              	CAN2_Tx_status:
  68 0000 00       		.space	1
  69              		.section	.text.Can_Init,"ax",%progbits
  70              		.align	1
  71              		.global	Can_Init
  72              		.syntax unified
  73              		.thumb
  74              		.thumb_func
  76              	Can_Init:
  77              	.LFB333:
  78              		.file 1 "Core/Src/can.c"
   1:Core/Src/can.c **** #include "main.h"
   2:Core/Src/can.c **** #include "can.h"
   3:Core/Src/can.c **** 
   4:Core/Src/can.c **** uint8 Tx_Buffer[8] = {0x11,0x22,0x33,0x44,0x55,0x66,0x77,0x88};
   5:Core/Src/can.c **** uint8 Tx_length = 8u;
   6:Core/Src/can.c **** FDCAN_TxHeaderTypeDef CAN1;
   7:Core/Src/can.c **** FDCAN_TxHeaderTypeDef CAN2;
   8:Core/Src/can.c **** uint8 CAN1_Start_status;
   9:Core/Src/can.c **** uint8 CAN2_Start_status;
  10:Core/Src/can.c **** uint8 CAN1_Tx_status;
  11:Core/Src/can.c **** uint8 CAN2_Tx_status;
  12:Core/Src/can.c **** 
  13:Core/Src/can.c **** void Can_Init(void)
  14:Core/Src/can.c **** {
  79              		.loc 1 14 1
  80              		.cfi_startproc
  81              		@ args = 0, pretend = 0, frame = 0
  82              		@ frame_needed = 1, uses_anonymous_args = 0
  83 0000 80B5     		push	{r7, lr}
  84              	.LCFI0:
  85              		.cfi_def_cfa_offset 8
  86              		.cfi_offset 7, -8
  87              		.cfi_offset 14, -4
  88 0002 00AF     		add	r7, sp, #0
  89              	.LCFI1:
  90              		.cfi_def_cfa_register 7
  15:Core/Src/can.c ****     CAN1_Start_status = HAL_FDCAN_Start(&hfdcan1);
  91              		.loc 1 15 25
  92 0004 0748     		ldr	r0, .L3
  93 0006 FFF7FEFF 		bl	HAL_FDCAN_Start
  94 000a 0346     		mov	r3, r0
  95 000c 1A46     		mov	r2, r3
  96              		.loc 1 15 23
  97 000e 064B     		ldr	r3, .L3+4
  98 0010 1A70     		strb	r2, [r3]
  16:Core/Src/can.c ****     CAN2_Start_status = HAL_FDCAN_Start(&hfdcan2);
  99              		.loc 1 16 25
 100 0012 0648     		ldr	r0, .L3+8
 101 0014 FFF7FEFF 		bl	HAL_FDCAN_Start
 102 0018 0346     		mov	r3, r0
 103 001a 1A46     		mov	r2, r3
 104              		.loc 1 16 23
 105 001c 044B     		ldr	r3, .L3+12
 106 001e 1A70     		strb	r2, [r3]
ARM GAS  /var/folders/d0/cymppscj10lcmm48h781wrc80000gn/T//ccgORTcb.s 			page 3


  17:Core/Src/can.c ****     return;
 107              		.loc 1 17 5
 108 0020 00BF     		nop
  18:Core/Src/can.c **** }
 109              		.loc 1 18 1
 110 0022 80BD     		pop	{r7, pc}
 111              	.L4:
 112              		.align	2
 113              	.L3:
 114 0024 00000000 		.word	hfdcan1
 115 0028 00000000 		.word	CAN1_Start_status
 116 002c 00000000 		.word	hfdcan2
 117 0030 00000000 		.word	CAN2_Start_status
 118              		.cfi_endproc
 119              	.LFE333:
 121              		.section	.text.Can_Transmit,"ax",%progbits
 122              		.align	1
 123              		.global	Can_Transmit
 124              		.syntax unified
 125              		.thumb
 126              		.thumb_func
 128              	Can_Transmit:
 129              	.LFB334:
  19:Core/Src/can.c **** 
  20:Core/Src/can.c **** void Can_Transmit(void)
  21:Core/Src/can.c **** {
 130              		.loc 1 21 1
 131              		.cfi_startproc
 132              		@ args = 0, pretend = 0, frame = 0
 133              		@ frame_needed = 1, uses_anonymous_args = 0
 134 0000 80B5     		push	{r7, lr}
 135              	.LCFI2:
 136              		.cfi_def_cfa_offset 8
 137              		.cfi_offset 7, -8
 138              		.cfi_offset 14, -4
 139 0002 00AF     		add	r7, sp, #0
 140              	.LCFI3:
 141              		.cfi_def_cfa_register 7
  22:Core/Src/can.c ****     CAN1.Identifier=0xAAA;
 142              		.loc 1 22 20
 143 0004 264B     		ldr	r3, .L7
 144 0006 40F6AA22 		movw	r2, #2730
 145 000a 1A60     		str	r2, [r3]
  23:Core/Src/can.c ****     CAN1.IdType=FDCAN_STANDARD_ID;
 146              		.loc 1 23 16
 147 000c 244B     		ldr	r3, .L7
 148 000e 0022     		movs	r2, #0
 149 0010 5A60     		str	r2, [r3, #4]
  24:Core/Src/can.c ****     CAN1.TxFrameType=FDCAN_DATA_FRAME;
 150              		.loc 1 24 21
 151 0012 234B     		ldr	r3, .L7
 152 0014 0022     		movs	r2, #0
 153 0016 9A60     		str	r2, [r3, #8]
  25:Core/Src/can.c ****     CAN1.DataLength=FDCAN_DLC_BYTES_8;
 154              		.loc 1 25 20
 155 0018 214B     		ldr	r3, .L7
 156 001a 4FF40022 		mov	r2, #524288
ARM GAS  /var/folders/d0/cymppscj10lcmm48h781wrc80000gn/T//ccgORTcb.s 			page 4


 157 001e DA60     		str	r2, [r3, #12]
  26:Core/Src/can.c ****     CAN1.ErrorStateIndicator=FDCAN_ESI_ACTIVE;
 158              		.loc 1 26 29
 159 0020 1F4B     		ldr	r3, .L7
 160 0022 0022     		movs	r2, #0
 161 0024 1A61     		str	r2, [r3, #16]
  27:Core/Src/can.c ****     CAN1.BitRateSwitch=FDCAN_BRS_OFF;
 162              		.loc 1 27 23
 163 0026 1E4B     		ldr	r3, .L7
 164 0028 0022     		movs	r2, #0
 165 002a 5A61     		str	r2, [r3, #20]
  28:Core/Src/can.c ****     CAN1.FDFormat=FDCAN_CLASSIC_CAN;
 166              		.loc 1 28 18
 167 002c 1C4B     		ldr	r3, .L7
 168 002e 0022     		movs	r2, #0
 169 0030 9A61     		str	r2, [r3, #24]
  29:Core/Src/can.c ****     CAN1.TxEventFifoControl=FDCAN_NO_TX_EVENTS;
 170              		.loc 1 29 28
 171 0032 1B4B     		ldr	r3, .L7
 172 0034 0022     		movs	r2, #0
 173 0036 DA61     		str	r2, [r3, #28]
  30:Core/Src/can.c ****     CAN1.MessageMarker=0;
 174              		.loc 1 30 23
 175 0038 194B     		ldr	r3, .L7
 176 003a 0022     		movs	r2, #0
 177 003c 1A62     		str	r2, [r3, #32]
  31:Core/Src/can.c ****     CAN1_Tx_status = HAL_FDCAN_AddMessageToTxFifoQ(&hfdcan1,&CAN1,Tx_Buffer);    
 178              		.loc 1 31 22
 179 003e 194A     		ldr	r2, .L7+4
 180 0040 1749     		ldr	r1, .L7
 181 0042 1948     		ldr	r0, .L7+8
 182 0044 FFF7FEFF 		bl	HAL_FDCAN_AddMessageToTxFifoQ
 183 0048 0346     		mov	r3, r0
 184 004a 1A46     		mov	r2, r3
 185              		.loc 1 31 20
 186 004c 174B     		ldr	r3, .L7+12
 187 004e 1A70     		strb	r2, [r3]
  32:Core/Src/can.c ****     CAN2.Identifier=0xAAA;
 188              		.loc 1 32 20
 189 0050 174B     		ldr	r3, .L7+16
 190 0052 40F6AA22 		movw	r2, #2730
 191 0056 1A60     		str	r2, [r3]
  33:Core/Src/can.c ****     CAN2.IdType=FDCAN_STANDARD_ID;
 192              		.loc 1 33 16
 193 0058 154B     		ldr	r3, .L7+16
 194 005a 0022     		movs	r2, #0
 195 005c 5A60     		str	r2, [r3, #4]
  34:Core/Src/can.c ****     CAN2.TxFrameType=FDCAN_DATA_FRAME;
 196              		.loc 1 34 21
 197 005e 144B     		ldr	r3, .L7+16
 198 0060 0022     		movs	r2, #0
 199 0062 9A60     		str	r2, [r3, #8]
  35:Core/Src/can.c ****     CAN2.DataLength=FDCAN_DLC_BYTES_8;
 200              		.loc 1 35 20
 201 0064 124B     		ldr	r3, .L7+16
 202 0066 4FF40022 		mov	r2, #524288
 203 006a DA60     		str	r2, [r3, #12]
ARM GAS  /var/folders/d0/cymppscj10lcmm48h781wrc80000gn/T//ccgORTcb.s 			page 5


  36:Core/Src/can.c ****     CAN2.ErrorStateIndicator=FDCAN_ESI_ACTIVE;
 204              		.loc 1 36 29
 205 006c 104B     		ldr	r3, .L7+16
 206 006e 0022     		movs	r2, #0
 207 0070 1A61     		str	r2, [r3, #16]
  37:Core/Src/can.c ****     CAN2.BitRateSwitch=FDCAN_BRS_OFF;
 208              		.loc 1 37 23
 209 0072 0F4B     		ldr	r3, .L7+16
 210 0074 0022     		movs	r2, #0
 211 0076 5A61     		str	r2, [r3, #20]
  38:Core/Src/can.c ****     CAN2.FDFormat=FDCAN_CLASSIC_CAN;
 212              		.loc 1 38 18
 213 0078 0D4B     		ldr	r3, .L7+16
 214 007a 0022     		movs	r2, #0
 215 007c 9A61     		str	r2, [r3, #24]
  39:Core/Src/can.c ****     CAN2.TxEventFifoControl=FDCAN_NO_TX_EVENTS;
 216              		.loc 1 39 28
 217 007e 0C4B     		ldr	r3, .L7+16
 218 0080 0022     		movs	r2, #0
 219 0082 DA61     		str	r2, [r3, #28]
  40:Core/Src/can.c ****     CAN2.MessageMarker=0;
 220              		.loc 1 40 23
 221 0084 0A4B     		ldr	r3, .L7+16
 222 0086 0022     		movs	r2, #0
 223 0088 1A62     		str	r2, [r3, #32]
  41:Core/Src/can.c ****     CAN2_Tx_status = HAL_FDCAN_AddMessageToTxFifoQ(&hfdcan2,&CAN2,Tx_Buffer);
 224              		.loc 1 41 22
 225 008a 064A     		ldr	r2, .L7+4
 226 008c 0849     		ldr	r1, .L7+16
 227 008e 0948     		ldr	r0, .L7+20
 228 0090 FFF7FEFF 		bl	HAL_FDCAN_AddMessageToTxFifoQ
 229 0094 0346     		mov	r3, r0
 230 0096 1A46     		mov	r2, r3
 231              		.loc 1 41 20
 232 0098 074B     		ldr	r3, .L7+24
 233 009a 1A70     		strb	r2, [r3]
  42:Core/Src/can.c ****     return;
 234              		.loc 1 42 5
 235 009c 00BF     		nop
  43:Core/Src/can.c **** }...
 236              		.loc 1 43 1
 237 009e 80BD     		pop	{r7, pc}
 238              	.L8:
 239              		.align	2
 240              	.L7:
 241 00a0 00000000 		.word	CAN1
 242 00a4 00000000 		.word	Tx_Buffer
 243 00a8 00000000 		.word	hfdcan1
 244 00ac 00000000 		.word	CAN1_Tx_status
 245 00b0 00000000 		.word	CAN2
 246 00b4 00000000 		.word	hfdcan2
 247 00b8 00000000 		.word	CAN2_Tx_status
 248              		.cfi_endproc
 249              	.LFE334:
 251              		.text
 252              	.Letext0:
 253              		.file 2 "/Users/seojisu/Library/Arm-GCC-xPack/arm-none-eabi/include/machine/_default_types.h"
ARM GAS  /var/folders/d0/cymppscj10lcmm48h781wrc80000gn/T//ccgORTcb.s 			page 6


 254              		.file 3 "/Users/seojisu/Library/Arm-GCC-xPack/arm-none-eabi/include/sys/_stdint.h"
 255              		.file 4 "Drivers/CMSIS/Device/ST/STM32H7xx/Include/stm32h743xx.h"
 256              		.file 5 "Drivers/CMSIS/Device/ST/STM32H7xx/Include/stm32h7xx.h"
 257              		.file 6 "Drivers/STM32H7xx_HAL_Driver/Inc/stm32h7xx_hal_def.h"
 258              		.file 7 "Drivers/STM32H7xx_HAL_Driver/Inc/stm32h7xx_hal_fdcan.h"
 259              		.file 8 "Core/Inc/vardef.h"
 260              		.file 9 "Core/Inc/main.h"
ARM GAS  /var/folders/d0/cymppscj10lcmm48h781wrc80000gn/T//ccgORTcb.s 			page 7

