ARM GAS  C:\Users\jisu8\AppData\Local\Temp\cclrJZzi.s 			page 1


   1              		.cpu cortex-m7
   2              		.arch armv7e-m
   3              		.fpu fpv5-d16
   4              		.eabi_attribute 28, 1
   5              		.eabi_attribute 20, 1
   6              		.eabi_attribute 21, 1
   7              		.eabi_attribute 23, 3
   8              		.eabi_attribute 24, 1
   9              		.eabi_attribute 25, 1
  10              		.eabi_attribute 26, 1
  11              		.eabi_attribute 30, 1
  12              		.eabi_attribute 34, 1
  13              		.eabi_attribute 18, 4
  14              		.file	"imu.c"
  15              		.text
  16              	.Ltext0:
  17              		.cfi_sections	.debug_frame
  18              		.section	.text.IMU_Read_Data,"ax",%progbits
  19              		.align	1
  20              		.syntax unified
  21              		.thumb
  22              		.thumb_func
  24              	IMU_Read_Data:
  25              	.LFB333:
  26              		.file 1 "Core/Src/imu.c"
   1:Core/Src/imu.c **** #include "imu.h"
   2:Core/Src/imu.c **** 
   3:Core/Src/imu.c **** static void IMU_Read_Data(void);
   4:Core/Src/imu.c **** IMU_BANK0_t IMU_BANK0;
   5:Core/Src/imu.c **** uint8 IMU_Address;
   6:Core/Src/imu.c **** void IMU_Control(void)
   7:Core/Src/imu.c **** {
   8:Core/Src/imu.c ****     IMU_Read_Data();
   9:Core/Src/imu.c **** }
  10:Core/Src/imu.c **** 
  11:Core/Src/imu.c **** void IMU_FindAddress(void)
  12:Core/Src/imu.c **** {
  13:Core/Src/imu.c ****     if(HAL_OK == HAL_I2C_IsDeviceReady(&IMU_MODULE,IMU_Address,3,10))
  14:Core/Src/imu.c ****     {
  15:Core/Src/imu.c ****         /*do noThing*/
  16:Core/Src/imu.c ****     }
  17:Core/Src/imu.c ****     else
  18:Core/Src/imu.c ****     {
  19:Core/Src/imu.c ****         IMU_Address++;
  20:Core/Src/imu.c ****     }
  21:Core/Src/imu.c **** }
  22:Core/Src/imu.c **** 
  23:Core/Src/imu.c **** static void IMU_Read_Data(void)
  24:Core/Src/imu.c **** {
  27              		.loc 1 24 1 view -0
  28              		.cfi_startproc
  29              		@ args = 0, pretend = 0, frame = 0
  30              		@ frame_needed = 0, uses_anonymous_args = 0
  31              		@ link register save eliminated.
  25:Core/Src/imu.c ****     IMU_BANK0.ACCEL_XOUT_H.ACCEL_XOUT_H = 0;
  32              		.loc 1 25 5 view .LVU1
  33              		.loc 1 25 41 is_stmt 0 view .LVU2
ARM GAS  C:\Users\jisu8\AppData\Local\Temp\cclrJZzi.s 			page 2


  34 0000 014B     		ldr	r3, .L2
  35 0002 0022     		movs	r2, #0
  36 0004 5A74     		strb	r2, [r3, #17]
  26:Core/Src/imu.c **** }...
  37              		.loc 1 26 1 view .LVU3
  38 0006 7047     		bx	lr
  39              	.L3:
  40              		.align	2
  41              	.L2:
  42 0008 00000000 		.word	.LANCHOR0
  43              		.cfi_endproc
  44              	.LFE333:
  46              		.section	.text.IMU_Control,"ax",%progbits
  47              		.align	1
  48              		.global	IMU_Control
  49              		.syntax unified
  50              		.thumb
  51              		.thumb_func
  53              	IMU_Control:
  54              	.LFB331:
   7:Core/Src/imu.c **** {
  55              		.loc 1 7 1 is_stmt 1 view -0
  56              		.cfi_startproc
  57              		@ args = 0, pretend = 0, frame = 0
  58              		@ frame_needed = 0, uses_anonymous_args = 0
  59 0000 08B5     		push	{r3, lr}
  60              	.LCFI0:
  61              		.cfi_def_cfa_offset 8
  62              		.cfi_offset 3, -8
  63              		.cfi_offset 14, -4
   8:Core/Src/imu.c ****     IMU_Read_Data();
  64              		.loc 1 8 5 view .LVU5
  65 0002 FFF7FEFF 		bl	IMU_Read_Data
  66              	.LVL0:
   9:Core/Src/imu.c **** }
  67              		.loc 1 9 1 is_stmt 0 view .LVU6
  68 0006 08BD     		pop	{r3, pc}
  69              		.cfi_endproc
  70              	.LFE331:
  72              		.section	.text.IMU_FindAddress,"ax",%progbits
  73              		.align	1
  74              		.global	IMU_FindAddress
  75              		.syntax unified
  76              		.thumb
  77              		.thumb_func
  79              	IMU_FindAddress:
  80              	.LFB332:
  12:Core/Src/imu.c **** {
  81              		.loc 1 12 1 is_stmt 1 view -0
  82              		.cfi_startproc
  83              		@ args = 0, pretend = 0, frame = 0
  84              		@ frame_needed = 0, uses_anonymous_args = 0
  85 0000 08B5     		push	{r3, lr}
  86              	.LCFI1:
  87              		.cfi_def_cfa_offset 8
  88              		.cfi_offset 3, -8
  89              		.cfi_offset 14, -4
ARM GAS  C:\Users\jisu8\AppData\Local\Temp\cclrJZzi.s 			page 3


  13:Core/Src/imu.c ****     if(HAL_OK == HAL_I2C_IsDeviceReady(&IMU_MODULE,IMU_Address,3,10))
  90              		.loc 1 13 5 view .LVU8
  13:Core/Src/imu.c ****     if(HAL_OK == HAL_I2C_IsDeviceReady(&IMU_MODULE,IMU_Address,3,10))
  91              		.loc 1 13 18 is_stmt 0 view .LVU9
  92 0002 0A23     		movs	r3, #10
  93 0004 0322     		movs	r2, #3
  94 0006 0549     		ldr	r1, .L9
  95 0008 0978     		ldrb	r1, [r1]	@ zero_extendqisi2
  96 000a 0548     		ldr	r0, .L9+4
  97 000c FFF7FEFF 		bl	HAL_I2C_IsDeviceReady
  98              	.LVL1:
  13:Core/Src/imu.c ****     if(HAL_OK == HAL_I2C_IsDeviceReady(&IMU_MODULE,IMU_Address,3,10))
  99              		.loc 1 13 7 view .LVU10
 100 0010 18B1     		cbz	r0, .L6
  19:Core/Src/imu.c ****         IMU_Address++;
 101              		.loc 1 19 9 is_stmt 1 view .LVU11
  19:Core/Src/imu.c ****         IMU_Address++;
 102              		.loc 1 19 20 is_stmt 0 view .LVU12
 103 0012 024A     		ldr	r2, .L9
 104 0014 1378     		ldrb	r3, [r2]	@ zero_extendqisi2
 105 0016 0133     		adds	r3, r3, #1
 106 0018 1370     		strb	r3, [r2]
 107              	.L6:
  21:Core/Src/imu.c **** }
 108              		.loc 1 21 1 view .LVU13
 109 001a 08BD     		pop	{r3, pc}
 110              	.L10:
 111              		.align	2
 112              	.L9:
 113 001c 00000000 		.word	.LANCHOR1
 114 0020 00000000 		.word	hi2c1
 115              		.cfi_endproc
 116              	.LFE332:
 118              		.global	IMU_Address
 119              		.global	IMU_BANK0
 120              		.section	.bss.IMU_Address,"aw",%nobits
 121              		.set	.LANCHOR1,. + 0
 124              	IMU_Address:
 125 0000 00       		.space	1
 126              		.section	.bss.IMU_BANK0,"aw",%nobits
 127              		.align	2
 128              		.set	.LANCHOR0,. + 0
 131              	IMU_BANK0:
 132 0000 00000000 		.space	65
 132      00000000 
 132      00000000 
 132      00000000 
 132      00000000 
 133              		.text
 134              	.Letext0:
 135              		.file 2 "d:\\3.tools\\arm_gcc_toolchain\\arm-none-eabi\\include\\machine\\_default_types.h"
 136              		.file 3 "d:\\3.tools\\arm_gcc_toolchain\\arm-none-eabi\\include\\sys\\_stdint.h"
 137              		.file 4 "Drivers/CMSIS/Device/ST/STM32H7xx/Include/stm32h743xx.h"
 138              		.file 5 "Drivers/STM32H7xx_HAL_Driver/Inc/stm32h7xx_hal_def.h"
 139              		.file 6 "Drivers/STM32H7xx_HAL_Driver/Inc/stm32h7xx_hal_dma.h"
 140              		.file 7 "Drivers/STM32H7xx_HAL_Driver/Inc/stm32h7xx_hal_i2c.h"
 141              		.file 8 "Core/Inc/vardef.h"
ARM GAS  C:\Users\jisu8\AppData\Local\Temp\cclrJZzi.s 			page 4


 142              		.file 9 "Core/Inc/imu.h"
 143              		.file 10 "Core/Inc/main.h"
ARM GAS  C:\Users\jisu8\AppData\Local\Temp\cclrJZzi.s 			page 5

