ARM GAS  /var/folders/d0/cymppscj10lcmm48h781wrc80000gn/T//ccLLv2IW.s 			page 1


   1              		.cpu cortex-m7
   2              		.arch armv7e-m
   3              		.fpu fpv5-d16
   4              		.eabi_attribute 28, 1
   5              		.eabi_attribute 20, 1
   6              		.eabi_attribute 21, 1
   7              		.eabi_attribute 23, 3
   8              		.eabi_attribute 24, 1
   9              		.eabi_attribute 25, 1
  10              		.eabi_attribute 26, 1
  11              		.eabi_attribute 30, 6
  12              		.eabi_attribute 34, 1
  13              		.eabi_attribute 18, 4
  14              		.file	"lcd.c"
  15              		.text
  16              	.Ltext0:
  17              		.cfi_sections	.debug_frame
  18              		.section	.text.LCD_Init,"ax",%progbits
  19              		.align	1
  20              		.global	LCD_Init
  21              		.syntax unified
  22              		.thumb
  23              		.thumb_func
  25              	LCD_Init:
  26              	.LFB333:
  27              		.file 1 "Core/Src/lcd.c"
   1:Core/Src/lcd.c **** #include "lcd.h"
   2:Core/Src/lcd.c **** static void LCD_Power_Control(uint8 status, uint8 duty);
   3:Core/Src/lcd.c **** static void LCD_Output_Red(uint8 data);
   4:Core/Src/lcd.c **** static void LCD_Output_Green(uint8 data);
   5:Core/Src/lcd.c **** static void LCD_Output_Blue(uint8 data);
   6:Core/Src/lcd.c **** 
   7:Core/Src/lcd.c **** void LCD_Init(void)
   8:Core/Src/lcd.c **** {
  28              		.loc 1 8 1
  29              		.cfi_startproc
  30              		@ args = 0, pretend = 0, frame = 0
  31              		@ frame_needed = 1, uses_anonymous_args = 0
  32 0000 80B5     		push	{r7, lr}
  33              	.LCFI0:
  34              		.cfi_def_cfa_offset 8
  35              		.cfi_offset 7, -8
  36              		.cfi_offset 14, -4
  37 0002 00AF     		add	r7, sp, #0
  38              	.LCFI1:
  39              		.cfi_def_cfa_register 7
   9:Core/Src/lcd.c ****     LCD_Power_Control(LCD_POWER_ON,100);
  40              		.loc 1 9 5
  41 0004 6421     		movs	r1, #100
  42 0006 0120     		movs	r0, #1
  43 0008 FFF7FEFF 		bl	LCD_Power_Control
  10:Core/Src/lcd.c **** }
  44              		.loc 1 10 1
  45 000c 00BF     		nop
  46 000e 80BD     		pop	{r7, pc}
  47              		.cfi_endproc
  48              	.LFE333:
ARM GAS  /var/folders/d0/cymppscj10lcmm48h781wrc80000gn/T//ccLLv2IW.s 			page 2


  50              		.section	.text.LCD_Power_Control,"ax",%progbits
  51              		.align	1
  52              		.syntax unified
  53              		.thumb
  54              		.thumb_func
  56              	LCD_Power_Control:
  57              	.LFB334:
  11:Core/Src/lcd.c **** 
  12:Core/Src/lcd.c **** static void LCD_Power_Control(uint8 status, uint8 duty)
  13:Core/Src/lcd.c **** {
  58              		.loc 1 13 1
  59              		.cfi_startproc
  60              		@ args = 0, pretend = 0, frame = 8
  61              		@ frame_needed = 1, uses_anonymous_args = 0
  62 0000 80B5     		push	{r7, lr}
  63              	.LCFI2:
  64              		.cfi_def_cfa_offset 8
  65              		.cfi_offset 7, -8
  66              		.cfi_offset 14, -4
  67 0002 82B0     		sub	sp, sp, #8
  68              	.LCFI3:
  69              		.cfi_def_cfa_offset 16
  70 0004 00AF     		add	r7, sp, #0
  71              	.LCFI4:
  72              		.cfi_def_cfa_register 7
  73 0006 0346     		mov	r3, r0
  74 0008 0A46     		mov	r2, r1
  75 000a FB71     		strb	r3, [r7, #7]
  76 000c 1346     		mov	r3, r2
  77 000e BB71     		strb	r3, [r7, #6]
  14:Core/Src/lcd.c ****     HAL_GPIO_WritePin(LCD_POWER_MODULE,LCD_POWER_PIN,status);
  78              		.loc 1 14 5
  79 0010 FB79     		ldrb	r3, [r7, #7]	@ zero_extendqisi2
  80 0012 1A46     		mov	r2, r3
  81 0014 4FF48071 		mov	r1, #256
  82 0018 0348     		ldr	r0, .L4
  83 001a FFF7FEFF 		bl	HAL_GPIO_WritePin
  15:Core/Src/lcd.c **** 
  16:Core/Src/lcd.c ****     return;
  84              		.loc 1 16 5
  85 001e 00BF     		nop
  17:Core/Src/lcd.c **** }
  86              		.loc 1 17 1
  87 0020 0837     		adds	r7, r7, #8
  88              	.LCFI5:
  89              		.cfi_def_cfa_offset 8
  90 0022 BD46     		mov	sp, r7
  91              	.LCFI6:
  92              		.cfi_def_cfa_register 13
  93              		@ sp needed
  94 0024 80BD     		pop	{r7, pc}
  95              	.L5:
  96 0026 00BF     		.align	2
  97              	.L4:
  98 0028 00200258 		.word	1476534272
  99              		.cfi_endproc
 100              	.LFE334:
ARM GAS  /var/folders/d0/cymppscj10lcmm48h781wrc80000gn/T//ccLLv2IW.s 			page 3


 102              		.section	.text.LCD_Set_Clock,"ax",%progbits
 103              		.align	1
 104              		.global	LCD_Set_Clock
 105              		.syntax unified
 106              		.thumb
 107              		.thumb_func
 109              	LCD_Set_Clock:
 110              	.LFB335:
  18:Core/Src/lcd.c **** 
  19:Core/Src/lcd.c **** void LCD_Set_Clock(void)
  20:Core/Src/lcd.c **** {
 111              		.loc 1 20 1
 112              		.cfi_startproc
 113              		@ args = 0, pretend = 0, frame = 0
 114              		@ frame_needed = 1, uses_anonymous_args = 0
 115 0000 80B5     		push	{r7, lr}
 116              	.LCFI7:
 117              		.cfi_def_cfa_offset 8
 118              		.cfi_offset 7, -8
 119              		.cfi_offset 14, -4
 120 0002 00AF     		add	r7, sp, #0
 121              	.LCFI8:
 122              		.cfi_def_cfa_register 7
  21:Core/Src/lcd.c ****     static uint8 state;
  22:Core/Src/lcd.c ****     static uint8 counter;
  23:Core/Src/lcd.c ****     state = (~state)&0x01;
 123              		.loc 1 23 21
 124 0004 234B     		ldr	r3, .L12
 125 0006 1B78     		ldrb	r3, [r3]	@ zero_extendqisi2
 126 0008 03F00103 		and	r3, r3, #1
 127 000c 002B     		cmp	r3, #0
 128 000e 0CBF     		ite	eq
 129 0010 0123     		moveq	r3, #1
 130 0012 0023     		movne	r3, #0
 131 0014 DBB2     		uxtb	r3, r3
 132 0016 1A46     		mov	r2, r3
 133              		.loc 1 23 11
 134 0018 1E4B     		ldr	r3, .L12
 135 001a 1A70     		strb	r2, [r3]
  24:Core/Src/lcd.c **** 
  25:Core/Src/lcd.c ****     if(counter<16)
 136              		.loc 1 25 15
 137 001c 1E4B     		ldr	r3, .L12+4
 138 001e 1B78     		ldrb	r3, [r3]	@ zero_extendqisi2
 139              		.loc 1 25 7
 140 0020 0F2B     		cmp	r3, #15
 141 0022 06D8     		bhi	.L7
  26:Core/Src/lcd.c ****     {
  27:Core/Src/lcd.c ****         HAL_GPIO_WritePin(LCD_DE_MODULE,LCD_DE_PIN,LCD_DE_ON);
 142              		.loc 1 27 9
 143 0024 0122     		movs	r2, #1
 144 0026 4FF48061 		mov	r1, #1024
 145 002a 1C48     		ldr	r0, .L12+8
 146 002c FFF7FEFF 		bl	HAL_GPIO_WritePin
 147 0030 20E0     		b	.L8
 148              	.L7:
  28:Core/Src/lcd.c ****     }
ARM GAS  /var/folders/d0/cymppscj10lcmm48h781wrc80000gn/T//ccLLv2IW.s 			page 4


  29:Core/Src/lcd.c ****     else
  30:Core/Src/lcd.c ****     {
  31:Core/Src/lcd.c ****         HAL_GPIO_WritePin(LCD_DE_MODULE,LCD_DE_PIN,LCD_DE_OFF);
 149              		.loc 1 31 9
 150 0032 0022     		movs	r2, #0
 151 0034 4FF48061 		mov	r1, #1024
 152 0038 1848     		ldr	r0, .L12+8
 153 003a FFF7FEFF 		bl	HAL_GPIO_WritePin
  32:Core/Src/lcd.c ****         if(counter == 17)
 154              		.loc 1 32 20
 155 003e 164B     		ldr	r3, .L12+4
 156 0040 1B78     		ldrb	r3, [r3]	@ zero_extendqisi2
 157              		.loc 1 32 11
 158 0042 112B     		cmp	r3, #17
 159 0044 05D1     		bne	.L9
  33:Core/Src/lcd.c ****         {
  34:Core/Src/lcd.c ****             HAL_GPIO_WritePin(LCD_HSYNC_MODULE,LCD_HSYNC_PIN,LCD_HSYNC_OFF);
 160              		.loc 1 34 13
 161 0046 0022     		movs	r2, #0
 162 0048 4FF48061 		mov	r1, #1024
 163 004c 1448     		ldr	r0, .L12+12
 164 004e FFF7FEFF 		bl	HAL_GPIO_WritePin
 165              	.L9:
  35:Core/Src/lcd.c ****         }
  36:Core/Src/lcd.c ****         if(counter == 18)
 166              		.loc 1 36 20
 167 0052 114B     		ldr	r3, .L12+4
 168 0054 1B78     		ldrb	r3, [r3]	@ zero_extendqisi2
 169              		.loc 1 36 11
 170 0056 122B     		cmp	r3, #18
 171 0058 05D1     		bne	.L10
  37:Core/Src/lcd.c ****         {
  38:Core/Src/lcd.c ****             HAL_GPIO_WritePin(LCD_HSYNC_MODULE,LCD_HSYNC_PIN,LCD_HSYNC_ON);
 172              		.loc 1 38 13
 173 005a 0122     		movs	r2, #1
 174 005c 4FF48061 		mov	r1, #1024
 175 0060 0F48     		ldr	r0, .L12+12
 176 0062 FFF7FEFF 		bl	HAL_GPIO_WritePin
 177              	.L10:
  39:Core/Src/lcd.c ****         }
  40:Core/Src/lcd.c ****         if(counter == 19)
 178              		.loc 1 40 20
 179 0066 0C4B     		ldr	r3, .L12+4
 180 0068 1B78     		ldrb	r3, [r3]	@ zero_extendqisi2
 181              		.loc 1 40 11
 182 006a 132B     		cmp	r3, #19
 183 006c 02D1     		bne	.L8
  41:Core/Src/lcd.c ****         {
  42:Core/Src/lcd.c ****             counter = 0;
 184              		.loc 1 42 21
 185 006e 0A4B     		ldr	r3, .L12+4
 186 0070 0022     		movs	r2, #0
 187 0072 1A70     		strb	r2, [r3]
 188              	.L8:
  43:Core/Src/lcd.c ****         }
  44:Core/Src/lcd.c ****     }
  45:Core/Src/lcd.c ****     counter++;
ARM GAS  /var/folders/d0/cymppscj10lcmm48h781wrc80000gn/T//ccLLv2IW.s 			page 5


 189              		.loc 1 45 12
 190 0074 084B     		ldr	r3, .L12+4
 191 0076 1B78     		ldrb	r3, [r3]	@ zero_extendqisi2
 192 0078 0133     		adds	r3, r3, #1
 193 007a DAB2     		uxtb	r2, r3
 194 007c 064B     		ldr	r3, .L12+4
 195 007e 1A70     		strb	r2, [r3]
  46:Core/Src/lcd.c **** 
  47:Core/Src/lcd.c ****     HAL_GPIO_WritePin(LCD_CLK_MODULE,LCD_CLK_PIN,state);
 196              		.loc 1 47 5
 197 0080 044B     		ldr	r3, .L12
 198 0082 1B78     		ldrb	r3, [r3]	@ zero_extendqisi2
 199 0084 1A46     		mov	r2, r3
 200 0086 8021     		movs	r1, #128
 201 0088 0648     		ldr	r0, .L12+16
 202 008a FFF7FEFF 		bl	HAL_GPIO_WritePin
  48:Core/Src/lcd.c ****     return;
 203              		.loc 1 48 5
 204 008e 00BF     		nop
  49:Core/Src/lcd.c **** }
 205              		.loc 1 49 1
 206 0090 80BD     		pop	{r7, pc}
 207              	.L13:
 208 0092 00BF     		.align	2
 209              	.L12:
 210 0094 00000000 		.word	state.1
 211 0098 00000000 		.word	counter.0
 212 009c 00140258 		.word	1476531200
 213 00a0 00200258 		.word	1476534272
 214 00a4 00180258 		.word	1476532224
 215              		.cfi_endproc
 216              	.LFE335:
 218              		.section	.text.LCD_Set_Color,"ax",%progbits
 219              		.align	1
 220              		.global	LCD_Set_Color
 221              		.syntax unified
 222              		.thumb
 223              		.thumb_func
 225              	LCD_Set_Color:
 226              	.LFB336:
  50:Core/Src/lcd.c **** 
  51:Core/Src/lcd.c **** void LCD_Set_Color(void)
  52:Core/Src/lcd.c **** {
 227              		.loc 1 52 1
 228              		.cfi_startproc
 229              		@ args = 0, pretend = 0, frame = 0
 230              		@ frame_needed = 1, uses_anonymous_args = 0
 231 0000 80B5     		push	{r7, lr}
 232              	.LCFI9:
 233              		.cfi_def_cfa_offset 8
 234              		.cfi_offset 7, -8
 235              		.cfi_offset 14, -4
 236 0002 00AF     		add	r7, sp, #0
 237              	.LCFI10:
 238              		.cfi_def_cfa_register 7
  53:Core/Src/lcd.c ****     LCD_Output_Red(255);
 239              		.loc 1 53 5
ARM GAS  /var/folders/d0/cymppscj10lcmm48h781wrc80000gn/T//ccLLv2IW.s 			page 6


 240 0004 FF20     		movs	r0, #255
 241 0006 FFF7FEFF 		bl	LCD_Output_Red
  54:Core/Src/lcd.c ****     LCD_Output_Green(255);
 242              		.loc 1 54 5
 243 000a FF20     		movs	r0, #255
 244 000c FFF7FEFF 		bl	LCD_Output_Green
  55:Core/Src/lcd.c ****     LCD_Output_Blue(255);
 245              		.loc 1 55 5
 246 0010 FF20     		movs	r0, #255
 247 0012 FFF7FEFF 		bl	LCD_Output_Blue
  56:Core/Src/lcd.c **** 
  57:Core/Src/lcd.c ****     return;
 248              		.loc 1 57 5
 249 0016 00BF     		nop
  58:Core/Src/lcd.c **** }
 250              		.loc 1 58 1
 251 0018 80BD     		pop	{r7, pc}
 252              		.cfi_endproc
 253              	.LFE336:
 255              		.section	.text.LCD_Output_Red,"ax",%progbits
 256              		.align	1
 257              		.syntax unified
 258              		.thumb
 259              		.thumb_func
 261              	LCD_Output_Red:
 262              	.LFB337:
  59:Core/Src/lcd.c **** 
  60:Core/Src/lcd.c **** static void LCD_Output_Red(uint8 data)
  61:Core/Src/lcd.c **** {
 263              		.loc 1 61 1
 264              		.cfi_startproc
 265              		@ args = 0, pretend = 0, frame = 8
 266              		@ frame_needed = 1, uses_anonymous_args = 0
 267 0000 80B5     		push	{r7, lr}
 268              	.LCFI11:
 269              		.cfi_def_cfa_offset 8
 270              		.cfi_offset 7, -8
 271              		.cfi_offset 14, -4
 272 0002 82B0     		sub	sp, sp, #8
 273              	.LCFI12:
 274              		.cfi_def_cfa_offset 16
 275 0004 00AF     		add	r7, sp, #0
 276              	.LCFI13:
 277              		.cfi_def_cfa_register 7
 278 0006 0346     		mov	r3, r0
 279 0008 FB71     		strb	r3, [r7, #7]
  62:Core/Src/lcd.c ****     HAL_GPIO_WritePin(LCD_R0_MODULE,LCD_R0_PIN,((data)&0x01));
 280              		.loc 1 62 55
 281 000a FB79     		ldrb	r3, [r7, #7]
 282 000c 03F00103 		and	r3, r3, #1
 283 0010 DBB2     		uxtb	r3, r3
 284              		.loc 1 62 5
 285 0012 1A46     		mov	r2, r3
 286 0014 0421     		movs	r1, #4
 287 0016 2A48     		ldr	r0, .L18
 288 0018 FFF7FEFF 		bl	HAL_GPIO_WritePin
  63:Core/Src/lcd.c ****     HAL_GPIO_WritePin(LCD_R1_MODULE,LCD_R1_PIN,((data>>1)&0x01));
ARM GAS  /var/folders/d0/cymppscj10lcmm48h781wrc80000gn/T//ccLLv2IW.s 			page 7


 289              		.loc 1 63 5
 290 001c FB79     		ldrb	r3, [r7, #7]	@ zero_extendqisi2
 291 001e 5B08     		lsrs	r3, r3, #1
 292 0020 DBB2     		uxtb	r3, r3
 293              		.loc 1 63 58
 294 0022 03F00103 		and	r3, r3, #1
 295 0026 DBB2     		uxtb	r3, r3
 296              		.loc 1 63 5
 297 0028 1A46     		mov	r2, r3
 298 002a 0821     		movs	r1, #8
 299 002c 2448     		ldr	r0, .L18
 300 002e FFF7FEFF 		bl	HAL_GPIO_WritePin
  64:Core/Src/lcd.c ****     HAL_GPIO_WritePin(LCD_R2_MODULE,LCD_R2_PIN,((data>>2)&0x01));
 301              		.loc 1 64 5
 302 0032 FB79     		ldrb	r3, [r7, #7]	@ zero_extendqisi2
 303 0034 9B08     		lsrs	r3, r3, #2
 304 0036 DBB2     		uxtb	r3, r3
 305              		.loc 1 64 58
 306 0038 03F00103 		and	r3, r3, #1
 307 003c DBB2     		uxtb	r3, r3
 308              		.loc 1 64 5
 309 003e 1A46     		mov	r2, r3
 310 0040 4FF48071 		mov	r1, #256
 311 0044 1E48     		ldr	r0, .L18
 312 0046 FFF7FEFF 		bl	HAL_GPIO_WritePin
  65:Core/Src/lcd.c ****     HAL_GPIO_WritePin(LCD_R3_MODULE,LCD_R3_PIN,((data>>3)&0x01));
 313              		.loc 1 65 5
 314 004a FB79     		ldrb	r3, [r7, #7]	@ zero_extendqisi2
 315 004c DB08     		lsrs	r3, r3, #3
 316 004e DBB2     		uxtb	r3, r3
 317              		.loc 1 65 58
 318 0050 03F00103 		and	r3, r3, #1
 319 0054 DBB2     		uxtb	r3, r3
 320              		.loc 1 65 5
 321 0056 1A46     		mov	r2, r3
 322 0058 4FF40071 		mov	r1, #512
 323 005c 1848     		ldr	r0, .L18
 324 005e FFF7FEFF 		bl	HAL_GPIO_WritePin
  66:Core/Src/lcd.c ****     HAL_GPIO_WritePin(LCD_R4_MODULE,LCD_R4_PIN,((data>>4)&0x01));
 325              		.loc 1 66 5
 326 0062 FB79     		ldrb	r3, [r7, #7]	@ zero_extendqisi2
 327 0064 1B09     		lsrs	r3, r3, #4
 328 0066 DBB2     		uxtb	r3, r3
 329              		.loc 1 66 58
 330 0068 03F00103 		and	r3, r3, #1
 331 006c DBB2     		uxtb	r3, r3
 332              		.loc 1 66 5
 333 006e 1A46     		mov	r2, r3
 334 0070 4FF48061 		mov	r1, #1024
 335 0074 1248     		ldr	r0, .L18
 336 0076 FFF7FEFF 		bl	HAL_GPIO_WritePin
  67:Core/Src/lcd.c ****     HAL_GPIO_WritePin(LCD_R5_MODULE,LCD_R5_PIN,((data>>5)&0x01));
 337              		.loc 1 67 5
 338 007a FB79     		ldrb	r3, [r7, #7]	@ zero_extendqisi2
 339 007c 5B09     		lsrs	r3, r3, #5
 340 007e DBB2     		uxtb	r3, r3
 341              		.loc 1 67 58
ARM GAS  /var/folders/d0/cymppscj10lcmm48h781wrc80000gn/T//ccLLv2IW.s 			page 8


 342 0080 03F00103 		and	r3, r3, #1
 343 0084 DBB2     		uxtb	r3, r3
 344              		.loc 1 67 5
 345 0086 1A46     		mov	r2, r3
 346 0088 0121     		movs	r1, #1
 347 008a 0E48     		ldr	r0, .L18+4
 348 008c FFF7FEFF 		bl	HAL_GPIO_WritePin
  68:Core/Src/lcd.c ****     HAL_GPIO_WritePin(LCD_R6_MODULE,LCD_R6_PIN,((data>>6)&0x01));
 349              		.loc 1 68 5
 350 0090 FB79     		ldrb	r3, [r7, #7]	@ zero_extendqisi2
 351 0092 9B09     		lsrs	r3, r3, #6
 352 0094 DBB2     		uxtb	r3, r3
 353              		.loc 1 68 58
 354 0096 03F00103 		and	r3, r3, #1
 355 009a DBB2     		uxtb	r3, r3
 356              		.loc 1 68 5
 357 009c 1A46     		mov	r2, r3
 358 009e 0221     		movs	r1, #2
 359 00a0 0948     		ldr	r0, .L18+8
 360 00a2 FFF7FEFF 		bl	HAL_GPIO_WritePin
  69:Core/Src/lcd.c ****     HAL_GPIO_WritePin(LCD_R7_MODULE,LCD_R7_PIN,((data>>7)&0x01));
 361              		.loc 1 69 5
 362 00a6 FB79     		ldrb	r3, [r7, #7]	@ zero_extendqisi2
 363 00a8 DB09     		lsrs	r3, r3, #7
 364 00aa DBB2     		uxtb	r3, r3
 365 00ac 1A46     		mov	r2, r3
 366 00ae 4021     		movs	r1, #64
 367 00b0 0648     		ldr	r0, .L18+12
 368 00b2 FFF7FEFF 		bl	HAL_GPIO_WritePin
  70:Core/Src/lcd.c ****     return;
 369              		.loc 1 70 5
 370 00b6 00BF     		nop
  71:Core/Src/lcd.c **** }
 371              		.loc 1 71 1
 372 00b8 0837     		adds	r7, r7, #8
 373              	.LCFI14:
 374              		.cfi_def_cfa_offset 8
 375 00ba BD46     		mov	sp, r7
 376              	.LCFI15:
 377              		.cfi_def_cfa_register 13
 378              		@ sp needed
 379 00bc 80BD     		pop	{r7, pc}
 380              	.L19:
 381 00be 00BF     		.align	2
 382              	.L18:
 383 00c0 001C0258 		.word	1476533248
 384 00c4 00080258 		.word	1476528128
 385 00c8 00040258 		.word	1476527104
 386 00cc 00180258 		.word	1476532224
 387              		.cfi_endproc
 388              	.LFE337:
 390              		.section	.text.LCD_Output_Green,"ax",%progbits
 391              		.align	1
 392              		.syntax unified
 393              		.thumb
 394              		.thumb_func
 396              	LCD_Output_Green:
ARM GAS  /var/folders/d0/cymppscj10lcmm48h781wrc80000gn/T//ccLLv2IW.s 			page 9


 397              	.LFB338:
  72:Core/Src/lcd.c **** 
  73:Core/Src/lcd.c **** static void LCD_Output_Green(uint8 data)
  74:Core/Src/lcd.c **** {
 398              		.loc 1 74 1
 399              		.cfi_startproc
 400              		@ args = 0, pretend = 0, frame = 8
 401              		@ frame_needed = 1, uses_anonymous_args = 0
 402 0000 80B5     		push	{r7, lr}
 403              	.LCFI16:
 404              		.cfi_def_cfa_offset 8
 405              		.cfi_offset 7, -8
 406              		.cfi_offset 14, -4
 407 0002 82B0     		sub	sp, sp, #8
 408              	.LCFI17:
 409              		.cfi_def_cfa_offset 16
 410 0004 00AF     		add	r7, sp, #0
 411              	.LCFI18:
 412              		.cfi_def_cfa_register 7
 413 0006 0346     		mov	r3, r0
 414 0008 FB71     		strb	r3, [r7, #7]
  75:Core/Src/lcd.c ****     HAL_GPIO_WritePin(LCD_G0_MODULE,LCD_G0_PIN,((data)&0x01));
 415              		.loc 1 75 55
 416 000a FB79     		ldrb	r3, [r7, #7]
 417 000c 03F00103 		and	r3, r3, #1
 418 0010 DBB2     		uxtb	r3, r3
 419              		.loc 1 75 5
 420 0012 1A46     		mov	r2, r3
 421 0014 2021     		movs	r1, #32
 422 0016 2A48     		ldr	r0, .L22
 423 0018 FFF7FEFF 		bl	HAL_GPIO_WritePin
  76:Core/Src/lcd.c ****     HAL_GPIO_WritePin(LCD_G1_MODULE,LCD_G1_PIN,((data>>1)&0x01));
 424              		.loc 1 76 5
 425 001c FB79     		ldrb	r3, [r7, #7]	@ zero_extendqisi2
 426 001e 5B08     		lsrs	r3, r3, #1
 427 0020 DBB2     		uxtb	r3, r3
 428              		.loc 1 76 58
 429 0022 03F00103 		and	r3, r3, #1
 430 0026 DBB2     		uxtb	r3, r3
 431              		.loc 1 76 5
 432 0028 1A46     		mov	r2, r3
 433 002a 4021     		movs	r1, #64
 434 002c 2448     		ldr	r0, .L22
 435 002e FFF7FEFF 		bl	HAL_GPIO_WritePin
  77:Core/Src/lcd.c ****     HAL_GPIO_WritePin(LCD_G2_MODULE,LCD_G2_PIN,((data>>2)&0x01));
 436              		.loc 1 77 5
 437 0032 FB79     		ldrb	r3, [r7, #7]	@ zero_extendqisi2
 438 0034 9B08     		lsrs	r3, r3, #2
 439 0036 DBB2     		uxtb	r3, r3
 440              		.loc 1 77 58
 441 0038 03F00103 		and	r3, r3, #1
 442 003c DBB2     		uxtb	r3, r3
 443              		.loc 1 77 5
 444 003e 1A46     		mov	r2, r3
 445 0040 4FF40051 		mov	r1, #8192
 446 0044 1F48     		ldr	r0, .L22+4
 447 0046 FFF7FEFF 		bl	HAL_GPIO_WritePin
ARM GAS  /var/folders/d0/cymppscj10lcmm48h781wrc80000gn/T//ccLLv2IW.s 			page 10


  78:Core/Src/lcd.c ****     HAL_GPIO_WritePin(LCD_G3_MODULE,LCD_G3_PIN,((data>>3)&0x01));
 448              		.loc 1 78 5
 449 004a FB79     		ldrb	r3, [r7, #7]	@ zero_extendqisi2
 450 004c DB08     		lsrs	r3, r3, #3
 451 004e DBB2     		uxtb	r3, r3
 452              		.loc 1 78 58
 453 0050 03F00103 		and	r3, r3, #1
 454 0054 DBB2     		uxtb	r3, r3
 455              		.loc 1 78 5
 456 0056 1A46     		mov	r2, r3
 457 0058 4FF48061 		mov	r1, #1024
 458 005c 1A48     		ldr	r0, .L22+8
 459 005e FFF7FEFF 		bl	HAL_GPIO_WritePin
  79:Core/Src/lcd.c ****     HAL_GPIO_WritePin(LCD_G4_MODULE,LCD_G4_PIN,((data>>4)&0x01));
 460              		.loc 1 79 5
 461 0062 FB79     		ldrb	r3, [r7, #7]	@ zero_extendqisi2
 462 0064 1B09     		lsrs	r3, r3, #4
 463 0066 DBB2     		uxtb	r3, r3
 464              		.loc 1 79 58
 465 0068 03F00103 		and	r3, r3, #1
 466 006c DBB2     		uxtb	r3, r3
 467              		.loc 1 79 5
 468 006e 1A46     		mov	r2, r3
 469 0070 4FF40041 		mov	r1, #32768
 470 0074 1348     		ldr	r0, .L22+4
 471 0076 FFF7FEFF 		bl	HAL_GPIO_WritePin
  80:Core/Src/lcd.c ****     HAL_GPIO_WritePin(LCD_G5_MODULE,LCD_G5_PIN,((data>>5)&0x01));
 472              		.loc 1 80 5
 473 007a FB79     		ldrb	r3, [r7, #7]	@ zero_extendqisi2
 474 007c 5B09     		lsrs	r3, r3, #5
 475 007e DBB2     		uxtb	r3, r3
 476              		.loc 1 80 58
 477 0080 03F00103 		and	r3, r3, #1
 478 0084 DBB2     		uxtb	r3, r3
 479              		.loc 1 80 5
 480 0086 1A46     		mov	r2, r3
 481 0088 0121     		movs	r1, #1
 482 008a 1048     		ldr	r0, .L22+12
 483 008c FFF7FEFF 		bl	HAL_GPIO_WritePin
  81:Core/Src/lcd.c ****     HAL_GPIO_WritePin(LCD_G6_MODULE,LCD_G6_PIN,((data>>6)&0x01));
 484              		.loc 1 81 5
 485 0090 FB79     		ldrb	r3, [r7, #7]	@ zero_extendqisi2
 486 0092 9B09     		lsrs	r3, r3, #6
 487 0094 DBB2     		uxtb	r3, r3
 488              		.loc 1 81 58
 489 0096 03F00103 		and	r3, r3, #1
 490 009a DBB2     		uxtb	r3, r3
 491              		.loc 1 81 5
 492 009c 1A46     		mov	r2, r3
 493 009e 0221     		movs	r1, #2
 494 00a0 0A48     		ldr	r0, .L22+12
 495 00a2 FFF7FEFF 		bl	HAL_GPIO_WritePin
  82:Core/Src/lcd.c ****     HAL_GPIO_WritePin(LCD_G7_MODULE,LCD_G7_PIN,((data>>7)&0x01));
 496              		.loc 1 82 5
 497 00a6 FB79     		ldrb	r3, [r7, #7]	@ zero_extendqisi2
 498 00a8 DB09     		lsrs	r3, r3, #7
 499 00aa DBB2     		uxtb	r3, r3
ARM GAS  /var/folders/d0/cymppscj10lcmm48h781wrc80000gn/T//ccLLv2IW.s 			page 11


 500 00ac 1A46     		mov	r2, r3
 501 00ae 0421     		movs	r1, #4
 502 00b0 0648     		ldr	r0, .L22+12
 503 00b2 FFF7FEFF 		bl	HAL_GPIO_WritePin
  83:Core/Src/lcd.c ****     return;
 504              		.loc 1 83 5
 505 00b6 00BF     		nop
  84:Core/Src/lcd.c **** }
 506              		.loc 1 84 1
 507 00b8 0837     		adds	r7, r7, #8
 508              	.LCFI19:
 509              		.cfi_def_cfa_offset 8
 510 00ba BD46     		mov	sp, r7
 511              	.LCFI20:
 512              		.cfi_def_cfa_register 13
 513              		@ sp needed
 514 00bc 80BD     		pop	{r7, pc}
 515              	.L23:
 516 00be 00BF     		.align	2
 517              	.L22:
 518 00c0 00100258 		.word	1476530176
 519 00c4 001C0258 		.word	1476533248
 520 00c8 00180258 		.word	1476532224
 521 00cc 00200258 		.word	1476534272
 522              		.cfi_endproc
 523              	.LFE338:
 525              		.section	.text.LCD_Output_Blue,"ax",%progbits
 526              		.align	1
 527              		.syntax unified
 528              		.thumb
 529              		.thumb_func
 531              	LCD_Output_Blue:
 532              	.LFB339:
  85:Core/Src/lcd.c **** 
  86:Core/Src/lcd.c **** static void LCD_Output_Blue(uint8 data)
  87:Core/Src/lcd.c **** {
 533              		.loc 1 87 1
 534              		.cfi_startproc
 535              		@ args = 0, pretend = 0, frame = 8
 536              		@ frame_needed = 1, uses_anonymous_args = 0
 537 0000 80B5     		push	{r7, lr}
 538              	.LCFI21:
 539              		.cfi_def_cfa_offset 8
 540              		.cfi_offset 7, -8
 541              		.cfi_offset 14, -4
 542 0002 82B0     		sub	sp, sp, #8
 543              	.LCFI22:
 544              		.cfi_def_cfa_offset 16
 545 0004 00AF     		add	r7, sp, #0
 546              	.LCFI23:
 547              		.cfi_def_cfa_register 7
 548 0006 0346     		mov	r3, r0
 549 0008 FB71     		strb	r3, [r7, #7]
  88:Core/Src/lcd.c ****     HAL_GPIO_WritePin(LCD_B0_MODULE,LCD_B0_PIN,((data)&0x01));
 550              		.loc 1 88 55
 551 000a FB79     		ldrb	r3, [r7, #7]
 552 000c 03F00103 		and	r3, r3, #1
ARM GAS  /var/folders/d0/cymppscj10lcmm48h781wrc80000gn/T//ccLLv2IW.s 			page 12


 553 0010 DBB2     		uxtb	r3, r3
 554              		.loc 1 88 5
 555 0012 1A46     		mov	r2, r3
 556 0014 1021     		movs	r1, #16
 557 0016 2948     		ldr	r0, .L26
 558 0018 FFF7FEFF 		bl	HAL_GPIO_WritePin
  89:Core/Src/lcd.c ****     HAL_GPIO_WritePin(LCD_B1_MODULE,LCD_B1_PIN,((data>>1)&0x01));
 559              		.loc 1 89 5
 560 001c FB79     		ldrb	r3, [r7, #7]	@ zero_extendqisi2
 561 001e 5B08     		lsrs	r3, r3, #1
 562 0020 DBB2     		uxtb	r3, r3
 563              		.loc 1 89 58
 564 0022 03F00103 		and	r3, r3, #1
 565 0026 DBB2     		uxtb	r3, r3
 566              		.loc 1 89 5
 567 0028 1A46     		mov	r2, r3
 568 002a 4FF48051 		mov	r1, #4096
 569 002e 2448     		ldr	r0, .L26+4
 570 0030 FFF7FEFF 		bl	HAL_GPIO_WritePin
  90:Core/Src/lcd.c ****     HAL_GPIO_WritePin(LCD_B2_MODULE,LCD_B2_PIN,((data>>2)&0x01));
 571              		.loc 1 90 5
 572 0034 FB79     		ldrb	r3, [r7, #7]	@ zero_extendqisi2
 573 0036 9B08     		lsrs	r3, r3, #2
 574 0038 DBB2     		uxtb	r3, r3
 575              		.loc 1 90 58
 576 003a 03F00103 		and	r3, r3, #1
 577 003e DBB2     		uxtb	r3, r3
 578              		.loc 1 90 5
 579 0040 1A46     		mov	r2, r3
 580 0042 4021     		movs	r1, #64
 581 0044 1F48     		ldr	r0, .L26+8
 582 0046 FFF7FEFF 		bl	HAL_GPIO_WritePin
  91:Core/Src/lcd.c ****     HAL_GPIO_WritePin(LCD_B3_MODULE,LCD_B3_PIN,((data>>3)&0x01));
 583              		.loc 1 91 5
 584 004a FB79     		ldrb	r3, [r7, #7]	@ zero_extendqisi2
 585 004c DB08     		lsrs	r3, r3, #3
 586 004e DBB2     		uxtb	r3, r3
 587              		.loc 1 91 58
 588 0050 03F00103 		and	r3, r3, #1
 589 0054 DBB2     		uxtb	r3, r3
 590              		.loc 1 91 5
 591 0056 1A46     		mov	r2, r3
 592 0058 4FF40061 		mov	r1, #2048
 593 005c 1848     		ldr	r0, .L26+4
 594 005e FFF7FEFF 		bl	HAL_GPIO_WritePin
  92:Core/Src/lcd.c ****     HAL_GPIO_WritePin(LCD_B4_MODULE,LCD_B4_PIN,((data>>4)&0x01));
 595              		.loc 1 92 5
 596 0062 FB79     		ldrb	r3, [r7, #7]	@ zero_extendqisi2
 597 0064 1B09     		lsrs	r3, r3, #4
 598 0066 DBB2     		uxtb	r3, r3
 599              		.loc 1 92 58
 600 0068 03F00103 		and	r3, r3, #1
 601 006c DBB2     		uxtb	r3, r3
 602              		.loc 1 92 5
 603 006e 1A46     		mov	r2, r3
 604 0070 1021     		movs	r1, #16
 605 0072 1548     		ldr	r0, .L26+12
ARM GAS  /var/folders/d0/cymppscj10lcmm48h781wrc80000gn/T//ccLLv2IW.s 			page 13


 606 0074 FFF7FEFF 		bl	HAL_GPIO_WritePin
  93:Core/Src/lcd.c ****     HAL_GPIO_WritePin(LCD_B5_MODULE,LCD_B5_PIN,((data>>5)&0x01));
 607              		.loc 1 93 5
 608 0078 FB79     		ldrb	r3, [r7, #7]	@ zero_extendqisi2
 609 007a 5B09     		lsrs	r3, r3, #5
 610 007c DBB2     		uxtb	r3, r3
 611              		.loc 1 93 58
 612 007e 03F00103 		and	r3, r3, #1
 613 0082 DBB2     		uxtb	r3, r3
 614              		.loc 1 93 5
 615 0084 1A46     		mov	r2, r3
 616 0086 2021     		movs	r1, #32
 617 0088 0F48     		ldr	r0, .L26+12
 618 008a FFF7FEFF 		bl	HAL_GPIO_WritePin
  94:Core/Src/lcd.c ****     HAL_GPIO_WritePin(LCD_B6_MODULE,LCD_B6_PIN,((data>>6)&0x01));
 619              		.loc 1 94 5
 620 008e FB79     		ldrb	r3, [r7, #7]	@ zero_extendqisi2
 621 0090 9B09     		lsrs	r3, r3, #6
 622 0092 DBB2     		uxtb	r3, r3
 623              		.loc 1 94 58
 624 0094 03F00103 		and	r3, r3, #1
 625 0098 DBB2     		uxtb	r3, r3
 626              		.loc 1 94 5
 627 009a 1A46     		mov	r2, r3
 628 009c 4021     		movs	r1, #64
 629 009e 0A48     		ldr	r0, .L26+12
 630 00a0 FFF7FEFF 		bl	HAL_GPIO_WritePin
  95:Core/Src/lcd.c ****     HAL_GPIO_WritePin(LCD_B7_MODULE,LCD_B7_PIN,((data>>7)&0x01));
 631              		.loc 1 95 5
 632 00a4 FB79     		ldrb	r3, [r7, #7]	@ zero_extendqisi2
 633 00a6 DB09     		lsrs	r3, r3, #7
 634 00a8 DBB2     		uxtb	r3, r3
 635 00aa 1A46     		mov	r2, r3
 636 00ac 8021     		movs	r1, #128
 637 00ae 0648     		ldr	r0, .L26+12
 638 00b0 FFF7FEFF 		bl	HAL_GPIO_WritePin
  96:Core/Src/lcd.c ****     return;
 639              		.loc 1 96 5
 640 00b4 00BF     		nop
  97:Core/Src/lcd.c **** }...
 641              		.loc 1 97 1
 642 00b6 0837     		adds	r7, r7, #8
 643              	.LCFI24:
 644              		.cfi_def_cfa_offset 8
 645 00b8 BD46     		mov	sp, r7
 646              	.LCFI25:
 647              		.cfi_def_cfa_register 13
 648              		@ sp needed
 649 00ba 80BD     		pop	{r7, pc}
 650              	.L27:
 651              		.align	2
 652              	.L26:
 653 00bc 00100258 		.word	1476530176
 654 00c0 00180258 		.word	1476532224
 655 00c4 000C0258 		.word	1476529152
 656 00c8 00200258 		.word	1476534272
 657              		.cfi_endproc
ARM GAS  /var/folders/d0/cymppscj10lcmm48h781wrc80000gn/T//ccLLv2IW.s 			page 14


 658              	.LFE339:
 660              		.section	.bss.state.1,"aw",%nobits
 663              	state.1:
 664 0000 00       		.space	1
 665              		.section	.bss.counter.0,"aw",%nobits
 668              	counter.0:
 669 0000 00       		.space	1
 670              		.text
 671              	.Letext0:
 672              		.file 2 "/Users/seojisu/Library/Arm-GCC-xPack/arm-none-eabi/include/machine/_default_types.h"
 673              		.file 3 "/Users/seojisu/Library/Arm-GCC-xPack/arm-none-eabi/include/sys/_stdint.h"
 674              		.file 4 "Drivers/CMSIS/Device/ST/STM32H7xx/Include/stm32h743xx.h"
 675              		.file 5 "Core/Inc/vardef.h"
ARM GAS  /var/folders/d0/cymppscj10lcmm48h781wrc80000gn/T//ccLLv2IW.s 			page 15


DEFINED SYMBOLS
                            *ABS*:0000000000000000 lcd.c
/var/folders/d0/cymppscj10lcmm48h781wrc80000gn/T//ccLLv2IW.s:19     .text.LCD_Init:0000000000000000 $t
/var/folders/d0/cymppscj10lcmm48h781wrc80000gn/T//ccLLv2IW.s:25     .text.LCD_Init:0000000000000000 LCD_Init
/var/folders/d0/cymppscj10lcmm48h781wrc80000gn/T//ccLLv2IW.s:56     .text.LCD_Power_Control:0000000000000000 LCD_Power_Control
/var/folders/d0/cymppscj10lcmm48h781wrc80000gn/T//ccLLv2IW.s:51     .text.LCD_Power_Control:0000000000000000 $t
/var/folders/d0/cymppscj10lcmm48h781wrc80000gn/T//ccLLv2IW.s:98     .text.LCD_Power_Control:0000000000000028 $d
/var/folders/d0/cymppscj10lcmm48h781wrc80000gn/T//ccLLv2IW.s:103    .text.LCD_Set_Clock:0000000000000000 $t
/var/folders/d0/cymppscj10lcmm48h781wrc80000gn/T//ccLLv2IW.s:109    .text.LCD_Set_Clock:0000000000000000 LCD_Set_Clock
/var/folders/d0/cymppscj10lcmm48h781wrc80000gn/T//ccLLv2IW.s:210    .text.LCD_Set_Clock:0000000000000094 $d
/var/folders/d0/cymppscj10lcmm48h781wrc80000gn/T//ccLLv2IW.s:663    .bss.state.1:0000000000000000 state.1
/var/folders/d0/cymppscj10lcmm48h781wrc80000gn/T//ccLLv2IW.s:668    .bss.counter.0:0000000000000000 counter.0
/var/folders/d0/cymppscj10lcmm48h781wrc80000gn/T//ccLLv2IW.s:219    .text.LCD_Set_Color:0000000000000000 $t
/var/folders/d0/cymppscj10lcmm48h781wrc80000gn/T//ccLLv2IW.s:225    .text.LCD_Set_Color:0000000000000000 LCD_Set_Color
/var/folders/d0/cymppscj10lcmm48h781wrc80000gn/T//ccLLv2IW.s:261    .text.LCD_Output_Red:0000000000000000 LCD_Output_Red
/var/folders/d0/cymppscj10lcmm48h781wrc80000gn/T//ccLLv2IW.s:396    .text.LCD_Output_Green:0000000000000000 LCD_Output_Green
/var/folders/d0/cymppscj10lcmm48h781wrc80000gn/T//ccLLv2IW.s:531    .text.LCD_Output_Blue:0000000000000000 LCD_Output_Blue
/var/folders/d0/cymppscj10lcmm48h781wrc80000gn/T//ccLLv2IW.s:256    .text.LCD_Output_Red:0000000000000000 $t
/var/folders/d0/cymppscj10lcmm48h781wrc80000gn/T//ccLLv2IW.s:383    .text.LCD_Output_Red:00000000000000c0 $d
/var/folders/d0/cymppscj10lcmm48h781wrc80000gn/T//ccLLv2IW.s:391    .text.LCD_Output_Green:0000000000000000 $t
/var/folders/d0/cymppscj10lcmm48h781wrc80000gn/T//ccLLv2IW.s:518    .text.LCD_Output_Green:00000000000000c0 $d
/var/folders/d0/cymppscj10lcmm48h781wrc80000gn/T//ccLLv2IW.s:526    .text.LCD_Output_Blue:0000000000000000 $t
/var/folders/d0/cymppscj10lcmm48h781wrc80000gn/T//ccLLv2IW.s:653    .text.LCD_Output_Blue:00000000000000bc $d
/var/folders/d0/cymppscj10lcmm48h781wrc80000gn/T//ccLLv2IW.s:664    .bss.state.1:0000000000000000 $d
/var/folders/d0/cymppscj10lcmm48h781wrc80000gn/T//ccLLv2IW.s:669    .bss.counter.0:0000000000000000 $d

UNDEFINED SYMBOLS
HAL_GPIO_WritePin
