ARM GAS  /var/folders/d0/cymppscj10lcmm48h781wrc80000gn/T//ccefC8Et.s 			page 1


   1              		.cpu cortex-m7
   2              		.arch armv7e-m
   3              		.fpu fpv5-d16
   4              		.eabi_attribute 28, 1
   5              		.eabi_attribute 20, 1
   6              		.eabi_attribute 21, 1
   7              		.eabi_attribute 23, 3
   8              		.eabi_attribute 24, 1
   9              		.eabi_attribute 25, 1
  10              		.eabi_attribute 26, 1
  11              		.eabi_attribute 30, 6
  12              		.eabi_attribute 34, 1
  13              		.eabi_attribute 18, 4
  14              		.file	"led.c"
  15              		.text
  16              	.Ltext0:
  17              		.cfi_sections	.debug_frame
  18              		.global	LED_Control_time
  19              		.section	.bss.LED_Control_time,"aw",%nobits
  22              	LED_Control_time:
  23 0000 00       		.space	1
  24              		.section	.text.LED_Control,"ax",%progbits
  25              		.align	1
  26              		.global	LED_Control
  27              		.syntax unified
  28              		.thumb
  29              		.thumb_func
  31              	LED_Control:
  32              	.LFB333:
  33              		.file 1 "Core/Src/led.c"
   1:Core/Src/led.c **** #include "led.h"
   2:Core/Src/led.c **** 
   3:Core/Src/led.c **** uint8 LED_Control_time;
   4:Core/Src/led.c **** void LED_Control(void)
   5:Core/Src/led.c **** {
  34              		.loc 1 5 1
  35              		.cfi_startproc
  36              		@ args = 0, pretend = 0, frame = 0
  37              		@ frame_needed = 1, uses_anonymous_args = 0
  38 0000 80B5     		push	{r7, lr}
  39              	.LCFI0:
  40              		.cfi_def_cfa_offset 8
  41              		.cfi_offset 7, -8
  42              		.cfi_offset 14, -4
  43 0002 00AF     		add	r7, sp, #0
  44              	.LCFI1:
  45              		.cfi_def_cfa_register 7
   6:Core/Src/led.c ****     LED_Control_time++;
  46              		.loc 1 6 21
  47 0004 3D4B     		ldr	r3, .L8
  48 0006 1B78     		ldrb	r3, [r3]	@ zero_extendqisi2
  49 0008 0133     		adds	r3, r3, #1
  50 000a DAB2     		uxtb	r2, r3
  51 000c 3B4B     		ldr	r3, .L8
  52 000e 1A70     		strb	r2, [r3]
   7:Core/Src/led.c ****     if(LED_Control_time>100)
  53              		.loc 1 7 24
ARM GAS  /var/folders/d0/cymppscj10lcmm48h781wrc80000gn/T//ccefC8Et.s 			page 2


  54 0010 3A4B     		ldr	r3, .L8
  55 0012 1B78     		ldrb	r3, [r3]	@ zero_extendqisi2
  56              		.loc 1 7 7
  57 0014 642B     		cmp	r3, #100
  58 0016 02D9     		bls	.L2
   8:Core/Src/led.c ****     {
   9:Core/Src/led.c ****         LED_Control_time = 0;
  59              		.loc 1 9 26
  60 0018 384B     		ldr	r3, .L8
  61 001a 0022     		movs	r2, #0
  62 001c 1A70     		strb	r2, [r3]
  63              	.L2:
  10:Core/Src/led.c ****     }
  11:Core/Src/led.c **** 
  12:Core/Src/led.c ****     if(LED_Control_time<=25)
  64              		.loc 1 12 24
  65 001e 374B     		ldr	r3, .L8
  66 0020 1B78     		ldrb	r3, [r3]	@ zero_extendqisi2
  67              		.loc 1 12 7
  68 0022 192B     		cmp	r3, #25
  69 0024 15D8     		bhi	.L3
  13:Core/Src/led.c ****     {
  14:Core/Src/led.c ****         HAL_GPIO_WritePin(LED_1_GROUP,LED_1_PIN,LED_ON);
  70              		.loc 1 14 9
  71 0026 0122     		movs	r2, #1
  72 0028 4021     		movs	r1, #64
  73 002a 3548     		ldr	r0, .L8+4
  74 002c FFF7FEFF 		bl	HAL_GPIO_WritePin
  15:Core/Src/led.c ****         HAL_GPIO_WritePin(LED_2_GROUP,LED_2_PIN,LED_OFF);
  75              		.loc 1 15 9
  76 0030 0022     		movs	r2, #0
  77 0032 8021     		movs	r1, #128
  78 0034 3248     		ldr	r0, .L8+4
  79 0036 FFF7FEFF 		bl	HAL_GPIO_WritePin
  16:Core/Src/led.c ****         HAL_GPIO_WritePin(LED_3_GROUP,LED_3_PIN,LED_OFF);
  80              		.loc 1 16 9
  81 003a 0022     		movs	r2, #0
  82 003c 1021     		movs	r1, #16
  83 003e 3148     		ldr	r0, .L8+8
  84 0040 FFF7FEFF 		bl	HAL_GPIO_WritePin
  17:Core/Src/led.c ****         HAL_GPIO_WritePin(LED_4_GROUP,LED_4_PIN,LED_OFF);
  85              		.loc 1 17 9
  86 0044 0022     		movs	r2, #0
  87 0046 4FF48071 		mov	r1, #256
  88 004a 2F48     		ldr	r0, .L8+12
  89 004c FFF7FEFF 		bl	HAL_GPIO_WritePin
  18:Core/Src/led.c ****     }
  19:Core/Src/led.c ****     else if((25<LED_Control_time)&&(LED_Control_time<=50))
  20:Core/Src/led.c ****     {
  21:Core/Src/led.c ****         HAL_GPIO_WritePin(LED_1_GROUP,LED_1_PIN,LED_OFF);
  22:Core/Src/led.c ****         HAL_GPIO_WritePin(LED_2_GROUP,LED_2_PIN,LED_ON);
  23:Core/Src/led.c ****         HAL_GPIO_WritePin(LED_3_GROUP,LED_3_PIN,LED_OFF);
  24:Core/Src/led.c ****         HAL_GPIO_WritePin(LED_4_GROUP,LED_4_PIN,LED_OFF);
  25:Core/Src/led.c ****     }
  26:Core/Src/led.c ****     else if((50<LED_Control_time)&&(LED_Control_time<=75))
  27:Core/Src/led.c ****     {
  28:Core/Src/led.c ****         HAL_GPIO_WritePin(LED_1_GROUP,LED_1_PIN,LED_OFF);
ARM GAS  /var/folders/d0/cymppscj10lcmm48h781wrc80000gn/T//ccefC8Et.s 			page 3


  29:Core/Src/led.c ****         HAL_GPIO_WritePin(LED_2_GROUP,LED_2_PIN,LED_OFF);
  30:Core/Src/led.c ****         HAL_GPIO_WritePin(LED_3_GROUP,LED_3_PIN,LED_ON);
  31:Core/Src/led.c ****         HAL_GPIO_WritePin(LED_4_GROUP,LED_4_PIN,LED_OFF);
  32:Core/Src/led.c ****     }
  33:Core/Src/led.c ****     else
  34:Core/Src/led.c ****     {
  35:Core/Src/led.c ****         HAL_GPIO_WritePin(LED_1_GROUP,LED_1_PIN,LED_OFF);
  36:Core/Src/led.c ****         HAL_GPIO_WritePin(LED_2_GROUP,LED_2_PIN,LED_OFF);
  37:Core/Src/led.c ****         HAL_GPIO_WritePin(LED_3_GROUP,LED_3_PIN,LED_OFF);
  38:Core/Src/led.c ****         HAL_GPIO_WritePin(LED_4_GROUP,LED_4_PIN,LED_ON);
  39:Core/Src/led.c ****     }
  40:Core/Src/led.c **** 
  41:Core/Src/led.c **** }...
  90              		.loc 1 41 1
  91 0050 51E0     		b	.L7
  92              	.L3:
  19:Core/Src/led.c ****     else if((25<LED_Control_time)&&(LED_Control_time<=50))
  93              		.loc 1 19 16
  94 0052 2A4B     		ldr	r3, .L8
  95 0054 1B78     		ldrb	r3, [r3]	@ zero_extendqisi2
  19:Core/Src/led.c ****     else if((25<LED_Control_time)&&(LED_Control_time<=50))
  96              		.loc 1 19 12
  97 0056 192B     		cmp	r3, #25
  98 0058 19D9     		bls	.L5
  19:Core/Src/led.c ****     else if((25<LED_Control_time)&&(LED_Control_time<=50))
  99              		.loc 1 19 53 discriminator 1
 100 005a 284B     		ldr	r3, .L8
 101 005c 1B78     		ldrb	r3, [r3]	@ zero_extendqisi2
  19:Core/Src/led.c ****     else if((25<LED_Control_time)&&(LED_Control_time<=50))
 102              		.loc 1 19 34 discriminator 1
 103 005e 322B     		cmp	r3, #50
 104 0060 15D8     		bhi	.L5
  21:Core/Src/led.c ****         HAL_GPIO_WritePin(LED_1_GROUP,LED_1_PIN,LED_OFF);
 105              		.loc 1 21 9
 106 0062 0022     		movs	r2, #0
 107 0064 4021     		movs	r1, #64
 108 0066 2648     		ldr	r0, .L8+4
 109 0068 FFF7FEFF 		bl	HAL_GPIO_WritePin
  22:Core/Src/led.c ****         HAL_GPIO_WritePin(LED_2_GROUP,LED_2_PIN,LED_ON);
 110              		.loc 1 22 9
 111 006c 0122     		movs	r2, #1
 112 006e 8021     		movs	r1, #128
 113 0070 2348     		ldr	r0, .L8+4
 114 0072 FFF7FEFF 		bl	HAL_GPIO_WritePin
  23:Core/Src/led.c ****         HAL_GPIO_WritePin(LED_3_GROUP,LED_3_PIN,LED_OFF);
 115              		.loc 1 23 9
 116 0076 0022     		movs	r2, #0
 117 0078 1021     		movs	r1, #16
 118 007a 2248     		ldr	r0, .L8+8
 119 007c FFF7FEFF 		bl	HAL_GPIO_WritePin
  24:Core/Src/led.c ****         HAL_GPIO_WritePin(LED_4_GROUP,LED_4_PIN,LED_OFF);
 120              		.loc 1 24 9
 121 0080 0022     		movs	r2, #0
 122 0082 4FF48071 		mov	r1, #256
 123 0086 2048     		ldr	r0, .L8+12
 124 0088 FFF7FEFF 		bl	HAL_GPIO_WritePin
 125 008c 33E0     		b	.L4
ARM GAS  /var/folders/d0/cymppscj10lcmm48h781wrc80000gn/T//ccefC8Et.s 			page 4


 126              	.L5:
  26:Core/Src/led.c ****     else if((50<LED_Control_time)&&(LED_Control_time<=75))
 127              		.loc 1 26 16
 128 008e 1B4B     		ldr	r3, .L8
 129 0090 1B78     		ldrb	r3, [r3]	@ zero_extendqisi2
  26:Core/Src/led.c ****     else if((50<LED_Control_time)&&(LED_Control_time<=75))
 130              		.loc 1 26 12
 131 0092 322B     		cmp	r3, #50
 132 0094 19D9     		bls	.L6
  26:Core/Src/led.c ****     else if((50<LED_Control_time)&&(LED_Control_time<=75))
 133              		.loc 1 26 53 discriminator 1
 134 0096 194B     		ldr	r3, .L8
 135 0098 1B78     		ldrb	r3, [r3]	@ zero_extendqisi2
  26:Core/Src/led.c ****     else if((50<LED_Control_time)&&(LED_Control_time<=75))
 136              		.loc 1 26 34 discriminator 1
 137 009a 4B2B     		cmp	r3, #75
 138 009c 15D8     		bhi	.L6
  28:Core/Src/led.c ****         HAL_GPIO_WritePin(LED_1_GROUP,LED_1_PIN,LED_OFF);
 139              		.loc 1 28 9
 140 009e 0022     		movs	r2, #0
 141 00a0 4021     		movs	r1, #64
 142 00a2 1748     		ldr	r0, .L8+4
 143 00a4 FFF7FEFF 		bl	HAL_GPIO_WritePin
  29:Core/Src/led.c ****         HAL_GPIO_WritePin(LED_2_GROUP,LED_2_PIN,LED_OFF);
 144              		.loc 1 29 9
 145 00a8 0022     		movs	r2, #0
 146 00aa 8021     		movs	r1, #128
 147 00ac 1448     		ldr	r0, .L8+4
 148 00ae FFF7FEFF 		bl	HAL_GPIO_WritePin
  30:Core/Src/led.c ****         HAL_GPIO_WritePin(LED_3_GROUP,LED_3_PIN,LED_ON);
 149              		.loc 1 30 9
 150 00b2 0122     		movs	r2, #1
 151 00b4 1021     		movs	r1, #16
 152 00b6 1348     		ldr	r0, .L8+8
 153 00b8 FFF7FEFF 		bl	HAL_GPIO_WritePin
  31:Core/Src/led.c ****         HAL_GPIO_WritePin(LED_4_GROUP,LED_4_PIN,LED_OFF);
 154              		.loc 1 31 9
 155 00bc 0022     		movs	r2, #0
 156 00be 4FF48071 		mov	r1, #256
 157 00c2 1148     		ldr	r0, .L8+12
 158 00c4 FFF7FEFF 		bl	HAL_GPIO_WritePin
 159 00c8 15E0     		b	.L4
 160              	.L6:
  35:Core/Src/led.c ****         HAL_GPIO_WritePin(LED_1_GROUP,LED_1_PIN,LED_OFF);
 161              		.loc 1 35 9
 162 00ca 0022     		movs	r2, #0
 163 00cc 4021     		movs	r1, #64
 164 00ce 0C48     		ldr	r0, .L8+4
 165 00d0 FFF7FEFF 		bl	HAL_GPIO_WritePin
  36:Core/Src/led.c ****         HAL_GPIO_WritePin(LED_2_GROUP,LED_2_PIN,LED_OFF);
 166              		.loc 1 36 9
 167 00d4 0022     		movs	r2, #0
 168 00d6 8021     		movs	r1, #128
 169 00d8 0948     		ldr	r0, .L8+4
 170 00da FFF7FEFF 		bl	HAL_GPIO_WritePin
  37:Core/Src/led.c ****         HAL_GPIO_WritePin(LED_3_GROUP,LED_3_PIN,LED_OFF);
 171              		.loc 1 37 9
ARM GAS  /var/folders/d0/cymppscj10lcmm48h781wrc80000gn/T//ccefC8Et.s 			page 5


 172 00de 0022     		movs	r2, #0
 173 00e0 1021     		movs	r1, #16
 174 00e2 0848     		ldr	r0, .L8+8
 175 00e4 FFF7FEFF 		bl	HAL_GPIO_WritePin
  38:Core/Src/led.c ****         HAL_GPIO_WritePin(LED_4_GROUP,LED_4_PIN,LED_ON);
 176              		.loc 1 38 9
 177 00e8 0122     		movs	r2, #1
 178 00ea 4FF48071 		mov	r1, #256
 179 00ee 0648     		ldr	r0, .L8+12
 180 00f0 FFF7FEFF 		bl	HAL_GPIO_WritePin
 181              		.loc 1 41 1
 182 00f4 FFE7     		b	.L7
 183              	.L4:
 184              	.L7:
 185 00f6 00BF     		nop
 186 00f8 80BD     		pop	{r7, pc}
 187              	.L9:
 188 00fa 00BF     		.align	2
 189              	.L8:
 190 00fc 00000000 		.word	LED_Control_time
 191 0100 00040258 		.word	1476527104
 192 0104 001C0258 		.word	1476533248
 193 0108 00200258 		.word	1476534272
 194              		.cfi_endproc
 195              	.LFE333:
 197              		.text
 198              	.Letext0:
 199              		.file 2 "/Users/seojisu/Library/Arm-GCC-xPack/arm-none-eabi/include/machine/_default_types.h"
 200              		.file 3 "/Users/seojisu/Library/Arm-GCC-xPack/arm-none-eabi/include/sys/_stdint.h"
 201              		.file 4 "Drivers/CMSIS/Device/ST/STM32H7xx/Include/stm32h743xx.h"
 202              		.file 5 "Core/Inc/vardef.h"
 203              		.file 6 "Drivers/STM32H7xx_HAL_Driver/Inc/stm32h7xx_hal_gpio.h"
ARM GAS  /var/folders/d0/cymppscj10lcmm48h781wrc80000gn/T//ccefC8Et.s 			page 6


DEFINED SYMBOLS
                            *ABS*:0000000000000000 led.c
/var/folders/d0/cymppscj10lcmm48h781wrc80000gn/T//ccefC8Et.s:22     .bss.LED_Control_time:0000000000000000 LED_Control_time
/var/folders/d0/cymppscj10lcmm48h781wrc80000gn/T//ccefC8Et.s:23     .bss.LED_Control_time:0000000000000000 $d
/var/folders/d0/cymppscj10lcmm48h781wrc80000gn/T//ccefC8Et.s:25     .text.LED_Control:0000000000000000 $t
/var/folders/d0/cymppscj10lcmm48h781wrc80000gn/T//ccefC8Et.s:31     .text.LED_Control:0000000000000000 LED_Control
/var/folders/d0/cymppscj10lcmm48h781wrc80000gn/T//ccefC8Et.s:190    .text.LED_Control:00000000000000fc $d

UNDEFINED SYMBOLS
HAL_GPIO_WritePin
