ARM GAS  /var/folders/d0/cymppscj10lcmm48h781wrc80000gn/T//cc5xzgm9.s 			page 1


   1              		.cpu cortex-m7
   2              		.arch armv7e-m
   3              		.fpu fpv5-d16
   4              		.eabi_attribute 28, 1
   5              		.eabi_attribute 20, 1
   6              		.eabi_attribute 21, 1
   7              		.eabi_attribute 23, 3
   8              		.eabi_attribute 24, 1
   9              		.eabi_attribute 25, 1
  10              		.eabi_attribute 26, 1
  11              		.eabi_attribute 30, 6
  12              		.eabi_attribute 34, 1
  13              		.eabi_attribute 18, 4
  14              		.file	"os.c"
  15              		.text
  16              	.Ltext0:
  17              		.cfi_sections	.debug_frame
  18              		.global	Os_Var
  19              		.section	.bss.Os_Var,"aw",%nobits
  20              		.align	2
  23              	Os_Var:
  24 0000 00000000 		.space	100
  24      00000000 
  24      00000000 
  24      00000000 
  24      00000000 
  25              		.section	.text.Os_Init_Task,"ax",%progbits
  26              		.align	1
  27              		.global	Os_Init_Task
  28              		.syntax unified
  29              		.thumb
  30              		.thumb_func
  32              	Os_Init_Task:
  33              	.LFB336:
  34              		.file 1 "Core/Src/os.c"
   1:Core/Src/os.c **** #include "os.h"
   2:Core/Src/os.c **** #include "led.h"
   3:Core/Src/os.c **** #include "imu.h"
   4:Core/Src/os.c **** #include "adc.h"
   5:Core/Src/os.c **** #include "lcd.h"
   6:Core/Src/os.c **** #include "uart.h"
   7:Core/Src/os.c **** #include "can.h"
   8:Core/Src/os.c **** 
   9:Core/Src/os.c **** Os_Var_t Os_Var;
  10:Core/Src/os.c **** 
  11:Core/Src/os.c **** 
  12:Core/Src/os.c **** static void Os_Calc_Period(uint8 idx);
  13:Core/Src/os.c **** static void Os_Calc_Runtime_Start(uint8 idx);
  14:Core/Src/os.c **** static void Os_Calc_Runtime_Stop(uint8 idx);
  15:Core/Src/os.c **** static void Os_1ms_Task(void);
  16:Core/Src/os.c **** static void Os_10ms_Task(void);
  17:Core/Src/os.c **** static void Os_100ms_Task(void);
  18:Core/Src/os.c **** static void Os_Background_Task(void);
  19:Core/Src/os.c **** 
  20:Core/Src/os.c **** void Os_Init_Task(void)
  21:Core/Src/os.c **** {
  35              		.loc 1 21 1
ARM GAS  /var/folders/d0/cymppscj10lcmm48h781wrc80000gn/T//cc5xzgm9.s 			page 2


  36              		.cfi_startproc
  37              		@ args = 0, pretend = 0, frame = 0
  38              		@ frame_needed = 1, uses_anonymous_args = 0
  39 0000 80B5     		push	{r7, lr}
  40              	.LCFI0:
  41              		.cfi_def_cfa_offset 8
  42              		.cfi_offset 7, -8
  43              		.cfi_offset 14, -4
  44 0002 00AF     		add	r7, sp, #0
  45              	.LCFI1:
  46              		.cfi_def_cfa_register 7
  22:Core/Src/os.c **** 	LCD_Init();
  47              		.loc 1 22 2
  48 0004 FFF7FEFF 		bl	LCD_Init
  23:Core/Src/os.c **** 	Can_Init();
  49              		.loc 1 23 2
  50 0008 FFF7FEFF 		bl	Can_Init
  24:Core/Src/os.c **** }
  51              		.loc 1 24 1
  52 000c 00BF     		nop
  53 000e 80BD     		pop	{r7, pc}
  54              		.cfi_endproc
  55              	.LFE336:
  57              		.section	.text.Os_1ms_Task,"ax",%progbits
  58              		.align	1
  59              		.syntax unified
  60              		.thumb
  61              		.thumb_func
  63              	Os_1ms_Task:
  64              	.LFB337:
  25:Core/Src/os.c **** 
  26:Core/Src/os.c **** static void Os_1ms_Task(void)
  27:Core/Src/os.c **** {
  65              		.loc 1 27 1
  66              		.cfi_startproc
  67              		@ args = 0, pretend = 0, frame = 0
  68              		@ frame_needed = 1, uses_anonymous_args = 0
  69 0000 80B5     		push	{r7, lr}
  70              	.LCFI2:
  71              		.cfi_def_cfa_offset 8
  72              		.cfi_offset 7, -8
  73              		.cfi_offset 14, -4
  74 0002 00AF     		add	r7, sp, #0
  75              	.LCFI3:
  76              		.cfi_def_cfa_register 7
  28:Core/Src/os.c **** 	LED_Control();
  77              		.loc 1 28 2
  78 0004 FFF7FEFF 		bl	LED_Control
  29:Core/Src/os.c **** 	IMU_Control();
  79              		.loc 1 29 2
  80 0008 FFF7FEFF 		bl	IMU_Control
  30:Core/Src/os.c **** 	LCD_Set_Clock();
  81              		.loc 1 30 2
  82 000c FFF7FEFF 		bl	LCD_Set_Clock
  31:Core/Src/os.c **** 	LCD_Set_Color();
  83              		.loc 1 31 2
  84 0010 FFF7FEFF 		bl	LCD_Set_Color
ARM GAS  /var/folders/d0/cymppscj10lcmm48h781wrc80000gn/T//cc5xzgm9.s 			page 3


  32:Core/Src/os.c **** 	Motor_Drvier_Control();
  85              		.loc 1 32 2
  86 0014 FFF7FEFF 		bl	Motor_Drvier_Control
  33:Core/Src/os.c **** }
  87              		.loc 1 33 1
  88 0018 00BF     		nop
  89 001a 80BD     		pop	{r7, pc}
  90              		.cfi_endproc
  91              	.LFE337:
  93              		.section	.text.Os_10ms_Task,"ax",%progbits
  94              		.align	1
  95              		.syntax unified
  96              		.thumb
  97              		.thumb_func
  99              	Os_10ms_Task:
 100              	.LFB338:
  34:Core/Src/os.c **** 
  35:Core/Src/os.c **** static void Os_10ms_Task(void)
  36:Core/Src/os.c **** {
 101              		.loc 1 36 1
 102              		.cfi_startproc
 103              		@ args = 0, pretend = 0, frame = 0
 104              		@ frame_needed = 1, uses_anonymous_args = 0
 105 0000 80B5     		push	{r7, lr}
 106              	.LCFI4:
 107              		.cfi_def_cfa_offset 8
 108              		.cfi_offset 7, -8
 109              		.cfi_offset 14, -4
 110 0002 00AF     		add	r7, sp, #0
 111              	.LCFI5:
 112              		.cfi_def_cfa_register 7
  37:Core/Src/os.c **** 	IMU_FindAddress();
 113              		.loc 1 37 2
 114 0004 FFF7FEFF 		bl	IMU_FindAddress
  38:Core/Src/os.c **** 	Adc_Read();
 115              		.loc 1 38 2
 116 0008 FFF7FEFF 		bl	Adc_Read
  39:Core/Src/os.c **** 	Adc_Calc();
 117              		.loc 1 39 2
 118 000c FFF7FEFF 		bl	Adc_Calc
  40:Core/Src/os.c **** }
 119              		.loc 1 40 1
 120 0010 00BF     		nop
 121 0012 80BD     		pop	{r7, pc}
 122              		.cfi_endproc
 123              	.LFE338:
 125              		.section	.text.Os_100ms_Task,"ax",%progbits
 126              		.align	1
 127              		.syntax unified
 128              		.thumb
 129              		.thumb_func
 131              	Os_100ms_Task:
 132              	.LFB339:
  41:Core/Src/os.c **** 
  42:Core/Src/os.c **** static void Os_100ms_Task(void)
  43:Core/Src/os.c **** {
 133              		.loc 1 43 1
ARM GAS  /var/folders/d0/cymppscj10lcmm48h781wrc80000gn/T//cc5xzgm9.s 			page 4


 134              		.cfi_startproc
 135              		@ args = 0, pretend = 0, frame = 0
 136              		@ frame_needed = 1, uses_anonymous_args = 0
 137 0000 80B5     		push	{r7, lr}
 138              	.LCFI6:
 139              		.cfi_def_cfa_offset 8
 140              		.cfi_offset 7, -8
 141              		.cfi_offset 14, -4
 142 0002 00AF     		add	r7, sp, #0
 143              	.LCFI7:
 144              		.cfi_def_cfa_register 7
  44:Core/Src/os.c **** 	Can_Transmit();
 145              		.loc 1 44 2
 146 0004 FFF7FEFF 		bl	Can_Transmit
  45:Core/Src/os.c **** }
 147              		.loc 1 45 1
 148 0008 00BF     		nop
 149 000a 80BD     		pop	{r7, pc}
 150              		.cfi_endproc
 151              	.LFE339:
 153              		.section	.text.Os_Background_Task,"ax",%progbits
 154              		.align	1
 155              		.syntax unified
 156              		.thumb
 157              		.thumb_func
 159              	Os_Background_Task:
 160              	.LFB340:
  46:Core/Src/os.c **** 
  47:Core/Src/os.c **** static void Os_Background_Task(void)
  48:Core/Src/os.c **** {
 161              		.loc 1 48 1
 162              		.cfi_startproc
 163              		@ args = 0, pretend = 0, frame = 0
 164              		@ frame_needed = 1, uses_anonymous_args = 0
 165              		@ link register save eliminated.
 166 0000 80B4     		push	{r7}
 167              	.LCFI8:
 168              		.cfi_def_cfa_offset 4
 169              		.cfi_offset 7, -4
 170 0002 00AF     		add	r7, sp, #0
 171              	.LCFI9:
 172              		.cfi_def_cfa_register 7
  49:Core/Src/os.c **** 
  50:Core/Src/os.c **** }
 173              		.loc 1 50 1
 174 0004 00BF     		nop
 175 0006 BD46     		mov	sp, r7
 176              	.LCFI10:
 177              		.cfi_def_cfa_register 13
 178              		@ sp needed
 179 0008 5DF8047B 		ldr	r7, [sp], #4
 180              	.LCFI11:
 181              		.cfi_restore 7
 182              		.cfi_def_cfa_offset 0
 183 000c 7047     		bx	lr
 184              		.cfi_endproc
 185              	.LFE340:
ARM GAS  /var/folders/d0/cymppscj10lcmm48h781wrc80000gn/T//cc5xzgm9.s 			page 5


 187              		.section	.text.Os_Time_Handler,"ax",%progbits
 188              		.align	1
 189              		.global	Os_Time_Handler
 190              		.syntax unified
 191              		.thumb
 192              		.thumb_func
 194              	Os_Time_Handler:
 195              	.LFB341:
  51:Core/Src/os.c **** 
  52:Core/Src/os.c **** void Os_Time_Handler(void)
  53:Core/Src/os.c **** {
 196              		.loc 1 53 1
 197              		.cfi_startproc
 198              		@ args = 0, pretend = 0, frame = 0
 199              		@ frame_needed = 1, uses_anonymous_args = 0
 200              		@ link register save eliminated.
 201 0000 80B4     		push	{r7}
 202              	.LCFI12:
 203              		.cfi_def_cfa_offset 4
 204              		.cfi_offset 7, -4
 205 0002 00AF     		add	r7, sp, #0
 206              	.LCFI13:
 207              		.cfi_def_cfa_register 7
  54:Core/Src/os.c **** 	Os_Var.Os_Counter.Os_1us_Counter++;
 208              		.loc 1 54 19
 209 0004 044B     		ldr	r3, .L7
 210 0006 1B68     		ldr	r3, [r3]
 211              		.loc 1 54 34
 212 0008 0133     		adds	r3, r3, #1
 213 000a 034A     		ldr	r2, .L7
 214 000c 1360     		str	r3, [r2]
  55:Core/Src/os.c **** }
 215              		.loc 1 55 1
 216 000e 00BF     		nop
 217 0010 BD46     		mov	sp, r7
 218              	.LCFI14:
 219              		.cfi_def_cfa_register 13
 220              		@ sp needed
 221 0012 5DF8047B 		ldr	r7, [sp], #4
 222              	.LCFI15:
 223              		.cfi_restore 7
 224              		.cfi_def_cfa_offset 0
 225 0016 7047     		bx	lr
 226              	.L8:
 227              		.align	2
 228              	.L7:
 229 0018 00000000 		.word	Os_Var
 230              		.cfi_endproc
 231              	.LFE341:
 233              		.section	.text.Os_Handler,"ax",%progbits
 234              		.align	1
 235              		.global	Os_Handler
 236              		.syntax unified
 237              		.thumb
 238              		.thumb_func
 240              	Os_Handler:
 241              	.LFB342:
ARM GAS  /var/folders/d0/cymppscj10lcmm48h781wrc80000gn/T//cc5xzgm9.s 			page 6


  56:Core/Src/os.c **** 
  57:Core/Src/os.c **** void Os_Handler(void)
  58:Core/Src/os.c **** {
 242              		.loc 1 58 1
 243              		.cfi_startproc
 244              		@ args = 0, pretend = 0, frame = 8
 245              		@ frame_needed = 1, uses_anonymous_args = 0
 246 0000 80B5     		push	{r7, lr}
 247              	.LCFI16:
 248              		.cfi_def_cfa_offset 8
 249              		.cfi_offset 7, -8
 250              		.cfi_offset 14, -4
 251 0002 82B0     		sub	sp, sp, #8
 252              	.LCFI17:
 253              		.cfi_def_cfa_offset 16
 254 0004 00AF     		add	r7, sp, #0
 255              	.LCFI18:
 256              		.cfi_def_cfa_register 7
  59:Core/Src/os.c **** 	void(*fp)(void);
  60:Core/Src/os.c ****     if(Os_Var.Os_Task_Flag.Os_100ms_Flag == 1)
 257              		.loc 1 60 27
 258 0006 144B     		ldr	r3, .L13
 259 0008 93F85630 		ldrb	r3, [r3, #86]	@ zero_extendqisi2
 260              		.loc 1 60 7
 261 000c 012B     		cmp	r3, #1
 262 000e 14D1     		bne	.L10
  61:Core/Src/os.c **** 	{
  62:Core/Src/os.c **** 		fp = Os_100ms_Task;
 263              		.loc 1 62 6
 264 0010 124B     		ldr	r3, .L13+4
 265 0012 7B60     		str	r3, [r7, #4]
  63:Core/Src/os.c **** 		Os_Var.Os_Task_Add.Os_100ms_Address = fp;
 266              		.loc 1 63 39
 267 0014 104A     		ldr	r2, .L13
 268 0016 7B68     		ldr	r3, [r7, #4]
 269 0018 1366     		str	r3, [r2, #96]
  64:Core/Src/os.c **** 		Os_Var.Os_Task_Flag.Os_100ms_Flag = 0;
 270              		.loc 1 64 37
 271 001a 0F4B     		ldr	r3, .L13
 272 001c 0022     		movs	r2, #0
 273 001e 83F85620 		strb	r2, [r3, #86]
  65:Core/Src/os.c **** 		Os_Calc_Runtime_Start(OS_TASK_INDEX_100MS);
 274              		.loc 1 65 3
 275 0022 0320     		movs	r0, #3
 276 0024 FFF7FEFF 		bl	Os_Calc_Runtime_Start
  66:Core/Src/os.c **** 		(void)Os_100ms_Task();
 277              		.loc 1 66 3
 278 0028 FFF7FEFF 		bl	Os_100ms_Task
  67:Core/Src/os.c **** 		Os_Calc_Runtime_Stop(OS_TASK_INDEX_100MS);
 279              		.loc 1 67 3
 280 002c 0320     		movs	r0, #3
 281 002e FFF7FEFF 		bl	Os_Calc_Runtime_Stop
  68:Core/Src/os.c **** 		Os_Calc_Period(OS_TASK_INDEX_100MS);
 282              		.loc 1 68 3
 283 0032 0320     		movs	r0, #3
 284 0034 FFF7FEFF 		bl	Os_Calc_Period
  69:Core/Src/os.c **** 	}
ARM GAS  /var/folders/d0/cymppscj10lcmm48h781wrc80000gn/T//cc5xzgm9.s 			page 7


  70:Core/Src/os.c **** 	else
  71:Core/Src/os.c **** 	{
  72:Core/Src/os.c **** 		Os_Calc_Runtime_Start(OS_TASK_INDEX_BG);
  73:Core/Src/os.c **** 		(void)Os_Background_Task();
  74:Core/Src/os.c **** 		Os_Calc_Runtime_Stop(OS_TASK_INDEX_BG);
  75:Core/Src/os.c **** 		Os_Calc_Period(OS_TASK_INDEX_BG);
  76:Core/Src/os.c **** 	}
  77:Core/Src/os.c **** 
  78:Core/Src/os.c ****     return;
 285              		.loc 1 78 5
 286 0038 0BE0     		b	.L9
 287              	.L10:
  72:Core/Src/os.c **** 		(void)Os_Background_Task();
 288              		.loc 1 72 3
 289 003a 0420     		movs	r0, #4
 290 003c FFF7FEFF 		bl	Os_Calc_Runtime_Start
  73:Core/Src/os.c **** 		Os_Calc_Runtime_Stop(OS_TASK_INDEX_BG);
 291              		.loc 1 73 3
 292 0040 FFF7FEFF 		bl	Os_Background_Task
  74:Core/Src/os.c **** 		Os_Calc_Period(OS_TASK_INDEX_BG);
 293              		.loc 1 74 3
 294 0044 0420     		movs	r0, #4
 295 0046 FFF7FEFF 		bl	Os_Calc_Runtime_Stop
  75:Core/Src/os.c **** 	}
 296              		.loc 1 75 3
 297 004a 0420     		movs	r0, #4
 298 004c FFF7FEFF 		bl	Os_Calc_Period
 299              		.loc 1 78 5
 300 0050 00BF     		nop
 301              	.L9:
  79:Core/Src/os.c **** }
 302              		.loc 1 79 1
 303 0052 0837     		adds	r7, r7, #8
 304              	.LCFI19:
 305              		.cfi_def_cfa_offset 8
 306 0054 BD46     		mov	sp, r7
 307              	.LCFI20:
 308              		.cfi_def_cfa_register 13
 309              		@ sp needed
 310 0056 80BD     		pop	{r7, pc}
 311              	.L14:
 312              		.align	2
 313              	.L13:
 314 0058 00000000 		.word	Os_Var
 315 005c 00000000 		.word	Os_100ms_Task
 316              		.cfi_endproc
 317              	.LFE342:
 319              		.section	.text.Os_Handler_1ms,"ax",%progbits
 320              		.align	1
 321              		.global	Os_Handler_1ms
 322              		.syntax unified
 323              		.thumb
 324              		.thumb_func
 326              	Os_Handler_1ms:
 327              	.LFB343:
  80:Core/Src/os.c **** 
  81:Core/Src/os.c **** void Os_Handler_1ms(void)
ARM GAS  /var/folders/d0/cymppscj10lcmm48h781wrc80000gn/T//cc5xzgm9.s 			page 8


  82:Core/Src/os.c **** {
 328              		.loc 1 82 1
 329              		.cfi_startproc
 330              		@ args = 0, pretend = 0, frame = 8
 331              		@ frame_needed = 1, uses_anonymous_args = 0
 332 0000 80B5     		push	{r7, lr}
 333              	.LCFI21:
 334              		.cfi_def_cfa_offset 8
 335              		.cfi_offset 7, -8
 336              		.cfi_offset 14, -4
 337 0002 82B0     		sub	sp, sp, #8
 338              	.LCFI22:
 339              		.cfi_def_cfa_offset 16
 340 0004 00AF     		add	r7, sp, #0
 341              	.LCFI23:
 342              		.cfi_def_cfa_register 7
  83:Core/Src/os.c **** 	if(Os_Var.Os_Counter.Os_1ms_Counter % 1 == 0)
  84:Core/Src/os.c **** 	{
  85:Core/Src/os.c **** 		Os_Var.Os_Counter.Os_1ms_Counter++;
 343              		.loc 1 85 20
 344 0006 1D4B     		ldr	r3, .L19
 345 0008 5B68     		ldr	r3, [r3, #4]
 346              		.loc 1 85 35
 347 000a 0133     		adds	r3, r3, #1
 348 000c 1B4A     		ldr	r2, .L19
 349 000e 5360     		str	r3, [r2, #4]
  86:Core/Src/os.c **** 		Os_Var.Os_Task_Flag.Os_1ms_Flag = 1;
 350              		.loc 1 86 35
 351 0010 1A4B     		ldr	r3, .L19
 352 0012 0122     		movs	r2, #1
 353 0014 83F85420 		strb	r2, [r3, #84]
  87:Core/Src/os.c **** 	}
  88:Core/Src/os.c **** 
  89:Core/Src/os.c **** 	if(Os_Var.Os_Counter.Os_1ms_Counter % 100 == 0)
 354              		.loc 1 89 22
 355 0018 184B     		ldr	r3, .L19
 356 001a 5A68     		ldr	r2, [r3, #4]
 357              		.loc 1 89 38
 358 001c 184B     		ldr	r3, .L19+4
 359 001e A3FB0213 		umull	r1, r3, r3, r2
 360 0022 5B09     		lsrs	r3, r3, #5
 361 0024 6421     		movs	r1, #100
 362 0026 01FB03F3 		mul	r3, r1, r3
 363 002a D31A     		subs	r3, r2, r3
 364              		.loc 1 89 4
 365 002c 002B     		cmp	r3, #0
 366 002e 08D1     		bne	.L16
  90:Core/Src/os.c **** 	{
  91:Core/Src/os.c **** 		Os_Var.Os_Counter.Os_100ms_Counter++;
 367              		.loc 1 91 20
 368 0030 124B     		ldr	r3, .L19
 369 0032 DB68     		ldr	r3, [r3, #12]
 370              		.loc 1 91 37
 371 0034 0133     		adds	r3, r3, #1
 372 0036 114A     		ldr	r2, .L19
 373 0038 D360     		str	r3, [r2, #12]
  92:Core/Src/os.c **** 		Os_Var.Os_Task_Flag.Os_100ms_Flag = 1;
ARM GAS  /var/folders/d0/cymppscj10lcmm48h781wrc80000gn/T//cc5xzgm9.s 			page 9


 374              		.loc 1 92 37
 375 003a 104B     		ldr	r3, .L19
 376 003c 0122     		movs	r2, #1
 377 003e 83F85620 		strb	r2, [r3, #86]
 378              	.L16:
  93:Core/Src/os.c **** 	}
  94:Core/Src/os.c **** 	void(*fp)(void);
  95:Core/Src/os.c **** 	if(Os_Var.Os_Task_Flag.Os_1ms_Flag == 1)
 379              		.loc 1 95 24
 380 0042 0E4B     		ldr	r3, .L19
 381 0044 93F85430 		ldrb	r3, [r3, #84]	@ zero_extendqisi2
 382              		.loc 1 95 4
 383 0048 012B     		cmp	r3, #1
 384 004a 13D1     		bne	.L18
  96:Core/Src/os.c **** 	{
  97:Core/Src/os.c **** 		fp = Os_1ms_Task;
 385              		.loc 1 97 6
 386 004c 0D4B     		ldr	r3, .L19+8
 387 004e 7B60     		str	r3, [r7, #4]
  98:Core/Src/os.c **** 		Os_Var.Os_Task_Add.Os_1ms_Address = fp;
 388              		.loc 1 98 37
 389 0050 0A4A     		ldr	r2, .L19
 390 0052 7B68     		ldr	r3, [r7, #4]
 391 0054 9365     		str	r3, [r2, #88]
  99:Core/Src/os.c **** 		Os_Var.Os_Task_Flag.Os_1ms_Flag = 0;
 392              		.loc 1 99 35
 393 0056 094B     		ldr	r3, .L19
 394 0058 0022     		movs	r2, #0
 395 005a 83F85420 		strb	r2, [r3, #84]
 100:Core/Src/os.c **** 		Os_Calc_Runtime_Start(OS_TASK_INDEX_1MS);
 396              		.loc 1 100 3
 397 005e 0120     		movs	r0, #1
 398 0060 FFF7FEFF 		bl	Os_Calc_Runtime_Start
 101:Core/Src/os.c **** 		(void)Os_1ms_Task();
 399              		.loc 1 101 3
 400 0064 FFF7FEFF 		bl	Os_1ms_Task
 102:Core/Src/os.c **** 		Os_Calc_Runtime_Stop(OS_TASK_INDEX_1MS);
 401              		.loc 1 102 3
 402 0068 0120     		movs	r0, #1
 403 006a FFF7FEFF 		bl	Os_Calc_Runtime_Stop
 103:Core/Src/os.c **** 		Os_Calc_Period(OS_TASK_INDEX_1MS);
 404              		.loc 1 103 3
 405 006e 0120     		movs	r0, #1
 406 0070 FFF7FEFF 		bl	Os_Calc_Period
 407              	.L18:
 104:Core/Src/os.c **** 	}
 105:Core/Src/os.c **** }
 408              		.loc 1 105 1
 409 0074 00BF     		nop
 410 0076 0837     		adds	r7, r7, #8
 411              	.LCFI24:
 412              		.cfi_def_cfa_offset 8
 413 0078 BD46     		mov	sp, r7
 414              	.LCFI25:
 415              		.cfi_def_cfa_register 13
 416              		@ sp needed
 417 007a 80BD     		pop	{r7, pc}
ARM GAS  /var/folders/d0/cymppscj10lcmm48h781wrc80000gn/T//cc5xzgm9.s 			page 10


 418              	.L20:
 419              		.align	2
 420              	.L19:
 421 007c 00000000 		.word	Os_Var
 422 0080 1F85EB51 		.word	1374389535
 423 0084 00000000 		.word	Os_1ms_Task
 424              		.cfi_endproc
 425              	.LFE343:
 427              		.section	.text.Os_Handler_10ms,"ax",%progbits
 428              		.align	1
 429              		.global	Os_Handler_10ms
 430              		.syntax unified
 431              		.thumb
 432              		.thumb_func
 434              	Os_Handler_10ms:
 435              	.LFB344:
 106:Core/Src/os.c **** 
 107:Core/Src/os.c **** void Os_Handler_10ms(void)
 108:Core/Src/os.c **** {
 436              		.loc 1 108 1
 437              		.cfi_startproc
 438              		@ args = 0, pretend = 0, frame = 8
 439              		@ frame_needed = 1, uses_anonymous_args = 0
 440 0000 80B5     		push	{r7, lr}
 441              	.LCFI26:
 442              		.cfi_def_cfa_offset 8
 443              		.cfi_offset 7, -8
 444              		.cfi_offset 14, -4
 445 0002 82B0     		sub	sp, sp, #8
 446              	.LCFI27:
 447              		.cfi_def_cfa_offset 16
 448 0004 00AF     		add	r7, sp, #0
 449              	.LCFI28:
 450              		.cfi_def_cfa_register 7
 109:Core/Src/os.c **** 	Os_Var.Os_Counter.Os_10ms_Counter++;
 451              		.loc 1 109 19
 452 0006 134B     		ldr	r3, .L24
 453 0008 9B68     		ldr	r3, [r3, #8]
 454              		.loc 1 109 35
 455 000a 0133     		adds	r3, r3, #1
 456 000c 114A     		ldr	r2, .L24
 457 000e 9360     		str	r3, [r2, #8]
 110:Core/Src/os.c **** 	Os_Var.Os_Task_Flag.Os_10ms_Flag = 1;
 458              		.loc 1 110 35
 459 0010 104B     		ldr	r3, .L24
 460 0012 0122     		movs	r2, #1
 461 0014 83F85520 		strb	r2, [r3, #85]
 111:Core/Src/os.c **** 	void(*fp)(void);
 112:Core/Src/os.c **** 	if(Os_Var.Os_Task_Flag.Os_10ms_Flag == 1)
 462              		.loc 1 112 24
 463 0018 0E4B     		ldr	r3, .L24
 464 001a 93F85530 		ldrb	r3, [r3, #85]	@ zero_extendqisi2
 465              		.loc 1 112 4
 466 001e 012B     		cmp	r3, #1
 467 0020 13D1     		bne	.L23
 113:Core/Src/os.c **** 	{
 114:Core/Src/os.c **** 		fp = Os_10ms_Task;
ARM GAS  /var/folders/d0/cymppscj10lcmm48h781wrc80000gn/T//cc5xzgm9.s 			page 11


 468              		.loc 1 114 6
 469 0022 0D4B     		ldr	r3, .L24+4
 470 0024 7B60     		str	r3, [r7, #4]
 115:Core/Src/os.c **** 		Os_Var.Os_Task_Add.Os_10ms_Address = fp;
 471              		.loc 1 115 38
 472 0026 0B4A     		ldr	r2, .L24
 473 0028 7B68     		ldr	r3, [r7, #4]
 474 002a D365     		str	r3, [r2, #92]
 116:Core/Src/os.c **** 		Os_Var.Os_Task_Flag.Os_10ms_Flag = 0;
 475              		.loc 1 116 36
 476 002c 094B     		ldr	r3, .L24
 477 002e 0022     		movs	r2, #0
 478 0030 83F85520 		strb	r2, [r3, #85]
 117:Core/Src/os.c **** 		Os_Calc_Runtime_Start(OS_TASK_INDEX_10MS);
 479              		.loc 1 117 3
 480 0034 0220     		movs	r0, #2
 481 0036 FFF7FEFF 		bl	Os_Calc_Runtime_Start
 118:Core/Src/os.c **** 		(void)Os_10ms_Task();
 482              		.loc 1 118 3
 483 003a FFF7FEFF 		bl	Os_10ms_Task
 119:Core/Src/os.c **** 		Os_Calc_Runtime_Stop(OS_TASK_INDEX_10MS);
 484              		.loc 1 119 3
 485 003e 0220     		movs	r0, #2
 486 0040 FFF7FEFF 		bl	Os_Calc_Runtime_Stop
 120:Core/Src/os.c **** 		Os_Calc_Period(OS_TASK_INDEX_10MS);
 487              		.loc 1 120 3
 488 0044 0220     		movs	r0, #2
 489 0046 FFF7FEFF 		bl	Os_Calc_Period
 490              	.L23:
 121:Core/Src/os.c **** 	}
 122:Core/Src/os.c **** }
 491              		.loc 1 122 1
 492 004a 00BF     		nop
 493 004c 0837     		adds	r7, r7, #8
 494              	.LCFI29:
 495              		.cfi_def_cfa_offset 8
 496 004e BD46     		mov	sp, r7
 497              	.LCFI30:
 498              		.cfi_def_cfa_register 13
 499              		@ sp needed
 500 0050 80BD     		pop	{r7, pc}
 501              	.L25:
 502 0052 00BF     		.align	2
 503              	.L24:
 504 0054 00000000 		.word	Os_Var
 505 0058 00000000 		.word	Os_10ms_Task
 506              		.cfi_endproc
 507              	.LFE344:
 509              		.section	.text.Os_Get_Tick_1us,"ax",%progbits
 510              		.align	1
 511              		.global	Os_Get_Tick_1us
 512              		.syntax unified
 513              		.thumb
 514              		.thumb_func
 516              	Os_Get_Tick_1us:
 517              	.LFB345:
 123:Core/Src/os.c **** 
ARM GAS  /var/folders/d0/cymppscj10lcmm48h781wrc80000gn/T//cc5xzgm9.s 			page 12


 124:Core/Src/os.c **** uint32 Os_Get_Tick_1us(void)
 125:Core/Src/os.c **** {
 518              		.loc 1 125 1
 519              		.cfi_startproc
 520              		@ args = 0, pretend = 0, frame = 0
 521              		@ frame_needed = 1, uses_anonymous_args = 0
 522              		@ link register save eliminated.
 523 0000 80B4     		push	{r7}
 524              	.LCFI31:
 525              		.cfi_def_cfa_offset 4
 526              		.cfi_offset 7, -4
 527 0002 00AF     		add	r7, sp, #0
 528              	.LCFI32:
 529              		.cfi_def_cfa_register 7
 126:Core/Src/os.c **** 	return Os_Var.Os_Counter.Os_1us_Counter;
 530              		.loc 1 126 26
 531 0004 034B     		ldr	r3, .L28
 532 0006 1B68     		ldr	r3, [r3]
 127:Core/Src/os.c **** }
 533              		.loc 1 127 1
 534 0008 1846     		mov	r0, r3
 535 000a BD46     		mov	sp, r7
 536              	.LCFI33:
 537              		.cfi_def_cfa_register 13
 538              		@ sp needed
 539 000c 5DF8047B 		ldr	r7, [sp], #4
 540              	.LCFI34:
 541              		.cfi_restore 7
 542              		.cfi_def_cfa_offset 0
 543 0010 7047     		bx	lr
 544              	.L29:
 545 0012 00BF     		.align	2
 546              	.L28:
 547 0014 00000000 		.word	Os_Var
 548              		.cfi_endproc
 549              	.LFE345:
 551              		.section	.text.Os_Calc_Period,"ax",%progbits
 552              		.align	1
 553              		.syntax unified
 554              		.thumb
 555              		.thumb_func
 557              	Os_Calc_Period:
 558              	.LFB346:
 128:Core/Src/os.c **** 
 129:Core/Src/os.c **** static void Os_Calc_Period(uint8 idx)
 130:Core/Src/os.c **** {
 559              		.loc 1 130 1
 560              		.cfi_startproc
 561              		@ args = 0, pretend = 0, frame = 24
 562              		@ frame_needed = 1, uses_anonymous_args = 0
 563 0000 80B5     		push	{r7, lr}
 564              	.LCFI35:
 565              		.cfi_def_cfa_offset 8
 566              		.cfi_offset 7, -8
 567              		.cfi_offset 14, -4
 568 0002 86B0     		sub	sp, sp, #24
 569              	.LCFI36:
ARM GAS  /var/folders/d0/cymppscj10lcmm48h781wrc80000gn/T//cc5xzgm9.s 			page 13


 570              		.cfi_def_cfa_offset 32
 571 0004 00AF     		add	r7, sp, #0
 572              	.LCFI37:
 573              		.cfi_def_cfa_register 7
 574 0006 0346     		mov	r3, r0
 575 0008 FB71     		strb	r3, [r7, #7]
 131:Core/Src/os.c **** 	uint32 OS_TimeLoc=0;
 576              		.loc 1 131 9
 577 000a 0023     		movs	r3, #0
 578 000c 3B61     		str	r3, [r7, #16]
 132:Core/Src/os.c **** 	uint32 OS_TimeOldLoc=0;
 579              		.loc 1 132 9
 580 000e 0023     		movs	r3, #0
 581 0010 7B61     		str	r3, [r7, #20]
 133:Core/Src/os.c **** 	uint32 Os_TimeDiffLoc=0;
 582              		.loc 1 133 9
 583 0012 0023     		movs	r3, #0
 584 0014 FB60     		str	r3, [r7, #12]
 134:Core/Src/os.c **** 
 135:Core/Src/os.c **** 	OS_TimeLoc = Os_Get_Tick_1us();
 585              		.loc 1 135 15
 586 0016 FFF7FEFF 		bl	Os_Get_Tick_1us
 587 001a 3861     		str	r0, [r7, #16]
 136:Core/Src/os.c **** 
 137:Core/Src/os.c **** 	switch(idx)
 588              		.loc 1 137 2
 589 001c FB79     		ldrb	r3, [r7, #7]	@ zero_extendqisi2
 590 001e 032B     		cmp	r3, #3
 591 0020 0ED0     		beq	.L31
 592 0022 032B     		cmp	r3, #3
 593 0024 10DC     		bgt	.L32
 594 0026 012B     		cmp	r3, #1
 595 0028 02D0     		beq	.L33
 596 002a 022B     		cmp	r3, #2
 597 002c 04D0     		beq	.L34
 598 002e 0BE0     		b	.L32
 599              	.L33:
 138:Core/Src/os.c **** 	{
 139:Core/Src/os.c **** 		case OS_TASK_INDEX_1MS : 
 140:Core/Src/os.c **** 			OS_TimeOldLoc = Os_Var.Os_Tick_Period.Os_1ms_Tick_Period;
 600              		.loc 1 140 18
 601 0030 1A4B     		ldr	r3, .L41
 602 0032 9B6A     		ldr	r3, [r3, #40]
 603 0034 7B61     		str	r3, [r7, #20]
 141:Core/Src/os.c **** 		break;
 604              		.loc 1 141 3
 605 0036 07E0     		b	.L32
 606              	.L34:
 142:Core/Src/os.c **** 		case OS_TASK_INDEX_10MS : 
 143:Core/Src/os.c **** 			OS_TimeOldLoc = Os_Var.Os_Tick_Period.Os_10ms_Tick_Period;
 607              		.loc 1 143 18
 608 0038 184B     		ldr	r3, .L41
 609 003a DB6A     		ldr	r3, [r3, #44]
 610 003c 7B61     		str	r3, [r7, #20]
 144:Core/Src/os.c **** 		break;
 611              		.loc 1 144 3
 612 003e 03E0     		b	.L32
ARM GAS  /var/folders/d0/cymppscj10lcmm48h781wrc80000gn/T//cc5xzgm9.s 			page 14


 613              	.L31:
 145:Core/Src/os.c **** 		case OS_TASK_INDEX_100MS : 
 146:Core/Src/os.c **** 			OS_TimeOldLoc = Os_Var.Os_Tick_Period.Os_100ms_Tick_Period;
 614              		.loc 1 146 18
 615 0040 164B     		ldr	r3, .L41
 616 0042 1B6B     		ldr	r3, [r3, #48]
 617 0044 7B61     		str	r3, [r7, #20]
 147:Core/Src/os.c **** 		break;
 618              		.loc 1 147 3
 619 0046 00BF     		nop
 620              	.L32:
 148:Core/Src/os.c **** 	}
 149:Core/Src/os.c **** 
 150:Core/Src/os.c **** 	Os_TimeDiffLoc = OS_TimeLoc - OS_TimeOldLoc;
 621              		.loc 1 150 17
 622 0048 3A69     		ldr	r2, [r7, #16]
 623 004a 7B69     		ldr	r3, [r7, #20]
 624 004c D31A     		subs	r3, r2, r3
 625 004e FB60     		str	r3, [r7, #12]
 151:Core/Src/os.c **** 	OS_TimeOldLoc = OS_TimeLoc;
 626              		.loc 1 151 16
 627 0050 3B69     		ldr	r3, [r7, #16]
 628 0052 7B61     		str	r3, [r7, #20]
 152:Core/Src/os.c **** 	
 153:Core/Src/os.c **** 	switch(idx)
 629              		.loc 1 153 2
 630 0054 FB79     		ldrb	r3, [r7, #7]	@ zero_extendqisi2
 631 0056 032B     		cmp	r3, #3
 632 0058 14D0     		beq	.L35
 633 005a 032B     		cmp	r3, #3
 634 005c 1ADC     		bgt	.L40
 635 005e 012B     		cmp	r3, #1
 636 0060 02D0     		beq	.L37
 637 0062 022B     		cmp	r3, #2
 638 0064 07D0     		beq	.L38
 154:Core/Src/os.c **** 	{
 155:Core/Src/os.c **** 		case OS_TASK_INDEX_1MS : 
 156:Core/Src/os.c **** 			Os_Var.Os_Period.Os_1ms_Period = Os_TimeDiffLoc;
 157:Core/Src/os.c **** 			Os_Var.Os_Tick_Period.Os_1ms_Tick_Period = OS_TimeOldLoc;
 158:Core/Src/os.c **** 		break;
 159:Core/Src/os.c **** 		case OS_TASK_INDEX_10MS : 
 160:Core/Src/os.c **** 			Os_Var.Os_Period.Os_10ms_Period = Os_TimeDiffLoc;
 161:Core/Src/os.c **** 			Os_Var.Os_Tick_Period.Os_10ms_Tick_Period = OS_TimeOldLoc;
 162:Core/Src/os.c **** 		break;
 163:Core/Src/os.c **** 		case OS_TASK_INDEX_100MS : 
 164:Core/Src/os.c **** 			Os_Var.Os_Period.Os_100ms_Period = Os_TimeDiffLoc;
 165:Core/Src/os.c **** 			Os_Var.Os_Tick_Period.Os_100ms_Tick_Period = OS_TimeOldLoc;
 166:Core/Src/os.c **** 		break;
 167:Core/Src/os.c **** 	}
 168:Core/Src/os.c **** 	
 169:Core/Src/os.c **** 	return;
 639              		.loc 1 169 2
 640 0066 15E0     		b	.L40
 641              	.L37:
 156:Core/Src/os.c **** 			Os_Var.Os_Tick_Period.Os_1ms_Tick_Period = OS_TimeOldLoc;
 642              		.loc 1 156 35
 643 0068 0C4A     		ldr	r2, .L41
ARM GAS  /var/folders/d0/cymppscj10lcmm48h781wrc80000gn/T//cc5xzgm9.s 			page 15


 644 006a FB68     		ldr	r3, [r7, #12]
 645 006c 1364     		str	r3, [r2, #64]
 157:Core/Src/os.c **** 		break;
 646              		.loc 1 157 45
 647 006e 0B4A     		ldr	r2, .L41
 648 0070 7B69     		ldr	r3, [r7, #20]
 649 0072 9362     		str	r3, [r2, #40]
 158:Core/Src/os.c **** 		case OS_TASK_INDEX_10MS : 
 650              		.loc 1 158 3
 651 0074 0DE0     		b	.L36
 652              	.L38:
 160:Core/Src/os.c **** 			Os_Var.Os_Tick_Period.Os_10ms_Tick_Period = OS_TimeOldLoc;
 653              		.loc 1 160 36
 654 0076 094A     		ldr	r2, .L41
 655 0078 FB68     		ldr	r3, [r7, #12]
 656 007a 5364     		str	r3, [r2, #68]
 161:Core/Src/os.c **** 		break;
 657              		.loc 1 161 46
 658 007c 074A     		ldr	r2, .L41
 659 007e 7B69     		ldr	r3, [r7, #20]
 660 0080 D362     		str	r3, [r2, #44]
 162:Core/Src/os.c **** 		case OS_TASK_INDEX_100MS : 
 661              		.loc 1 162 3
 662 0082 06E0     		b	.L36
 663              	.L35:
 164:Core/Src/os.c **** 			Os_Var.Os_Tick_Period.Os_100ms_Tick_Period = OS_TimeOldLoc;
 664              		.loc 1 164 37
 665 0084 054A     		ldr	r2, .L41
 666 0086 FB68     		ldr	r3, [r7, #12]
 667 0088 9364     		str	r3, [r2, #72]
 165:Core/Src/os.c **** 		break;
 668              		.loc 1 165 47
 669 008a 044A     		ldr	r2, .L41
 670 008c 7B69     		ldr	r3, [r7, #20]
 671 008e 1363     		str	r3, [r2, #48]
 166:Core/Src/os.c **** 	}
 672              		.loc 1 166 3
 673 0090 00BF     		nop
 674              	.L36:
 675              		.loc 1 169 2
 676 0092 00BF     		nop
 677              	.L40:
 678 0094 00BF     		nop
 170:Core/Src/os.c **** }
 679              		.loc 1 170 1
 680 0096 1837     		adds	r7, r7, #24
 681              	.LCFI38:
 682              		.cfi_def_cfa_offset 8
 683 0098 BD46     		mov	sp, r7
 684              	.LCFI39:
 685              		.cfi_def_cfa_register 13
 686              		@ sp needed
 687 009a 80BD     		pop	{r7, pc}
 688              	.L42:
 689              		.align	2
 690              	.L41:
 691 009c 00000000 		.word	Os_Var
ARM GAS  /var/folders/d0/cymppscj10lcmm48h781wrc80000gn/T//cc5xzgm9.s 			page 16


 692              		.cfi_endproc
 693              	.LFE346:
 695              		.section	.text.Os_Calc_Runtime_Start,"ax",%progbits
 696              		.align	1
 697              		.syntax unified
 698              		.thumb
 699              		.thumb_func
 701              	Os_Calc_Runtime_Start:
 702              	.LFB347:
 171:Core/Src/os.c **** 
 172:Core/Src/os.c **** static void Os_Calc_Runtime_Start(uint8 idx)
 173:Core/Src/os.c **** {
 703              		.loc 1 173 1
 704              		.cfi_startproc
 705              		@ args = 0, pretend = 0, frame = 16
 706              		@ frame_needed = 1, uses_anonymous_args = 0
 707 0000 80B5     		push	{r7, lr}
 708              	.LCFI40:
 709              		.cfi_def_cfa_offset 8
 710              		.cfi_offset 7, -8
 711              		.cfi_offset 14, -4
 712 0002 84B0     		sub	sp, sp, #16
 713              	.LCFI41:
 714              		.cfi_def_cfa_offset 24
 715 0004 00AF     		add	r7, sp, #0
 716              	.LCFI42:
 717              		.cfi_def_cfa_register 7
 718 0006 0346     		mov	r3, r0
 719 0008 FB71     		strb	r3, [r7, #7]
 174:Core/Src/os.c **** 	uint32 OS_TimeLoc=0;
 720              		.loc 1 174 9
 721 000a 0023     		movs	r3, #0
 722 000c FB60     		str	r3, [r7, #12]
 175:Core/Src/os.c **** 
 176:Core/Src/os.c **** 	OS_TimeLoc = Os_Get_Tick_1us();
 723              		.loc 1 176 15
 724 000e FFF7FEFF 		bl	Os_Get_Tick_1us
 725 0012 F860     		str	r0, [r7, #12]
 177:Core/Src/os.c **** 
 178:Core/Src/os.c **** 	switch(idx)
 726              		.loc 1 178 2
 727 0014 FB79     		ldrb	r3, [r7, #7]	@ zero_extendqisi2
 728 0016 032B     		cmp	r3, #3
 729 0018 0ED0     		beq	.L44
 730 001a 032B     		cmp	r3, #3
 731 001c 11DC     		bgt	.L49
 732 001e 012B     		cmp	r3, #1
 733 0020 02D0     		beq	.L46
 734 0022 022B     		cmp	r3, #2
 735 0024 04D0     		beq	.L47
 179:Core/Src/os.c **** 	{
 180:Core/Src/os.c **** 		case OS_TASK_INDEX_1MS : 
 181:Core/Src/os.c **** 			Os_Var.Os_Tick_Runtime.Os_1ms_Tick_Runtime_Start = OS_TimeLoc;
 182:Core/Src/os.c **** 		break;
 183:Core/Src/os.c **** 		case OS_TASK_INDEX_10MS : 
 184:Core/Src/os.c **** 			Os_Var.Os_Tick_Runtime.Os_10ms_Tick_Runtime_Start = OS_TimeLoc;
 185:Core/Src/os.c **** 		break;
ARM GAS  /var/folders/d0/cymppscj10lcmm48h781wrc80000gn/T//cc5xzgm9.s 			page 17


 186:Core/Src/os.c **** 		case OS_TASK_INDEX_100MS : 
 187:Core/Src/os.c **** 			Os_Var.Os_Tick_Runtime.Os_100ms_Tick_Runtime_Start = OS_TimeLoc;
 188:Core/Src/os.c **** 		break;
 189:Core/Src/os.c **** 	}
 190:Core/Src/os.c **** 
 191:Core/Src/os.c **** 	return;
 736              		.loc 1 191 2
 737 0026 0CE0     		b	.L49
 738              	.L46:
 181:Core/Src/os.c **** 		break;
 739              		.loc 1 181 53
 740 0028 084A     		ldr	r2, .L50
 741 002a FB68     		ldr	r3, [r7, #12]
 742 002c 1361     		str	r3, [r2, #16]
 182:Core/Src/os.c **** 		case OS_TASK_INDEX_10MS : 
 743              		.loc 1 182 3
 744 002e 07E0     		b	.L45
 745              	.L47:
 184:Core/Src/os.c **** 		break;
 746              		.loc 1 184 54
 747 0030 064A     		ldr	r2, .L50
 748 0032 FB68     		ldr	r3, [r7, #12]
 749 0034 9361     		str	r3, [r2, #24]
 185:Core/Src/os.c **** 		case OS_TASK_INDEX_100MS : 
 750              		.loc 1 185 3
 751 0036 03E0     		b	.L45
 752              	.L44:
 187:Core/Src/os.c **** 		break;
 753              		.loc 1 187 55
 754 0038 044A     		ldr	r2, .L50
 755 003a FB68     		ldr	r3, [r7, #12]
 756 003c 1362     		str	r3, [r2, #32]
 188:Core/Src/os.c **** 	}
 757              		.loc 1 188 3
 758 003e 00BF     		nop
 759              	.L45:
 760              		.loc 1 191 2
 761 0040 00BF     		nop
 762              	.L49:
 763 0042 00BF     		nop
 192:Core/Src/os.c **** }
 764              		.loc 1 192 1
 765 0044 1037     		adds	r7, r7, #16
 766              	.LCFI43:
 767              		.cfi_def_cfa_offset 8
 768 0046 BD46     		mov	sp, r7
 769              	.LCFI44:
 770              		.cfi_def_cfa_register 13
 771              		@ sp needed
 772 0048 80BD     		pop	{r7, pc}
 773              	.L51:
 774 004a 00BF     		.align	2
 775              	.L50:
 776 004c 00000000 		.word	Os_Var
 777              		.cfi_endproc
 778              	.LFE347:
 780              		.section	.text.Os_Calc_Runtime_Stop,"ax",%progbits
ARM GAS  /var/folders/d0/cymppscj10lcmm48h781wrc80000gn/T//cc5xzgm9.s 			page 18


 781              		.align	1
 782              		.syntax unified
 783              		.thumb
 784              		.thumb_func
 786              	Os_Calc_Runtime_Stop:
 787              	.LFB348:
 193:Core/Src/os.c **** 
 194:Core/Src/os.c **** static void Os_Calc_Runtime_Stop(uint8 idx)
 195:Core/Src/os.c **** {
 788              		.loc 1 195 1
 789              		.cfi_startproc
 790              		@ args = 0, pretend = 0, frame = 24
 791              		@ frame_needed = 1, uses_anonymous_args = 0
 792 0000 80B5     		push	{r7, lr}
 793              	.LCFI45:
 794              		.cfi_def_cfa_offset 8
 795              		.cfi_offset 7, -8
 796              		.cfi_offset 14, -4
 797 0002 86B0     		sub	sp, sp, #24
 798              	.LCFI46:
 799              		.cfi_def_cfa_offset 32
 800 0004 00AF     		add	r7, sp, #0
 801              	.LCFI47:
 802              		.cfi_def_cfa_register 7
 803 0006 0346     		mov	r3, r0
 804 0008 FB71     		strb	r3, [r7, #7]
 196:Core/Src/os.c **** 	uint32 OS_TimeLoc=0;
 805              		.loc 1 196 9
 806 000a 0023     		movs	r3, #0
 807 000c 3B61     		str	r3, [r7, #16]
 197:Core/Src/os.c **** 	uint32 OS_TimeOldLoc=0;
 808              		.loc 1 197 9
 809 000e 0023     		movs	r3, #0
 810 0010 7B61     		str	r3, [r7, #20]
 198:Core/Src/os.c **** 	uint32 Os_TimeDiffLoc=0;
 811              		.loc 1 198 9
 812 0012 0023     		movs	r3, #0
 813 0014 FB60     		str	r3, [r7, #12]
 199:Core/Src/os.c **** 
 200:Core/Src/os.c **** 	OS_TimeLoc = Os_Get_Tick_1us();
 814              		.loc 1 200 15
 815 0016 FFF7FEFF 		bl	Os_Get_Tick_1us
 816 001a 3861     		str	r0, [r7, #16]
 201:Core/Src/os.c **** 
 202:Core/Src/os.c **** 	switch(idx)
 817              		.loc 1 202 2
 818 001c FB79     		ldrb	r3, [r7, #7]	@ zero_extendqisi2
 819 001e 032B     		cmp	r3, #3
 820 0020 0ED0     		beq	.L53
 821 0022 032B     		cmp	r3, #3
 822 0024 10DC     		bgt	.L54
 823 0026 012B     		cmp	r3, #1
 824 0028 02D0     		beq	.L55
 825 002a 022B     		cmp	r3, #2
 826 002c 04D0     		beq	.L56
 827 002e 0BE0     		b	.L54
 828              	.L55:
ARM GAS  /var/folders/d0/cymppscj10lcmm48h781wrc80000gn/T//cc5xzgm9.s 			page 19


 203:Core/Src/os.c **** 	{
 204:Core/Src/os.c **** 		case OS_TASK_INDEX_1MS : 
 205:Core/Src/os.c **** 			OS_TimeOldLoc = Os_Var.Os_Tick_Runtime.Os_1ms_Tick_Runtime_Start;
 829              		.loc 1 205 18
 830 0030 194B     		ldr	r3, .L63
 831 0032 1B69     		ldr	r3, [r3, #16]
 832 0034 7B61     		str	r3, [r7, #20]
 206:Core/Src/os.c **** 		break;
 833              		.loc 1 206 3
 834 0036 07E0     		b	.L54
 835              	.L56:
 207:Core/Src/os.c **** 		case OS_TASK_INDEX_10MS : 
 208:Core/Src/os.c **** 			OS_TimeOldLoc = Os_Var.Os_Tick_Runtime.Os_10ms_Tick_Runtime_Start;
 836              		.loc 1 208 18
 837 0038 174B     		ldr	r3, .L63
 838 003a 9B69     		ldr	r3, [r3, #24]
 839 003c 7B61     		str	r3, [r7, #20]
 209:Core/Src/os.c **** 		break;
 840              		.loc 1 209 3
 841 003e 03E0     		b	.L54
 842              	.L53:
 210:Core/Src/os.c **** 		case OS_TASK_INDEX_100MS : 
 211:Core/Src/os.c **** 			OS_TimeOldLoc = Os_Var.Os_Tick_Runtime.Os_100ms_Tick_Runtime_Start;
 843              		.loc 1 211 18
 844 0040 154B     		ldr	r3, .L63
 845 0042 1B6A     		ldr	r3, [r3, #32]
 846 0044 7B61     		str	r3, [r7, #20]
 212:Core/Src/os.c **** 		break;
 847              		.loc 1 212 3
 848 0046 00BF     		nop
 849              	.L54:
 213:Core/Src/os.c **** 	}
 214:Core/Src/os.c **** 
 215:Core/Src/os.c **** 	Os_TimeDiffLoc = OS_TimeLoc - OS_TimeOldLoc;
 850              		.loc 1 215 17
 851 0048 3A69     		ldr	r2, [r7, #16]
 852 004a 7B69     		ldr	r3, [r7, #20]
 853 004c D31A     		subs	r3, r2, r3
 854 004e FB60     		str	r3, [r7, #12]
 216:Core/Src/os.c **** 
 217:Core/Src/os.c **** 	switch(idx)
 855              		.loc 1 217 2
 856 0050 FB79     		ldrb	r3, [r7, #7]	@ zero_extendqisi2
 857 0052 032B     		cmp	r3, #3
 858 0054 14D0     		beq	.L57
 859 0056 032B     		cmp	r3, #3
 860 0058 1ADC     		bgt	.L62
 861 005a 012B     		cmp	r3, #1
 862 005c 02D0     		beq	.L59
 863 005e 022B     		cmp	r3, #2
 864 0060 07D0     		beq	.L60
 218:Core/Src/os.c **** 	{
 219:Core/Src/os.c **** 		case OS_TASK_INDEX_1MS : 
 220:Core/Src/os.c **** 			Os_Var.Os_Runtime.Os_1ms_Runtime = Os_TimeDiffLoc;
 221:Core/Src/os.c **** 			Os_Var.Os_Tick_Runtime.Os_1ms_Tick_Runtime_Stop = OS_TimeLoc;
 222:Core/Src/os.c **** 		break;
 223:Core/Src/os.c **** 		case OS_TASK_INDEX_10MS : 
ARM GAS  /var/folders/d0/cymppscj10lcmm48h781wrc80000gn/T//cc5xzgm9.s 			page 20


 224:Core/Src/os.c **** 			Os_Var.Os_Runtime.Os_10ms_Runtime = Os_TimeDiffLoc;
 225:Core/Src/os.c **** 			Os_Var.Os_Tick_Runtime.Os_10ms_Tick_Runtime_Stop = OS_TimeLoc;
 226:Core/Src/os.c **** 		break;
 227:Core/Src/os.c **** 		case OS_TASK_INDEX_100MS : 
 228:Core/Src/os.c **** 			Os_Var.Os_Runtime.Os_100ms_Runtime = Os_TimeDiffLoc;
 229:Core/Src/os.c **** 			Os_Var.Os_Tick_Runtime.Os_100ms_Tick_Runtime_Stop = OS_TimeLoc;
 230:Core/Src/os.c **** 		break;
 231:Core/Src/os.c **** 	}
 232:Core/Src/os.c **** 
 233:Core/Src/os.c **** 	return;
 865              		.loc 1 233 2
 866 0062 15E0     		b	.L62
 867              	.L59:
 220:Core/Src/os.c **** 			Os_Var.Os_Tick_Runtime.Os_1ms_Tick_Runtime_Stop = OS_TimeLoc;
 868              		.loc 1 220 37
 869 0064 0C4A     		ldr	r2, .L63
 870 0066 FB68     		ldr	r3, [r7, #12]
 871 0068 5363     		str	r3, [r2, #52]
 221:Core/Src/os.c **** 		break;
 872              		.loc 1 221 52
 873 006a 0B4A     		ldr	r2, .L63
 874 006c 3B69     		ldr	r3, [r7, #16]
 875 006e 5361     		str	r3, [r2, #20]
 222:Core/Src/os.c **** 		case OS_TASK_INDEX_10MS : 
 876              		.loc 1 222 3
 877 0070 0DE0     		b	.L58
 878              	.L60:
 224:Core/Src/os.c **** 			Os_Var.Os_Tick_Runtime.Os_10ms_Tick_Runtime_Stop = OS_TimeLoc;
 879              		.loc 1 224 38
 880 0072 094A     		ldr	r2, .L63
 881 0074 FB68     		ldr	r3, [r7, #12]
 882 0076 9363     		str	r3, [r2, #56]
 225:Core/Src/os.c **** 		break;
 883              		.loc 1 225 53
 884 0078 074A     		ldr	r2, .L63
 885 007a 3B69     		ldr	r3, [r7, #16]
 886 007c D361     		str	r3, [r2, #28]
 226:Core/Src/os.c **** 		case OS_TASK_INDEX_100MS : 
 887              		.loc 1 226 3
 888 007e 06E0     		b	.L58
 889              	.L57:
 228:Core/Src/os.c **** 			Os_Var.Os_Tick_Runtime.Os_100ms_Tick_Runtime_Stop = OS_TimeLoc;
 890              		.loc 1 228 39
 891 0080 054A     		ldr	r2, .L63
 892 0082 FB68     		ldr	r3, [r7, #12]
 893 0084 D363     		str	r3, [r2, #60]
 229:Core/Src/os.c **** 		break;
 894              		.loc 1 229 54
 895 0086 044A     		ldr	r2, .L63
 896 0088 3B69     		ldr	r3, [r7, #16]
 897 008a 5362     		str	r3, [r2, #36]
 230:Core/Src/os.c **** 	}
 898              		.loc 1 230 3
 899 008c 00BF     		nop
 900              	.L58:
 901              		.loc 1 233 2
 902 008e 00BF     		nop
ARM GAS  /var/folders/d0/cymppscj10lcmm48h781wrc80000gn/T//cc5xzgm9.s 			page 21


 903              	.L62:
 904 0090 00BF     		nop
 234:Core/Src/os.c **** }...
 905              		.loc 1 234 1
 906 0092 1837     		adds	r7, r7, #24
 907              	.LCFI48:
 908              		.cfi_def_cfa_offset 8
 909 0094 BD46     		mov	sp, r7
 910              	.LCFI49:
 911              		.cfi_def_cfa_register 13
 912              		@ sp needed
 913 0096 80BD     		pop	{r7, pc}
 914              	.L64:
 915              		.align	2
 916              	.L63:
 917 0098 00000000 		.word	Os_Var
 918              		.cfi_endproc
 919              	.LFE348:
 921              		.text
 922              	.Letext0:
 923              		.file 2 "Core/Inc/vardef.h"
 924              		.file 3 "Core/Inc/os.h"
ARM GAS  /var/folders/d0/cymppscj10lcmm48h781wrc80000gn/T//cc5xzgm9.s 			page 22


DEFINED SYMBOLS
                            *ABS*:0000000000000000 os.c
/var/folders/d0/cymppscj10lcmm48h781wrc80000gn/T//cc5xzgm9.s:23     .bss.Os_Var:0000000000000000 Os_Var
/var/folders/d0/cymppscj10lcmm48h781wrc80000gn/T//cc5xzgm9.s:20     .bss.Os_Var:0000000000000000 $d
/var/folders/d0/cymppscj10lcmm48h781wrc80000gn/T//cc5xzgm9.s:26     .text.Os_Init_Task:0000000000000000 $t
/var/folders/d0/cymppscj10lcmm48h781wrc80000gn/T//cc5xzgm9.s:32     .text.Os_Init_Task:0000000000000000 Os_Init_Task
/var/folders/d0/cymppscj10lcmm48h781wrc80000gn/T//cc5xzgm9.s:58     .text.Os_1ms_Task:0000000000000000 $t
/var/folders/d0/cymppscj10lcmm48h781wrc80000gn/T//cc5xzgm9.s:63     .text.Os_1ms_Task:0000000000000000 Os_1ms_Task
/var/folders/d0/cymppscj10lcmm48h781wrc80000gn/T//cc5xzgm9.s:94     .text.Os_10ms_Task:0000000000000000 $t
/var/folders/d0/cymppscj10lcmm48h781wrc80000gn/T//cc5xzgm9.s:99     .text.Os_10ms_Task:0000000000000000 Os_10ms_Task
/var/folders/d0/cymppscj10lcmm48h781wrc80000gn/T//cc5xzgm9.s:126    .text.Os_100ms_Task:0000000000000000 $t
/var/folders/d0/cymppscj10lcmm48h781wrc80000gn/T//cc5xzgm9.s:131    .text.Os_100ms_Task:0000000000000000 Os_100ms_Task
/var/folders/d0/cymppscj10lcmm48h781wrc80000gn/T//cc5xzgm9.s:154    .text.Os_Background_Task:0000000000000000 $t
/var/folders/d0/cymppscj10lcmm48h781wrc80000gn/T//cc5xzgm9.s:159    .text.Os_Background_Task:0000000000000000 Os_Background_Task
/var/folders/d0/cymppscj10lcmm48h781wrc80000gn/T//cc5xzgm9.s:188    .text.Os_Time_Handler:0000000000000000 $t
/var/folders/d0/cymppscj10lcmm48h781wrc80000gn/T//cc5xzgm9.s:194    .text.Os_Time_Handler:0000000000000000 Os_Time_Handler
/var/folders/d0/cymppscj10lcmm48h781wrc80000gn/T//cc5xzgm9.s:229    .text.Os_Time_Handler:0000000000000018 $d
/var/folders/d0/cymppscj10lcmm48h781wrc80000gn/T//cc5xzgm9.s:234    .text.Os_Handler:0000000000000000 $t
/var/folders/d0/cymppscj10lcmm48h781wrc80000gn/T//cc5xzgm9.s:240    .text.Os_Handler:0000000000000000 Os_Handler
/var/folders/d0/cymppscj10lcmm48h781wrc80000gn/T//cc5xzgm9.s:701    .text.Os_Calc_Runtime_Start:0000000000000000 Os_Calc_Runtime_Start
/var/folders/d0/cymppscj10lcmm48h781wrc80000gn/T//cc5xzgm9.s:786    .text.Os_Calc_Runtime_Stop:0000000000000000 Os_Calc_Runtime_Stop
/var/folders/d0/cymppscj10lcmm48h781wrc80000gn/T//cc5xzgm9.s:557    .text.Os_Calc_Period:0000000000000000 Os_Calc_Period
/var/folders/d0/cymppscj10lcmm48h781wrc80000gn/T//cc5xzgm9.s:314    .text.Os_Handler:0000000000000058 $d
/var/folders/d0/cymppscj10lcmm48h781wrc80000gn/T//cc5xzgm9.s:320    .text.Os_Handler_1ms:0000000000000000 $t
/var/folders/d0/cymppscj10lcmm48h781wrc80000gn/T//cc5xzgm9.s:326    .text.Os_Handler_1ms:0000000000000000 Os_Handler_1ms
/var/folders/d0/cymppscj10lcmm48h781wrc80000gn/T//cc5xzgm9.s:421    .text.Os_Handler_1ms:000000000000007c $d
/var/folders/d0/cymppscj10lcmm48h781wrc80000gn/T//cc5xzgm9.s:428    .text.Os_Handler_10ms:0000000000000000 $t
/var/folders/d0/cymppscj10lcmm48h781wrc80000gn/T//cc5xzgm9.s:434    .text.Os_Handler_10ms:0000000000000000 Os_Handler_10ms
/var/folders/d0/cymppscj10lcmm48h781wrc80000gn/T//cc5xzgm9.s:504    .text.Os_Handler_10ms:0000000000000054 $d
/var/folders/d0/cymppscj10lcmm48h781wrc80000gn/T//cc5xzgm9.s:510    .text.Os_Get_Tick_1us:0000000000000000 $t
/var/folders/d0/cymppscj10lcmm48h781wrc80000gn/T//cc5xzgm9.s:516    .text.Os_Get_Tick_1us:0000000000000000 Os_Get_Tick_1us
/var/folders/d0/cymppscj10lcmm48h781wrc80000gn/T//cc5xzgm9.s:547    .text.Os_Get_Tick_1us:0000000000000014 $d
/var/folders/d0/cymppscj10lcmm48h781wrc80000gn/T//cc5xzgm9.s:552    .text.Os_Calc_Period:0000000000000000 $t
/var/folders/d0/cymppscj10lcmm48h781wrc80000gn/T//cc5xzgm9.s:691    .text.Os_Calc_Period:000000000000009c $d
/var/folders/d0/cymppscj10lcmm48h781wrc80000gn/T//cc5xzgm9.s:696    .text.Os_Calc_Runtime_Start:0000000000000000 $t
/var/folders/d0/cymppscj10lcmm48h781wrc80000gn/T//cc5xzgm9.s:776    .text.Os_Calc_Runtime_Start:000000000000004c $d
/var/folders/d0/cymppscj10lcmm48h781wrc80000gn/T//cc5xzgm9.s:781    .text.Os_Calc_Runtime_Stop:0000000000000000 $t
/var/folders/d0/cymppscj10lcmm48h781wrc80000gn/T//cc5xzgm9.s:917    .text.Os_Calc_Runtime_Stop:0000000000000098 $d

UNDEFINED SYMBOLS
LCD_Init
Can_Init
LED_Control
IMU_Control
LCD_Set_Clock
LCD_Set_Color
Motor_Drvier_Control
IMU_FindAddress
Adc_Read
Adc_Calc
Can_Transmit
