ARM GAS  C:\Users\jisu8\AppData\Local\Temp\ccZCHBv4.s 			page 1


   1              		.cpu cortex-m7
   2              		.eabi_attribute 28, 1
   3              		.eabi_attribute 20, 1
   4              		.eabi_attribute 21, 1
   5              		.eabi_attribute 23, 3
   6              		.eabi_attribute 24, 1
   7              		.eabi_attribute 25, 1
   8              		.eabi_attribute 26, 1
   9              		.eabi_attribute 30, 1
  10              		.eabi_attribute 34, 1
  11              		.eabi_attribute 18, 4
  12              		.file	"os.c"
  13              		.text
  14              	.Ltext0:
  15              		.cfi_sections	.debug_frame
  16              		.section	.text.Os_Init_Task,"ax",%progbits
  17              		.align	1
  18              		.global	Os_Init_Task
  19              		.arch armv7e-m
  20              		.syntax unified
  21              		.thumb
  22              		.thumb_func
  23              		.fpu fpv5-d16
  25              	Os_Init_Task:
  26              	.LFB145:
  27              		.file 1 "Core/Src/os.c"
   1:Core/Src/os.c **** #include "os.h"
   2:Core/Src/os.c **** #include "led.h"
   3:Core/Src/os.c **** #include "imu.h"
   4:Core/Src/os.c **** 
   5:Core/Src/os.c **** Os_Counter_t Os_Counter;
   6:Core/Src/os.c **** void Os_Handler(void)
   7:Core/Src/os.c **** {
   8:Core/Src/os.c **** 	if(Os_Counter.Os_1ms_Counter % 1 == 0)
   9:Core/Src/os.c **** 	{
  10:Core/Src/os.c **** 		(void)Os_1ms_Task();
  11:Core/Src/os.c **** 		Os_Counter.Os_1ms_Counter++;
  12:Core/Src/os.c **** 	}
  13:Core/Src/os.c **** 	if(Os_Counter.Os_1ms_Counter % 5 == 0)
  14:Core/Src/os.c **** 	{
  15:Core/Src/os.c **** 		(void)Os_5ms_Task();
  16:Core/Src/os.c **** 		Os_Counter.Os_5ms_Counter++;
  17:Core/Src/os.c **** 	}
  18:Core/Src/os.c **** 	if(Os_Counter.Os_1ms_Counter % 10 == 0)
  19:Core/Src/os.c **** 	{
  20:Core/Src/os.c **** 		(void)Os_10ms_Task();
  21:Core/Src/os.c **** 		Os_Counter.Os_10ms_Counter++;
  22:Core/Src/os.c **** 	}
  23:Core/Src/os.c **** 	if(Os_Counter.Os_1ms_Counter % 100 == 0)
  24:Core/Src/os.c **** 	{
  25:Core/Src/os.c **** 		(void)Os_100ms_Task();
  26:Core/Src/os.c **** 		Os_Counter.Os_100ms_Counter++;
  27:Core/Src/os.c **** 	}
  28:Core/Src/os.c **** 	if(Os_Counter.Os_1ms_Counter % 1000 == 0)
  29:Core/Src/os.c **** 	{
  30:Core/Src/os.c **** 		(void)Os_1000ms_Task();
  31:Core/Src/os.c **** 		Os_Counter.Os_1000ms_Counter++;
ARM GAS  C:\Users\jisu8\AppData\Local\Temp\ccZCHBv4.s 			page 2


  32:Core/Src/os.c **** 	}
  33:Core/Src/os.c **** 
  34:Core/Src/os.c ****     return;
  35:Core/Src/os.c **** }
  36:Core/Src/os.c **** 
  37:Core/Src/os.c **** void Os_Init_Task(void)
  38:Core/Src/os.c **** {
  28              		.loc 1 38 1 view -0
  29              		.cfi_startproc
  30              		@ args = 0, pretend = 0, frame = 0
  31              		@ frame_needed = 0, uses_anonymous_args = 0
  32              		@ link register save eliminated.
  39:Core/Src/os.c **** 
  40:Core/Src/os.c **** }
  33              		.loc 1 40 1 view .LVU1
  34 0000 7047     		bx	lr
  35              		.cfi_endproc
  36              	.LFE145:
  38              		.section	.text.Os_1ms_Task,"ax",%progbits
  39              		.align	1
  40              		.global	Os_1ms_Task
  41              		.syntax unified
  42              		.thumb
  43              		.thumb_func
  44              		.fpu fpv5-d16
  46              	Os_1ms_Task:
  47              	.LFB146:
  41:Core/Src/os.c **** 
  42:Core/Src/os.c **** void Os_1ms_Task(void)
  43:Core/Src/os.c **** {
  48              		.loc 1 43 1 view -0
  49              		.cfi_startproc
  50              		@ args = 0, pretend = 0, frame = 0
  51              		@ frame_needed = 0, uses_anonymous_args = 0
  52 0000 08B5     		push	{r3, lr}
  53              	.LCFI0:
  54              		.cfi_def_cfa_offset 8
  55              		.cfi_offset 3, -8
  56              		.cfi_offset 14, -4
  44:Core/Src/os.c **** 	LED_Control();
  57              		.loc 1 44 2 view .LVU3
  58 0002 FFF7FEFF 		bl	LED_Control
  59              	.LVL0:
  45:Core/Src/os.c **** 	IMU_Control();
  60              		.loc 1 45 2 view .LVU4
  61 0006 FFF7FEFF 		bl	IMU_Control
  62              	.LVL1:
  46:Core/Src/os.c **** }
  63              		.loc 1 46 1 is_stmt 0 view .LVU5
  64 000a 08BD     		pop	{r3, pc}
  65              		.cfi_endproc
  66              	.LFE146:
  68              		.section	.text.Os_Handler,"ax",%progbits
  69              		.align	1
  70              		.global	Os_Handler
  71              		.syntax unified
  72              		.thumb
ARM GAS  C:\Users\jisu8\AppData\Local\Temp\ccZCHBv4.s 			page 3


  73              		.thumb_func
  74              		.fpu fpv5-d16
  76              	Os_Handler:
  77              	.LFB144:
   7:Core/Src/os.c **** 	if(Os_Counter.Os_1ms_Counter % 1 == 0)
  78              		.loc 1 7 1 is_stmt 1 view -0
  79              		.cfi_startproc
  80              		@ args = 0, pretend = 0, frame = 0
  81              		@ frame_needed = 0, uses_anonymous_args = 0
  82 0000 08B5     		push	{r3, lr}
  83              	.LCFI1:
  84              		.cfi_def_cfa_offset 8
  85              		.cfi_offset 3, -8
  86              		.cfi_offset 14, -4
   8:Core/Src/os.c **** 	{
  87              		.loc 1 8 2 view .LVU7
  10:Core/Src/os.c **** 		Os_Counter.Os_1ms_Counter++;
  88              		.loc 1 10 3 view .LVU8
  89 0002 FFF7FEFF 		bl	Os_1ms_Task
  90              	.LVL2:
  11:Core/Src/os.c **** 	}
  91              		.loc 1 11 3 view .LVU9
  11:Core/Src/os.c **** 	}
  92              		.loc 1 11 13 is_stmt 0 view .LVU10
  93 0006 1C4A     		ldr	r2, .L10
  94 0008 1368     		ldr	r3, [r2]
  11:Core/Src/os.c **** 	}
  95              		.loc 1 11 28 view .LVU11
  96 000a 0133     		adds	r3, r3, #1
  97 000c 1360     		str	r3, [r2]
  13:Core/Src/os.c **** 	{
  98              		.loc 1 13 2 is_stmt 1 view .LVU12
  13:Core/Src/os.c **** 	{
  99              		.loc 1 13 31 is_stmt 0 view .LVU13
 100 000e 1B4A     		ldr	r2, .L10+4
 101 0010 A2FB0312 		umull	r1, r2, r2, r3
 102 0014 22F00301 		bic	r1, r2, #3
 103 0018 01EB9202 		add	r2, r1, r2, lsr #2
  13:Core/Src/os.c **** 	{
 104              		.loc 1 13 4 view .LVU14
 105 001c 9342     		cmp	r3, r2
 106 001e 03D1     		bne	.L5
  15:Core/Src/os.c **** 		Os_Counter.Os_5ms_Counter++;
 107              		.loc 1 15 3 is_stmt 1 view .LVU15
  16:Core/Src/os.c **** 	}
 108              		.loc 1 16 3 view .LVU16
  16:Core/Src/os.c **** 	}
 109              		.loc 1 16 13 is_stmt 0 view .LVU17
 110 0020 1549     		ldr	r1, .L10
 111 0022 4A68     		ldr	r2, [r1, #4]
  16:Core/Src/os.c **** 	}
 112              		.loc 1 16 28 view .LVU18
 113 0024 0132     		adds	r2, r2, #1
 114 0026 4A60     		str	r2, [r1, #4]
 115              	.L5:
  18:Core/Src/os.c **** 	{
 116              		.loc 1 18 2 is_stmt 1 view .LVU19
ARM GAS  C:\Users\jisu8\AppData\Local\Temp\ccZCHBv4.s 			page 4


  18:Core/Src/os.c **** 	{
 117              		.loc 1 18 31 is_stmt 0 view .LVU20
 118 0028 144A     		ldr	r2, .L10+4
 119 002a A2FB0312 		umull	r1, r2, r2, r3
 120 002e D208     		lsrs	r2, r2, #3
 121 0030 02EB8202 		add	r2, r2, r2, lsl #2
 122 0034 5100     		lsls	r1, r2, #1
  18:Core/Src/os.c **** 	{
 123              		.loc 1 18 4 view .LVU21
 124 0036 8B42     		cmp	r3, r1
 125 0038 03D1     		bne	.L6
  20:Core/Src/os.c **** 		Os_Counter.Os_10ms_Counter++;
 126              		.loc 1 20 3 is_stmt 1 view .LVU22
  21:Core/Src/os.c **** 	}
 127              		.loc 1 21 3 view .LVU23
  21:Core/Src/os.c **** 	}
 128              		.loc 1 21 13 is_stmt 0 view .LVU24
 129 003a 0F49     		ldr	r1, .L10
 130 003c 8A68     		ldr	r2, [r1, #8]
  21:Core/Src/os.c **** 	}
 131              		.loc 1 21 29 view .LVU25
 132 003e 0132     		adds	r2, r2, #1
 133 0040 8A60     		str	r2, [r1, #8]
 134              	.L6:
  23:Core/Src/os.c **** 	{
 135              		.loc 1 23 2 is_stmt 1 view .LVU26
  23:Core/Src/os.c **** 	{
 136              		.loc 1 23 31 is_stmt 0 view .LVU27
 137 0042 0F4A     		ldr	r2, .L10+8
 138 0044 A2FB0312 		umull	r1, r2, r2, r3
 139 0048 5209     		lsrs	r2, r2, #5
 140 004a 6421     		movs	r1, #100
 141 004c 01FB1232 		mls	r2, r1, r2, r3
  23:Core/Src/os.c **** 	{
 142              		.loc 1 23 4 view .LVU28
 143 0050 1AB9     		cbnz	r2, .L7
  25:Core/Src/os.c **** 		Os_Counter.Os_100ms_Counter++;
 144              		.loc 1 25 3 is_stmt 1 view .LVU29
  26:Core/Src/os.c **** 	}
 145              		.loc 1 26 3 view .LVU30
  26:Core/Src/os.c **** 	}
 146              		.loc 1 26 13 is_stmt 0 view .LVU31
 147 0052 0949     		ldr	r1, .L10
 148 0054 CA68     		ldr	r2, [r1, #12]
  26:Core/Src/os.c **** 	}
 149              		.loc 1 26 30 view .LVU32
 150 0056 0132     		adds	r2, r2, #1
 151 0058 CA60     		str	r2, [r1, #12]
 152              	.L7:
  28:Core/Src/os.c **** 	{
 153              		.loc 1 28 2 is_stmt 1 view .LVU33
  28:Core/Src/os.c **** 	{
 154              		.loc 1 28 31 is_stmt 0 view .LVU34
 155 005a 0A4A     		ldr	r2, .L10+12
 156 005c A2FB0312 		umull	r1, r2, r2, r3
 157 0060 9209     		lsrs	r2, r2, #6
 158 0062 4FF47A71 		mov	r1, #1000
ARM GAS  C:\Users\jisu8\AppData\Local\Temp\ccZCHBv4.s 			page 5


 159 0066 01FB1232 		mls	r2, r1, r2, r3
  28:Core/Src/os.c **** 	{
 160              		.loc 1 28 4 view .LVU35
 161 006a 1AB9     		cbnz	r2, .L4
  30:Core/Src/os.c **** 		Os_Counter.Os_1000ms_Counter++;
 162              		.loc 1 30 3 is_stmt 1 view .LVU36
  31:Core/Src/os.c **** 	}
 163              		.loc 1 31 3 view .LVU37
  31:Core/Src/os.c **** 	}
 164              		.loc 1 31 13 is_stmt 0 view .LVU38
 165 006c 024A     		ldr	r2, .L10
 166 006e 1369     		ldr	r3, [r2, #16]
  31:Core/Src/os.c **** 	}
 167              		.loc 1 31 31 view .LVU39
 168 0070 0133     		adds	r3, r3, #1
 169 0072 1361     		str	r3, [r2, #16]
  34:Core/Src/os.c **** }
 170              		.loc 1 34 5 is_stmt 1 view .LVU40
 171              	.L4:
  35:Core/Src/os.c **** 
 172              		.loc 1 35 1 is_stmt 0 view .LVU41
 173 0074 08BD     		pop	{r3, pc}
 174              	.L11:
 175 0076 00BF     		.align	2
 176              	.L10:
 177 0078 00000000 		.word	.LANCHOR0
 178 007c CDCCCCCC 		.word	-858993459
 179 0080 1F85EB51 		.word	1374389535
 180 0084 D34D6210 		.word	274877907
 181              		.cfi_endproc
 182              	.LFE144:
 184              		.section	.text.Os_5ms_Task,"ax",%progbits
 185              		.align	1
 186              		.global	Os_5ms_Task
 187              		.syntax unified
 188              		.thumb
 189              		.thumb_func
 190              		.fpu fpv5-d16
 192              	Os_5ms_Task:
 193              	.LFB147:
  47:Core/Src/os.c **** 
  48:Core/Src/os.c **** void Os_5ms_Task(void)
  49:Core/Src/os.c **** {
 194              		.loc 1 49 1 is_stmt 1 view -0
 195              		.cfi_startproc
 196              		@ args = 0, pretend = 0, frame = 0
 197              		@ frame_needed = 0, uses_anonymous_args = 0
 198              		@ link register save eliminated.
  50:Core/Src/os.c **** 
  51:Core/Src/os.c **** }
 199              		.loc 1 51 1 view .LVU43
 200 0000 7047     		bx	lr
 201              		.cfi_endproc
 202              	.LFE147:
 204              		.section	.text.Os_10ms_Task,"ax",%progbits
 205              		.align	1
 206              		.global	Os_10ms_Task
ARM GAS  C:\Users\jisu8\AppData\Local\Temp\ccZCHBv4.s 			page 6


 207              		.syntax unified
 208              		.thumb
 209              		.thumb_func
 210              		.fpu fpv5-d16
 212              	Os_10ms_Task:
 213              	.LFB148:
  52:Core/Src/os.c **** 
  53:Core/Src/os.c **** void Os_10ms_Task(void)
  54:Core/Src/os.c **** {
 214              		.loc 1 54 1 view -0
 215              		.cfi_startproc
 216              		@ args = 0, pretend = 0, frame = 0
 217              		@ frame_needed = 0, uses_anonymous_args = 0
 218              		@ link register save eliminated.
  55:Core/Src/os.c **** 
  56:Core/Src/os.c **** }
 219              		.loc 1 56 1 view .LVU45
 220 0000 7047     		bx	lr
 221              		.cfi_endproc
 222              	.LFE148:
 224              		.section	.text.Os_100ms_Task,"ax",%progbits
 225              		.align	1
 226              		.global	Os_100ms_Task
 227              		.syntax unified
 228              		.thumb
 229              		.thumb_func
 230              		.fpu fpv5-d16
 232              	Os_100ms_Task:
 233              	.LFB149:
  57:Core/Src/os.c **** 
  58:Core/Src/os.c **** void Os_100ms_Task(void)
  59:Core/Src/os.c **** {
 234              		.loc 1 59 1 view -0
 235              		.cfi_startproc
 236              		@ args = 0, pretend = 0, frame = 0
 237              		@ frame_needed = 0, uses_anonymous_args = 0
 238              		@ link register save eliminated.
  60:Core/Src/os.c **** 
  61:Core/Src/os.c **** }
 239              		.loc 1 61 1 view .LVU47
 240 0000 7047     		bx	lr
 241              		.cfi_endproc
 242              	.LFE149:
 244              		.section	.text.Os_1000ms_Task,"ax",%progbits
 245              		.align	1
 246              		.global	Os_1000ms_Task
 247              		.syntax unified
 248              		.thumb
 249              		.thumb_func
 250              		.fpu fpv5-d16
 252              	Os_1000ms_Task:
 253              	.LFB150:
  62:Core/Src/os.c **** 
  63:Core/Src/os.c **** void Os_1000ms_Task(void)
  64:Core/Src/os.c **** {
 254              		.loc 1 64 1 view -0
 255              		.cfi_startproc
ARM GAS  C:\Users\jisu8\AppData\Local\Temp\ccZCHBv4.s 			page 7


 256              		@ args = 0, pretend = 0, frame = 0
 257              		@ frame_needed = 0, uses_anonymous_args = 0
 258              		@ link register save eliminated.
  65:Core/Src/os.c **** 
  66:Core/Src/os.c **** }...
 259              		.loc 1 66 1 view .LVU49
 260 0000 7047     		bx	lr
 261              		.cfi_endproc
 262              	.LFE150:
 264              		.global	Os_Counter
 265              		.section	.bss.Os_Counter,"aw",%nobits
 266              		.align	2
 267              		.set	.LANCHOR0,. + 0
 270              	Os_Counter:
 271 0000 00000000 		.space	20
 271      00000000 
 271      00000000 
 271      00000000 
 271      00000000 
 272              		.text
 273              	.Letext0:
 274              		.file 2 "Core/Inc/os.h"
 275              		.file 3 "Core/Inc/vardef.h"
 276              		.file 4 "Core/Inc/led.h"
 277              		.file 5 "Core/Inc/imu.h"
ARM GAS  C:\Users\jisu8\AppData\Local\Temp\ccZCHBv4.s 			page 8


DEFINED SYMBOLS
                            *ABS*:00000000 os.c
C:\Users\jisu8\AppData\Local\Temp\ccZCHBv4.s:17     .text.Os_Init_Task:00000000 $t
C:\Users\jisu8\AppData\Local\Temp\ccZCHBv4.s:25     .text.Os_Init_Task:00000000 Os_Init_Task
C:\Users\jisu8\AppData\Local\Temp\ccZCHBv4.s:39     .text.Os_1ms_Task:00000000 $t
C:\Users\jisu8\AppData\Local\Temp\ccZCHBv4.s:46     .text.Os_1ms_Task:00000000 Os_1ms_Task
C:\Users\jisu8\AppData\Local\Temp\ccZCHBv4.s:69     .text.Os_Handler:00000000 $t
C:\Users\jisu8\AppData\Local\Temp\ccZCHBv4.s:76     .text.Os_Handler:00000000 Os_Handler
C:\Users\jisu8\AppData\Local\Temp\ccZCHBv4.s:177    .text.Os_Handler:00000078 $d
C:\Users\jisu8\AppData\Local\Temp\ccZCHBv4.s:185    .text.Os_5ms_Task:00000000 $t
C:\Users\jisu8\AppData\Local\Temp\ccZCHBv4.s:192    .text.Os_5ms_Task:00000000 Os_5ms_Task
C:\Users\jisu8\AppData\Local\Temp\ccZCHBv4.s:205    .text.Os_10ms_Task:00000000 $t
C:\Users\jisu8\AppData\Local\Temp\ccZCHBv4.s:212    .text.Os_10ms_Task:00000000 Os_10ms_Task
C:\Users\jisu8\AppData\Local\Temp\ccZCHBv4.s:225    .text.Os_100ms_Task:00000000 $t
C:\Users\jisu8\AppData\Local\Temp\ccZCHBv4.s:232    .text.Os_100ms_Task:00000000 Os_100ms_Task
C:\Users\jisu8\AppData\Local\Temp\ccZCHBv4.s:245    .text.Os_1000ms_Task:00000000 $t
C:\Users\jisu8\AppData\Local\Temp\ccZCHBv4.s:252    .text.Os_1000ms_Task:00000000 Os_1000ms_Task
C:\Users\jisu8\AppData\Local\Temp\ccZCHBv4.s:270    .bss.Os_Counter:00000000 Os_Counter
C:\Users\jisu8\AppData\Local\Temp\ccZCHBv4.s:266    .bss.Os_Counter:00000000 $d

UNDEFINED SYMBOLS
LED_Control
IMU_Control
