ARM GAS  C:\Users\jisu8\AppData\Local\Temp\cczwwFQl.s 			page 1


   1              		.cpu cortex-m7
   2              		.arch armv7e-m
   3              		.fpu fpv5-d16
   4              		.eabi_attribute 28, 1
   5              		.eabi_attribute 20, 1
   6              		.eabi_attribute 21, 1
   7              		.eabi_attribute 23, 3
   8              		.eabi_attribute 24, 1
   9              		.eabi_attribute 25, 1
  10              		.eabi_attribute 26, 1
  11              		.eabi_attribute 30, 1
  12              		.eabi_attribute 34, 1
  13              		.eabi_attribute 18, 4
  14              		.file	"os.c"
  15              		.text
  16              	.Ltext0:
  17              		.cfi_sections	.debug_frame
  18              		.section	.text.Os_100ms_Task,"ax",%progbits
  19              		.align	1
  20              		.syntax unified
  21              		.thumb
  22              		.thumb_func
  24              	Os_100ms_Task:
  25              	.LFB339:
  26              		.file 1 "Core/Src/os.c"
   1:Core/Src/os.c **** #include "os.h"
   2:Core/Src/os.c **** #include "led.h"
   3:Core/Src/os.c **** #include "imu.h"
   4:Core/Src/os.c **** #include "adc.h"
   5:Core/Src/os.c **** #include "lcd.h"
   6:Core/Src/os.c **** #include "uart.h"
   7:Core/Src/os.c **** #include "can.h"
   8:Core/Src/os.c **** 
   9:Core/Src/os.c **** Os_Var_t Os_Var;
  10:Core/Src/os.c **** 
  11:Core/Src/os.c **** 
  12:Core/Src/os.c **** static void Os_Calc_Period(uint8 idx);
  13:Core/Src/os.c **** static void Os_Calc_Runtime_Start(uint8 idx);
  14:Core/Src/os.c **** static void Os_Calc_Runtime_Stop(uint8 idx);
  15:Core/Src/os.c **** static void Os_1ms_Task(void);
  16:Core/Src/os.c **** static void Os_10ms_Task(void);
  17:Core/Src/os.c **** static void Os_100ms_Task(void);
  18:Core/Src/os.c **** static void Os_Background_Task(void);
  19:Core/Src/os.c **** 
  20:Core/Src/os.c **** void Os_Init_Task(void)
  21:Core/Src/os.c **** {
  22:Core/Src/os.c **** 	LCD_Init();
  23:Core/Src/os.c **** 	Can_Init();
  24:Core/Src/os.c **** }
  25:Core/Src/os.c **** 
  26:Core/Src/os.c **** static void Os_1ms_Task(void)
  27:Core/Src/os.c **** {
  28:Core/Src/os.c **** 	LED_Control();
  29:Core/Src/os.c **** 	IMU_Control();
  30:Core/Src/os.c **** 	LCD_Set_Clock();
  31:Core/Src/os.c **** 	LCD_Set_Color();
  32:Core/Src/os.c **** 	Motor_Drvier_Control();
ARM GAS  C:\Users\jisu8\AppData\Local\Temp\cczwwFQl.s 			page 2


  33:Core/Src/os.c **** }
  34:Core/Src/os.c **** 
  35:Core/Src/os.c **** static void Os_10ms_Task(void)
  36:Core/Src/os.c **** {
  37:Core/Src/os.c **** 	IMU_FindAddress();
  38:Core/Src/os.c **** 	Adc_Read();
  39:Core/Src/os.c **** 	Adc_Calc();
  40:Core/Src/os.c **** }
  41:Core/Src/os.c **** 
  42:Core/Src/os.c **** static void Os_100ms_Task(void)
  43:Core/Src/os.c **** {
  27              		.loc 1 43 1 view -0
  28              		.cfi_startproc
  29              		@ args = 0, pretend = 0, frame = 0
  30              		@ frame_needed = 0, uses_anonymous_args = 0
  31 0000 08B5     		push	{r3, lr}
  32              	.LCFI0:
  33              		.cfi_def_cfa_offset 8
  34              		.cfi_offset 3, -8
  35              		.cfi_offset 14, -4
  44:Core/Src/os.c **** 	Can_Transmit();
  36              		.loc 1 44 2 view .LVU1
  37 0002 FFF7FEFF 		bl	Can_Transmit
  38              	.LVL0:
  45:Core/Src/os.c **** }
  39              		.loc 1 45 1 is_stmt 0 view .LVU2
  40 0006 08BD     		pop	{r3, pc}
  41              		.cfi_endproc
  42              	.LFE339:
  44              		.section	.text.Os_1ms_Task,"ax",%progbits
  45              		.align	1
  46              		.syntax unified
  47              		.thumb
  48              		.thumb_func
  50              	Os_1ms_Task:
  51              	.LFB337:
  27:Core/Src/os.c **** 	LED_Control();
  52              		.loc 1 27 1 is_stmt 1 view -0
  53              		.cfi_startproc
  54              		@ args = 0, pretend = 0, frame = 0
  55              		@ frame_needed = 0, uses_anonymous_args = 0
  56 0000 08B5     		push	{r3, lr}
  57              	.LCFI1:
  58              		.cfi_def_cfa_offset 8
  59              		.cfi_offset 3, -8
  60              		.cfi_offset 14, -4
  28:Core/Src/os.c **** 	IMU_Control();
  61              		.loc 1 28 2 view .LVU4
  62 0002 FFF7FEFF 		bl	LED_Control
  63              	.LVL1:
  29:Core/Src/os.c **** 	LCD_Set_Clock();
  64              		.loc 1 29 2 view .LVU5
  65 0006 FFF7FEFF 		bl	IMU_Control
  66              	.LVL2:
  30:Core/Src/os.c **** 	LCD_Set_Color();
  67              		.loc 1 30 2 view .LVU6
  68 000a FFF7FEFF 		bl	LCD_Set_Clock
ARM GAS  C:\Users\jisu8\AppData\Local\Temp\cczwwFQl.s 			page 3


  69              	.LVL3:
  31:Core/Src/os.c **** 	Motor_Drvier_Control();
  70              		.loc 1 31 2 view .LVU7
  71 000e FFF7FEFF 		bl	LCD_Set_Color
  72              	.LVL4:
  32:Core/Src/os.c **** }
  73              		.loc 1 32 2 view .LVU8
  74 0012 FFF7FEFF 		bl	Motor_Drvier_Control
  75              	.LVL5:
  33:Core/Src/os.c **** 
  76              		.loc 1 33 1 is_stmt 0 view .LVU9
  77 0016 08BD     		pop	{r3, pc}
  78              		.cfi_endproc
  79              	.LFE337:
  81              		.section	.text.Os_10ms_Task,"ax",%progbits
  82              		.align	1
  83              		.syntax unified
  84              		.thumb
  85              		.thumb_func
  87              	Os_10ms_Task:
  88              	.LFB338:
  36:Core/Src/os.c **** 	IMU_FindAddress();
  89              		.loc 1 36 1 is_stmt 1 view -0
  90              		.cfi_startproc
  91              		@ args = 0, pretend = 0, frame = 0
  92              		@ frame_needed = 0, uses_anonymous_args = 0
  93 0000 08B5     		push	{r3, lr}
  94              	.LCFI2:
  95              		.cfi_def_cfa_offset 8
  96              		.cfi_offset 3, -8
  97              		.cfi_offset 14, -4
  37:Core/Src/os.c **** 	Adc_Read();
  98              		.loc 1 37 2 view .LVU11
  99 0002 FFF7FEFF 		bl	IMU_FindAddress
 100              	.LVL6:
  38:Core/Src/os.c **** 	Adc_Calc();
 101              		.loc 1 38 2 view .LVU12
 102 0006 FFF7FEFF 		bl	Adc_Read
 103              	.LVL7:
  39:Core/Src/os.c **** }
 104              		.loc 1 39 2 view .LVU13
 105 000a FFF7FEFF 		bl	Adc_Calc
 106              	.LVL8:
  40:Core/Src/os.c **** 
 107              		.loc 1 40 1 is_stmt 0 view .LVU14
 108 000e 08BD     		pop	{r3, pc}
 109              		.cfi_endproc
 110              	.LFE338:
 112              		.section	.text.Os_Init_Task,"ax",%progbits
 113              		.align	1
 114              		.global	Os_Init_Task
 115              		.syntax unified
 116              		.thumb
 117              		.thumb_func
 119              	Os_Init_Task:
 120              	.LFB336:
  21:Core/Src/os.c **** 	LCD_Init();
ARM GAS  C:\Users\jisu8\AppData\Local\Temp\cczwwFQl.s 			page 4


 121              		.loc 1 21 1 is_stmt 1 view -0
 122              		.cfi_startproc
 123              		@ args = 0, pretend = 0, frame = 0
 124              		@ frame_needed = 0, uses_anonymous_args = 0
 125 0000 08B5     		push	{r3, lr}
 126              	.LCFI3:
 127              		.cfi_def_cfa_offset 8
 128              		.cfi_offset 3, -8
 129              		.cfi_offset 14, -4
  22:Core/Src/os.c **** 	Can_Init();
 130              		.loc 1 22 2 view .LVU16
 131 0002 FFF7FEFF 		bl	LCD_Init
 132              	.LVL9:
  23:Core/Src/os.c **** }
 133              		.loc 1 23 2 view .LVU17
 134 0006 FFF7FEFF 		bl	Can_Init
 135              	.LVL10:
  24:Core/Src/os.c **** 
 136              		.loc 1 24 1 is_stmt 0 view .LVU18
 137 000a 08BD     		pop	{r3, pc}
 138              		.cfi_endproc
 139              	.LFE336:
 141              		.section	.text.Os_Time_Handler,"ax",%progbits
 142              		.align	1
 143              		.global	Os_Time_Handler
 144              		.syntax unified
 145              		.thumb
 146              		.thumb_func
 148              	Os_Time_Handler:
 149              	.LFB341:
  46:Core/Src/os.c **** 
  47:Core/Src/os.c **** static void Os_Background_Task(void)
  48:Core/Src/os.c **** {
  49:Core/Src/os.c **** 
  50:Core/Src/os.c **** }
  51:Core/Src/os.c **** 
  52:Core/Src/os.c **** void Os_Time_Handler(void)
  53:Core/Src/os.c **** {
 150              		.loc 1 53 1 is_stmt 1 view -0
 151              		.cfi_startproc
 152              		@ args = 0, pretend = 0, frame = 0
 153              		@ frame_needed = 0, uses_anonymous_args = 0
 154              		@ link register save eliminated.
  54:Core/Src/os.c **** 	Os_Var.Os_Counter.Os_1us_Counter++;
 155              		.loc 1 54 2 view .LVU20
 156              		.loc 1 54 19 is_stmt 0 view .LVU21
 157 0000 024A     		ldr	r2, .L10
 158 0002 1368     		ldr	r3, [r2]
 159              		.loc 1 54 34 view .LVU22
 160 0004 0133     		adds	r3, r3, #1
 161 0006 1360     		str	r3, [r2]
  55:Core/Src/os.c **** }
 162              		.loc 1 55 1 view .LVU23
 163 0008 7047     		bx	lr
 164              	.L11:
 165 000a 00BF     		.align	2
 166              	.L10:
ARM GAS  C:\Users\jisu8\AppData\Local\Temp\cczwwFQl.s 			page 5


 167 000c 00000000 		.word	.LANCHOR0
 168              		.cfi_endproc
 169              	.LFE341:
 171              		.section	.text.Os_Get_Tick_1us,"ax",%progbits
 172              		.align	1
 173              		.global	Os_Get_Tick_1us
 174              		.syntax unified
 175              		.thumb
 176              		.thumb_func
 178              	Os_Get_Tick_1us:
 179              	.LFB345:
  56:Core/Src/os.c **** 
  57:Core/Src/os.c **** void Os_Handler(void)
  58:Core/Src/os.c **** {
  59:Core/Src/os.c **** 	void(*fp)(void);
  60:Core/Src/os.c ****     if(Os_Var.Os_Task_Flag.Os_100ms_Flag == 1)
  61:Core/Src/os.c **** 	{
  62:Core/Src/os.c **** 		fp = Os_100ms_Task;
  63:Core/Src/os.c **** 		Os_Var.Os_Task_Add.Os_100ms_Address = fp;
  64:Core/Src/os.c **** 		Os_Var.Os_Task_Flag.Os_100ms_Flag = 0;
  65:Core/Src/os.c **** 		Os_Calc_Runtime_Start(OS_TASK_INDEX_100MS);
  66:Core/Src/os.c **** 		(void)Os_100ms_Task();
  67:Core/Src/os.c **** 		Os_Calc_Runtime_Stop(OS_TASK_INDEX_100MS);
  68:Core/Src/os.c **** 		Os_Calc_Period(OS_TASK_INDEX_100MS);
  69:Core/Src/os.c **** 	}
  70:Core/Src/os.c **** 	else
  71:Core/Src/os.c **** 	{
  72:Core/Src/os.c **** 		Os_Calc_Runtime_Start(OS_TASK_INDEX_BG);
  73:Core/Src/os.c **** 		(void)Os_Background_Task();
  74:Core/Src/os.c **** 		Os_Calc_Runtime_Stop(OS_TASK_INDEX_BG);
  75:Core/Src/os.c **** 		Os_Calc_Period(OS_TASK_INDEX_BG);
  76:Core/Src/os.c **** 	}
  77:Core/Src/os.c **** 
  78:Core/Src/os.c ****     return;
  79:Core/Src/os.c **** }
  80:Core/Src/os.c **** 
  81:Core/Src/os.c **** void Os_Handler_1ms(void)
  82:Core/Src/os.c **** {
  83:Core/Src/os.c **** 	if(Os_Var.Os_Counter.Os_1ms_Counter % 1 == 0)
  84:Core/Src/os.c **** 	{
  85:Core/Src/os.c **** 		Os_Var.Os_Counter.Os_1ms_Counter++;
  86:Core/Src/os.c **** 		Os_Var.Os_Task_Flag.Os_1ms_Flag = 1;
  87:Core/Src/os.c **** 	}
  88:Core/Src/os.c **** 
  89:Core/Src/os.c **** 	if(Os_Var.Os_Counter.Os_1ms_Counter % 100 == 0)
  90:Core/Src/os.c **** 	{
  91:Core/Src/os.c **** 		Os_Var.Os_Counter.Os_100ms_Counter++;
  92:Core/Src/os.c **** 		Os_Var.Os_Task_Flag.Os_100ms_Flag = 1;
  93:Core/Src/os.c **** 	}
  94:Core/Src/os.c **** 	void(*fp)(void);
  95:Core/Src/os.c **** 	if(Os_Var.Os_Task_Flag.Os_1ms_Flag == 1)
  96:Core/Src/os.c **** 	{
  97:Core/Src/os.c **** 		fp = Os_1ms_Task;
  98:Core/Src/os.c **** 		Os_Var.Os_Task_Add.Os_1ms_Address = fp;
  99:Core/Src/os.c **** 		Os_Var.Os_Task_Flag.Os_1ms_Flag = 0;
 100:Core/Src/os.c **** 		Os_Calc_Runtime_Start(OS_TASK_INDEX_1MS);
 101:Core/Src/os.c **** 		(void)Os_1ms_Task();
ARM GAS  C:\Users\jisu8\AppData\Local\Temp\cczwwFQl.s 			page 6


 102:Core/Src/os.c **** 		Os_Calc_Runtime_Stop(OS_TASK_INDEX_1MS);
 103:Core/Src/os.c **** 		Os_Calc_Period(OS_TASK_INDEX_1MS);
 104:Core/Src/os.c **** 	}
 105:Core/Src/os.c **** }
 106:Core/Src/os.c **** 
 107:Core/Src/os.c **** void Os_Handler_10ms(void)
 108:Core/Src/os.c **** {
 109:Core/Src/os.c **** 	Os_Var.Os_Counter.Os_10ms_Counter++;
 110:Core/Src/os.c **** 	Os_Var.Os_Task_Flag.Os_10ms_Flag = 1;
 111:Core/Src/os.c **** 	void(*fp)(void);
 112:Core/Src/os.c **** 	if(Os_Var.Os_Task_Flag.Os_10ms_Flag == 1)
 113:Core/Src/os.c **** 	{
 114:Core/Src/os.c **** 		fp = Os_10ms_Task;
 115:Core/Src/os.c **** 		Os_Var.Os_Task_Add.Os_10ms_Address = fp;
 116:Core/Src/os.c **** 		Os_Var.Os_Task_Flag.Os_10ms_Flag = 0;
 117:Core/Src/os.c **** 		Os_Calc_Runtime_Start(OS_TASK_INDEX_10MS);
 118:Core/Src/os.c **** 		(void)Os_10ms_Task();
 119:Core/Src/os.c **** 		Os_Calc_Runtime_Stop(OS_TASK_INDEX_10MS);
 120:Core/Src/os.c **** 		Os_Calc_Period(OS_TASK_INDEX_10MS);
 121:Core/Src/os.c **** 	}
 122:Core/Src/os.c **** }
 123:Core/Src/os.c **** 
 124:Core/Src/os.c **** uint32 Os_Get_Tick_1us(void)
 125:Core/Src/os.c **** {
 180              		.loc 1 125 1 is_stmt 1 view -0
 181              		.cfi_startproc
 182              		@ args = 0, pretend = 0, frame = 0
 183              		@ frame_needed = 0, uses_anonymous_args = 0
 184              		@ link register save eliminated.
 126:Core/Src/os.c **** 	return Os_Var.Os_Counter.Os_1us_Counter;
 185              		.loc 1 126 2 view .LVU25
 127:Core/Src/os.c **** }
 186              		.loc 1 127 1 is_stmt 0 view .LVU26
 187 0000 014B     		ldr	r3, .L13
 188 0002 1868     		ldr	r0, [r3]
 189 0004 7047     		bx	lr
 190              	.L14:
 191 0006 00BF     		.align	2
 192              	.L13:
 193 0008 00000000 		.word	.LANCHOR0
 194              		.cfi_endproc
 195              	.LFE345:
 197              		.section	.text.Os_Calc_Runtime_Start,"ax",%progbits
 198              		.align	1
 199              		.syntax unified
 200              		.thumb
 201              		.thumb_func
 203              	Os_Calc_Runtime_Start:
 204              	.LVL11:
 205              	.LFB347:
 128:Core/Src/os.c **** 
 129:Core/Src/os.c **** static void Os_Calc_Period(uint8 idx)
 130:Core/Src/os.c **** {
 131:Core/Src/os.c **** 	uint32 OS_TimeLoc=0;
 132:Core/Src/os.c **** 	uint32 OS_TimeOldLoc=0;
 133:Core/Src/os.c **** 	uint32 Os_TimeDiffLoc=0;
 134:Core/Src/os.c **** 
ARM GAS  C:\Users\jisu8\AppData\Local\Temp\cczwwFQl.s 			page 7


 135:Core/Src/os.c **** 	OS_TimeLoc = Os_Get_Tick_1us();
 136:Core/Src/os.c **** 
 137:Core/Src/os.c **** 	switch(idx)
 138:Core/Src/os.c **** 	{
 139:Core/Src/os.c **** 		case OS_TASK_INDEX_1MS : 
 140:Core/Src/os.c **** 			OS_TimeOldLoc = Os_Var.Os_Tick_Period.Os_1ms_Tick_Period;
 141:Core/Src/os.c **** 		break;
 142:Core/Src/os.c **** 		case OS_TASK_INDEX_10MS : 
 143:Core/Src/os.c **** 			OS_TimeOldLoc = Os_Var.Os_Tick_Period.Os_10ms_Tick_Period;
 144:Core/Src/os.c **** 		break;
 145:Core/Src/os.c **** 		case OS_TASK_INDEX_100MS : 
 146:Core/Src/os.c **** 			OS_TimeOldLoc = Os_Var.Os_Tick_Period.Os_100ms_Tick_Period;
 147:Core/Src/os.c **** 		break;
 148:Core/Src/os.c **** 	}
 149:Core/Src/os.c **** 
 150:Core/Src/os.c **** 	Os_TimeDiffLoc = OS_TimeLoc - OS_TimeOldLoc;
 151:Core/Src/os.c **** 	OS_TimeOldLoc = OS_TimeLoc;
 152:Core/Src/os.c **** 	
 153:Core/Src/os.c **** 	switch(idx)
 154:Core/Src/os.c **** 	{
 155:Core/Src/os.c **** 		case OS_TASK_INDEX_1MS : 
 156:Core/Src/os.c **** 			Os_Var.Os_Period.Os_1ms_Period = Os_TimeDiffLoc;
 157:Core/Src/os.c **** 			Os_Var.Os_Tick_Period.Os_1ms_Tick_Period = OS_TimeOldLoc;
 158:Core/Src/os.c **** 		break;
 159:Core/Src/os.c **** 		case OS_TASK_INDEX_10MS : 
 160:Core/Src/os.c **** 			Os_Var.Os_Period.Os_10ms_Period = Os_TimeDiffLoc;
 161:Core/Src/os.c **** 			Os_Var.Os_Tick_Period.Os_10ms_Tick_Period = OS_TimeOldLoc;
 162:Core/Src/os.c **** 		break;
 163:Core/Src/os.c **** 		case OS_TASK_INDEX_100MS : 
 164:Core/Src/os.c **** 			Os_Var.Os_Period.Os_100ms_Period = Os_TimeDiffLoc;
 165:Core/Src/os.c **** 			Os_Var.Os_Tick_Period.Os_100ms_Tick_Period = OS_TimeOldLoc;
 166:Core/Src/os.c **** 		break;
 167:Core/Src/os.c **** 	}
 168:Core/Src/os.c **** 	
 169:Core/Src/os.c **** 	return;
 170:Core/Src/os.c **** }
 171:Core/Src/os.c **** 
 172:Core/Src/os.c **** static void Os_Calc_Runtime_Start(uint8 idx)
 173:Core/Src/os.c **** {
 206              		.loc 1 173 1 is_stmt 1 view -0
 207              		.cfi_startproc
 208              		@ args = 0, pretend = 0, frame = 0
 209              		@ frame_needed = 0, uses_anonymous_args = 0
 210              		.loc 1 173 1 is_stmt 0 view .LVU28
 211 0000 10B5     		push	{r4, lr}
 212              	.LCFI4:
 213              		.cfi_def_cfa_offset 8
 214              		.cfi_offset 4, -8
 215              		.cfi_offset 14, -4
 216 0002 0446     		mov	r4, r0
 174:Core/Src/os.c **** 	uint32 OS_TimeLoc=0;
 217              		.loc 1 174 2 is_stmt 1 view .LVU29
 218              	.LVL12:
 175:Core/Src/os.c **** 
 176:Core/Src/os.c **** 	OS_TimeLoc = Os_Get_Tick_1us();
 219              		.loc 1 176 2 view .LVU30
 220              		.loc 1 176 15 is_stmt 0 view .LVU31
ARM GAS  C:\Users\jisu8\AppData\Local\Temp\cczwwFQl.s 			page 8


 221 0004 FFF7FEFF 		bl	Os_Get_Tick_1us
 222              	.LVL13:
 177:Core/Src/os.c **** 
 178:Core/Src/os.c **** 	switch(idx)
 223              		.loc 1 178 2 is_stmt 1 view .LVU32
 224 0008 022C     		cmp	r4, #2
 225 000a 07D0     		beq	.L16
 226 000c 032C     		cmp	r4, #3
 227 000e 08D0     		beq	.L17
 228 0010 012C     		cmp	r4, #1
 229 0012 00D0     		beq	.L20
 230              	.L15:
 179:Core/Src/os.c **** 	{
 180:Core/Src/os.c **** 		case OS_TASK_INDEX_1MS : 
 181:Core/Src/os.c **** 			Os_Var.Os_Tick_Runtime.Os_1ms_Tick_Runtime_Start = OS_TimeLoc;
 182:Core/Src/os.c **** 		break;
 183:Core/Src/os.c **** 		case OS_TASK_INDEX_10MS : 
 184:Core/Src/os.c **** 			Os_Var.Os_Tick_Runtime.Os_10ms_Tick_Runtime_Start = OS_TimeLoc;
 185:Core/Src/os.c **** 		break;
 186:Core/Src/os.c **** 		case OS_TASK_INDEX_100MS : 
 187:Core/Src/os.c **** 			Os_Var.Os_Tick_Runtime.Os_100ms_Tick_Runtime_Start = OS_TimeLoc;
 188:Core/Src/os.c **** 		break;
 189:Core/Src/os.c **** 	}
 190:Core/Src/os.c **** 
 191:Core/Src/os.c **** 	return;
 192:Core/Src/os.c **** }
 231              		.loc 1 192 1 is_stmt 0 view .LVU33
 232 0014 10BD     		pop	{r4, pc}
 233              	.L20:
 181:Core/Src/os.c **** 		break;
 234              		.loc 1 181 4 is_stmt 1 view .LVU34
 181:Core/Src/os.c **** 		break;
 235              		.loc 1 181 53 is_stmt 0 view .LVU35
 236 0016 044B     		ldr	r3, .L21
 237 0018 1861     		str	r0, [r3, #16]
 182:Core/Src/os.c **** 		case OS_TASK_INDEX_10MS : 
 238              		.loc 1 182 3 is_stmt 1 view .LVU36
 239 001a FBE7     		b	.L15
 240              	.L16:
 184:Core/Src/os.c **** 		break;
 241              		.loc 1 184 4 view .LVU37
 184:Core/Src/os.c **** 		break;
 242              		.loc 1 184 54 is_stmt 0 view .LVU38
 243 001c 024B     		ldr	r3, .L21
 244 001e 9861     		str	r0, [r3, #24]
 185:Core/Src/os.c **** 		case OS_TASK_INDEX_100MS : 
 245              		.loc 1 185 3 is_stmt 1 view .LVU39
 246 0020 F8E7     		b	.L15
 247              	.L17:
 187:Core/Src/os.c **** 		break;
 248              		.loc 1 187 4 view .LVU40
 187:Core/Src/os.c **** 		break;
 249              		.loc 1 187 55 is_stmt 0 view .LVU41
 250 0022 014B     		ldr	r3, .L21
 251 0024 1862     		str	r0, [r3, #32]
 188:Core/Src/os.c **** 	}
 252              		.loc 1 188 3 is_stmt 1 view .LVU42
ARM GAS  C:\Users\jisu8\AppData\Local\Temp\cczwwFQl.s 			page 9


 191:Core/Src/os.c **** }
 253              		.loc 1 191 2 view .LVU43
 254 0026 F5E7     		b	.L15
 255              	.L22:
 256              		.align	2
 257              	.L21:
 258 0028 00000000 		.word	.LANCHOR0
 259              		.cfi_endproc
 260              	.LFE347:
 262              		.section	.text.Os_Calc_Runtime_Stop,"ax",%progbits
 263              		.align	1
 264              		.syntax unified
 265              		.thumb
 266              		.thumb_func
 268              	Os_Calc_Runtime_Stop:
 269              	.LVL14:
 270              	.LFB348:
 193:Core/Src/os.c **** 
 194:Core/Src/os.c **** static void Os_Calc_Runtime_Stop(uint8 idx)
 195:Core/Src/os.c **** {
 271              		.loc 1 195 1 view -0
 272              		.cfi_startproc
 273              		@ args = 0, pretend = 0, frame = 0
 274              		@ frame_needed = 0, uses_anonymous_args = 0
 275              		.loc 1 195 1 is_stmt 0 view .LVU45
 276 0000 10B5     		push	{r4, lr}
 277              	.LCFI5:
 278              		.cfi_def_cfa_offset 8
 279              		.cfi_offset 4, -8
 280              		.cfi_offset 14, -4
 281 0002 0446     		mov	r4, r0
 196:Core/Src/os.c **** 	uint32 OS_TimeLoc=0;
 282              		.loc 1 196 2 is_stmt 1 view .LVU46
 283              	.LVL15:
 197:Core/Src/os.c **** 	uint32 OS_TimeOldLoc=0;
 284              		.loc 1 197 2 view .LVU47
 198:Core/Src/os.c **** 	uint32 Os_TimeDiffLoc=0;
 285              		.loc 1 198 2 view .LVU48
 199:Core/Src/os.c **** 
 200:Core/Src/os.c **** 	OS_TimeLoc = Os_Get_Tick_1us();
 286              		.loc 1 200 2 view .LVU49
 287              		.loc 1 200 15 is_stmt 0 view .LVU50
 288 0004 FFF7FEFF 		bl	Os_Get_Tick_1us
 289              	.LVL16:
 201:Core/Src/os.c **** 
 202:Core/Src/os.c **** 	switch(idx)
 290              		.loc 1 202 2 is_stmt 1 view .LVU51
 291 0008 022C     		cmp	r4, #2
 292 000a 0FD0     		beq	.L24
 293 000c 032C     		cmp	r4, #3
 294 000e 10D0     		beq	.L25
 295 0010 012C     		cmp	r4, #1
 296 0012 08D0     		beq	.L32
 297 0014 0023     		movs	r3, #0
 298              	.LVL17:
 299              	.L26:
 203:Core/Src/os.c **** 	{
ARM GAS  C:\Users\jisu8\AppData\Local\Temp\cczwwFQl.s 			page 10


 204:Core/Src/os.c **** 		case OS_TASK_INDEX_1MS : 
 205:Core/Src/os.c **** 			OS_TimeOldLoc = Os_Var.Os_Tick_Runtime.Os_1ms_Tick_Runtime_Start;
 206:Core/Src/os.c **** 		break;
 207:Core/Src/os.c **** 		case OS_TASK_INDEX_10MS : 
 208:Core/Src/os.c **** 			OS_TimeOldLoc = Os_Var.Os_Tick_Runtime.Os_10ms_Tick_Runtime_Start;
 209:Core/Src/os.c **** 		break;
 210:Core/Src/os.c **** 		case OS_TASK_INDEX_100MS : 
 211:Core/Src/os.c **** 			OS_TimeOldLoc = Os_Var.Os_Tick_Runtime.Os_100ms_Tick_Runtime_Start;
 212:Core/Src/os.c **** 		break;
 213:Core/Src/os.c **** 	}
 214:Core/Src/os.c **** 
 215:Core/Src/os.c **** 	Os_TimeDiffLoc = OS_TimeLoc - OS_TimeOldLoc;
 300              		.loc 1 215 2 view .LVU52
 301              		.loc 1 215 17 is_stmt 0 view .LVU53
 302 0016 C31A     		subs	r3, r0, r3
 303              	.LVL18:
 216:Core/Src/os.c **** 
 217:Core/Src/os.c **** 	switch(idx)
 304              		.loc 1 217 2 is_stmt 1 view .LVU54
 305 0018 022C     		cmp	r4, #2
 306 001a 11D0     		beq	.L27
 307 001c 032C     		cmp	r4, #3
 308 001e 13D0     		beq	.L28
 309 0020 012C     		cmp	r4, #1
 310 0022 09D0     		beq	.L33
 311              	.L23:
 218:Core/Src/os.c **** 	{
 219:Core/Src/os.c **** 		case OS_TASK_INDEX_1MS : 
 220:Core/Src/os.c **** 			Os_Var.Os_Runtime.Os_1ms_Runtime = Os_TimeDiffLoc;
 221:Core/Src/os.c **** 			Os_Var.Os_Tick_Runtime.Os_1ms_Tick_Runtime_Stop = OS_TimeLoc;
 222:Core/Src/os.c **** 		break;
 223:Core/Src/os.c **** 		case OS_TASK_INDEX_10MS : 
 224:Core/Src/os.c **** 			Os_Var.Os_Runtime.Os_10ms_Runtime = Os_TimeDiffLoc;
 225:Core/Src/os.c **** 			Os_Var.Os_Tick_Runtime.Os_10ms_Tick_Runtime_Stop = OS_TimeLoc;
 226:Core/Src/os.c **** 		break;
 227:Core/Src/os.c **** 		case OS_TASK_INDEX_100MS : 
 228:Core/Src/os.c **** 			Os_Var.Os_Runtime.Os_100ms_Runtime = Os_TimeDiffLoc;
 229:Core/Src/os.c **** 			Os_Var.Os_Tick_Runtime.Os_100ms_Tick_Runtime_Stop = OS_TimeLoc;
 230:Core/Src/os.c **** 		break;
 231:Core/Src/os.c **** 	}
 232:Core/Src/os.c **** 
 233:Core/Src/os.c **** 	return;
 234:Core/Src/os.c **** }...
 312              		.loc 1 234 1 is_stmt 0 view .LVU55
 313 0024 10BD     		pop	{r4, pc}
 314              	.LVL19:
 315              	.L32:
 205:Core/Src/os.c **** 			OS_TimeOldLoc = Os_Var.Os_Tick_Runtime.Os_1ms_Tick_Runtime_Start;
 316              		.loc 1 205 4 is_stmt 1 view .LVU56
 205:Core/Src/os.c **** 			OS_TimeOldLoc = Os_Var.Os_Tick_Runtime.Os_1ms_Tick_Runtime_Start;
 317              		.loc 1 205 18 is_stmt 0 view .LVU57
 318 0026 0A4B     		ldr	r3, .L34
 319 0028 1B69     		ldr	r3, [r3, #16]
 320              	.LVL20:
 206:Core/Src/os.c **** 		break;
 321              		.loc 1 206 3 is_stmt 1 view .LVU58
 322 002a F4E7     		b	.L26
ARM GAS  C:\Users\jisu8\AppData\Local\Temp\cczwwFQl.s 			page 11


 323              	.LVL21:
 324              	.L24:
 208:Core/Src/os.c **** 			OS_TimeOldLoc = Os_Var.Os_Tick_Runtime.Os_10ms_Tick_Runtime_Start;
 325              		.loc 1 208 4 view .LVU59
 208:Core/Src/os.c **** 			OS_TimeOldLoc = Os_Var.Os_Tick_Runtime.Os_10ms_Tick_Runtime_Start;
 326              		.loc 1 208 18 is_stmt 0 view .LVU60
 327 002c 084B     		ldr	r3, .L34
 328 002e 9B69     		ldr	r3, [r3, #24]
 329              	.LVL22:
 209:Core/Src/os.c **** 		break;
 330              		.loc 1 209 3 is_stmt 1 view .LVU61
 331 0030 F1E7     		b	.L26
 332              	.LVL23:
 333              	.L25:
 211:Core/Src/os.c **** 			OS_TimeOldLoc = Os_Var.Os_Tick_Runtime.Os_100ms_Tick_Runtime_Start;
 334              		.loc 1 211 4 view .LVU62
 211:Core/Src/os.c **** 			OS_TimeOldLoc = Os_Var.Os_Tick_Runtime.Os_100ms_Tick_Runtime_Start;
 335              		.loc 1 211 18 is_stmt 0 view .LVU63
 336 0032 074B     		ldr	r3, .L34
 337 0034 1B6A     		ldr	r3, [r3, #32]
 338              	.LVL24:
 212:Core/Src/os.c **** 		break;
 339              		.loc 1 212 3 is_stmt 1 view .LVU64
 340 0036 EEE7     		b	.L26
 341              	.LVL25:
 342              	.L33:
 220:Core/Src/os.c **** 			Os_Var.Os_Runtime.Os_1ms_Runtime = Os_TimeDiffLoc;
 343              		.loc 1 220 4 view .LVU65
 220:Core/Src/os.c **** 			Os_Var.Os_Runtime.Os_1ms_Runtime = Os_TimeDiffLoc;
 344              		.loc 1 220 37 is_stmt 0 view .LVU66
 345 0038 054A     		ldr	r2, .L34
 346 003a 5363     		str	r3, [r2, #52]
 221:Core/Src/os.c **** 			Os_Var.Os_Tick_Runtime.Os_1ms_Tick_Runtime_Stop = OS_TimeLoc;
 347              		.loc 1 221 4 is_stmt 1 view .LVU67
 221:Core/Src/os.c **** 			Os_Var.Os_Tick_Runtime.Os_1ms_Tick_Runtime_Stop = OS_TimeLoc;
 348              		.loc 1 221 52 is_stmt 0 view .LVU68
 349 003c 5061     		str	r0, [r2, #20]
 222:Core/Src/os.c **** 		break;
 350              		.loc 1 222 3 is_stmt 1 view .LVU69
 351 003e F1E7     		b	.L23
 352              	.L27:
 224:Core/Src/os.c **** 			Os_Var.Os_Runtime.Os_10ms_Runtime = Os_TimeDiffLoc;
 353              		.loc 1 224 4 view .LVU70
 224:Core/Src/os.c **** 			Os_Var.Os_Runtime.Os_10ms_Runtime = Os_TimeDiffLoc;
 354              		.loc 1 224 38 is_stmt 0 view .LVU71
 355 0040 034A     		ldr	r2, .L34
 356 0042 9363     		str	r3, [r2, #56]
 225:Core/Src/os.c **** 			Os_Var.Os_Tick_Runtime.Os_10ms_Tick_Runtime_Stop = OS_TimeLoc;
 357              		.loc 1 225 4 is_stmt 1 view .LVU72
 225:Core/Src/os.c **** 			Os_Var.Os_Tick_Runtime.Os_10ms_Tick_Runtime_Stop = OS_TimeLoc;
 358              		.loc 1 225 53 is_stmt 0 view .LVU73
 359 0044 D061     		str	r0, [r2, #28]
 226:Core/Src/os.c **** 		break;
 360              		.loc 1 226 3 is_stmt 1 view .LVU74
 361 0046 EDE7     		b	.L23
 362              	.L28:
 228:Core/Src/os.c **** 			Os_Var.Os_Runtime.Os_100ms_Runtime = Os_TimeDiffLoc;
ARM GAS  C:\Users\jisu8\AppData\Local\Temp\cczwwFQl.s 			page 12


 363              		.loc 1 228 4 view .LVU75
 228:Core/Src/os.c **** 			Os_Var.Os_Runtime.Os_100ms_Runtime = Os_TimeDiffLoc;
 364              		.loc 1 228 39 is_stmt 0 view .LVU76
 365 0048 014A     		ldr	r2, .L34
 366 004a D363     		str	r3, [r2, #60]
 229:Core/Src/os.c **** 			Os_Var.Os_Tick_Runtime.Os_100ms_Tick_Runtime_Stop = OS_TimeLoc;
 367              		.loc 1 229 4 is_stmt 1 view .LVU77
 229:Core/Src/os.c **** 			Os_Var.Os_Tick_Runtime.Os_100ms_Tick_Runtime_Stop = OS_TimeLoc;
 368              		.loc 1 229 54 is_stmt 0 view .LVU78
 369 004c 5062     		str	r0, [r2, #36]
 230:Core/Src/os.c **** 		break;
 370              		.loc 1 230 3 is_stmt 1 view .LVU79
 233:Core/Src/os.c **** 	return;
 371              		.loc 1 233 2 view .LVU80
 372 004e E9E7     		b	.L23
 373              	.L35:
 374              		.align	2
 375              	.L34:
 376 0050 00000000 		.word	.LANCHOR0
 377              		.cfi_endproc
 378              	.LFE348:
 380              		.section	.text.Os_Calc_Period,"ax",%progbits
 381              		.align	1
 382              		.syntax unified
 383              		.thumb
 384              		.thumb_func
 386              	Os_Calc_Period:
 387              	.LVL26:
 388              	.LFB346:
 130:Core/Src/os.c **** {
 389              		.loc 1 130 1 view -0
 390              		.cfi_startproc
 391              		@ args = 0, pretend = 0, frame = 0
 392              		@ frame_needed = 0, uses_anonymous_args = 0
 130:Core/Src/os.c **** {
 393              		.loc 1 130 1 is_stmt 0 view .LVU82
 394 0000 10B5     		push	{r4, lr}
 395              	.LCFI6:
 396              		.cfi_def_cfa_offset 8
 397              		.cfi_offset 4, -8
 398              		.cfi_offset 14, -4
 399 0002 0446     		mov	r4, r0
 131:Core/Src/os.c **** 	uint32 OS_TimeLoc=0;
 400              		.loc 1 131 2 is_stmt 1 view .LVU83
 401              	.LVL27:
 132:Core/Src/os.c **** 	uint32 OS_TimeOldLoc=0;
 402              		.loc 1 132 2 view .LVU84
 133:Core/Src/os.c **** 	uint32 Os_TimeDiffLoc=0;
 403              		.loc 1 133 2 view .LVU85
 135:Core/Src/os.c **** 	OS_TimeLoc = Os_Get_Tick_1us();
 404              		.loc 1 135 2 view .LVU86
 135:Core/Src/os.c **** 	OS_TimeLoc = Os_Get_Tick_1us();
 405              		.loc 1 135 15 is_stmt 0 view .LVU87
 406 0004 FFF7FEFF 		bl	Os_Get_Tick_1us
 407              	.LVL28:
 137:Core/Src/os.c **** 	switch(idx)
 408              		.loc 1 137 2 is_stmt 1 view .LVU88
ARM GAS  C:\Users\jisu8\AppData\Local\Temp\cczwwFQl.s 			page 13


 409 0008 022C     		cmp	r4, #2
 410 000a 0FD0     		beq	.L37
 411 000c 032C     		cmp	r4, #3
 412 000e 10D0     		beq	.L38
 413 0010 012C     		cmp	r4, #1
 414 0012 08D0     		beq	.L45
 415 0014 0023     		movs	r3, #0
 416              	.LVL29:
 417              	.L39:
 150:Core/Src/os.c **** 	Os_TimeDiffLoc = OS_TimeLoc - OS_TimeOldLoc;
 418              		.loc 1 150 2 view .LVU89
 150:Core/Src/os.c **** 	Os_TimeDiffLoc = OS_TimeLoc - OS_TimeOldLoc;
 419              		.loc 1 150 17 is_stmt 0 view .LVU90
 420 0016 C31A     		subs	r3, r0, r3
 421              	.LVL30:
 151:Core/Src/os.c **** 	OS_TimeOldLoc = OS_TimeLoc;
 422              		.loc 1 151 2 is_stmt 1 view .LVU91
 153:Core/Src/os.c **** 	switch(idx)
 423              		.loc 1 153 2 view .LVU92
 424 0018 022C     		cmp	r4, #2
 425 001a 11D0     		beq	.L40
 426 001c 032C     		cmp	r4, #3
 427 001e 13D0     		beq	.L41
 428 0020 012C     		cmp	r4, #1
 429 0022 09D0     		beq	.L46
 430              	.L36:
 170:Core/Src/os.c **** }
 431              		.loc 1 170 1 is_stmt 0 view .LVU93
 432 0024 10BD     		pop	{r4, pc}
 433              	.LVL31:
 434              	.L45:
 140:Core/Src/os.c **** 			OS_TimeOldLoc = Os_Var.Os_Tick_Period.Os_1ms_Tick_Period;
 435              		.loc 1 140 4 is_stmt 1 view .LVU94
 140:Core/Src/os.c **** 			OS_TimeOldLoc = Os_Var.Os_Tick_Period.Os_1ms_Tick_Period;
 436              		.loc 1 140 18 is_stmt 0 view .LVU95
 437 0026 0A4B     		ldr	r3, .L47
 438 0028 9B6A     		ldr	r3, [r3, #40]
 439              	.LVL32:
 141:Core/Src/os.c **** 		break;
 440              		.loc 1 141 3 is_stmt 1 view .LVU96
 441 002a F4E7     		b	.L39
 442              	.LVL33:
 443              	.L37:
 143:Core/Src/os.c **** 			OS_TimeOldLoc = Os_Var.Os_Tick_Period.Os_10ms_Tick_Period;
 444              		.loc 1 143 4 view .LVU97
 143:Core/Src/os.c **** 			OS_TimeOldLoc = Os_Var.Os_Tick_Period.Os_10ms_Tick_Period;
 445              		.loc 1 143 18 is_stmt 0 view .LVU98
 446 002c 084B     		ldr	r3, .L47
 447 002e DB6A     		ldr	r3, [r3, #44]
 448              	.LVL34:
 144:Core/Src/os.c **** 		break;
 449              		.loc 1 144 3 is_stmt 1 view .LVU99
 450 0030 F1E7     		b	.L39
 451              	.LVL35:
 452              	.L38:
 146:Core/Src/os.c **** 			OS_TimeOldLoc = Os_Var.Os_Tick_Period.Os_100ms_Tick_Period;
 453              		.loc 1 146 4 view .LVU100
ARM GAS  C:\Users\jisu8\AppData\Local\Temp\cczwwFQl.s 			page 14


 146:Core/Src/os.c **** 			OS_TimeOldLoc = Os_Var.Os_Tick_Period.Os_100ms_Tick_Period;
 454              		.loc 1 146 18 is_stmt 0 view .LVU101
 455 0032 074B     		ldr	r3, .L47
 456 0034 1B6B     		ldr	r3, [r3, #48]
 457              	.LVL36:
 147:Core/Src/os.c **** 		break;
 458              		.loc 1 147 3 is_stmt 1 view .LVU102
 459 0036 EEE7     		b	.L39
 460              	.LVL37:
 461              	.L46:
 156:Core/Src/os.c **** 			Os_Var.Os_Period.Os_1ms_Period = Os_TimeDiffLoc;
 462              		.loc 1 156 4 view .LVU103
 156:Core/Src/os.c **** 			Os_Var.Os_Period.Os_1ms_Period = Os_TimeDiffLoc;
 463              		.loc 1 156 35 is_stmt 0 view .LVU104
 464 0038 054A     		ldr	r2, .L47
 465 003a 1364     		str	r3, [r2, #64]
 157:Core/Src/os.c **** 			Os_Var.Os_Tick_Period.Os_1ms_Tick_Period = OS_TimeOldLoc;
 466              		.loc 1 157 4 is_stmt 1 view .LVU105
 157:Core/Src/os.c **** 			Os_Var.Os_Tick_Period.Os_1ms_Tick_Period = OS_TimeOldLoc;
 467              		.loc 1 157 45 is_stmt 0 view .LVU106
 468 003c 9062     		str	r0, [r2, #40]
 158:Core/Src/os.c **** 		break;
 469              		.loc 1 158 3 is_stmt 1 view .LVU107
 470 003e F1E7     		b	.L36
 471              	.L40:
 160:Core/Src/os.c **** 			Os_Var.Os_Period.Os_10ms_Period = Os_TimeDiffLoc;
 472              		.loc 1 160 4 view .LVU108
 160:Core/Src/os.c **** 			Os_Var.Os_Period.Os_10ms_Period = Os_TimeDiffLoc;
 473              		.loc 1 160 36 is_stmt 0 view .LVU109
 474 0040 034A     		ldr	r2, .L47
 475 0042 5364     		str	r3, [r2, #68]
 161:Core/Src/os.c **** 			Os_Var.Os_Tick_Period.Os_10ms_Tick_Period = OS_TimeOldLoc;
 476              		.loc 1 161 4 is_stmt 1 view .LVU110
 161:Core/Src/os.c **** 			Os_Var.Os_Tick_Period.Os_10ms_Tick_Period = OS_TimeOldLoc;
 477              		.loc 1 161 46 is_stmt 0 view .LVU111
 478 0044 D062     		str	r0, [r2, #44]
 162:Core/Src/os.c **** 		break;
 479              		.loc 1 162 3 is_stmt 1 view .LVU112
 480 0046 EDE7     		b	.L36
 481              	.L41:
 164:Core/Src/os.c **** 			Os_Var.Os_Period.Os_100ms_Period = Os_TimeDiffLoc;
 482              		.loc 1 164 4 view .LVU113
 164:Core/Src/os.c **** 			Os_Var.Os_Period.Os_100ms_Period = Os_TimeDiffLoc;
 483              		.loc 1 164 37 is_stmt 0 view .LVU114
 484 0048 014A     		ldr	r2, .L47
 485 004a 9364     		str	r3, [r2, #72]
 165:Core/Src/os.c **** 			Os_Var.Os_Tick_Period.Os_100ms_Tick_Period = OS_TimeOldLoc;
 486              		.loc 1 165 4 is_stmt 1 view .LVU115
 165:Core/Src/os.c **** 			Os_Var.Os_Tick_Period.Os_100ms_Tick_Period = OS_TimeOldLoc;
 487              		.loc 1 165 47 is_stmt 0 view .LVU116
 488 004c 1063     		str	r0, [r2, #48]
 166:Core/Src/os.c **** 		break;
 489              		.loc 1 166 3 is_stmt 1 view .LVU117
 169:Core/Src/os.c **** 	return;
 490              		.loc 1 169 2 view .LVU118
 491 004e E9E7     		b	.L36
 492              	.L48:
ARM GAS  C:\Users\jisu8\AppData\Local\Temp\cczwwFQl.s 			page 15


 493              		.align	2
 494              	.L47:
 495 0050 00000000 		.word	.LANCHOR0
 496              		.cfi_endproc
 497              	.LFE346:
 499              		.section	.text.Os_Handler,"ax",%progbits
 500              		.align	1
 501              		.global	Os_Handler
 502              		.syntax unified
 503              		.thumb
 504              		.thumb_func
 506              	Os_Handler:
 507              	.LFB342:
  58:Core/Src/os.c **** {
 508              		.loc 1 58 1 view -0
 509              		.cfi_startproc
 510              		@ args = 0, pretend = 0, frame = 0
 511              		@ frame_needed = 0, uses_anonymous_args = 0
 512 0000 08B5     		push	{r3, lr}
 513              	.LCFI7:
 514              		.cfi_def_cfa_offset 8
 515              		.cfi_offset 3, -8
 516              		.cfi_offset 14, -4
  59:Core/Src/os.c **** 	void(*fp)(void);
 517              		.loc 1 59 2 view .LVU120
  60:Core/Src/os.c ****     if(Os_Var.Os_Task_Flag.Os_100ms_Flag == 1)
 518              		.loc 1 60 5 view .LVU121
  60:Core/Src/os.c ****     if(Os_Var.Os_Task_Flag.Os_100ms_Flag == 1)
 519              		.loc 1 60 27 is_stmt 0 view .LVU122
 520 0002 104B     		ldr	r3, .L54
 521 0004 93F85630 		ldrb	r3, [r3, #86]	@ zero_extendqisi2
  60:Core/Src/os.c ****     if(Os_Var.Os_Task_Flag.Os_100ms_Flag == 1)
 522              		.loc 1 60 7 view .LVU123
 523 0008 012B     		cmp	r3, #1
 524 000a 09D0     		beq	.L53
  72:Core/Src/os.c **** 		Os_Calc_Runtime_Start(OS_TASK_INDEX_BG);
 525              		.loc 1 72 3 is_stmt 1 view .LVU124
 526 000c 0420     		movs	r0, #4
 527 000e FFF7FEFF 		bl	Os_Calc_Runtime_Start
 528              	.LVL38:
  73:Core/Src/os.c **** 		(void)Os_Background_Task();
 529              		.loc 1 73 3 view .LVU125
  74:Core/Src/os.c **** 		Os_Calc_Runtime_Stop(OS_TASK_INDEX_BG);
 530              		.loc 1 74 3 view .LVU126
 531 0012 0420     		movs	r0, #4
 532 0014 FFF7FEFF 		bl	Os_Calc_Runtime_Stop
 533              	.LVL39:
  75:Core/Src/os.c **** 		Os_Calc_Period(OS_TASK_INDEX_BG);
 534              		.loc 1 75 3 view .LVU127
 535 0018 0420     		movs	r0, #4
 536 001a FFF7FEFF 		bl	Os_Calc_Period
 537              	.LVL40:
  78:Core/Src/os.c ****     return;
 538              		.loc 1 78 5 view .LVU128
 539              	.L49:
  79:Core/Src/os.c **** }
 540              		.loc 1 79 1 is_stmt 0 view .LVU129
ARM GAS  C:\Users\jisu8\AppData\Local\Temp\cczwwFQl.s 			page 16


 541 001e 08BD     		pop	{r3, pc}
 542              	.L53:
  62:Core/Src/os.c **** 		fp = Os_100ms_Task;
 543              		.loc 1 62 3 is_stmt 1 view .LVU130
  63:Core/Src/os.c **** 		Os_Var.Os_Task_Add.Os_100ms_Address = fp;
 544              		.loc 1 63 3 view .LVU131
  63:Core/Src/os.c **** 		Os_Var.Os_Task_Add.Os_100ms_Address = fp;
 545              		.loc 1 63 39 is_stmt 0 view .LVU132
 546 0020 084B     		ldr	r3, .L54
 547 0022 094A     		ldr	r2, .L54+4
 548 0024 1A66     		str	r2, [r3, #96]
  64:Core/Src/os.c **** 		Os_Var.Os_Task_Flag.Os_100ms_Flag = 0;
 549              		.loc 1 64 3 is_stmt 1 view .LVU133
  64:Core/Src/os.c **** 		Os_Var.Os_Task_Flag.Os_100ms_Flag = 0;
 550              		.loc 1 64 37 is_stmt 0 view .LVU134
 551 0026 0022     		movs	r2, #0
 552 0028 83F85620 		strb	r2, [r3, #86]
  65:Core/Src/os.c **** 		Os_Calc_Runtime_Start(OS_TASK_INDEX_100MS);
 553              		.loc 1 65 3 is_stmt 1 view .LVU135
 554 002c 0320     		movs	r0, #3
 555 002e FFF7FEFF 		bl	Os_Calc_Runtime_Start
 556              	.LVL41:
  66:Core/Src/os.c **** 		(void)Os_100ms_Task();
 557              		.loc 1 66 3 view .LVU136
 558 0032 FFF7FEFF 		bl	Os_100ms_Task
 559              	.LVL42:
  67:Core/Src/os.c **** 		Os_Calc_Runtime_Stop(OS_TASK_INDEX_100MS);
 560              		.loc 1 67 3 view .LVU137
 561 0036 0320     		movs	r0, #3
 562 0038 FFF7FEFF 		bl	Os_Calc_Runtime_Stop
 563              	.LVL43:
  68:Core/Src/os.c **** 		Os_Calc_Period(OS_TASK_INDEX_100MS);
 564              		.loc 1 68 3 view .LVU138
 565 003c 0320     		movs	r0, #3
 566 003e FFF7FEFF 		bl	Os_Calc_Period
 567              	.LVL44:
 568 0042 ECE7     		b	.L49
 569              	.L55:
 570              		.align	2
 571              	.L54:
 572 0044 00000000 		.word	.LANCHOR0
 573 0048 00000000 		.word	Os_100ms_Task
 574              		.cfi_endproc
 575              	.LFE342:
 577              		.section	.text.Os_Handler_1ms,"ax",%progbits
 578              		.align	1
 579              		.global	Os_Handler_1ms
 580              		.syntax unified
 581              		.thumb
 582              		.thumb_func
 584              	Os_Handler_1ms:
 585              	.LFB343:
  82:Core/Src/os.c **** {
 586              		.loc 1 82 1 view -0
 587              		.cfi_startproc
 588              		@ args = 0, pretend = 0, frame = 0
 589              		@ frame_needed = 0, uses_anonymous_args = 0
ARM GAS  C:\Users\jisu8\AppData\Local\Temp\cczwwFQl.s 			page 17


 590 0000 08B5     		push	{r3, lr}
 591              	.LCFI8:
 592              		.cfi_def_cfa_offset 8
 593              		.cfi_offset 3, -8
 594              		.cfi_offset 14, -4
  83:Core/Src/os.c **** 	if(Os_Var.Os_Counter.Os_1ms_Counter % 1 == 0)
 595              		.loc 1 83 2 view .LVU140
  85:Core/Src/os.c **** 		Os_Var.Os_Counter.Os_1ms_Counter++;
 596              		.loc 1 85 3 view .LVU141
  85:Core/Src/os.c **** 		Os_Var.Os_Counter.Os_1ms_Counter++;
 597              		.loc 1 85 20 is_stmt 0 view .LVU142
 598 0002 144B     		ldr	r3, .L59
 599 0004 5A68     		ldr	r2, [r3, #4]
  85:Core/Src/os.c **** 		Os_Var.Os_Counter.Os_1ms_Counter++;
 600              		.loc 1 85 35 view .LVU143
 601 0006 0132     		adds	r2, r2, #1
 602 0008 5A60     		str	r2, [r3, #4]
  86:Core/Src/os.c **** 		Os_Var.Os_Task_Flag.Os_1ms_Flag = 1;
 603              		.loc 1 86 3 is_stmt 1 view .LVU144
  86:Core/Src/os.c **** 		Os_Var.Os_Task_Flag.Os_1ms_Flag = 1;
 604              		.loc 1 86 35 is_stmt 0 view .LVU145
 605 000a 0121     		movs	r1, #1
 606 000c 83F85410 		strb	r1, [r3, #84]
  89:Core/Src/os.c **** 	if(Os_Var.Os_Counter.Os_1ms_Counter % 100 == 0)
 607              		.loc 1 89 2 is_stmt 1 view .LVU146
  89:Core/Src/os.c **** 	if(Os_Var.Os_Counter.Os_1ms_Counter % 100 == 0)
 608              		.loc 1 89 38 is_stmt 0 view .LVU147
 609 0010 114B     		ldr	r3, .L59+4
 610 0012 A3FB0213 		umull	r1, r3, r3, r2
 611 0016 5B09     		lsrs	r3, r3, #5
 612 0018 6421     		movs	r1, #100
 613 001a 01FB1323 		mls	r3, r1, r3, r2
  89:Core/Src/os.c **** 	if(Os_Var.Os_Counter.Os_1ms_Counter % 100 == 0)
 614              		.loc 1 89 4 view .LVU148
 615 001e 33B9     		cbnz	r3, .L57
  91:Core/Src/os.c **** 		Os_Var.Os_Counter.Os_100ms_Counter++;
 616              		.loc 1 91 3 is_stmt 1 view .LVU149
  91:Core/Src/os.c **** 		Os_Var.Os_Counter.Os_100ms_Counter++;
 617              		.loc 1 91 20 is_stmt 0 view .LVU150
 618 0020 0C4B     		ldr	r3, .L59
 619 0022 DA68     		ldr	r2, [r3, #12]
  91:Core/Src/os.c **** 		Os_Var.Os_Counter.Os_100ms_Counter++;
 620              		.loc 1 91 37 view .LVU151
 621 0024 0132     		adds	r2, r2, #1
 622 0026 DA60     		str	r2, [r3, #12]
  92:Core/Src/os.c **** 		Os_Var.Os_Task_Flag.Os_100ms_Flag = 1;
 623              		.loc 1 92 3 is_stmt 1 view .LVU152
  92:Core/Src/os.c **** 		Os_Var.Os_Task_Flag.Os_100ms_Flag = 1;
 624              		.loc 1 92 37 is_stmt 0 view .LVU153
 625 0028 0122     		movs	r2, #1
 626 002a 83F85620 		strb	r2, [r3, #86]
 627              	.L57:
  94:Core/Src/os.c **** 	void(*fp)(void);
 628              		.loc 1 94 2 is_stmt 1 view .LVU154
  95:Core/Src/os.c **** 	if(Os_Var.Os_Task_Flag.Os_1ms_Flag == 1)
 629              		.loc 1 95 2 view .LVU155
  97:Core/Src/os.c **** 		fp = Os_1ms_Task;
ARM GAS  C:\Users\jisu8\AppData\Local\Temp\cczwwFQl.s 			page 18


 630              		.loc 1 97 3 view .LVU156
  98:Core/Src/os.c **** 		Os_Var.Os_Task_Add.Os_1ms_Address = fp;
 631              		.loc 1 98 3 view .LVU157
  98:Core/Src/os.c **** 		Os_Var.Os_Task_Add.Os_1ms_Address = fp;
 632              		.loc 1 98 37 is_stmt 0 view .LVU158
 633 002e 094B     		ldr	r3, .L59
 634 0030 0A4A     		ldr	r2, .L59+8
 635 0032 9A65     		str	r2, [r3, #88]
  99:Core/Src/os.c **** 		Os_Var.Os_Task_Flag.Os_1ms_Flag = 0;
 636              		.loc 1 99 3 is_stmt 1 view .LVU159
  99:Core/Src/os.c **** 		Os_Var.Os_Task_Flag.Os_1ms_Flag = 0;
 637              		.loc 1 99 35 is_stmt 0 view .LVU160
 638 0034 0022     		movs	r2, #0
 639 0036 83F85420 		strb	r2, [r3, #84]
 100:Core/Src/os.c **** 		Os_Calc_Runtime_Start(OS_TASK_INDEX_1MS);
 640              		.loc 1 100 3 is_stmt 1 view .LVU161
 641 003a 0120     		movs	r0, #1
 642 003c FFF7FEFF 		bl	Os_Calc_Runtime_Start
 643              	.LVL45:
 101:Core/Src/os.c **** 		(void)Os_1ms_Task();
 644              		.loc 1 101 3 view .LVU162
 645 0040 FFF7FEFF 		bl	Os_1ms_Task
 646              	.LVL46:
 102:Core/Src/os.c **** 		Os_Calc_Runtime_Stop(OS_TASK_INDEX_1MS);
 647              		.loc 1 102 3 view .LVU163
 648 0044 0120     		movs	r0, #1
 649 0046 FFF7FEFF 		bl	Os_Calc_Runtime_Stop
 650              	.LVL47:
 103:Core/Src/os.c **** 		Os_Calc_Period(OS_TASK_INDEX_1MS);
 651              		.loc 1 103 3 view .LVU164
 652 004a 0120     		movs	r0, #1
 653 004c FFF7FEFF 		bl	Os_Calc_Period
 654              	.LVL48:
 105:Core/Src/os.c **** }
 655              		.loc 1 105 1 is_stmt 0 view .LVU165
 656 0050 08BD     		pop	{r3, pc}
 657              	.L60:
 658 0052 00BF     		.align	2
 659              	.L59:
 660 0054 00000000 		.word	.LANCHOR0
 661 0058 1F85EB51 		.word	1374389535
 662 005c 00000000 		.word	Os_1ms_Task
 663              		.cfi_endproc
 664              	.LFE343:
 666              		.section	.text.Os_Handler_10ms,"ax",%progbits
 667              		.align	1
 668              		.global	Os_Handler_10ms
 669              		.syntax unified
 670              		.thumb
 671              		.thumb_func
 673              	Os_Handler_10ms:
 674              	.LFB344:
 108:Core/Src/os.c **** {
 675              		.loc 1 108 1 is_stmt 1 view -0
 676              		.cfi_startproc
 677              		@ args = 0, pretend = 0, frame = 0
 678              		@ frame_needed = 0, uses_anonymous_args = 0
ARM GAS  C:\Users\jisu8\AppData\Local\Temp\cczwwFQl.s 			page 19


 679 0000 08B5     		push	{r3, lr}
 680              	.LCFI9:
 681              		.cfi_def_cfa_offset 8
 682              		.cfi_offset 3, -8
 683              		.cfi_offset 14, -4
 109:Core/Src/os.c **** 	Os_Var.Os_Counter.Os_10ms_Counter++;
 684              		.loc 1 109 2 view .LVU167
 109:Core/Src/os.c **** 	Os_Var.Os_Counter.Os_10ms_Counter++;
 685              		.loc 1 109 19 is_stmt 0 view .LVU168
 686 0002 0C4B     		ldr	r3, .L63
 687 0004 9A68     		ldr	r2, [r3, #8]
 109:Core/Src/os.c **** 	Os_Var.Os_Counter.Os_10ms_Counter++;
 688              		.loc 1 109 35 view .LVU169
 689 0006 0132     		adds	r2, r2, #1
 690 0008 9A60     		str	r2, [r3, #8]
 110:Core/Src/os.c **** 	Os_Var.Os_Task_Flag.Os_10ms_Flag = 1;
 691              		.loc 1 110 2 is_stmt 1 view .LVU170
 110:Core/Src/os.c **** 	Os_Var.Os_Task_Flag.Os_10ms_Flag = 1;
 692              		.loc 1 110 35 is_stmt 0 view .LVU171
 693 000a 0122     		movs	r2, #1
 694 000c 83F85520 		strb	r2, [r3, #85]
 111:Core/Src/os.c **** 	void(*fp)(void);
 695              		.loc 1 111 2 is_stmt 1 view .LVU172
 112:Core/Src/os.c **** 	if(Os_Var.Os_Task_Flag.Os_10ms_Flag == 1)
 696              		.loc 1 112 2 view .LVU173
 114:Core/Src/os.c **** 		fp = Os_10ms_Task;
 697              		.loc 1 114 3 view .LVU174
 115:Core/Src/os.c **** 		Os_Var.Os_Task_Add.Os_10ms_Address = fp;
 698              		.loc 1 115 3 view .LVU175
 115:Core/Src/os.c **** 		Os_Var.Os_Task_Add.Os_10ms_Address = fp;
 699              		.loc 1 115 38 is_stmt 0 view .LVU176
 700 0010 094A     		ldr	r2, .L63+4
 701 0012 DA65     		str	r2, [r3, #92]
 116:Core/Src/os.c **** 		Os_Var.Os_Task_Flag.Os_10ms_Flag = 0;
 702              		.loc 1 116 3 is_stmt 1 view .LVU177
 116:Core/Src/os.c **** 		Os_Var.Os_Task_Flag.Os_10ms_Flag = 0;
 703              		.loc 1 116 36 is_stmt 0 view .LVU178
 704 0014 0022     		movs	r2, #0
 705 0016 83F85520 		strb	r2, [r3, #85]
 117:Core/Src/os.c **** 		Os_Calc_Runtime_Start(OS_TASK_INDEX_10MS);
 706              		.loc 1 117 3 is_stmt 1 view .LVU179
 707 001a 0220     		movs	r0, #2
 708 001c FFF7FEFF 		bl	Os_Calc_Runtime_Start
 709              	.LVL49:
 118:Core/Src/os.c **** 		(void)Os_10ms_Task();
 710              		.loc 1 118 3 view .LVU180
 711 0020 FFF7FEFF 		bl	Os_10ms_Task
 712              	.LVL50:
 119:Core/Src/os.c **** 		Os_Calc_Runtime_Stop(OS_TASK_INDEX_10MS);
 713              		.loc 1 119 3 view .LVU181
 714 0024 0220     		movs	r0, #2
 715 0026 FFF7FEFF 		bl	Os_Calc_Runtime_Stop
 716              	.LVL51:
 120:Core/Src/os.c **** 		Os_Calc_Period(OS_TASK_INDEX_10MS);
 717              		.loc 1 120 3 view .LVU182
 718 002a 0220     		movs	r0, #2
 719 002c FFF7FEFF 		bl	Os_Calc_Period
ARM GAS  C:\Users\jisu8\AppData\Local\Temp\cczwwFQl.s 			page 20


 720              	.LVL52:
 122:Core/Src/os.c **** }
 721              		.loc 1 122 1 is_stmt 0 view .LVU183
 722 0030 08BD     		pop	{r3, pc}
 723              	.L64:
 724 0032 00BF     		.align	2
 725              	.L63:
 726 0034 00000000 		.word	.LANCHOR0
 727 0038 00000000 		.word	Os_10ms_Task
 728              		.cfi_endproc
 729              	.LFE344:
 731              		.global	Os_Var
 732              		.section	.bss.Os_Var,"aw",%nobits
 733              		.align	2
 734              		.set	.LANCHOR0,. + 0
 737              	Os_Var:
 738 0000 00000000 		.space	100
 738      00000000 
 738      00000000 
 738      00000000 
 738      00000000 
 739              		.text
 740              	.Letext0:
 741              		.file 2 "Core/Inc/vardef.h"
 742              		.file 3 "Core/Inc/os.h"
 743              		.file 4 "Core/Inc/can.h"
 744              		.file 5 "Core/Inc/imu.h"
 745              		.file 6 "Core/Inc/adc.h"
 746              		.file 7 "Core/Inc/led.h"
 747              		.file 8 "Core/Inc/lcd.h"
ARM GAS  C:\Users\jisu8\AppData\Local\Temp\cczwwFQl.s 			page 21


DEFINED SYMBOLS
                            *ABS*:00000000 os.c
C:\Users\jisu8\AppData\Local\Temp\cczwwFQl.s:19     .text.Os_100ms_Task:00000000 $t
C:\Users\jisu8\AppData\Local\Temp\cczwwFQl.s:24     .text.Os_100ms_Task:00000000 Os_100ms_Task
C:\Users\jisu8\AppData\Local\Temp\cczwwFQl.s:45     .text.Os_1ms_Task:00000000 $t
C:\Users\jisu8\AppData\Local\Temp\cczwwFQl.s:50     .text.Os_1ms_Task:00000000 Os_1ms_Task
C:\Users\jisu8\AppData\Local\Temp\cczwwFQl.s:82     .text.Os_10ms_Task:00000000 $t
C:\Users\jisu8\AppData\Local\Temp\cczwwFQl.s:87     .text.Os_10ms_Task:00000000 Os_10ms_Task
C:\Users\jisu8\AppData\Local\Temp\cczwwFQl.s:113    .text.Os_Init_Task:00000000 $t
C:\Users\jisu8\AppData\Local\Temp\cczwwFQl.s:119    .text.Os_Init_Task:00000000 Os_Init_Task
C:\Users\jisu8\AppData\Local\Temp\cczwwFQl.s:142    .text.Os_Time_Handler:00000000 $t
C:\Users\jisu8\AppData\Local\Temp\cczwwFQl.s:148    .text.Os_Time_Handler:00000000 Os_Time_Handler
C:\Users\jisu8\AppData\Local\Temp\cczwwFQl.s:167    .text.Os_Time_Handler:0000000c $d
C:\Users\jisu8\AppData\Local\Temp\cczwwFQl.s:172    .text.Os_Get_Tick_1us:00000000 $t
C:\Users\jisu8\AppData\Local\Temp\cczwwFQl.s:178    .text.Os_Get_Tick_1us:00000000 Os_Get_Tick_1us
C:\Users\jisu8\AppData\Local\Temp\cczwwFQl.s:193    .text.Os_Get_Tick_1us:00000008 $d
C:\Users\jisu8\AppData\Local\Temp\cczwwFQl.s:198    .text.Os_Calc_Runtime_Start:00000000 $t
C:\Users\jisu8\AppData\Local\Temp\cczwwFQl.s:203    .text.Os_Calc_Runtime_Start:00000000 Os_Calc_Runtime_Start
C:\Users\jisu8\AppData\Local\Temp\cczwwFQl.s:258    .text.Os_Calc_Runtime_Start:00000028 $d
C:\Users\jisu8\AppData\Local\Temp\cczwwFQl.s:263    .text.Os_Calc_Runtime_Stop:00000000 $t
C:\Users\jisu8\AppData\Local\Temp\cczwwFQl.s:268    .text.Os_Calc_Runtime_Stop:00000000 Os_Calc_Runtime_Stop
C:\Users\jisu8\AppData\Local\Temp\cczwwFQl.s:376    .text.Os_Calc_Runtime_Stop:00000050 $d
C:\Users\jisu8\AppData\Local\Temp\cczwwFQl.s:381    .text.Os_Calc_Period:00000000 $t
C:\Users\jisu8\AppData\Local\Temp\cczwwFQl.s:386    .text.Os_Calc_Period:00000000 Os_Calc_Period
C:\Users\jisu8\AppData\Local\Temp\cczwwFQl.s:495    .text.Os_Calc_Period:00000050 $d
C:\Users\jisu8\AppData\Local\Temp\cczwwFQl.s:500    .text.Os_Handler:00000000 $t
C:\Users\jisu8\AppData\Local\Temp\cczwwFQl.s:506    .text.Os_Handler:00000000 Os_Handler
C:\Users\jisu8\AppData\Local\Temp\cczwwFQl.s:572    .text.Os_Handler:00000044 $d
C:\Users\jisu8\AppData\Local\Temp\cczwwFQl.s:578    .text.Os_Handler_1ms:00000000 $t
C:\Users\jisu8\AppData\Local\Temp\cczwwFQl.s:584    .text.Os_Handler_1ms:00000000 Os_Handler_1ms
C:\Users\jisu8\AppData\Local\Temp\cczwwFQl.s:660    .text.Os_Handler_1ms:00000054 $d
C:\Users\jisu8\AppData\Local\Temp\cczwwFQl.s:667    .text.Os_Handler_10ms:00000000 $t
C:\Users\jisu8\AppData\Local\Temp\cczwwFQl.s:673    .text.Os_Handler_10ms:00000000 Os_Handler_10ms
C:\Users\jisu8\AppData\Local\Temp\cczwwFQl.s:726    .text.Os_Handler_10ms:00000034 $d
C:\Users\jisu8\AppData\Local\Temp\cczwwFQl.s:737    .bss.Os_Var:00000000 Os_Var
C:\Users\jisu8\AppData\Local\Temp\cczwwFQl.s:733    .bss.Os_Var:00000000 $d

UNDEFINED SYMBOLS
Can_Transmit
LED_Control
IMU_Control
LCD_Set_Clock
LCD_Set_Color
Motor_Drvier_Control
IMU_FindAddress
Adc_Read
Adc_Calc
LCD_Init
Can_Init
