ARM GAS  C:\Users\jisu8\AppData\Local\Temp\ccWR7XOl.s 			page 1


   1              		.cpu cortex-m7
   2              		.eabi_attribute 28, 1
   3              		.eabi_attribute 20, 1
   4              		.eabi_attribute 21, 1
   5              		.eabi_attribute 23, 3
   6              		.eabi_attribute 24, 1
   7              		.eabi_attribute 25, 1
   8              		.eabi_attribute 26, 1
   9              		.eabi_attribute 30, 1
  10              		.eabi_attribute 34, 1
  11              		.eabi_attribute 18, 4
  12              		.file	"os.c"
  13              		.text
  14              	.Ltext0:
  15              		.cfi_sections	.debug_frame
  16              		.section	.text.Os_Init_Task,"ax",%progbits
  17              		.align	1
  18              		.global	Os_Init_Task
  19              		.arch armv7e-m
  20              		.syntax unified
  21              		.thumb
  22              		.thumb_func
  23              		.fpu fpv5-d16
  25              	Os_Init_Task:
  26              	.LFB145:
  27              		.file 1 "Core/Src/os.c"
   1:Core/Src/os.c **** #include "os.h"
   2:Core/Src/os.c **** #include "led.h"
   3:Core/Src/os.c **** 
   4:Core/Src/os.c **** Os_Counter_t Os_Counter;
   5:Core/Src/os.c **** void Os_Handler(void)
   6:Core/Src/os.c **** {
   7:Core/Src/os.c **** 	if(Os_Counter.Os_1ms_Counter % 1 == 0)
   8:Core/Src/os.c **** 	{
   9:Core/Src/os.c **** 		(void)Os_1ms_Task();
  10:Core/Src/os.c **** 		Os_Counter.Os_1ms_Counter++;
  11:Core/Src/os.c **** 	}
  12:Core/Src/os.c **** 	if(Os_Counter.Os_1ms_Counter % 5 == 0)
  13:Core/Src/os.c **** 	{
  14:Core/Src/os.c **** 		(void)Os_5ms_Task();
  15:Core/Src/os.c **** 		Os_Counter.Os_5ms_Counter++;
  16:Core/Src/os.c **** 	}
  17:Core/Src/os.c **** 	if(Os_Counter.Os_1ms_Counter % 10 == 0)
  18:Core/Src/os.c **** 	{
  19:Core/Src/os.c **** 		(void)Os_10ms_Task();
  20:Core/Src/os.c **** 		Os_Counter.Os_10ms_Counter++;
  21:Core/Src/os.c **** 	}
  22:Core/Src/os.c **** 	if(Os_Counter.Os_1ms_Counter % 100 == 0)
  23:Core/Src/os.c **** 	{
  24:Core/Src/os.c **** 		(void)Os_100ms_Task();
  25:Core/Src/os.c **** 		Os_Counter.Os_100ms_Counter++;
  26:Core/Src/os.c **** 	}
  27:Core/Src/os.c **** 	if(Os_Counter.Os_1ms_Counter % 1000 == 0)
  28:Core/Src/os.c **** 	{
  29:Core/Src/os.c **** 		(void)Os_1000ms_Task();
  30:Core/Src/os.c **** 		Os_Counter.Os_1000ms_Counter++;
  31:Core/Src/os.c **** 	}
ARM GAS  C:\Users\jisu8\AppData\Local\Temp\ccWR7XOl.s 			page 2


  32:Core/Src/os.c **** 
  33:Core/Src/os.c ****     return;
  34:Core/Src/os.c **** }
  35:Core/Src/os.c **** 
  36:Core/Src/os.c **** void Os_Init_Task(void)
  37:Core/Src/os.c **** {
  28              		.loc 1 37 1 view -0
  29              		.cfi_startproc
  30              		@ args = 0, pretend = 0, frame = 0
  31              		@ frame_needed = 0, uses_anonymous_args = 0
  32              		@ link register save eliminated.
  38:Core/Src/os.c **** 
  39:Core/Src/os.c **** }
  33              		.loc 1 39 1 view .LVU1
  34 0000 7047     		bx	lr
  35              		.cfi_endproc
  36              	.LFE145:
  38              		.section	.text.Os_1ms_Task,"ax",%progbits
  39              		.align	1
  40              		.global	Os_1ms_Task
  41              		.syntax unified
  42              		.thumb
  43              		.thumb_func
  44              		.fpu fpv5-d16
  46              	Os_1ms_Task:
  47              	.LFB146:
  40:Core/Src/os.c **** 
  41:Core/Src/os.c **** void Os_1ms_Task(void)
  42:Core/Src/os.c **** {
  48              		.loc 1 42 1 view -0
  49              		.cfi_startproc
  50              		@ args = 0, pretend = 0, frame = 0
  51              		@ frame_needed = 0, uses_anonymous_args = 0
  52 0000 08B5     		push	{r3, lr}
  53              	.LCFI0:
  54              		.cfi_def_cfa_offset 8
  55              		.cfi_offset 3, -8
  56              		.cfi_offset 14, -4
  43:Core/Src/os.c **** 	LED_Control();
  57              		.loc 1 43 2 view .LVU3
  58 0002 FFF7FEFF 		bl	LED_Control
  59              	.LVL0:
  44:Core/Src/os.c **** }
  60              		.loc 1 44 1 is_stmt 0 view .LVU4
  61 0006 08BD     		pop	{r3, pc}
  62              		.cfi_endproc
  63              	.LFE146:
  65              		.section	.text.Os_Handler,"ax",%progbits
  66              		.align	1
  67              		.global	Os_Handler
  68              		.syntax unified
  69              		.thumb
  70              		.thumb_func
  71              		.fpu fpv5-d16
  73              	Os_Handler:
  74              	.LFB144:
   6:Core/Src/os.c **** 	if(Os_Counter.Os_1ms_Counter % 1 == 0)
ARM GAS  C:\Users\jisu8\AppData\Local\Temp\ccWR7XOl.s 			page 3


  75              		.loc 1 6 1 is_stmt 1 view -0
  76              		.cfi_startproc
  77              		@ args = 0, pretend = 0, frame = 0
  78              		@ frame_needed = 0, uses_anonymous_args = 0
  79 0000 08B5     		push	{r3, lr}
  80              	.LCFI1:
  81              		.cfi_def_cfa_offset 8
  82              		.cfi_offset 3, -8
  83              		.cfi_offset 14, -4
   7:Core/Src/os.c **** 	{
  84              		.loc 1 7 2 view .LVU6
   9:Core/Src/os.c **** 		Os_Counter.Os_1ms_Counter++;
  85              		.loc 1 9 3 view .LVU7
  86 0002 FFF7FEFF 		bl	Os_1ms_Task
  87              	.LVL1:
  10:Core/Src/os.c **** 	}
  88              		.loc 1 10 3 view .LVU8
  10:Core/Src/os.c **** 	}
  89              		.loc 1 10 13 is_stmt 0 view .LVU9
  90 0006 1C4A     		ldr	r2, .L10
  91 0008 1368     		ldr	r3, [r2]
  10:Core/Src/os.c **** 	}
  92              		.loc 1 10 28 view .LVU10
  93 000a 0133     		adds	r3, r3, #1
  94 000c 1360     		str	r3, [r2]
  12:Core/Src/os.c **** 	{
  95              		.loc 1 12 2 is_stmt 1 view .LVU11
  12:Core/Src/os.c **** 	{
  96              		.loc 1 12 31 is_stmt 0 view .LVU12
  97 000e 1B4A     		ldr	r2, .L10+4
  98 0010 A2FB0312 		umull	r1, r2, r2, r3
  99 0014 22F00301 		bic	r1, r2, #3
 100 0018 01EB9202 		add	r2, r1, r2, lsr #2
  12:Core/Src/os.c **** 	{
 101              		.loc 1 12 4 view .LVU13
 102 001c 9342     		cmp	r3, r2
 103 001e 03D1     		bne	.L5
  14:Core/Src/os.c **** 		Os_Counter.Os_5ms_Counter++;
 104              		.loc 1 14 3 is_stmt 1 view .LVU14
  15:Core/Src/os.c **** 	}
 105              		.loc 1 15 3 view .LVU15
  15:Core/Src/os.c **** 	}
 106              		.loc 1 15 13 is_stmt 0 view .LVU16
 107 0020 1549     		ldr	r1, .L10
 108 0022 4A68     		ldr	r2, [r1, #4]
  15:Core/Src/os.c **** 	}
 109              		.loc 1 15 28 view .LVU17
 110 0024 0132     		adds	r2, r2, #1
 111 0026 4A60     		str	r2, [r1, #4]
 112              	.L5:
  17:Core/Src/os.c **** 	{
 113              		.loc 1 17 2 is_stmt 1 view .LVU18
  17:Core/Src/os.c **** 	{
 114              		.loc 1 17 31 is_stmt 0 view .LVU19
 115 0028 144A     		ldr	r2, .L10+4
 116 002a A2FB0312 		umull	r1, r2, r2, r3
 117 002e D208     		lsrs	r2, r2, #3
ARM GAS  C:\Users\jisu8\AppData\Local\Temp\ccWR7XOl.s 			page 4


 118 0030 02EB8202 		add	r2, r2, r2, lsl #2
 119 0034 5100     		lsls	r1, r2, #1
  17:Core/Src/os.c **** 	{
 120              		.loc 1 17 4 view .LVU20
 121 0036 8B42     		cmp	r3, r1
 122 0038 03D1     		bne	.L6
  19:Core/Src/os.c **** 		Os_Counter.Os_10ms_Counter++;
 123              		.loc 1 19 3 is_stmt 1 view .LVU21
  20:Core/Src/os.c **** 	}
 124              		.loc 1 20 3 view .LVU22
  20:Core/Src/os.c **** 	}
 125              		.loc 1 20 13 is_stmt 0 view .LVU23
 126 003a 0F49     		ldr	r1, .L10
 127 003c 8A68     		ldr	r2, [r1, #8]
  20:Core/Src/os.c **** 	}
 128              		.loc 1 20 29 view .LVU24
 129 003e 0132     		adds	r2, r2, #1
 130 0040 8A60     		str	r2, [r1, #8]
 131              	.L6:
  22:Core/Src/os.c **** 	{
 132              		.loc 1 22 2 is_stmt 1 view .LVU25
  22:Core/Src/os.c **** 	{
 133              		.loc 1 22 31 is_stmt 0 view .LVU26
 134 0042 0F4A     		ldr	r2, .L10+8
 135 0044 A2FB0312 		umull	r1, r2, r2, r3
 136 0048 5209     		lsrs	r2, r2, #5
 137 004a 6421     		movs	r1, #100
 138 004c 01FB1232 		mls	r2, r1, r2, r3
  22:Core/Src/os.c **** 	{
 139              		.loc 1 22 4 view .LVU27
 140 0050 1AB9     		cbnz	r2, .L7
  24:Core/Src/os.c **** 		Os_Counter.Os_100ms_Counter++;
 141              		.loc 1 24 3 is_stmt 1 view .LVU28
  25:Core/Src/os.c **** 	}
 142              		.loc 1 25 3 view .LVU29
  25:Core/Src/os.c **** 	}
 143              		.loc 1 25 13 is_stmt 0 view .LVU30
 144 0052 0949     		ldr	r1, .L10
 145 0054 CA68     		ldr	r2, [r1, #12]
  25:Core/Src/os.c **** 	}
 146              		.loc 1 25 30 view .LVU31
 147 0056 0132     		adds	r2, r2, #1
 148 0058 CA60     		str	r2, [r1, #12]
 149              	.L7:
  27:Core/Src/os.c **** 	{
 150              		.loc 1 27 2 is_stmt 1 view .LVU32
  27:Core/Src/os.c **** 	{
 151              		.loc 1 27 31 is_stmt 0 view .LVU33
 152 005a 0A4A     		ldr	r2, .L10+12
 153 005c A2FB0312 		umull	r1, r2, r2, r3
 154 0060 9209     		lsrs	r2, r2, #6
 155 0062 4FF47A71 		mov	r1, #1000
 156 0066 01FB1232 		mls	r2, r1, r2, r3
  27:Core/Src/os.c **** 	{
 157              		.loc 1 27 4 view .LVU34
 158 006a 1AB9     		cbnz	r2, .L4
  29:Core/Src/os.c **** 		Os_Counter.Os_1000ms_Counter++;
ARM GAS  C:\Users\jisu8\AppData\Local\Temp\ccWR7XOl.s 			page 5


 159              		.loc 1 29 3 is_stmt 1 view .LVU35
  30:Core/Src/os.c **** 	}
 160              		.loc 1 30 3 view .LVU36
  30:Core/Src/os.c **** 	}
 161              		.loc 1 30 13 is_stmt 0 view .LVU37
 162 006c 024A     		ldr	r2, .L10
 163 006e 1369     		ldr	r3, [r2, #16]
  30:Core/Src/os.c **** 	}
 164              		.loc 1 30 31 view .LVU38
 165 0070 0133     		adds	r3, r3, #1
 166 0072 1361     		str	r3, [r2, #16]
  33:Core/Src/os.c **** }
 167              		.loc 1 33 5 is_stmt 1 view .LVU39
 168              	.L4:
  34:Core/Src/os.c **** 
 169              		.loc 1 34 1 is_stmt 0 view .LVU40
 170 0074 08BD     		pop	{r3, pc}
 171              	.L11:
 172 0076 00BF     		.align	2
 173              	.L10:
 174 0078 00000000 		.word	.LANCHOR0
 175 007c CDCCCCCC 		.word	-858993459
 176 0080 1F85EB51 		.word	1374389535
 177 0084 D34D6210 		.word	274877907
 178              		.cfi_endproc
 179              	.LFE144:
 181              		.section	.text.Os_5ms_Task,"ax",%progbits
 182              		.align	1
 183              		.global	Os_5ms_Task
 184              		.syntax unified
 185              		.thumb
 186              		.thumb_func
 187              		.fpu fpv5-d16
 189              	Os_5ms_Task:
 190              	.LFB147:
  45:Core/Src/os.c **** 
  46:Core/Src/os.c **** void Os_5ms_Task(void)
  47:Core/Src/os.c **** {
 191              		.loc 1 47 1 is_stmt 1 view -0
 192              		.cfi_startproc
 193              		@ args = 0, pretend = 0, frame = 0
 194              		@ frame_needed = 0, uses_anonymous_args = 0
 195              		@ link register save eliminated.
  48:Core/Src/os.c **** 
  49:Core/Src/os.c **** }
 196              		.loc 1 49 1 view .LVU42
 197 0000 7047     		bx	lr
 198              		.cfi_endproc
 199              	.LFE147:
 201              		.section	.text.Os_10ms_Task,"ax",%progbits
 202              		.align	1
 203              		.global	Os_10ms_Task
 204              		.syntax unified
 205              		.thumb
 206              		.thumb_func
 207              		.fpu fpv5-d16
 209              	Os_10ms_Task:
ARM GAS  C:\Users\jisu8\AppData\Local\Temp\ccWR7XOl.s 			page 6


 210              	.LFB148:
  50:Core/Src/os.c **** 
  51:Core/Src/os.c **** void Os_10ms_Task(void)
  52:Core/Src/os.c **** {
 211              		.loc 1 52 1 view -0
 212              		.cfi_startproc
 213              		@ args = 0, pretend = 0, frame = 0
 214              		@ frame_needed = 0, uses_anonymous_args = 0
 215              		@ link register save eliminated.
  53:Core/Src/os.c **** 	
  54:Core/Src/os.c **** }
 216              		.loc 1 54 1 view .LVU44
 217 0000 7047     		bx	lr
 218              		.cfi_endproc
 219              	.LFE148:
 221              		.section	.text.Os_100ms_Task,"ax",%progbits
 222              		.align	1
 223              		.global	Os_100ms_Task
 224              		.syntax unified
 225              		.thumb
 226              		.thumb_func
 227              		.fpu fpv5-d16
 229              	Os_100ms_Task:
 230              	.LFB149:
  55:Core/Src/os.c **** 
  56:Core/Src/os.c **** void Os_100ms_Task(void)
  57:Core/Src/os.c **** {
 231              		.loc 1 57 1 view -0
 232              		.cfi_startproc
 233              		@ args = 0, pretend = 0, frame = 0
 234              		@ frame_needed = 0, uses_anonymous_args = 0
 235              		@ link register save eliminated.
  58:Core/Src/os.c **** 
  59:Core/Src/os.c **** }
 236              		.loc 1 59 1 view .LVU46
 237 0000 7047     		bx	lr
 238              		.cfi_endproc
 239              	.LFE149:
 241              		.section	.text.Os_1000ms_Task,"ax",%progbits
 242              		.align	1
 243              		.global	Os_1000ms_Task
 244              		.syntax unified
 245              		.thumb
 246              		.thumb_func
 247              		.fpu fpv5-d16
 249              	Os_1000ms_Task:
 250              	.LFB150:
  60:Core/Src/os.c **** 
  61:Core/Src/os.c **** void Os_1000ms_Task(void)
  62:Core/Src/os.c **** {
 251              		.loc 1 62 1 view -0
 252              		.cfi_startproc
 253              		@ args = 0, pretend = 0, frame = 0
 254              		@ frame_needed = 0, uses_anonymous_args = 0
 255              		@ link register save eliminated.
  63:Core/Src/os.c **** 
  64:Core/Src/os.c **** }...
ARM GAS  C:\Users\jisu8\AppData\Local\Temp\ccWR7XOl.s 			page 7


 256              		.loc 1 64 1 view .LVU48
 257 0000 7047     		bx	lr
 258              		.cfi_endproc
 259              	.LFE150:
 261              		.global	Os_Counter
 262              		.section	.bss.Os_Counter,"aw",%nobits
 263              		.align	2
 264              		.set	.LANCHOR0,. + 0
 267              	Os_Counter:
 268 0000 00000000 		.space	20
 268      00000000 
 268      00000000 
 268      00000000 
 268      00000000 
 269              		.text
 270              	.Letext0:
 271              		.file 2 "Core/Inc/os.h"
 272              		.file 3 "Core/Inc/vardef.h"
 273              		.file 4 "Core/Inc/led.h"
ARM GAS  C:\Users\jisu8\AppData\Local\Temp\ccWR7XOl.s 			page 8

