ARM GAS  C:\Users\jisu8\AppData\Local\Temp\ccjWHQ5a.s 			page 1


   1              		.cpu cortex-m7
   2              		.eabi_attribute 28, 1
   3              		.eabi_attribute 20, 1
   4              		.eabi_attribute 21, 1
   5              		.eabi_attribute 23, 3
   6              		.eabi_attribute 24, 1
   7              		.eabi_attribute 25, 1
   8              		.eabi_attribute 26, 1
   9              		.eabi_attribute 30, 1
  10              		.eabi_attribute 34, 1
  11              		.eabi_attribute 18, 4
  12              		.file	"startup_stm32h743xx.c"
  13              		.text
  14              	.Ltext0:
  15              		.cfi_sections	.debug_frame
  16              		.section	.text.Reset_Handler,"ax",%progbits
  17              		.align	1
  18              		.global	Reset_Handler
  19              		.arch armv7e-m
  20              		.syntax unified
  21              		.thumb
  22              		.thumb_func
  23              		.fpu fpv5-d16
  25              	Reset_Handler:
  26              	.LFB144:
  27              		.file 1 "startup_stm32h743xx.c"
   1:startup_stm32h743xx.c **** #include "stdint.h"
   2:startup_stm32h743xx.c **** #include "main.h"
   3:startup_stm32h743xx.c **** #include "os.h"
   4:startup_stm32h743xx.c **** 
   5:startup_stm32h743xx.c **** extern uint32_t _sidata;
   6:startup_stm32h743xx.c **** extern uint32_t _sdata;
   7:startup_stm32h743xx.c **** extern uint32_t _edata;
   8:startup_stm32h743xx.c **** extern uint32_t _sbss;
   9:startup_stm32h743xx.c **** extern uint32_t _ebss;
  10:startup_stm32h743xx.c **** extern uint32_t _estack;
  11:startup_stm32h743xx.c **** 
  12:startup_stm32h743xx.c **** extern void __libc_init_array();
  13:startup_stm32h743xx.c **** 
  14:startup_stm32h743xx.c **** void Reset_Handler()
  15:startup_stm32h743xx.c **** {
  28              		.loc 1 15 1 view -0
  29              		.cfi_startproc
  30              		@ args = 0, pretend = 0, frame = 0
  31              		@ frame_needed = 0, uses_anonymous_args = 0
  32 0000 08B5     		push	{r3, lr}
  33              	.LCFI0:
  34              		.cfi_def_cfa_offset 8
  35              		.cfi_offset 3, -8
  36              		.cfi_offset 14, -4
  16:startup_stm32h743xx.c ****     uint32_t *dataInit = &_sidata;
  37              		.loc 1 16 5 view .LVU1
  38              	.LVL0:
  17:startup_stm32h743xx.c ****     uint32_t *data = &_sdata;
  39              		.loc 1 17 5 view .LVU2
  18:startup_stm32h743xx.c ****     while (data < &_edata)
  40              		.loc 1 18 5 view .LVU3
ARM GAS  C:\Users\jisu8\AppData\Local\Temp\ccjWHQ5a.s 			page 2


  17:startup_stm32h743xx.c ****     uint32_t *data = &_sdata;
  41              		.loc 1 17 15 is_stmt 0 view .LVU4
  42 0002 0C4B     		ldr	r3, .L8
  16:startup_stm32h743xx.c ****     uint32_t *dataInit = &_sidata;
  43              		.loc 1 16 15 view .LVU5
  44 0004 0C4A     		ldr	r2, .L8+4
  45              		.loc 1 18 11 view .LVU6
  46 0006 03E0     		b	.L2
  47              	.LVL1:
  48              	.L3:
  19:startup_stm32h743xx.c ****     {
  20:startup_stm32h743xx.c ****         *data++ = *dataInit++;
  49              		.loc 1 20 9 is_stmt 1 view .LVU7
  50              		.loc 1 20 19 is_stmt 0 view .LVU8
  51 0008 52F8041B 		ldr	r1, [r2], #4
  52              	.LVL2:
  53              		.loc 1 20 17 view .LVU9
  54 000c 43F8041B 		str	r1, [r3], #4
  55              	.LVL3:
  56              	.L2:
  18:startup_stm32h743xx.c ****     while (data < &_edata)
  57              		.loc 1 18 11 is_stmt 1 view .LVU10
  58 0010 0A49     		ldr	r1, .L8+8
  59 0012 8B42     		cmp	r3, r1
  60 0014 F8D3     		bcc	.L3
  21:startup_stm32h743xx.c ****     }
  22:startup_stm32h743xx.c **** 
  23:startup_stm32h743xx.c ****     uint32_t *bss = &_sbss;
  61              		.loc 1 23 15 is_stmt 0 view .LVU11
  62 0016 0A4B     		ldr	r3, .L8+12
  63              	.LVL4:
  64              		.loc 1 23 15 view .LVU12
  65 0018 02E0     		b	.L4
  66              	.LVL5:
  67              	.L5:
  24:startup_stm32h743xx.c ****     while (bss < &_ebss)
  25:startup_stm32h743xx.c ****     {
  26:startup_stm32h743xx.c ****         *bss++ = 0;
  68              		.loc 1 26 9 is_stmt 1 view .LVU13
  69              		.loc 1 26 16 is_stmt 0 view .LVU14
  70 001a 0022     		movs	r2, #0
  71 001c 43F8042B 		str	r2, [r3], #4
  72              	.LVL6:
  73              	.L4:
  24:startup_stm32h743xx.c ****     while (bss < &_ebss)
  74              		.loc 1 24 11 is_stmt 1 view .LVU15
  75 0020 084A     		ldr	r2, .L8+16
  76 0022 9342     		cmp	r3, r2
  77 0024 F9D3     		bcc	.L5
  27:startup_stm32h743xx.c ****     }
  28:startup_stm32h743xx.c **** 
  29:startup_stm32h743xx.c ****     SystemInit();
  78              		.loc 1 29 5 view .LVU16
  79 0026 FFF7FEFF 		bl	SystemInit
  80              	.LVL7:
  30:startup_stm32h743xx.c ****     __libc_init_array();
  81              		.loc 1 30 5 view .LVU17
ARM GAS  C:\Users\jisu8\AppData\Local\Temp\ccjWHQ5a.s 			page 3


  82 002a FFF7FEFF 		bl	__libc_init_array
  83              	.LVL8:
  31:startup_stm32h743xx.c ****     main();
  84              		.loc 1 31 5 view .LVU18
  85 002e FFF7FEFF 		bl	main
  86              	.LVL9:
  87              	.L6:
  32:startup_stm32h743xx.c **** 
  33:startup_stm32h743xx.c ****     while (1);
  88              		.loc 1 33 5 discriminator 1 view .LVU19
  89              		.loc 1 33 14 discriminator 1 view .LVU20
  90              		.loc 1 33 11 discriminator 1 view .LVU21
  91 0032 FEE7     		b	.L6
  92              	.L9:
  93              		.align	2
  94              	.L8:
  95 0034 00000000 		.word	_sdata
  96 0038 00000000 		.word	_sidata
  97 003c 00000000 		.word	_edata
  98 0040 00000000 		.word	_sbss
  99 0044 00000000 		.word	_ebss
 100              		.cfi_endproc
 101              	.LFE144:
 103              		.section	.text.Default_Handler,"ax",%progbits
 104              		.align	1
 105              		.global	Default_Handler
 106              		.syntax unified
 107              		.thumb
 108              		.thumb_func
 109              		.fpu fpv5-d16
 111              	Default_Handler:
 112              	.LFB145:
  34:startup_stm32h743xx.c **** }
  35:startup_stm32h743xx.c **** 
  36:startup_stm32h743xx.c **** void Default_Handler(void) 
  37:startup_stm32h743xx.c **** {
 113              		.loc 1 37 1 view -0
 114              		.cfi_startproc
 115              		@ Volatile: function does not return.
 116              		@ args = 0, pretend = 0, frame = 0
 117              		@ frame_needed = 0, uses_anonymous_args = 0
 118              		@ link register save eliminated.
 119              	.L11:
  38:startup_stm32h743xx.c ****     while (1);
 120              		.loc 1 38 5 discriminator 1 view .LVU23
 121              		.loc 1 38 14 discriminator 1 view .LVU24
 122              		.loc 1 38 11 discriminator 1 view .LVU25
 123 0000 FEE7     		b	.L11
 124              		.cfi_endproc
 125              	.LFE145:
 127              		.section	.text.NMI_Handler,"ax",%progbits
 128              		.align	1
 129              		.weak	NMI_Handler
 130              		.syntax unified
 131              		.thumb
 132              		.thumb_func
 133              		.fpu fpv5-d16
ARM GAS  C:\Users\jisu8\AppData\Local\Temp\ccjWHQ5a.s 			page 4


 135              	NMI_Handler:
 136              	.LFB149:
  39:startup_stm32h743xx.c **** }
  40:startup_stm32h743xx.c **** 
  41:startup_stm32h743xx.c **** void TIM16_Handler(void)
  42:startup_stm32h743xx.c **** {
  43:startup_stm32h743xx.c ****     HAL_TIM_IRQHandler(&htim16);
  44:startup_stm32h743xx.c **** }
  45:startup_stm32h743xx.c **** 
  46:startup_stm32h743xx.c **** void TIM17_Handler(void)
  47:startup_stm32h743xx.c **** {
  48:startup_stm32h743xx.c ****     HAL_TIM_IRQHandler(&htim17);
  49:startup_stm32h743xx.c **** }
  50:startup_stm32h743xx.c **** 
  51:startup_stm32h743xx.c **** void SystemTick_Handler(void)
  52:startup_stm32h743xx.c **** {
  53:startup_stm32h743xx.c ****     /* USER CODE BEGIN SysTick_IRQn 0 */
  54:startup_stm32h743xx.c **** 
  55:startup_stm32h743xx.c ****     /* USER CODE END SysTick_IRQn 0 */
  56:startup_stm32h743xx.c ****     HAL_IncTick();
  57:startup_stm32h743xx.c ****     /* USER CODE BEGIN SysTick_IRQn 1 */
  58:startup_stm32h743xx.c ****     //Os_Handler();
  59:startup_stm32h743xx.c ****     /* USER CODE END SysTick_IRQn 1 */
  60:startup_stm32h743xx.c **** }
  61:startup_stm32h743xx.c **** __weak void NMI_Handler(void)                                             {Default_Handler();}
 137              		.loc 1 61 75 view -0
 138              		.cfi_startproc
 139              		@ args = 0, pretend = 0, frame = 0
 140              		@ frame_needed = 0, uses_anonymous_args = 0
 141 0000 08B5     		push	{r3, lr}
 142              	.LCFI1:
 143              		.cfi_def_cfa_offset 8
 144              		.cfi_offset 3, -8
 145              		.cfi_offset 14, -4
 146              		.loc 1 61 76 view .LVU27
 147 0002 FFF7FEFF 		bl	Default_Handler
 148              	.LVL10:
 149              		.cfi_endproc
 150              	.LFE149:
 152              		.section	.text.HardFault_Handler,"ax",%progbits
 153              		.align	1
 154              		.weak	HardFault_Handler
 155              		.syntax unified
 156              		.thumb
 157              		.thumb_func
 158              		.fpu fpv5-d16
 160              	HardFault_Handler:
 161              	.LFB150:
  62:startup_stm32h743xx.c **** __weak void HardFault_Handler(void)                                       {Default_Handler();}
 162              		.loc 1 62 75 view -0
 163              		.cfi_startproc
 164              		@ args = 0, pretend = 0, frame = 0
 165              		@ frame_needed = 0, uses_anonymous_args = 0
 166 0000 08B5     		push	{r3, lr}
 167              	.LCFI2:
 168              		.cfi_def_cfa_offset 8
 169              		.cfi_offset 3, -8
ARM GAS  C:\Users\jisu8\AppData\Local\Temp\ccjWHQ5a.s 			page 5


 170              		.cfi_offset 14, -4
 171              		.loc 1 62 76 view .LVU29
 172 0002 FFF7FEFF 		bl	Default_Handler
 173              	.LVL11:
 174              		.cfi_endproc
 175              	.LFE150:
 177              		.section	.text.MemManage_Handler,"ax",%progbits
 178              		.align	1
 179              		.weak	MemManage_Handler
 180              		.syntax unified
 181              		.thumb
 182              		.thumb_func
 183              		.fpu fpv5-d16
 185              	MemManage_Handler:
 186              	.LFB151:
  63:startup_stm32h743xx.c **** __weak void MemManage_Handler(void)                                       {Default_Handler();}
 187              		.loc 1 63 75 view -0
 188              		.cfi_startproc
 189              		@ args = 0, pretend = 0, frame = 0
 190              		@ frame_needed = 0, uses_anonymous_args = 0
 191 0000 08B5     		push	{r3, lr}
 192              	.LCFI3:
 193              		.cfi_def_cfa_offset 8
 194              		.cfi_offset 3, -8
 195              		.cfi_offset 14, -4
 196              		.loc 1 63 76 view .LVU31
 197 0002 FFF7FEFF 		bl	Default_Handler
 198              	.LVL12:
 199              		.cfi_endproc
 200              	.LFE151:
 202              		.section	.text.BusFault_Handler,"ax",%progbits
 203              		.align	1
 204              		.weak	BusFault_Handler
 205              		.syntax unified
 206              		.thumb
 207              		.thumb_func
 208              		.fpu fpv5-d16
 210              	BusFault_Handler:
 211              	.LFB152:
  64:startup_stm32h743xx.c **** __weak void BusFault_Handler(void)                                        {Default_Handler();}
 212              		.loc 1 64 75 view -0
 213              		.cfi_startproc
 214              		@ args = 0, pretend = 0, frame = 0
 215              		@ frame_needed = 0, uses_anonymous_args = 0
 216 0000 08B5     		push	{r3, lr}
 217              	.LCFI4:
 218              		.cfi_def_cfa_offset 8
 219              		.cfi_offset 3, -8
 220              		.cfi_offset 14, -4
 221              		.loc 1 64 76 view .LVU33
 222 0002 FFF7FEFF 		bl	Default_Handler
 223              	.LVL13:
 224              		.cfi_endproc
 225              	.LFE152:
 227              		.section	.text.UsageFault_Handler,"ax",%progbits
 228              		.align	1
 229              		.weak	UsageFault_Handler
ARM GAS  C:\Users\jisu8\AppData\Local\Temp\ccjWHQ5a.s 			page 6


 230              		.syntax unified
 231              		.thumb
 232              		.thumb_func
 233              		.fpu fpv5-d16
 235              	UsageFault_Handler:
 236              	.LFB153:
  65:startup_stm32h743xx.c **** __weak void UsageFault_Handler(void)                                      {Default_Handler();}
 237              		.loc 1 65 75 view -0
 238              		.cfi_startproc
 239              		@ args = 0, pretend = 0, frame = 0
 240              		@ frame_needed = 0, uses_anonymous_args = 0
 241 0000 08B5     		push	{r3, lr}
 242              	.LCFI5:
 243              		.cfi_def_cfa_offset 8
 244              		.cfi_offset 3, -8
 245              		.cfi_offset 14, -4
 246              		.loc 1 65 76 view .LVU35
 247 0002 FFF7FEFF 		bl	Default_Handler
 248              	.LVL14:
 249              		.cfi_endproc
 250              	.LFE153:
 252              		.section	.text.SVC_Handler,"ax",%progbits
 253              		.align	1
 254              		.weak	SVC_Handler
 255              		.syntax unified
 256              		.thumb
 257              		.thumb_func
 258              		.fpu fpv5-d16
 260              	SVC_Handler:
 261              	.LFB154:
  66:startup_stm32h743xx.c **** __weak void SVC_Handler(void)                                             {Default_Handler();}
 262              		.loc 1 66 75 view -0
 263              		.cfi_startproc
 264              		@ args = 0, pretend = 0, frame = 0
 265              		@ frame_needed = 0, uses_anonymous_args = 0
 266 0000 08B5     		push	{r3, lr}
 267              	.LCFI6:
 268              		.cfi_def_cfa_offset 8
 269              		.cfi_offset 3, -8
 270              		.cfi_offset 14, -4
 271              		.loc 1 66 76 view .LVU37
 272 0002 FFF7FEFF 		bl	Default_Handler
 273              	.LVL15:
 274              		.cfi_endproc
 275              	.LFE154:
 277              		.section	.text.DebugMon_Handler,"ax",%progbits
 278              		.align	1
 279              		.weak	DebugMon_Handler
 280              		.syntax unified
 281              		.thumb
 282              		.thumb_func
 283              		.fpu fpv5-d16
 285              	DebugMon_Handler:
 286              	.LFB155:
  67:startup_stm32h743xx.c **** __weak void DebugMon_Handler(void)                                        {Default_Handler();}
 287              		.loc 1 67 75 view -0
 288              		.cfi_startproc
ARM GAS  C:\Users\jisu8\AppData\Local\Temp\ccjWHQ5a.s 			page 7


 289              		@ args = 0, pretend = 0, frame = 0
 290              		@ frame_needed = 0, uses_anonymous_args = 0
 291 0000 08B5     		push	{r3, lr}
 292              	.LCFI7:
 293              		.cfi_def_cfa_offset 8
 294              		.cfi_offset 3, -8
 295              		.cfi_offset 14, -4
 296              		.loc 1 67 76 view .LVU39
 297 0002 FFF7FEFF 		bl	Default_Handler
 298              	.LVL16:
 299              		.cfi_endproc
 300              	.LFE155:
 302              		.section	.text.PendSV_Handler,"ax",%progbits
 303              		.align	1
 304              		.weak	PendSV_Handler
 305              		.syntax unified
 306              		.thumb
 307              		.thumb_func
 308              		.fpu fpv5-d16
 310              	PendSV_Handler:
 311              	.LFB156:
  68:startup_stm32h743xx.c **** __weak void PendSV_Handler(void)                                          {Default_Handler();}
 312              		.loc 1 68 75 view -0
 313              		.cfi_startproc
 314              		@ args = 0, pretend = 0, frame = 0
 315              		@ frame_needed = 0, uses_anonymous_args = 0
 316 0000 08B5     		push	{r3, lr}
 317              	.LCFI8:
 318              		.cfi_def_cfa_offset 8
 319              		.cfi_offset 3, -8
 320              		.cfi_offset 14, -4
 321              		.loc 1 68 76 view .LVU41
 322 0002 FFF7FEFF 		bl	Default_Handler
 323              	.LVL17:
 324              		.cfi_endproc
 325              	.LFE156:
 327              		.section	.text.WWDG_IRQHandler,"ax",%progbits
 328              		.align	1
 329              		.weak	WWDG_IRQHandler
 330              		.syntax unified
 331              		.thumb
 332              		.thumb_func
 333              		.fpu fpv5-d16
 335              	WWDG_IRQHandler:
 336              	.LFB158:
  69:startup_stm32h743xx.c **** __weak void SysTick_Handler(void)                                         {SystemTick_Handler();}
  70:startup_stm32h743xx.c **** __weak void WWDG_IRQHandler(void)                                         {Default_Handler();}
 337              		.loc 1 70 75 view -0
 338              		.cfi_startproc
 339              		@ args = 0, pretend = 0, frame = 0
 340              		@ frame_needed = 0, uses_anonymous_args = 0
 341 0000 08B5     		push	{r3, lr}
 342              	.LCFI9:
 343              		.cfi_def_cfa_offset 8
 344              		.cfi_offset 3, -8
 345              		.cfi_offset 14, -4
 346              		.loc 1 70 76 view .LVU43
ARM GAS  C:\Users\jisu8\AppData\Local\Temp\ccjWHQ5a.s 			page 8


 347 0002 FFF7FEFF 		bl	Default_Handler
 348              	.LVL18:
 349              		.cfi_endproc
 350              	.LFE158:
 352              		.section	.text.PVD_AVD_IRQHandler,"ax",%progbits
 353              		.align	1
 354              		.weak	PVD_AVD_IRQHandler
 355              		.syntax unified
 356              		.thumb
 357              		.thumb_func
 358              		.fpu fpv5-d16
 360              	PVD_AVD_IRQHandler:
 361              	.LFB159:
  71:startup_stm32h743xx.c **** __weak void PVD_AVD_IRQHandler(void)                                      {Default_Handler();}
 362              		.loc 1 71 75 view -0
 363              		.cfi_startproc
 364              		@ args = 0, pretend = 0, frame = 0
 365              		@ frame_needed = 0, uses_anonymous_args = 0
 366 0000 08B5     		push	{r3, lr}
 367              	.LCFI10:
 368              		.cfi_def_cfa_offset 8
 369              		.cfi_offset 3, -8
 370              		.cfi_offset 14, -4
 371              		.loc 1 71 76 view .LVU45
 372 0002 FFF7FEFF 		bl	Default_Handler
 373              	.LVL19:
 374              		.cfi_endproc
 375              	.LFE159:
 377              		.section	.text.TAMP_STAMP_IRQHandler,"ax",%progbits
 378              		.align	1
 379              		.weak	TAMP_STAMP_IRQHandler
 380              		.syntax unified
 381              		.thumb
 382              		.thumb_func
 383              		.fpu fpv5-d16
 385              	TAMP_STAMP_IRQHandler:
 386              	.LFB160:
  72:startup_stm32h743xx.c **** __weak void TAMP_STAMP_IRQHandler(void)                                   {Default_Handler();}
 387              		.loc 1 72 75 view -0
 388              		.cfi_startproc
 389              		@ args = 0, pretend = 0, frame = 0
 390              		@ frame_needed = 0, uses_anonymous_args = 0
 391 0000 08B5     		push	{r3, lr}
 392              	.LCFI11:
 393              		.cfi_def_cfa_offset 8
 394              		.cfi_offset 3, -8
 395              		.cfi_offset 14, -4
 396              		.loc 1 72 76 view .LVU47
 397 0002 FFF7FEFF 		bl	Default_Handler
 398              	.LVL20:
 399              		.cfi_endproc
 400              	.LFE160:
 402              		.section	.text.RTC_WKUP_IRQHandler,"ax",%progbits
 403              		.align	1
 404              		.weak	RTC_WKUP_IRQHandler
 405              		.syntax unified
 406              		.thumb
ARM GAS  C:\Users\jisu8\AppData\Local\Temp\ccjWHQ5a.s 			page 9


 407              		.thumb_func
 408              		.fpu fpv5-d16
 410              	RTC_WKUP_IRQHandler:
 411              	.LFB161:
  73:startup_stm32h743xx.c **** __weak void RTC_WKUP_IRQHandler(void)                                     {Default_Handler();}
 412              		.loc 1 73 75 view -0
 413              		.cfi_startproc
 414              		@ args = 0, pretend = 0, frame = 0
 415              		@ frame_needed = 0, uses_anonymous_args = 0
 416 0000 08B5     		push	{r3, lr}
 417              	.LCFI12:
 418              		.cfi_def_cfa_offset 8
 419              		.cfi_offset 3, -8
 420              		.cfi_offset 14, -4
 421              		.loc 1 73 76 view .LVU49
 422 0002 FFF7FEFF 		bl	Default_Handler
 423              	.LVL21:
 424              		.cfi_endproc
 425              	.LFE161:
 427              		.section	.text.FLASH_IRQHandler,"ax",%progbits
 428              		.align	1
 429              		.weak	FLASH_IRQHandler
 430              		.syntax unified
 431              		.thumb
 432              		.thumb_func
 433              		.fpu fpv5-d16
 435              	FLASH_IRQHandler:
 436              	.LFB162:
  74:startup_stm32h743xx.c **** __weak void FLASH_IRQHandler(void)                                        {Default_Handler();}
 437              		.loc 1 74 75 view -0
 438              		.cfi_startproc
 439              		@ args = 0, pretend = 0, frame = 0
 440              		@ frame_needed = 0, uses_anonymous_args = 0
 441 0000 08B5     		push	{r3, lr}
 442              	.LCFI13:
 443              		.cfi_def_cfa_offset 8
 444              		.cfi_offset 3, -8
 445              		.cfi_offset 14, -4
 446              		.loc 1 74 76 view .LVU51
 447 0002 FFF7FEFF 		bl	Default_Handler
 448              	.LVL22:
 449              		.cfi_endproc
 450              	.LFE162:
 452              		.section	.text.RCC_IRQHandler,"ax",%progbits
 453              		.align	1
 454              		.weak	RCC_IRQHandler
 455              		.syntax unified
 456              		.thumb
 457              		.thumb_func
 458              		.fpu fpv5-d16
 460              	RCC_IRQHandler:
 461              	.LFB163:
  75:startup_stm32h743xx.c **** __weak void RCC_IRQHandler(void)                                          {Default_Handler();}
 462              		.loc 1 75 75 view -0
 463              		.cfi_startproc
 464              		@ args = 0, pretend = 0, frame = 0
 465              		@ frame_needed = 0, uses_anonymous_args = 0
ARM GAS  C:\Users\jisu8\AppData\Local\Temp\ccjWHQ5a.s 			page 10


 466 0000 08B5     		push	{r3, lr}
 467              	.LCFI14:
 468              		.cfi_def_cfa_offset 8
 469              		.cfi_offset 3, -8
 470              		.cfi_offset 14, -4
 471              		.loc 1 75 76 view .LVU53
 472 0002 FFF7FEFF 		bl	Default_Handler
 473              	.LVL23:
 474              		.cfi_endproc
 475              	.LFE163:
 477              		.section	.text.EXTI0_IRQHandler,"ax",%progbits
 478              		.align	1
 479              		.weak	EXTI0_IRQHandler
 480              		.syntax unified
 481              		.thumb
 482              		.thumb_func
 483              		.fpu fpv5-d16
 485              	EXTI0_IRQHandler:
 486              	.LFB164:
  76:startup_stm32h743xx.c **** __weak void EXTI0_IRQHandler(void)                                        {Default_Handler();}
 487              		.loc 1 76 75 view -0
 488              		.cfi_startproc
 489              		@ args = 0, pretend = 0, frame = 0
 490              		@ frame_needed = 0, uses_anonymous_args = 0
 491 0000 08B5     		push	{r3, lr}
 492              	.LCFI15:
 493              		.cfi_def_cfa_offset 8
 494              		.cfi_offset 3, -8
 495              		.cfi_offset 14, -4
 496              		.loc 1 76 76 view .LVU55
 497 0002 FFF7FEFF 		bl	Default_Handler
 498              	.LVL24:
 499              		.cfi_endproc
 500              	.LFE164:
 502              		.section	.text.EXTI1_IRQHandler,"ax",%progbits
 503              		.align	1
 504              		.weak	EXTI1_IRQHandler
 505              		.syntax unified
 506              		.thumb
 507              		.thumb_func
 508              		.fpu fpv5-d16
 510              	EXTI1_IRQHandler:
 511              	.LFB165:
  77:startup_stm32h743xx.c **** __weak void EXTI1_IRQHandler(void)                                        {Default_Handler();}
 512              		.loc 1 77 75 view -0
 513              		.cfi_startproc
 514              		@ args = 0, pretend = 0, frame = 0
 515              		@ frame_needed = 0, uses_anonymous_args = 0
 516 0000 08B5     		push	{r3, lr}
 517              	.LCFI16:
 518              		.cfi_def_cfa_offset 8
 519              		.cfi_offset 3, -8
 520              		.cfi_offset 14, -4
 521              		.loc 1 77 76 view .LVU57
 522 0002 FFF7FEFF 		bl	Default_Handler
 523              	.LVL25:
 524              		.cfi_endproc
ARM GAS  C:\Users\jisu8\AppData\Local\Temp\ccjWHQ5a.s 			page 11


 525              	.LFE165:
 527              		.section	.text.EXTI2_IRQHandler,"ax",%progbits
 528              		.align	1
 529              		.weak	EXTI2_IRQHandler
 530              		.syntax unified
 531              		.thumb
 532              		.thumb_func
 533              		.fpu fpv5-d16
 535              	EXTI2_IRQHandler:
 536              	.LFB166:
  78:startup_stm32h743xx.c **** __weak void EXTI2_IRQHandler(void)                                        {Default_Handler();}
 537              		.loc 1 78 75 view -0
 538              		.cfi_startproc
 539              		@ args = 0, pretend = 0, frame = 0
 540              		@ frame_needed = 0, uses_anonymous_args = 0
 541 0000 08B5     		push	{r3, lr}
 542              	.LCFI17:
 543              		.cfi_def_cfa_offset 8
 544              		.cfi_offset 3, -8
 545              		.cfi_offset 14, -4
 546              		.loc 1 78 76 view .LVU59
 547 0002 FFF7FEFF 		bl	Default_Handler
 548              	.LVL26:
 549              		.cfi_endproc
 550              	.LFE166:
 552              		.section	.text.EXTI3_IRQHandler,"ax",%progbits
 553              		.align	1
 554              		.weak	EXTI3_IRQHandler
 555              		.syntax unified
 556              		.thumb
 557              		.thumb_func
 558              		.fpu fpv5-d16
 560              	EXTI3_IRQHandler:
 561              	.LFB167:
  79:startup_stm32h743xx.c **** __weak void EXTI3_IRQHandler(void)                                        {Default_Handler();}
 562              		.loc 1 79 75 view -0
 563              		.cfi_startproc
 564              		@ args = 0, pretend = 0, frame = 0
 565              		@ frame_needed = 0, uses_anonymous_args = 0
 566 0000 08B5     		push	{r3, lr}
 567              	.LCFI18:
 568              		.cfi_def_cfa_offset 8
 569              		.cfi_offset 3, -8
 570              		.cfi_offset 14, -4
 571              		.loc 1 79 76 view .LVU61
 572 0002 FFF7FEFF 		bl	Default_Handler
 573              	.LVL27:
 574              		.cfi_endproc
 575              	.LFE167:
 577              		.section	.text.EXTI4_IRQHandler,"ax",%progbits
 578              		.align	1
 579              		.weak	EXTI4_IRQHandler
 580              		.syntax unified
 581              		.thumb
 582              		.thumb_func
 583              		.fpu fpv5-d16
 585              	EXTI4_IRQHandler:
ARM GAS  C:\Users\jisu8\AppData\Local\Temp\ccjWHQ5a.s 			page 12


 586              	.LFB168:
  80:startup_stm32h743xx.c **** __weak void EXTI4_IRQHandler(void)                                        {Default_Handler();}
 587              		.loc 1 80 75 view -0
 588              		.cfi_startproc
 589              		@ args = 0, pretend = 0, frame = 0
 590              		@ frame_needed = 0, uses_anonymous_args = 0
 591 0000 08B5     		push	{r3, lr}
 592              	.LCFI19:
 593              		.cfi_def_cfa_offset 8
 594              		.cfi_offset 3, -8
 595              		.cfi_offset 14, -4
 596              		.loc 1 80 76 view .LVU63
 597 0002 FFF7FEFF 		bl	Default_Handler
 598              	.LVL28:
 599              		.cfi_endproc
 600              	.LFE168:
 602              		.section	.text.DMA1_Stream0_IRQHandler,"ax",%progbits
 603              		.align	1
 604              		.weak	DMA1_Stream0_IRQHandler
 605              		.syntax unified
 606              		.thumb
 607              		.thumb_func
 608              		.fpu fpv5-d16
 610              	DMA1_Stream0_IRQHandler:
 611              	.LFB169:
  81:startup_stm32h743xx.c **** __weak void DMA1_Stream0_IRQHandler(void)                                 {Default_Handler();}
 612              		.loc 1 81 75 view -0
 613              		.cfi_startproc
 614              		@ args = 0, pretend = 0, frame = 0
 615              		@ frame_needed = 0, uses_anonymous_args = 0
 616 0000 08B5     		push	{r3, lr}
 617              	.LCFI20:
 618              		.cfi_def_cfa_offset 8
 619              		.cfi_offset 3, -8
 620              		.cfi_offset 14, -4
 621              		.loc 1 81 76 view .LVU65
 622 0002 FFF7FEFF 		bl	Default_Handler
 623              	.LVL29:
 624              		.cfi_endproc
 625              	.LFE169:
 627              		.section	.text.DMA1_Stream1_IRQHandler,"ax",%progbits
 628              		.align	1
 629              		.weak	DMA1_Stream1_IRQHandler
 630              		.syntax unified
 631              		.thumb
 632              		.thumb_func
 633              		.fpu fpv5-d16
 635              	DMA1_Stream1_IRQHandler:
 636              	.LFB170:
  82:startup_stm32h743xx.c **** __weak void DMA1_Stream1_IRQHandler(void)                                 {Default_Handler();}
 637              		.loc 1 82 75 view -0
 638              		.cfi_startproc
 639              		@ args = 0, pretend = 0, frame = 0
 640              		@ frame_needed = 0, uses_anonymous_args = 0
 641 0000 08B5     		push	{r3, lr}
 642              	.LCFI21:
 643              		.cfi_def_cfa_offset 8
ARM GAS  C:\Users\jisu8\AppData\Local\Temp\ccjWHQ5a.s 			page 13


 644              		.cfi_offset 3, -8
 645              		.cfi_offset 14, -4
 646              		.loc 1 82 76 view .LVU67
 647 0002 FFF7FEFF 		bl	Default_Handler
 648              	.LVL30:
 649              		.cfi_endproc
 650              	.LFE170:
 652              		.section	.text.DMA1_Stream2_IRQHandler,"ax",%progbits
 653              		.align	1
 654              		.weak	DMA1_Stream2_IRQHandler
 655              		.syntax unified
 656              		.thumb
 657              		.thumb_func
 658              		.fpu fpv5-d16
 660              	DMA1_Stream2_IRQHandler:
 661              	.LFB171:
  83:startup_stm32h743xx.c **** __weak void DMA1_Stream2_IRQHandler(void)                                 {Default_Handler();}
 662              		.loc 1 83 75 view -0
 663              		.cfi_startproc
 664              		@ args = 0, pretend = 0, frame = 0
 665              		@ frame_needed = 0, uses_anonymous_args = 0
 666 0000 08B5     		push	{r3, lr}
 667              	.LCFI22:
 668              		.cfi_def_cfa_offset 8
 669              		.cfi_offset 3, -8
 670              		.cfi_offset 14, -4
 671              		.loc 1 83 76 view .LVU69
 672 0002 FFF7FEFF 		bl	Default_Handler
 673              	.LVL31:
 674              		.cfi_endproc
 675              	.LFE171:
 677              		.section	.text.DMA1_Stream3_IRQHandler,"ax",%progbits
 678              		.align	1
 679              		.weak	DMA1_Stream3_IRQHandler
 680              		.syntax unified
 681              		.thumb
 682              		.thumb_func
 683              		.fpu fpv5-d16
 685              	DMA1_Stream3_IRQHandler:
 686              	.LFB172:
  84:startup_stm32h743xx.c **** __weak void DMA1_Stream3_IRQHandler(void)                                 {Default_Handler();}
 687              		.loc 1 84 75 view -0
 688              		.cfi_startproc
 689              		@ args = 0, pretend = 0, frame = 0
 690              		@ frame_needed = 0, uses_anonymous_args = 0
 691 0000 08B5     		push	{r3, lr}
 692              	.LCFI23:
 693              		.cfi_def_cfa_offset 8
 694              		.cfi_offset 3, -8
 695              		.cfi_offset 14, -4
 696              		.loc 1 84 76 view .LVU71
 697 0002 FFF7FEFF 		bl	Default_Handler
 698              	.LVL32:
 699              		.cfi_endproc
 700              	.LFE172:
 702              		.section	.text.DMA1_Stream4_IRQHandler,"ax",%progbits
 703              		.align	1
ARM GAS  C:\Users\jisu8\AppData\Local\Temp\ccjWHQ5a.s 			page 14


 704              		.weak	DMA1_Stream4_IRQHandler
 705              		.syntax unified
 706              		.thumb
 707              		.thumb_func
 708              		.fpu fpv5-d16
 710              	DMA1_Stream4_IRQHandler:
 711              	.LFB173:
  85:startup_stm32h743xx.c **** __weak void DMA1_Stream4_IRQHandler(void)                                 {Default_Handler();}
 712              		.loc 1 85 75 view -0
 713              		.cfi_startproc
 714              		@ args = 0, pretend = 0, frame = 0
 715              		@ frame_needed = 0, uses_anonymous_args = 0
 716 0000 08B5     		push	{r3, lr}
 717              	.LCFI24:
 718              		.cfi_def_cfa_offset 8
 719              		.cfi_offset 3, -8
 720              		.cfi_offset 14, -4
 721              		.loc 1 85 76 view .LVU73
 722 0002 FFF7FEFF 		bl	Default_Handler
 723              	.LVL33:
 724              		.cfi_endproc
 725              	.LFE173:
 727              		.section	.text.DMA1_Stream5_IRQHandler,"ax",%progbits
 728              		.align	1
 729              		.weak	DMA1_Stream5_IRQHandler
 730              		.syntax unified
 731              		.thumb
 732              		.thumb_func
 733              		.fpu fpv5-d16
 735              	DMA1_Stream5_IRQHandler:
 736              	.LFB174:
  86:startup_stm32h743xx.c **** __weak void DMA1_Stream5_IRQHandler(void)                                 {Default_Handler();}
 737              		.loc 1 86 75 view -0
 738              		.cfi_startproc
 739              		@ args = 0, pretend = 0, frame = 0
 740              		@ frame_needed = 0, uses_anonymous_args = 0
 741 0000 08B5     		push	{r3, lr}
 742              	.LCFI25:
 743              		.cfi_def_cfa_offset 8
 744              		.cfi_offset 3, -8
 745              		.cfi_offset 14, -4
 746              		.loc 1 86 76 view .LVU75
 747 0002 FFF7FEFF 		bl	Default_Handler
 748              	.LVL34:
 749              		.cfi_endproc
 750              	.LFE174:
 752              		.section	.text.DMA1_Stream6_IRQHandler,"ax",%progbits
 753              		.align	1
 754              		.weak	DMA1_Stream6_IRQHandler
 755              		.syntax unified
 756              		.thumb
 757              		.thumb_func
 758              		.fpu fpv5-d16
 760              	DMA1_Stream6_IRQHandler:
 761              	.LFB175:
  87:startup_stm32h743xx.c **** __weak void DMA1_Stream6_IRQHandler(void)                                 {Default_Handler();}
 762              		.loc 1 87 75 view -0
ARM GAS  C:\Users\jisu8\AppData\Local\Temp\ccjWHQ5a.s 			page 15


 763              		.cfi_startproc
 764              		@ args = 0, pretend = 0, frame = 0
 765              		@ frame_needed = 0, uses_anonymous_args = 0
 766 0000 08B5     		push	{r3, lr}
 767              	.LCFI26:
 768              		.cfi_def_cfa_offset 8
 769              		.cfi_offset 3, -8
 770              		.cfi_offset 14, -4
 771              		.loc 1 87 76 view .LVU77
 772 0002 FFF7FEFF 		bl	Default_Handler
 773              	.LVL35:
 774              		.cfi_endproc
 775              	.LFE175:
 777              		.section	.text.ADC_IRQHandler,"ax",%progbits
 778              		.align	1
 779              		.weak	ADC_IRQHandler
 780              		.syntax unified
 781              		.thumb
 782              		.thumb_func
 783              		.fpu fpv5-d16
 785              	ADC_IRQHandler:
 786              	.LFB176:
  88:startup_stm32h743xx.c **** __weak void ADC_IRQHandler(void)                                          {Default_Handler();}
 787              		.loc 1 88 75 view -0
 788              		.cfi_startproc
 789              		@ args = 0, pretend = 0, frame = 0
 790              		@ frame_needed = 0, uses_anonymous_args = 0
 791 0000 08B5     		push	{r3, lr}
 792              	.LCFI27:
 793              		.cfi_def_cfa_offset 8
 794              		.cfi_offset 3, -8
 795              		.cfi_offset 14, -4
 796              		.loc 1 88 76 view .LVU79
 797 0002 FFF7FEFF 		bl	Default_Handler
 798              	.LVL36:
 799              		.cfi_endproc
 800              	.LFE176:
 802              		.section	.text.FDCAN1_IT0_IRQHandler,"ax",%progbits
 803              		.align	1
 804              		.weak	FDCAN1_IT0_IRQHandler
 805              		.syntax unified
 806              		.thumb
 807              		.thumb_func
 808              		.fpu fpv5-d16
 810              	FDCAN1_IT0_IRQHandler:
 811              	.LFB177:
  89:startup_stm32h743xx.c **** __weak void FDCAN1_IT0_IRQHandler(void)                                   {Default_Handler();}
 812              		.loc 1 89 75 view -0
 813              		.cfi_startproc
 814              		@ args = 0, pretend = 0, frame = 0
 815              		@ frame_needed = 0, uses_anonymous_args = 0
 816 0000 08B5     		push	{r3, lr}
 817              	.LCFI28:
 818              		.cfi_def_cfa_offset 8
 819              		.cfi_offset 3, -8
 820              		.cfi_offset 14, -4
 821              		.loc 1 89 76 view .LVU81
ARM GAS  C:\Users\jisu8\AppData\Local\Temp\ccjWHQ5a.s 			page 16


 822 0002 FFF7FEFF 		bl	Default_Handler
 823              	.LVL37:
 824              		.cfi_endproc
 825              	.LFE177:
 827              		.section	.text.FDCAN2_IT0_IRQHandler,"ax",%progbits
 828              		.align	1
 829              		.weak	FDCAN2_IT0_IRQHandler
 830              		.syntax unified
 831              		.thumb
 832              		.thumb_func
 833              		.fpu fpv5-d16
 835              	FDCAN2_IT0_IRQHandler:
 836              	.LFB178:
  90:startup_stm32h743xx.c **** __weak void FDCAN2_IT0_IRQHandler(void)                                   {Default_Handler();}
 837              		.loc 1 90 75 view -0
 838              		.cfi_startproc
 839              		@ args = 0, pretend = 0, frame = 0
 840              		@ frame_needed = 0, uses_anonymous_args = 0
 841 0000 08B5     		push	{r3, lr}
 842              	.LCFI29:
 843              		.cfi_def_cfa_offset 8
 844              		.cfi_offset 3, -8
 845              		.cfi_offset 14, -4
 846              		.loc 1 90 76 view .LVU83
 847 0002 FFF7FEFF 		bl	Default_Handler
 848              	.LVL38:
 849              		.cfi_endproc
 850              	.LFE178:
 852              		.section	.text.FDCAN1_IT1_IRQHandler,"ax",%progbits
 853              		.align	1
 854              		.weak	FDCAN1_IT1_IRQHandler
 855              		.syntax unified
 856              		.thumb
 857              		.thumb_func
 858              		.fpu fpv5-d16
 860              	FDCAN1_IT1_IRQHandler:
 861              	.LFB179:
  91:startup_stm32h743xx.c **** __weak void FDCAN1_IT1_IRQHandler(void)                                   {Default_Handler();}
 862              		.loc 1 91 75 view -0
 863              		.cfi_startproc
 864              		@ args = 0, pretend = 0, frame = 0
 865              		@ frame_needed = 0, uses_anonymous_args = 0
 866 0000 08B5     		push	{r3, lr}
 867              	.LCFI30:
 868              		.cfi_def_cfa_offset 8
 869              		.cfi_offset 3, -8
 870              		.cfi_offset 14, -4
 871              		.loc 1 91 76 view .LVU85
 872 0002 FFF7FEFF 		bl	Default_Handler
 873              	.LVL39:
 874              		.cfi_endproc
 875              	.LFE179:
 877              		.section	.text.FDCAN2_IT1_IRQHandler,"ax",%progbits
 878              		.align	1
 879              		.weak	FDCAN2_IT1_IRQHandler
 880              		.syntax unified
 881              		.thumb
ARM GAS  C:\Users\jisu8\AppData\Local\Temp\ccjWHQ5a.s 			page 17


 882              		.thumb_func
 883              		.fpu fpv5-d16
 885              	FDCAN2_IT1_IRQHandler:
 886              	.LFB180:
  92:startup_stm32h743xx.c **** __weak void FDCAN2_IT1_IRQHandler(void)                                   {Default_Handler();}
 887              		.loc 1 92 75 view -0
 888              		.cfi_startproc
 889              		@ args = 0, pretend = 0, frame = 0
 890              		@ frame_needed = 0, uses_anonymous_args = 0
 891 0000 08B5     		push	{r3, lr}
 892              	.LCFI31:
 893              		.cfi_def_cfa_offset 8
 894              		.cfi_offset 3, -8
 895              		.cfi_offset 14, -4
 896              		.loc 1 92 76 view .LVU87
 897 0002 FFF7FEFF 		bl	Default_Handler
 898              	.LVL40:
 899              		.cfi_endproc
 900              	.LFE180:
 902              		.section	.text.EXTI9_5_IRQHandler,"ax",%progbits
 903              		.align	1
 904              		.weak	EXTI9_5_IRQHandler
 905              		.syntax unified
 906              		.thumb
 907              		.thumb_func
 908              		.fpu fpv5-d16
 910              	EXTI9_5_IRQHandler:
 911              	.LFB181:
  93:startup_stm32h743xx.c **** __weak void EXTI9_5_IRQHandler(void)                                      {Default_Handler();}
 912              		.loc 1 93 75 view -0
 913              		.cfi_startproc
 914              		@ args = 0, pretend = 0, frame = 0
 915              		@ frame_needed = 0, uses_anonymous_args = 0
 916 0000 08B5     		push	{r3, lr}
 917              	.LCFI32:
 918              		.cfi_def_cfa_offset 8
 919              		.cfi_offset 3, -8
 920              		.cfi_offset 14, -4
 921              		.loc 1 93 76 view .LVU89
 922 0002 FFF7FEFF 		bl	Default_Handler
 923              	.LVL41:
 924              		.cfi_endproc
 925              	.LFE181:
 927              		.section	.text.TIM1_BRK_IRQHandler,"ax",%progbits
 928              		.align	1
 929              		.weak	TIM1_BRK_IRQHandler
 930              		.syntax unified
 931              		.thumb
 932              		.thumb_func
 933              		.fpu fpv5-d16
 935              	TIM1_BRK_IRQHandler:
 936              	.LFB182:
  94:startup_stm32h743xx.c **** __weak void TIM1_BRK_IRQHandler(void)                                     {Default_Handler();}
 937              		.loc 1 94 75 view -0
 938              		.cfi_startproc
 939              		@ args = 0, pretend = 0, frame = 0
 940              		@ frame_needed = 0, uses_anonymous_args = 0
ARM GAS  C:\Users\jisu8\AppData\Local\Temp\ccjWHQ5a.s 			page 18


 941 0000 08B5     		push	{r3, lr}
 942              	.LCFI33:
 943              		.cfi_def_cfa_offset 8
 944              		.cfi_offset 3, -8
 945              		.cfi_offset 14, -4
 946              		.loc 1 94 76 view .LVU91
 947 0002 FFF7FEFF 		bl	Default_Handler
 948              	.LVL42:
 949              		.cfi_endproc
 950              	.LFE182:
 952              		.section	.text.TIM1_UP_IRQHandler,"ax",%progbits
 953              		.align	1
 954              		.weak	TIM1_UP_IRQHandler
 955              		.syntax unified
 956              		.thumb
 957              		.thumb_func
 958              		.fpu fpv5-d16
 960              	TIM1_UP_IRQHandler:
 961              	.LFB183:
  95:startup_stm32h743xx.c **** __weak void TIM1_UP_IRQHandler(void)                                      {Default_Handler();}
 962              		.loc 1 95 75 view -0
 963              		.cfi_startproc
 964              		@ args = 0, pretend = 0, frame = 0
 965              		@ frame_needed = 0, uses_anonymous_args = 0
 966 0000 08B5     		push	{r3, lr}
 967              	.LCFI34:
 968              		.cfi_def_cfa_offset 8
 969              		.cfi_offset 3, -8
 970              		.cfi_offset 14, -4
 971              		.loc 1 95 76 view .LVU93
 972 0002 FFF7FEFF 		bl	Default_Handler
 973              	.LVL43:
 974              		.cfi_endproc
 975              	.LFE183:
 977              		.section	.text.TIM1_TRG_COM_IRQHandler,"ax",%progbits
 978              		.align	1
 979              		.weak	TIM1_TRG_COM_IRQHandler
 980              		.syntax unified
 981              		.thumb
 982              		.thumb_func
 983              		.fpu fpv5-d16
 985              	TIM1_TRG_COM_IRQHandler:
 986              	.LFB184:
  96:startup_stm32h743xx.c **** __weak void TIM1_TRG_COM_IRQHandler(void)                                 {Default_Handler();}
 987              		.loc 1 96 75 view -0
 988              		.cfi_startproc
 989              		@ args = 0, pretend = 0, frame = 0
 990              		@ frame_needed = 0, uses_anonymous_args = 0
 991 0000 08B5     		push	{r3, lr}
 992              	.LCFI35:
 993              		.cfi_def_cfa_offset 8
 994              		.cfi_offset 3, -8
 995              		.cfi_offset 14, -4
 996              		.loc 1 96 76 view .LVU95
 997 0002 FFF7FEFF 		bl	Default_Handler
 998              	.LVL44:
 999              		.cfi_endproc
ARM GAS  C:\Users\jisu8\AppData\Local\Temp\ccjWHQ5a.s 			page 19


 1000              	.LFE184:
 1002              		.section	.text.TIM1_CC_IRQHandler,"ax",%progbits
 1003              		.align	1
 1004              		.weak	TIM1_CC_IRQHandler
 1005              		.syntax unified
 1006              		.thumb
 1007              		.thumb_func
 1008              		.fpu fpv5-d16
 1010              	TIM1_CC_IRQHandler:
 1011              	.LFB185:
  97:startup_stm32h743xx.c **** __weak void TIM1_CC_IRQHandler(void)                                      {Default_Handler();}
 1012              		.loc 1 97 75 view -0
 1013              		.cfi_startproc
 1014              		@ args = 0, pretend = 0, frame = 0
 1015              		@ frame_needed = 0, uses_anonymous_args = 0
 1016 0000 08B5     		push	{r3, lr}
 1017              	.LCFI36:
 1018              		.cfi_def_cfa_offset 8
 1019              		.cfi_offset 3, -8
 1020              		.cfi_offset 14, -4
 1021              		.loc 1 97 76 view .LVU97
 1022 0002 FFF7FEFF 		bl	Default_Handler
 1023              	.LVL45:
 1024              		.cfi_endproc
 1025              	.LFE185:
 1027              		.section	.text.TIM2_IRQHandler,"ax",%progbits
 1028              		.align	1
 1029              		.weak	TIM2_IRQHandler
 1030              		.syntax unified
 1031              		.thumb
 1032              		.thumb_func
 1033              		.fpu fpv5-d16
 1035              	TIM2_IRQHandler:
 1036              	.LFB186:
  98:startup_stm32h743xx.c **** __weak void TIM2_IRQHandler(void)                                         {Default_Handler();}
 1037              		.loc 1 98 75 view -0
 1038              		.cfi_startproc
 1039              		@ args = 0, pretend = 0, frame = 0
 1040              		@ frame_needed = 0, uses_anonymous_args = 0
 1041 0000 08B5     		push	{r3, lr}
 1042              	.LCFI37:
 1043              		.cfi_def_cfa_offset 8
 1044              		.cfi_offset 3, -8
 1045              		.cfi_offset 14, -4
 1046              		.loc 1 98 76 view .LVU99
 1047 0002 FFF7FEFF 		bl	Default_Handler
 1048              	.LVL46:
 1049              		.cfi_endproc
 1050              	.LFE186:
 1052              		.section	.text.TIM3_IRQHandler,"ax",%progbits
 1053              		.align	1
 1054              		.weak	TIM3_IRQHandler
 1055              		.syntax unified
 1056              		.thumb
 1057              		.thumb_func
 1058              		.fpu fpv5-d16
 1060              	TIM3_IRQHandler:
ARM GAS  C:\Users\jisu8\AppData\Local\Temp\ccjWHQ5a.s 			page 20


 1061              	.LFB187:
  99:startup_stm32h743xx.c **** __weak void TIM3_IRQHandler(void)                                         {Default_Handler();}
 1062              		.loc 1 99 75 view -0
 1063              		.cfi_startproc
 1064              		@ args = 0, pretend = 0, frame = 0
 1065              		@ frame_needed = 0, uses_anonymous_args = 0
 1066 0000 08B5     		push	{r3, lr}
 1067              	.LCFI38:
 1068              		.cfi_def_cfa_offset 8
 1069              		.cfi_offset 3, -8
 1070              		.cfi_offset 14, -4
 1071              		.loc 1 99 76 view .LVU101
 1072 0002 FFF7FEFF 		bl	Default_Handler
 1073              	.LVL47:
 1074              		.cfi_endproc
 1075              	.LFE187:
 1077              		.section	.text.TIM4_IRQHandler,"ax",%progbits
 1078              		.align	1
 1079              		.weak	TIM4_IRQHandler
 1080              		.syntax unified
 1081              		.thumb
 1082              		.thumb_func
 1083              		.fpu fpv5-d16
 1085              	TIM4_IRQHandler:
 1086              	.LFB188:
 100:startup_stm32h743xx.c **** __weak void TIM4_IRQHandler(void)                                         {Default_Handler();}
 1087              		.loc 1 100 75 view -0
 1088              		.cfi_startproc
 1089              		@ args = 0, pretend = 0, frame = 0
 1090              		@ frame_needed = 0, uses_anonymous_args = 0
 1091 0000 08B5     		push	{r3, lr}
 1092              	.LCFI39:
 1093              		.cfi_def_cfa_offset 8
 1094              		.cfi_offset 3, -8
 1095              		.cfi_offset 14, -4
 1096              		.loc 1 100 76 view .LVU103
 1097 0002 FFF7FEFF 		bl	Default_Handler
 1098              	.LVL48:
 1099              		.cfi_endproc
 1100              	.LFE188:
 1102              		.section	.text.I2C1_EV_IRQHandler,"ax",%progbits
 1103              		.align	1
 1104              		.weak	I2C1_EV_IRQHandler
 1105              		.syntax unified
 1106              		.thumb
 1107              		.thumb_func
 1108              		.fpu fpv5-d16
 1110              	I2C1_EV_IRQHandler:
 1111              	.LFB189:
 101:startup_stm32h743xx.c **** __weak void I2C1_EV_IRQHandler(void)                                      {Default_Handler();}
 1112              		.loc 1 101 75 view -0
 1113              		.cfi_startproc
 1114              		@ args = 0, pretend = 0, frame = 0
 1115              		@ frame_needed = 0, uses_anonymous_args = 0
 1116 0000 08B5     		push	{r3, lr}
 1117              	.LCFI40:
 1118              		.cfi_def_cfa_offset 8
ARM GAS  C:\Users\jisu8\AppData\Local\Temp\ccjWHQ5a.s 			page 21


 1119              		.cfi_offset 3, -8
 1120              		.cfi_offset 14, -4
 1121              		.loc 1 101 76 view .LVU105
 1122 0002 FFF7FEFF 		bl	Default_Handler
 1123              	.LVL49:
 1124              		.cfi_endproc
 1125              	.LFE189:
 1127              		.section	.text.I2C1_ER_IRQHandler,"ax",%progbits
 1128              		.align	1
 1129              		.weak	I2C1_ER_IRQHandler
 1130              		.syntax unified
 1131              		.thumb
 1132              		.thumb_func
 1133              		.fpu fpv5-d16
 1135              	I2C1_ER_IRQHandler:
 1136              	.LFB190:
 102:startup_stm32h743xx.c **** __weak void I2C1_ER_IRQHandler(void)                                      {Default_Handler();}
 1137              		.loc 1 102 75 view -0
 1138              		.cfi_startproc
 1139              		@ args = 0, pretend = 0, frame = 0
 1140              		@ frame_needed = 0, uses_anonymous_args = 0
 1141 0000 08B5     		push	{r3, lr}
 1142              	.LCFI41:
 1143              		.cfi_def_cfa_offset 8
 1144              		.cfi_offset 3, -8
 1145              		.cfi_offset 14, -4
 1146              		.loc 1 102 76 view .LVU107
 1147 0002 FFF7FEFF 		bl	Default_Handler
 1148              	.LVL50:
 1149              		.cfi_endproc
 1150              	.LFE190:
 1152              		.section	.text.I2C2_EV_IRQHandler,"ax",%progbits
 1153              		.align	1
 1154              		.weak	I2C2_EV_IRQHandler
 1155              		.syntax unified
 1156              		.thumb
 1157              		.thumb_func
 1158              		.fpu fpv5-d16
 1160              	I2C2_EV_IRQHandler:
 1161              	.LFB191:
 103:startup_stm32h743xx.c **** __weak void I2C2_EV_IRQHandler(void)                                      {Default_Handler();}
 1162              		.loc 1 103 75 view -0
 1163              		.cfi_startproc
 1164              		@ args = 0, pretend = 0, frame = 0
 1165              		@ frame_needed = 0, uses_anonymous_args = 0
 1166 0000 08B5     		push	{r3, lr}
 1167              	.LCFI42:
 1168              		.cfi_def_cfa_offset 8
 1169              		.cfi_offset 3, -8
 1170              		.cfi_offset 14, -4
 1171              		.loc 1 103 76 view .LVU109
 1172 0002 FFF7FEFF 		bl	Default_Handler
 1173              	.LVL51:
 1174              		.cfi_endproc
 1175              	.LFE191:
 1177              		.section	.text.I2C2_ER_IRQHandler,"ax",%progbits
 1178              		.align	1
ARM GAS  C:\Users\jisu8\AppData\Local\Temp\ccjWHQ5a.s 			page 22


 1179              		.weak	I2C2_ER_IRQHandler
 1180              		.syntax unified
 1181              		.thumb
 1182              		.thumb_func
 1183              		.fpu fpv5-d16
 1185              	I2C2_ER_IRQHandler:
 1186              	.LFB192:
 104:startup_stm32h743xx.c **** __weak void I2C2_ER_IRQHandler(void)                                      {Default_Handler();}
 1187              		.loc 1 104 75 view -0
 1188              		.cfi_startproc
 1189              		@ args = 0, pretend = 0, frame = 0
 1190              		@ frame_needed = 0, uses_anonymous_args = 0
 1191 0000 08B5     		push	{r3, lr}
 1192              	.LCFI43:
 1193              		.cfi_def_cfa_offset 8
 1194              		.cfi_offset 3, -8
 1195              		.cfi_offset 14, -4
 1196              		.loc 1 104 76 view .LVU111
 1197 0002 FFF7FEFF 		bl	Default_Handler
 1198              	.LVL52:
 1199              		.cfi_endproc
 1200              	.LFE192:
 1202              		.section	.text.SPI1_IRQHandler,"ax",%progbits
 1203              		.align	1
 1204              		.weak	SPI1_IRQHandler
 1205              		.syntax unified
 1206              		.thumb
 1207              		.thumb_func
 1208              		.fpu fpv5-d16
 1210              	SPI1_IRQHandler:
 1211              	.LFB193:
 105:startup_stm32h743xx.c **** __weak void SPI1_IRQHandler(void)                                         {Default_Handler();}
 1212              		.loc 1 105 75 view -0
 1213              		.cfi_startproc
 1214              		@ args = 0, pretend = 0, frame = 0
 1215              		@ frame_needed = 0, uses_anonymous_args = 0
 1216 0000 08B5     		push	{r3, lr}
 1217              	.LCFI44:
 1218              		.cfi_def_cfa_offset 8
 1219              		.cfi_offset 3, -8
 1220              		.cfi_offset 14, -4
 1221              		.loc 1 105 76 view .LVU113
 1222 0002 FFF7FEFF 		bl	Default_Handler
 1223              	.LVL53:
 1224              		.cfi_endproc
 1225              	.LFE193:
 1227              		.section	.text.SPI2_IRQHandler,"ax",%progbits
 1228              		.align	1
 1229              		.weak	SPI2_IRQHandler
 1230              		.syntax unified
 1231              		.thumb
 1232              		.thumb_func
 1233              		.fpu fpv5-d16
 1235              	SPI2_IRQHandler:
 1236              	.LFB194:
 106:startup_stm32h743xx.c **** __weak void SPI2_IRQHandler(void)                                         {Default_Handler();}
 1237              		.loc 1 106 75 view -0
ARM GAS  C:\Users\jisu8\AppData\Local\Temp\ccjWHQ5a.s 			page 23


 1238              		.cfi_startproc
 1239              		@ args = 0, pretend = 0, frame = 0
 1240              		@ frame_needed = 0, uses_anonymous_args = 0
 1241 0000 08B5     		push	{r3, lr}
 1242              	.LCFI45:
 1243              		.cfi_def_cfa_offset 8
 1244              		.cfi_offset 3, -8
 1245              		.cfi_offset 14, -4
 1246              		.loc 1 106 76 view .LVU115
 1247 0002 FFF7FEFF 		bl	Default_Handler
 1248              	.LVL54:
 1249              		.cfi_endproc
 1250              	.LFE194:
 1252              		.section	.text.USART1_IRQHandler,"ax",%progbits
 1253              		.align	1
 1254              		.weak	USART1_IRQHandler
 1255              		.syntax unified
 1256              		.thumb
 1257              		.thumb_func
 1258              		.fpu fpv5-d16
 1260              	USART1_IRQHandler:
 1261              	.LFB195:
 107:startup_stm32h743xx.c **** __weak void USART1_IRQHandler(void)                                       {Default_Handler();}
 1262              		.loc 1 107 75 view -0
 1263              		.cfi_startproc
 1264              		@ args = 0, pretend = 0, frame = 0
 1265              		@ frame_needed = 0, uses_anonymous_args = 0
 1266 0000 08B5     		push	{r3, lr}
 1267              	.LCFI46:
 1268              		.cfi_def_cfa_offset 8
 1269              		.cfi_offset 3, -8
 1270              		.cfi_offset 14, -4
 1271              		.loc 1 107 76 view .LVU117
 1272 0002 FFF7FEFF 		bl	Default_Handler
 1273              	.LVL55:
 1274              		.cfi_endproc
 1275              	.LFE195:
 1277              		.section	.text.USART2_IRQHandler,"ax",%progbits
 1278              		.align	1
 1279              		.weak	USART2_IRQHandler
 1280              		.syntax unified
 1281              		.thumb
 1282              		.thumb_func
 1283              		.fpu fpv5-d16
 1285              	USART2_IRQHandler:
 1286              	.LFB196:
 108:startup_stm32h743xx.c **** __weak void USART2_IRQHandler(void)                                       {Default_Handler();}
 1287              		.loc 1 108 75 view -0
 1288              		.cfi_startproc
 1289              		@ args = 0, pretend = 0, frame = 0
 1290              		@ frame_needed = 0, uses_anonymous_args = 0
 1291 0000 08B5     		push	{r3, lr}
 1292              	.LCFI47:
 1293              		.cfi_def_cfa_offset 8
 1294              		.cfi_offset 3, -8
 1295              		.cfi_offset 14, -4
 1296              		.loc 1 108 76 view .LVU119
ARM GAS  C:\Users\jisu8\AppData\Local\Temp\ccjWHQ5a.s 			page 24


 1297 0002 FFF7FEFF 		bl	Default_Handler
 1298              	.LVL56:
 1299              		.cfi_endproc
 1300              	.LFE196:
 1302              		.section	.text.USART3_IRQHandler,"ax",%progbits
 1303              		.align	1
 1304              		.weak	USART3_IRQHandler
 1305              		.syntax unified
 1306              		.thumb
 1307              		.thumb_func
 1308              		.fpu fpv5-d16
 1310              	USART3_IRQHandler:
 1311              	.LFB197:
 109:startup_stm32h743xx.c **** __weak void USART3_IRQHandler(void)                                       {Default_Handler();}
 1312              		.loc 1 109 75 view -0
 1313              		.cfi_startproc
 1314              		@ args = 0, pretend = 0, frame = 0
 1315              		@ frame_needed = 0, uses_anonymous_args = 0
 1316 0000 08B5     		push	{r3, lr}
 1317              	.LCFI48:
 1318              		.cfi_def_cfa_offset 8
 1319              		.cfi_offset 3, -8
 1320              		.cfi_offset 14, -4
 1321              		.loc 1 109 76 view .LVU121
 1322 0002 FFF7FEFF 		bl	Default_Handler
 1323              	.LVL57:
 1324              		.cfi_endproc
 1325              	.LFE197:
 1327              		.section	.text.EXTI15_10_IRQHandler,"ax",%progbits
 1328              		.align	1
 1329              		.weak	EXTI15_10_IRQHandler
 1330              		.syntax unified
 1331              		.thumb
 1332              		.thumb_func
 1333              		.fpu fpv5-d16
 1335              	EXTI15_10_IRQHandler:
 1336              	.LFB198:
 110:startup_stm32h743xx.c **** __weak void EXTI15_10_IRQHandler(void)                                    {Default_Handler();}
 1337              		.loc 1 110 75 view -0
 1338              		.cfi_startproc
 1339              		@ args = 0, pretend = 0, frame = 0
 1340              		@ frame_needed = 0, uses_anonymous_args = 0
 1341 0000 08B5     		push	{r3, lr}
 1342              	.LCFI49:
 1343              		.cfi_def_cfa_offset 8
 1344              		.cfi_offset 3, -8
 1345              		.cfi_offset 14, -4
 1346              		.loc 1 110 76 view .LVU123
 1347 0002 FFF7FEFF 		bl	Default_Handler
 1348              	.LVL58:
 1349              		.cfi_endproc
 1350              	.LFE198:
 1352              		.section	.text.RTC_Alarm_IRQHandler,"ax",%progbits
 1353              		.align	1
 1354              		.weak	RTC_Alarm_IRQHandler
 1355              		.syntax unified
 1356              		.thumb
ARM GAS  C:\Users\jisu8\AppData\Local\Temp\ccjWHQ5a.s 			page 25


 1357              		.thumb_func
 1358              		.fpu fpv5-d16
 1360              	RTC_Alarm_IRQHandler:
 1361              	.LFB199:
 111:startup_stm32h743xx.c **** __weak void RTC_Alarm_IRQHandler(void)                                    {Default_Handler();}
 1362              		.loc 1 111 75 view -0
 1363              		.cfi_startproc
 1364              		@ args = 0, pretend = 0, frame = 0
 1365              		@ frame_needed = 0, uses_anonymous_args = 0
 1366 0000 08B5     		push	{r3, lr}
 1367              	.LCFI50:
 1368              		.cfi_def_cfa_offset 8
 1369              		.cfi_offset 3, -8
 1370              		.cfi_offset 14, -4
 1371              		.loc 1 111 76 view .LVU125
 1372 0002 FFF7FEFF 		bl	Default_Handler
 1373              	.LVL59:
 1374              		.cfi_endproc
 1375              	.LFE199:
 1377              		.section	.text.TIM8_BRK_TIM12_IRQHandler,"ax",%progbits
 1378              		.align	1
 1379              		.weak	TIM8_BRK_TIM12_IRQHandler
 1380              		.syntax unified
 1381              		.thumb
 1382              		.thumb_func
 1383              		.fpu fpv5-d16
 1385              	TIM8_BRK_TIM12_IRQHandler:
 1386              	.LFB200:
 112:startup_stm32h743xx.c **** __weak void TIM8_BRK_TIM12_IRQHandler(void)                               {Default_Handler();}
 1387              		.loc 1 112 75 view -0
 1388              		.cfi_startproc
 1389              		@ args = 0, pretend = 0, frame = 0
 1390              		@ frame_needed = 0, uses_anonymous_args = 0
 1391 0000 08B5     		push	{r3, lr}
 1392              	.LCFI51:
 1393              		.cfi_def_cfa_offset 8
 1394              		.cfi_offset 3, -8
 1395              		.cfi_offset 14, -4
 1396              		.loc 1 112 76 view .LVU127
 1397 0002 FFF7FEFF 		bl	Default_Handler
 1398              	.LVL60:
 1399              		.cfi_endproc
 1400              	.LFE200:
 1402              		.section	.text.TIM8_UP_TIM13_IRQHandler,"ax",%progbits
 1403              		.align	1
 1404              		.weak	TIM8_UP_TIM13_IRQHandler
 1405              		.syntax unified
 1406              		.thumb
 1407              		.thumb_func
 1408              		.fpu fpv5-d16
 1410              	TIM8_UP_TIM13_IRQHandler:
 1411              	.LFB201:
 113:startup_stm32h743xx.c **** __weak void TIM8_UP_TIM13_IRQHandler(void)                                {Default_Handler();}
 1412              		.loc 1 113 75 view -0
 1413              		.cfi_startproc
 1414              		@ args = 0, pretend = 0, frame = 0
 1415              		@ frame_needed = 0, uses_anonymous_args = 0
ARM GAS  C:\Users\jisu8\AppData\Local\Temp\ccjWHQ5a.s 			page 26


 1416 0000 08B5     		push	{r3, lr}
 1417              	.LCFI52:
 1418              		.cfi_def_cfa_offset 8
 1419              		.cfi_offset 3, -8
 1420              		.cfi_offset 14, -4
 1421              		.loc 1 113 76 view .LVU129
 1422 0002 FFF7FEFF 		bl	Default_Handler
 1423              	.LVL61:
 1424              		.cfi_endproc
 1425              	.LFE201:
 1427              		.section	.text.TIM8_TRG_COM_TIM14_IRQHandler,"ax",%progbits
 1428              		.align	1
 1429              		.weak	TIM8_TRG_COM_TIM14_IRQHandler
 1430              		.syntax unified
 1431              		.thumb
 1432              		.thumb_func
 1433              		.fpu fpv5-d16
 1435              	TIM8_TRG_COM_TIM14_IRQHandler:
 1436              	.LFB202:
 114:startup_stm32h743xx.c **** __weak void TIM8_TRG_COM_TIM14_IRQHandler(void)                           {Default_Handler();}
 1437              		.loc 1 114 75 view -0
 1438              		.cfi_startproc
 1439              		@ args = 0, pretend = 0, frame = 0
 1440              		@ frame_needed = 0, uses_anonymous_args = 0
 1441 0000 08B5     		push	{r3, lr}
 1442              	.LCFI53:
 1443              		.cfi_def_cfa_offset 8
 1444              		.cfi_offset 3, -8
 1445              		.cfi_offset 14, -4
 1446              		.loc 1 114 76 view .LVU131
 1447 0002 FFF7FEFF 		bl	Default_Handler
 1448              	.LVL62:
 1449              		.cfi_endproc
 1450              	.LFE202:
 1452              		.section	.text.TIM8_CC_IRQHandler,"ax",%progbits
 1453              		.align	1
 1454              		.weak	TIM8_CC_IRQHandler
 1455              		.syntax unified
 1456              		.thumb
 1457              		.thumb_func
 1458              		.fpu fpv5-d16
 1460              	TIM8_CC_IRQHandler:
 1461              	.LFB203:
 115:startup_stm32h743xx.c **** __weak void TIM8_CC_IRQHandler(void)                                      {Default_Handler();}
 1462              		.loc 1 115 75 view -0
 1463              		.cfi_startproc
 1464              		@ args = 0, pretend = 0, frame = 0
 1465              		@ frame_needed = 0, uses_anonymous_args = 0
 1466 0000 08B5     		push	{r3, lr}
 1467              	.LCFI54:
 1468              		.cfi_def_cfa_offset 8
 1469              		.cfi_offset 3, -8
 1470              		.cfi_offset 14, -4
 1471              		.loc 1 115 76 view .LVU133
 1472 0002 FFF7FEFF 		bl	Default_Handler
 1473              	.LVL63:
 1474              		.cfi_endproc
ARM GAS  C:\Users\jisu8\AppData\Local\Temp\ccjWHQ5a.s 			page 27


 1475              	.LFE203:
 1477              		.section	.text.DMA1_Stream7_IRQHandler,"ax",%progbits
 1478              		.align	1
 1479              		.weak	DMA1_Stream7_IRQHandler
 1480              		.syntax unified
 1481              		.thumb
 1482              		.thumb_func
 1483              		.fpu fpv5-d16
 1485              	DMA1_Stream7_IRQHandler:
 1486              	.LFB204:
 116:startup_stm32h743xx.c **** __weak void DMA1_Stream7_IRQHandler(void)                                 {Default_Handler();}
 1487              		.loc 1 116 75 view -0
 1488              		.cfi_startproc
 1489              		@ args = 0, pretend = 0, frame = 0
 1490              		@ frame_needed = 0, uses_anonymous_args = 0
 1491 0000 08B5     		push	{r3, lr}
 1492              	.LCFI55:
 1493              		.cfi_def_cfa_offset 8
 1494              		.cfi_offset 3, -8
 1495              		.cfi_offset 14, -4
 1496              		.loc 1 116 76 view .LVU135
 1497 0002 FFF7FEFF 		bl	Default_Handler
 1498              	.LVL64:
 1499              		.cfi_endproc
 1500              	.LFE204:
 1502              		.section	.text.FMC_IRQHandler,"ax",%progbits
 1503              		.align	1
 1504              		.weak	FMC_IRQHandler
 1505              		.syntax unified
 1506              		.thumb
 1507              		.thumb_func
 1508              		.fpu fpv5-d16
 1510              	FMC_IRQHandler:
 1511              	.LFB205:
 117:startup_stm32h743xx.c **** __weak void FMC_IRQHandler(void)                                          {Default_Handler();}
 1512              		.loc 1 117 75 view -0
 1513              		.cfi_startproc
 1514              		@ args = 0, pretend = 0, frame = 0
 1515              		@ frame_needed = 0, uses_anonymous_args = 0
 1516 0000 08B5     		push	{r3, lr}
 1517              	.LCFI56:
 1518              		.cfi_def_cfa_offset 8
 1519              		.cfi_offset 3, -8
 1520              		.cfi_offset 14, -4
 1521              		.loc 1 117 76 view .LVU137
 1522 0002 FFF7FEFF 		bl	Default_Handler
 1523              	.LVL65:
 1524              		.cfi_endproc
 1525              	.LFE205:
 1527              		.section	.text.SDMMC1_IRQHandler,"ax",%progbits
 1528              		.align	1
 1529              		.weak	SDMMC1_IRQHandler
 1530              		.syntax unified
 1531              		.thumb
 1532              		.thumb_func
 1533              		.fpu fpv5-d16
 1535              	SDMMC1_IRQHandler:
ARM GAS  C:\Users\jisu8\AppData\Local\Temp\ccjWHQ5a.s 			page 28


 1536              	.LFB206:
 118:startup_stm32h743xx.c **** __weak void SDMMC1_IRQHandler(void)                                       {Default_Handler();}
 1537              		.loc 1 118 75 view -0
 1538              		.cfi_startproc
 1539              		@ args = 0, pretend = 0, frame = 0
 1540              		@ frame_needed = 0, uses_anonymous_args = 0
 1541 0000 08B5     		push	{r3, lr}
 1542              	.LCFI57:
 1543              		.cfi_def_cfa_offset 8
 1544              		.cfi_offset 3, -8
 1545              		.cfi_offset 14, -4
 1546              		.loc 1 118 76 view .LVU139
 1547 0002 FFF7FEFF 		bl	Default_Handler
 1548              	.LVL66:
 1549              		.cfi_endproc
 1550              	.LFE206:
 1552              		.section	.text.TIM5_IRQHandler,"ax",%progbits
 1553              		.align	1
 1554              		.weak	TIM5_IRQHandler
 1555              		.syntax unified
 1556              		.thumb
 1557              		.thumb_func
 1558              		.fpu fpv5-d16
 1560              	TIM5_IRQHandler:
 1561              	.LFB207:
 119:startup_stm32h743xx.c **** __weak void TIM5_IRQHandler(void)                                         {Default_Handler();}
 1562              		.loc 1 119 75 view -0
 1563              		.cfi_startproc
 1564              		@ args = 0, pretend = 0, frame = 0
 1565              		@ frame_needed = 0, uses_anonymous_args = 0
 1566 0000 08B5     		push	{r3, lr}
 1567              	.LCFI58:
 1568              		.cfi_def_cfa_offset 8
 1569              		.cfi_offset 3, -8
 1570              		.cfi_offset 14, -4
 1571              		.loc 1 119 76 view .LVU141
 1572 0002 FFF7FEFF 		bl	Default_Handler
 1573              	.LVL67:
 1574              		.cfi_endproc
 1575              	.LFE207:
 1577              		.section	.text.SPI3_IRQHandler,"ax",%progbits
 1578              		.align	1
 1579              		.weak	SPI3_IRQHandler
 1580              		.syntax unified
 1581              		.thumb
 1582              		.thumb_func
 1583              		.fpu fpv5-d16
 1585              	SPI3_IRQHandler:
 1586              	.LFB208:
 120:startup_stm32h743xx.c **** __weak void SPI3_IRQHandler(void)                                         {Default_Handler();}
 1587              		.loc 1 120 75 view -0
 1588              		.cfi_startproc
 1589              		@ args = 0, pretend = 0, frame = 0
 1590              		@ frame_needed = 0, uses_anonymous_args = 0
 1591 0000 08B5     		push	{r3, lr}
 1592              	.LCFI59:
 1593              		.cfi_def_cfa_offset 8
ARM GAS  C:\Users\jisu8\AppData\Local\Temp\ccjWHQ5a.s 			page 29


 1594              		.cfi_offset 3, -8
 1595              		.cfi_offset 14, -4
 1596              		.loc 1 120 76 view .LVU143
 1597 0002 FFF7FEFF 		bl	Default_Handler
 1598              	.LVL68:
 1599              		.cfi_endproc
 1600              	.LFE208:
 1602              		.section	.text.UART4_IRQHandler,"ax",%progbits
 1603              		.align	1
 1604              		.weak	UART4_IRQHandler
 1605              		.syntax unified
 1606              		.thumb
 1607              		.thumb_func
 1608              		.fpu fpv5-d16
 1610              	UART4_IRQHandler:
 1611              	.LFB209:
 121:startup_stm32h743xx.c **** __weak void UART4_IRQHandler(void)                                        {Default_Handler();}
 1612              		.loc 1 121 75 view -0
 1613              		.cfi_startproc
 1614              		@ args = 0, pretend = 0, frame = 0
 1615              		@ frame_needed = 0, uses_anonymous_args = 0
 1616 0000 08B5     		push	{r3, lr}
 1617              	.LCFI60:
 1618              		.cfi_def_cfa_offset 8
 1619              		.cfi_offset 3, -8
 1620              		.cfi_offset 14, -4
 1621              		.loc 1 121 76 view .LVU145
 1622 0002 FFF7FEFF 		bl	Default_Handler
 1623              	.LVL69:
 1624              		.cfi_endproc
 1625              	.LFE209:
 1627              		.section	.text.UART5_IRQHandler,"ax",%progbits
 1628              		.align	1
 1629              		.weak	UART5_IRQHandler
 1630              		.syntax unified
 1631              		.thumb
 1632              		.thumb_func
 1633              		.fpu fpv5-d16
 1635              	UART5_IRQHandler:
 1636              	.LFB210:
 122:startup_stm32h743xx.c **** __weak void UART5_IRQHandler(void)                                        {Default_Handler();}
 1637              		.loc 1 122 75 view -0
 1638              		.cfi_startproc
 1639              		@ args = 0, pretend = 0, frame = 0
 1640              		@ frame_needed = 0, uses_anonymous_args = 0
 1641 0000 08B5     		push	{r3, lr}
 1642              	.LCFI61:
 1643              		.cfi_def_cfa_offset 8
 1644              		.cfi_offset 3, -8
 1645              		.cfi_offset 14, -4
 1646              		.loc 1 122 76 view .LVU147
 1647 0002 FFF7FEFF 		bl	Default_Handler
 1648              	.LVL70:
 1649              		.cfi_endproc
 1650              	.LFE210:
 1652              		.section	.text.TIM6_DAC_IRQHandler,"ax",%progbits
 1653              		.align	1
ARM GAS  C:\Users\jisu8\AppData\Local\Temp\ccjWHQ5a.s 			page 30


 1654              		.weak	TIM6_DAC_IRQHandler
 1655              		.syntax unified
 1656              		.thumb
 1657              		.thumb_func
 1658              		.fpu fpv5-d16
 1660              	TIM6_DAC_IRQHandler:
 1661              	.LFB211:
 123:startup_stm32h743xx.c **** __weak void TIM6_DAC_IRQHandler(void)                                     {Default_Handler();}
 1662              		.loc 1 123 75 view -0
 1663              		.cfi_startproc
 1664              		@ args = 0, pretend = 0, frame = 0
 1665              		@ frame_needed = 0, uses_anonymous_args = 0
 1666 0000 08B5     		push	{r3, lr}
 1667              	.LCFI62:
 1668              		.cfi_def_cfa_offset 8
 1669              		.cfi_offset 3, -8
 1670              		.cfi_offset 14, -4
 1671              		.loc 1 123 76 view .LVU149
 1672 0002 FFF7FEFF 		bl	Default_Handler
 1673              	.LVL71:
 1674              		.cfi_endproc
 1675              	.LFE211:
 1677              		.section	.text.TIM7_IRQHandler,"ax",%progbits
 1678              		.align	1
 1679              		.weak	TIM7_IRQHandler
 1680              		.syntax unified
 1681              		.thumb
 1682              		.thumb_func
 1683              		.fpu fpv5-d16
 1685              	TIM7_IRQHandler:
 1686              	.LFB212:
 124:startup_stm32h743xx.c **** __weak void TIM7_IRQHandler(void)                                         {Default_Handler();}
 1687              		.loc 1 124 75 view -0
 1688              		.cfi_startproc
 1689              		@ args = 0, pretend = 0, frame = 0
 1690              		@ frame_needed = 0, uses_anonymous_args = 0
 1691 0000 08B5     		push	{r3, lr}
 1692              	.LCFI63:
 1693              		.cfi_def_cfa_offset 8
 1694              		.cfi_offset 3, -8
 1695              		.cfi_offset 14, -4
 1696              		.loc 1 124 76 view .LVU151
 1697 0002 FFF7FEFF 		bl	Default_Handler
 1698              	.LVL72:
 1699              		.cfi_endproc
 1700              	.LFE212:
 1702              		.section	.text.DMA2_Stream0_IRQHandler,"ax",%progbits
 1703              		.align	1
 1704              		.weak	DMA2_Stream0_IRQHandler
 1705              		.syntax unified
 1706              		.thumb
 1707              		.thumb_func
 1708              		.fpu fpv5-d16
 1710              	DMA2_Stream0_IRQHandler:
 1711              	.LFB213:
 125:startup_stm32h743xx.c **** __weak void DMA2_Stream0_IRQHandler(void)                                 {Default_Handler();}
 1712              		.loc 1 125 75 view -0
ARM GAS  C:\Users\jisu8\AppData\Local\Temp\ccjWHQ5a.s 			page 31


 1713              		.cfi_startproc
 1714              		@ args = 0, pretend = 0, frame = 0
 1715              		@ frame_needed = 0, uses_anonymous_args = 0
 1716 0000 08B5     		push	{r3, lr}
 1717              	.LCFI64:
 1718              		.cfi_def_cfa_offset 8
 1719              		.cfi_offset 3, -8
 1720              		.cfi_offset 14, -4
 1721              		.loc 1 125 76 view .LVU153
 1722 0002 FFF7FEFF 		bl	Default_Handler
 1723              	.LVL73:
 1724              		.cfi_endproc
 1725              	.LFE213:
 1727              		.section	.text.DMA2_Stream1_IRQHandler,"ax",%progbits
 1728              		.align	1
 1729              		.weak	DMA2_Stream1_IRQHandler
 1730              		.syntax unified
 1731              		.thumb
 1732              		.thumb_func
 1733              		.fpu fpv5-d16
 1735              	DMA2_Stream1_IRQHandler:
 1736              	.LFB214:
 126:startup_stm32h743xx.c **** __weak void DMA2_Stream1_IRQHandler(void)                                 {Default_Handler();}
 1737              		.loc 1 126 75 view -0
 1738              		.cfi_startproc
 1739              		@ args = 0, pretend = 0, frame = 0
 1740              		@ frame_needed = 0, uses_anonymous_args = 0
 1741 0000 08B5     		push	{r3, lr}
 1742              	.LCFI65:
 1743              		.cfi_def_cfa_offset 8
 1744              		.cfi_offset 3, -8
 1745              		.cfi_offset 14, -4
 1746              		.loc 1 126 76 view .LVU155
 1747 0002 FFF7FEFF 		bl	Default_Handler
 1748              	.LVL74:
 1749              		.cfi_endproc
 1750              	.LFE214:
 1752              		.section	.text.DMA2_Stream2_IRQHandler,"ax",%progbits
 1753              		.align	1
 1754              		.weak	DMA2_Stream2_IRQHandler
 1755              		.syntax unified
 1756              		.thumb
 1757              		.thumb_func
 1758              		.fpu fpv5-d16
 1760              	DMA2_Stream2_IRQHandler:
 1761              	.LFB215:
 127:startup_stm32h743xx.c **** __weak void DMA2_Stream2_IRQHandler(void)                                 {Default_Handler();}
 1762              		.loc 1 127 75 view -0
 1763              		.cfi_startproc
 1764              		@ args = 0, pretend = 0, frame = 0
 1765              		@ frame_needed = 0, uses_anonymous_args = 0
 1766 0000 08B5     		push	{r3, lr}
 1767              	.LCFI66:
 1768              		.cfi_def_cfa_offset 8
 1769              		.cfi_offset 3, -8
 1770              		.cfi_offset 14, -4
 1771              		.loc 1 127 76 view .LVU157
ARM GAS  C:\Users\jisu8\AppData\Local\Temp\ccjWHQ5a.s 			page 32


 1772 0002 FFF7FEFF 		bl	Default_Handler
 1773              	.LVL75:
 1774              		.cfi_endproc
 1775              	.LFE215:
 1777              		.section	.text.DMA2_Stream3_IRQHandler,"ax",%progbits
 1778              		.align	1
 1779              		.weak	DMA2_Stream3_IRQHandler
 1780              		.syntax unified
 1781              		.thumb
 1782              		.thumb_func
 1783              		.fpu fpv5-d16
 1785              	DMA2_Stream3_IRQHandler:
 1786              	.LFB216:
 128:startup_stm32h743xx.c **** __weak void DMA2_Stream3_IRQHandler(void)                                 {Default_Handler();}
 1787              		.loc 1 128 75 view -0
 1788              		.cfi_startproc
 1789              		@ args = 0, pretend = 0, frame = 0
 1790              		@ frame_needed = 0, uses_anonymous_args = 0
 1791 0000 08B5     		push	{r3, lr}
 1792              	.LCFI67:
 1793              		.cfi_def_cfa_offset 8
 1794              		.cfi_offset 3, -8
 1795              		.cfi_offset 14, -4
 1796              		.loc 1 128 76 view .LVU159
 1797 0002 FFF7FEFF 		bl	Default_Handler
 1798              	.LVL76:
 1799              		.cfi_endproc
 1800              	.LFE216:
 1802              		.section	.text.DMA2_Stream4_IRQHandler,"ax",%progbits
 1803              		.align	1
 1804              		.weak	DMA2_Stream4_IRQHandler
 1805              		.syntax unified
 1806              		.thumb
 1807              		.thumb_func
 1808              		.fpu fpv5-d16
 1810              	DMA2_Stream4_IRQHandler:
 1811              	.LFB217:
 129:startup_stm32h743xx.c **** __weak void DMA2_Stream4_IRQHandler(void)                                 {Default_Handler();}
 1812              		.loc 1 129 75 view -0
 1813              		.cfi_startproc
 1814              		@ args = 0, pretend = 0, frame = 0
 1815              		@ frame_needed = 0, uses_anonymous_args = 0
 1816 0000 08B5     		push	{r3, lr}
 1817              	.LCFI68:
 1818              		.cfi_def_cfa_offset 8
 1819              		.cfi_offset 3, -8
 1820              		.cfi_offset 14, -4
 1821              		.loc 1 129 76 view .LVU161
 1822 0002 FFF7FEFF 		bl	Default_Handler
 1823              	.LVL77:
 1824              		.cfi_endproc
 1825              	.LFE217:
 1827              		.section	.text.ETH_IRQHandler,"ax",%progbits
 1828              		.align	1
 1829              		.weak	ETH_IRQHandler
 1830              		.syntax unified
 1831              		.thumb
ARM GAS  C:\Users\jisu8\AppData\Local\Temp\ccjWHQ5a.s 			page 33


 1832              		.thumb_func
 1833              		.fpu fpv5-d16
 1835              	ETH_IRQHandler:
 1836              	.LFB218:
 130:startup_stm32h743xx.c **** __weak void ETH_IRQHandler(void)                                          {Default_Handler();}
 1837              		.loc 1 130 75 view -0
 1838              		.cfi_startproc
 1839              		@ args = 0, pretend = 0, frame = 0
 1840              		@ frame_needed = 0, uses_anonymous_args = 0
 1841 0000 08B5     		push	{r3, lr}
 1842              	.LCFI69:
 1843              		.cfi_def_cfa_offset 8
 1844              		.cfi_offset 3, -8
 1845              		.cfi_offset 14, -4
 1846              		.loc 1 130 76 view .LVU163
 1847 0002 FFF7FEFF 		bl	Default_Handler
 1848              	.LVL78:
 1849              		.cfi_endproc
 1850              	.LFE218:
 1852              		.section	.text.ETH_WKUP_IRQHandler,"ax",%progbits
 1853              		.align	1
 1854              		.weak	ETH_WKUP_IRQHandler
 1855              		.syntax unified
 1856              		.thumb
 1857              		.thumb_func
 1858              		.fpu fpv5-d16
 1860              	ETH_WKUP_IRQHandler:
 1861              	.LFB219:
 131:startup_stm32h743xx.c **** __weak void ETH_WKUP_IRQHandler(void)                                     {Default_Handler();}
 1862              		.loc 1 131 75 view -0
 1863              		.cfi_startproc
 1864              		@ args = 0, pretend = 0, frame = 0
 1865              		@ frame_needed = 0, uses_anonymous_args = 0
 1866 0000 08B5     		push	{r3, lr}
 1867              	.LCFI70:
 1868              		.cfi_def_cfa_offset 8
 1869              		.cfi_offset 3, -8
 1870              		.cfi_offset 14, -4
 1871              		.loc 1 131 76 view .LVU165
 1872 0002 FFF7FEFF 		bl	Default_Handler
 1873              	.LVL79:
 1874              		.cfi_endproc
 1875              	.LFE219:
 1877              		.section	.text.FDCAN_CAL_IRQHandler,"ax",%progbits
 1878              		.align	1
 1879              		.weak	FDCAN_CAL_IRQHandler
 1880              		.syntax unified
 1881              		.thumb
 1882              		.thumb_func
 1883              		.fpu fpv5-d16
 1885              	FDCAN_CAL_IRQHandler:
 1886              	.LFB220:
 132:startup_stm32h743xx.c **** __weak void FDCAN_CAL_IRQHandler(void)                                    {Default_Handler();}
 1887              		.loc 1 132 75 view -0
 1888              		.cfi_startproc
 1889              		@ args = 0, pretend = 0, frame = 0
 1890              		@ frame_needed = 0, uses_anonymous_args = 0
ARM GAS  C:\Users\jisu8\AppData\Local\Temp\ccjWHQ5a.s 			page 34


 1891 0000 08B5     		push	{r3, lr}
 1892              	.LCFI71:
 1893              		.cfi_def_cfa_offset 8
 1894              		.cfi_offset 3, -8
 1895              		.cfi_offset 14, -4
 1896              		.loc 1 132 76 view .LVU167
 1897 0002 FFF7FEFF 		bl	Default_Handler
 1898              	.LVL80:
 1899              		.cfi_endproc
 1900              	.LFE220:
 1902              		.section	.text.DMA2_Stream5_IRQHandler,"ax",%progbits
 1903              		.align	1
 1904              		.weak	DMA2_Stream5_IRQHandler
 1905              		.syntax unified
 1906              		.thumb
 1907              		.thumb_func
 1908              		.fpu fpv5-d16
 1910              	DMA2_Stream5_IRQHandler:
 1911              	.LFB221:
 133:startup_stm32h743xx.c **** __weak void DMA2_Stream5_IRQHandler(void)                                 {Default_Handler();}
 1912              		.loc 1 133 75 view -0
 1913              		.cfi_startproc
 1914              		@ args = 0, pretend = 0, frame = 0
 1915              		@ frame_needed = 0, uses_anonymous_args = 0
 1916 0000 08B5     		push	{r3, lr}
 1917              	.LCFI72:
 1918              		.cfi_def_cfa_offset 8
 1919              		.cfi_offset 3, -8
 1920              		.cfi_offset 14, -4
 1921              		.loc 1 133 76 view .LVU169
 1922 0002 FFF7FEFF 		bl	Default_Handler
 1923              	.LVL81:
 1924              		.cfi_endproc
 1925              	.LFE221:
 1927              		.section	.text.DMA2_Stream6_IRQHandler,"ax",%progbits
 1928              		.align	1
 1929              		.weak	DMA2_Stream6_IRQHandler
 1930              		.syntax unified
 1931              		.thumb
 1932              		.thumb_func
 1933              		.fpu fpv5-d16
 1935              	DMA2_Stream6_IRQHandler:
 1936              	.LFB222:
 134:startup_stm32h743xx.c **** __weak void DMA2_Stream6_IRQHandler(void)                                 {Default_Handler();}
 1937              		.loc 1 134 75 view -0
 1938              		.cfi_startproc
 1939              		@ args = 0, pretend = 0, frame = 0
 1940              		@ frame_needed = 0, uses_anonymous_args = 0
 1941 0000 08B5     		push	{r3, lr}
 1942              	.LCFI73:
 1943              		.cfi_def_cfa_offset 8
 1944              		.cfi_offset 3, -8
 1945              		.cfi_offset 14, -4
 1946              		.loc 1 134 76 view .LVU171
 1947 0002 FFF7FEFF 		bl	Default_Handler
 1948              	.LVL82:
 1949              		.cfi_endproc
ARM GAS  C:\Users\jisu8\AppData\Local\Temp\ccjWHQ5a.s 			page 35


 1950              	.LFE222:
 1952              		.section	.text.DMA2_Stream7_IRQHandler,"ax",%progbits
 1953              		.align	1
 1954              		.weak	DMA2_Stream7_IRQHandler
 1955              		.syntax unified
 1956              		.thumb
 1957              		.thumb_func
 1958              		.fpu fpv5-d16
 1960              	DMA2_Stream7_IRQHandler:
 1961              	.LFB223:
 135:startup_stm32h743xx.c **** __weak void DMA2_Stream7_IRQHandler(void)                                 {Default_Handler();}
 1962              		.loc 1 135 75 view -0
 1963              		.cfi_startproc
 1964              		@ args = 0, pretend = 0, frame = 0
 1965              		@ frame_needed = 0, uses_anonymous_args = 0
 1966 0000 08B5     		push	{r3, lr}
 1967              	.LCFI74:
 1968              		.cfi_def_cfa_offset 8
 1969              		.cfi_offset 3, -8
 1970              		.cfi_offset 14, -4
 1971              		.loc 1 135 76 view .LVU173
 1972 0002 FFF7FEFF 		bl	Default_Handler
 1973              	.LVL83:
 1974              		.cfi_endproc
 1975              	.LFE223:
 1977              		.section	.text.USART6_IRQHandler,"ax",%progbits
 1978              		.align	1
 1979              		.weak	USART6_IRQHandler
 1980              		.syntax unified
 1981              		.thumb
 1982              		.thumb_func
 1983              		.fpu fpv5-d16
 1985              	USART6_IRQHandler:
 1986              	.LFB224:
 136:startup_stm32h743xx.c **** __weak void USART6_IRQHandler(void)                                       {Default_Handler();}
 1987              		.loc 1 136 75 view -0
 1988              		.cfi_startproc
 1989              		@ args = 0, pretend = 0, frame = 0
 1990              		@ frame_needed = 0, uses_anonymous_args = 0
 1991 0000 08B5     		push	{r3, lr}
 1992              	.LCFI75:
 1993              		.cfi_def_cfa_offset 8
 1994              		.cfi_offset 3, -8
 1995              		.cfi_offset 14, -4
 1996              		.loc 1 136 76 view .LVU175
 1997 0002 FFF7FEFF 		bl	Default_Handler
 1998              	.LVL84:
 1999              		.cfi_endproc
 2000              	.LFE224:
 2002              		.section	.text.I2C3_EV_IRQHandler,"ax",%progbits
 2003              		.align	1
 2004              		.weak	I2C3_EV_IRQHandler
 2005              		.syntax unified
 2006              		.thumb
 2007              		.thumb_func
 2008              		.fpu fpv5-d16
 2010              	I2C3_EV_IRQHandler:
ARM GAS  C:\Users\jisu8\AppData\Local\Temp\ccjWHQ5a.s 			page 36


 2011              	.LFB225:
 137:startup_stm32h743xx.c **** __weak void I2C3_EV_IRQHandler(void)                                      {Default_Handler();}
 2012              		.loc 1 137 75 view -0
 2013              		.cfi_startproc
 2014              		@ args = 0, pretend = 0, frame = 0
 2015              		@ frame_needed = 0, uses_anonymous_args = 0
 2016 0000 08B5     		push	{r3, lr}
 2017              	.LCFI76:
 2018              		.cfi_def_cfa_offset 8
 2019              		.cfi_offset 3, -8
 2020              		.cfi_offset 14, -4
 2021              		.loc 1 137 76 view .LVU177
 2022 0002 FFF7FEFF 		bl	Default_Handler
 2023              	.LVL85:
 2024              		.cfi_endproc
 2025              	.LFE225:
 2027              		.section	.text.I2C3_ER_IRQHandler,"ax",%progbits
 2028              		.align	1
 2029              		.weak	I2C3_ER_IRQHandler
 2030              		.syntax unified
 2031              		.thumb
 2032              		.thumb_func
 2033              		.fpu fpv5-d16
 2035              	I2C3_ER_IRQHandler:
 2036              	.LFB226:
 138:startup_stm32h743xx.c **** __weak void I2C3_ER_IRQHandler(void)                                      {Default_Handler();}
 2037              		.loc 1 138 75 view -0
 2038              		.cfi_startproc
 2039              		@ args = 0, pretend = 0, frame = 0
 2040              		@ frame_needed = 0, uses_anonymous_args = 0
 2041 0000 08B5     		push	{r3, lr}
 2042              	.LCFI77:
 2043              		.cfi_def_cfa_offset 8
 2044              		.cfi_offset 3, -8
 2045              		.cfi_offset 14, -4
 2046              		.loc 1 138 76 view .LVU179
 2047 0002 FFF7FEFF 		bl	Default_Handler
 2048              	.LVL86:
 2049              		.cfi_endproc
 2050              	.LFE226:
 2052              		.section	.text.OTG_HS_EP1_OUT_IRQHandler,"ax",%progbits
 2053              		.align	1
 2054              		.weak	OTG_HS_EP1_OUT_IRQHandler
 2055              		.syntax unified
 2056              		.thumb
 2057              		.thumb_func
 2058              		.fpu fpv5-d16
 2060              	OTG_HS_EP1_OUT_IRQHandler:
 2061              	.LFB227:
 139:startup_stm32h743xx.c **** __weak void OTG_HS_EP1_OUT_IRQHandler(void)                               {Default_Handler();}
 2062              		.loc 1 139 75 view -0
 2063              		.cfi_startproc
 2064              		@ args = 0, pretend = 0, frame = 0
 2065              		@ frame_needed = 0, uses_anonymous_args = 0
 2066 0000 08B5     		push	{r3, lr}
 2067              	.LCFI78:
 2068              		.cfi_def_cfa_offset 8
ARM GAS  C:\Users\jisu8\AppData\Local\Temp\ccjWHQ5a.s 			page 37


 2069              		.cfi_offset 3, -8
 2070              		.cfi_offset 14, -4
 2071              		.loc 1 139 76 view .LVU181
 2072 0002 FFF7FEFF 		bl	Default_Handler
 2073              	.LVL87:
 2074              		.cfi_endproc
 2075              	.LFE227:
 2077              		.section	.text.OTG_HS_EP1_IN_IRQHandler,"ax",%progbits
 2078              		.align	1
 2079              		.weak	OTG_HS_EP1_IN_IRQHandler
 2080              		.syntax unified
 2081              		.thumb
 2082              		.thumb_func
 2083              		.fpu fpv5-d16
 2085              	OTG_HS_EP1_IN_IRQHandler:
 2086              	.LFB228:
 140:startup_stm32h743xx.c **** __weak void OTG_HS_EP1_IN_IRQHandler(void)                                {Default_Handler();}
 2087              		.loc 1 140 75 view -0
 2088              		.cfi_startproc
 2089              		@ args = 0, pretend = 0, frame = 0
 2090              		@ frame_needed = 0, uses_anonymous_args = 0
 2091 0000 08B5     		push	{r3, lr}
 2092              	.LCFI79:
 2093              		.cfi_def_cfa_offset 8
 2094              		.cfi_offset 3, -8
 2095              		.cfi_offset 14, -4
 2096              		.loc 1 140 76 view .LVU183
 2097 0002 FFF7FEFF 		bl	Default_Handler
 2098              	.LVL88:
 2099              		.cfi_endproc
 2100              	.LFE228:
 2102              		.section	.text.OTG_HS_WKUP_IRQHandler,"ax",%progbits
 2103              		.align	1
 2104              		.weak	OTG_HS_WKUP_IRQHandler
 2105              		.syntax unified
 2106              		.thumb
 2107              		.thumb_func
 2108              		.fpu fpv5-d16
 2110              	OTG_HS_WKUP_IRQHandler:
 2111              	.LFB229:
 141:startup_stm32h743xx.c **** __weak void OTG_HS_WKUP_IRQHandler(void)                                  {Default_Handler();}
 2112              		.loc 1 141 75 view -0
 2113              		.cfi_startproc
 2114              		@ args = 0, pretend = 0, frame = 0
 2115              		@ frame_needed = 0, uses_anonymous_args = 0
 2116 0000 08B5     		push	{r3, lr}
 2117              	.LCFI80:
 2118              		.cfi_def_cfa_offset 8
 2119              		.cfi_offset 3, -8
 2120              		.cfi_offset 14, -4
 2121              		.loc 1 141 76 view .LVU185
 2122 0002 FFF7FEFF 		bl	Default_Handler
 2123              	.LVL89:
 2124              		.cfi_endproc
 2125              	.LFE229:
 2127              		.section	.text.OTG_HS_IRQHandler,"ax",%progbits
 2128              		.align	1
ARM GAS  C:\Users\jisu8\AppData\Local\Temp\ccjWHQ5a.s 			page 38


 2129              		.weak	OTG_HS_IRQHandler
 2130              		.syntax unified
 2131              		.thumb
 2132              		.thumb_func
 2133              		.fpu fpv5-d16
 2135              	OTG_HS_IRQHandler:
 2136              	.LFB230:
 142:startup_stm32h743xx.c **** __weak void OTG_HS_IRQHandler(void)                                       {Default_Handler();}
 2137              		.loc 1 142 75 view -0
 2138              		.cfi_startproc
 2139              		@ args = 0, pretend = 0, frame = 0
 2140              		@ frame_needed = 0, uses_anonymous_args = 0
 2141 0000 08B5     		push	{r3, lr}
 2142              	.LCFI81:
 2143              		.cfi_def_cfa_offset 8
 2144              		.cfi_offset 3, -8
 2145              		.cfi_offset 14, -4
 2146              		.loc 1 142 76 view .LVU187
 2147 0002 FFF7FEFF 		bl	Default_Handler
 2148              	.LVL90:
 2149              		.cfi_endproc
 2150              	.LFE230:
 2152              		.section	.text.DCMI_IRQHandler,"ax",%progbits
 2153              		.align	1
 2154              		.weak	DCMI_IRQHandler
 2155              		.syntax unified
 2156              		.thumb
 2157              		.thumb_func
 2158              		.fpu fpv5-d16
 2160              	DCMI_IRQHandler:
 2161              	.LFB231:
 143:startup_stm32h743xx.c **** __weak void DCMI_IRQHandler(void)                                         {Default_Handler();}
 2162              		.loc 1 143 75 view -0
 2163              		.cfi_startproc
 2164              		@ args = 0, pretend = 0, frame = 0
 2165              		@ frame_needed = 0, uses_anonymous_args = 0
 2166 0000 08B5     		push	{r3, lr}
 2167              	.LCFI82:
 2168              		.cfi_def_cfa_offset 8
 2169              		.cfi_offset 3, -8
 2170              		.cfi_offset 14, -4
 2171              		.loc 1 143 76 view .LVU189
 2172 0002 FFF7FEFF 		bl	Default_Handler
 2173              	.LVL91:
 2174              		.cfi_endproc
 2175              	.LFE231:
 2177              		.section	.text.RNG_IRQHandler,"ax",%progbits
 2178              		.align	1
 2179              		.weak	RNG_IRQHandler
 2180              		.syntax unified
 2181              		.thumb
 2182              		.thumb_func
 2183              		.fpu fpv5-d16
 2185              	RNG_IRQHandler:
 2186              	.LFB232:
 144:startup_stm32h743xx.c **** __weak void RNG_IRQHandler(void)                                          {Default_Handler();}
 2187              		.loc 1 144 75 view -0
ARM GAS  C:\Users\jisu8\AppData\Local\Temp\ccjWHQ5a.s 			page 39


 2188              		.cfi_startproc
 2189              		@ args = 0, pretend = 0, frame = 0
 2190              		@ frame_needed = 0, uses_anonymous_args = 0
 2191 0000 08B5     		push	{r3, lr}
 2192              	.LCFI83:
 2193              		.cfi_def_cfa_offset 8
 2194              		.cfi_offset 3, -8
 2195              		.cfi_offset 14, -4
 2196              		.loc 1 144 76 view .LVU191
 2197 0002 FFF7FEFF 		bl	Default_Handler
 2198              	.LVL92:
 2199              		.cfi_endproc
 2200              	.LFE232:
 2202              		.section	.text.FPU_IRQHandler,"ax",%progbits
 2203              		.align	1
 2204              		.weak	FPU_IRQHandler
 2205              		.syntax unified
 2206              		.thumb
 2207              		.thumb_func
 2208              		.fpu fpv5-d16
 2210              	FPU_IRQHandler:
 2211              	.LFB233:
 145:startup_stm32h743xx.c **** __weak void FPU_IRQHandler(void)                                          {Default_Handler();}
 2212              		.loc 1 145 75 view -0
 2213              		.cfi_startproc
 2214              		@ args = 0, pretend = 0, frame = 0
 2215              		@ frame_needed = 0, uses_anonymous_args = 0
 2216 0000 08B5     		push	{r3, lr}
 2217              	.LCFI84:
 2218              		.cfi_def_cfa_offset 8
 2219              		.cfi_offset 3, -8
 2220              		.cfi_offset 14, -4
 2221              		.loc 1 145 76 view .LVU193
 2222 0002 FFF7FEFF 		bl	Default_Handler
 2223              	.LVL93:
 2224              		.cfi_endproc
 2225              	.LFE233:
 2227              		.section	.text.UART7_IRQHandler,"ax",%progbits
 2228              		.align	1
 2229              		.weak	UART7_IRQHandler
 2230              		.syntax unified
 2231              		.thumb
 2232              		.thumb_func
 2233              		.fpu fpv5-d16
 2235              	UART7_IRQHandler:
 2236              	.LFB234:
 146:startup_stm32h743xx.c **** __weak void UART7_IRQHandler(void)                                        {Default_Handler();}
 2237              		.loc 1 146 75 view -0
 2238              		.cfi_startproc
 2239              		@ args = 0, pretend = 0, frame = 0
 2240              		@ frame_needed = 0, uses_anonymous_args = 0
 2241 0000 08B5     		push	{r3, lr}
 2242              	.LCFI85:
 2243              		.cfi_def_cfa_offset 8
 2244              		.cfi_offset 3, -8
 2245              		.cfi_offset 14, -4
 2246              		.loc 1 146 76 view .LVU195
ARM GAS  C:\Users\jisu8\AppData\Local\Temp\ccjWHQ5a.s 			page 40


 2247 0002 FFF7FEFF 		bl	Default_Handler
 2248              	.LVL94:
 2249              		.cfi_endproc
 2250              	.LFE234:
 2252              		.section	.text.UART8_IRQHandler,"ax",%progbits
 2253              		.align	1
 2254              		.weak	UART8_IRQHandler
 2255              		.syntax unified
 2256              		.thumb
 2257              		.thumb_func
 2258              		.fpu fpv5-d16
 2260              	UART8_IRQHandler:
 2261              	.LFB235:
 147:startup_stm32h743xx.c **** __weak void UART8_IRQHandler(void)                                        {Default_Handler();}
 2262              		.loc 1 147 75 view -0
 2263              		.cfi_startproc
 2264              		@ args = 0, pretend = 0, frame = 0
 2265              		@ frame_needed = 0, uses_anonymous_args = 0
 2266 0000 08B5     		push	{r3, lr}
 2267              	.LCFI86:
 2268              		.cfi_def_cfa_offset 8
 2269              		.cfi_offset 3, -8
 2270              		.cfi_offset 14, -4
 2271              		.loc 1 147 76 view .LVU197
 2272 0002 FFF7FEFF 		bl	Default_Handler
 2273              	.LVL95:
 2274              		.cfi_endproc
 2275              	.LFE235:
 2277              		.section	.text.SPI4_IRQHandler,"ax",%progbits
 2278              		.align	1
 2279              		.weak	SPI4_IRQHandler
 2280              		.syntax unified
 2281              		.thumb
 2282              		.thumb_func
 2283              		.fpu fpv5-d16
 2285              	SPI4_IRQHandler:
 2286              	.LFB236:
 148:startup_stm32h743xx.c **** __weak void SPI4_IRQHandler(void)                                         {Default_Handler();}
 2287              		.loc 1 148 75 view -0
 2288              		.cfi_startproc
 2289              		@ args = 0, pretend = 0, frame = 0
 2290              		@ frame_needed = 0, uses_anonymous_args = 0
 2291 0000 08B5     		push	{r3, lr}
 2292              	.LCFI87:
 2293              		.cfi_def_cfa_offset 8
 2294              		.cfi_offset 3, -8
 2295              		.cfi_offset 14, -4
 2296              		.loc 1 148 76 view .LVU199
 2297 0002 FFF7FEFF 		bl	Default_Handler
 2298              	.LVL96:
 2299              		.cfi_endproc
 2300              	.LFE236:
 2302              		.section	.text.SPI5_IRQHandler,"ax",%progbits
 2303              		.align	1
 2304              		.weak	SPI5_IRQHandler
 2305              		.syntax unified
 2306              		.thumb
ARM GAS  C:\Users\jisu8\AppData\Local\Temp\ccjWHQ5a.s 			page 41


 2307              		.thumb_func
 2308              		.fpu fpv5-d16
 2310              	SPI5_IRQHandler:
 2311              	.LFB237:
 149:startup_stm32h743xx.c **** __weak void SPI5_IRQHandler(void)                                         {Default_Handler();}
 2312              		.loc 1 149 75 view -0
 2313              		.cfi_startproc
 2314              		@ args = 0, pretend = 0, frame = 0
 2315              		@ frame_needed = 0, uses_anonymous_args = 0
 2316 0000 08B5     		push	{r3, lr}
 2317              	.LCFI88:
 2318              		.cfi_def_cfa_offset 8
 2319              		.cfi_offset 3, -8
 2320              		.cfi_offset 14, -4
 2321              		.loc 1 149 76 view .LVU201
 2322 0002 FFF7FEFF 		bl	Default_Handler
 2323              	.LVL97:
 2324              		.cfi_endproc
 2325              	.LFE237:
 2327              		.section	.text.SPI6_IRQHandler,"ax",%progbits
 2328              		.align	1
 2329              		.weak	SPI6_IRQHandler
 2330              		.syntax unified
 2331              		.thumb
 2332              		.thumb_func
 2333              		.fpu fpv5-d16
 2335              	SPI6_IRQHandler:
 2336              	.LFB238:
 150:startup_stm32h743xx.c **** __weak void SPI6_IRQHandler(void)                                         {Default_Handler();}
 2337              		.loc 1 150 75 view -0
 2338              		.cfi_startproc
 2339              		@ args = 0, pretend = 0, frame = 0
 2340              		@ frame_needed = 0, uses_anonymous_args = 0
 2341 0000 08B5     		push	{r3, lr}
 2342              	.LCFI89:
 2343              		.cfi_def_cfa_offset 8
 2344              		.cfi_offset 3, -8
 2345              		.cfi_offset 14, -4
 2346              		.loc 1 150 76 view .LVU203
 2347 0002 FFF7FEFF 		bl	Default_Handler
 2348              	.LVL98:
 2349              		.cfi_endproc
 2350              	.LFE238:
 2352              		.section	.text.SAI1_IRQHandler,"ax",%progbits
 2353              		.align	1
 2354              		.weak	SAI1_IRQHandler
 2355              		.syntax unified
 2356              		.thumb
 2357              		.thumb_func
 2358              		.fpu fpv5-d16
 2360              	SAI1_IRQHandler:
 2361              	.LFB239:
 151:startup_stm32h743xx.c **** __weak void SAI1_IRQHandler(void)                                         {Default_Handler();}
 2362              		.loc 1 151 75 view -0
 2363              		.cfi_startproc
 2364              		@ args = 0, pretend = 0, frame = 0
 2365              		@ frame_needed = 0, uses_anonymous_args = 0
ARM GAS  C:\Users\jisu8\AppData\Local\Temp\ccjWHQ5a.s 			page 42


 2366 0000 08B5     		push	{r3, lr}
 2367              	.LCFI90:
 2368              		.cfi_def_cfa_offset 8
 2369              		.cfi_offset 3, -8
 2370              		.cfi_offset 14, -4
 2371              		.loc 1 151 76 view .LVU205
 2372 0002 FFF7FEFF 		bl	Default_Handler
 2373              	.LVL99:
 2374              		.cfi_endproc
 2375              	.LFE239:
 2377              		.section	.text.LTDC_IRQHandler,"ax",%progbits
 2378              		.align	1
 2379              		.weak	LTDC_IRQHandler
 2380              		.syntax unified
 2381              		.thumb
 2382              		.thumb_func
 2383              		.fpu fpv5-d16
 2385              	LTDC_IRQHandler:
 2386              	.LFB240:
 152:startup_stm32h743xx.c **** __weak void LTDC_IRQHandler(void)                                         {Default_Handler();}
 2387              		.loc 1 152 75 view -0
 2388              		.cfi_startproc
 2389              		@ args = 0, pretend = 0, frame = 0
 2390              		@ frame_needed = 0, uses_anonymous_args = 0
 2391 0000 08B5     		push	{r3, lr}
 2392              	.LCFI91:
 2393              		.cfi_def_cfa_offset 8
 2394              		.cfi_offset 3, -8
 2395              		.cfi_offset 14, -4
 2396              		.loc 1 152 76 view .LVU207
 2397 0002 FFF7FEFF 		bl	Default_Handler
 2398              	.LVL100:
 2399              		.cfi_endproc
 2400              	.LFE240:
 2402              		.section	.text.LTDC_ER_IRQHandler,"ax",%progbits
 2403              		.align	1
 2404              		.weak	LTDC_ER_IRQHandler
 2405              		.syntax unified
 2406              		.thumb
 2407              		.thumb_func
 2408              		.fpu fpv5-d16
 2410              	LTDC_ER_IRQHandler:
 2411              	.LFB241:
 153:startup_stm32h743xx.c **** __weak void LTDC_ER_IRQHandler(void)                                      {Default_Handler();}
 2412              		.loc 1 153 75 view -0
 2413              		.cfi_startproc
 2414              		@ args = 0, pretend = 0, frame = 0
 2415              		@ frame_needed = 0, uses_anonymous_args = 0
 2416 0000 08B5     		push	{r3, lr}
 2417              	.LCFI92:
 2418              		.cfi_def_cfa_offset 8
 2419              		.cfi_offset 3, -8
 2420              		.cfi_offset 14, -4
 2421              		.loc 1 153 76 view .LVU209
 2422 0002 FFF7FEFF 		bl	Default_Handler
 2423              	.LVL101:
 2424              		.cfi_endproc
ARM GAS  C:\Users\jisu8\AppData\Local\Temp\ccjWHQ5a.s 			page 43


 2425              	.LFE241:
 2427              		.section	.text.DMA2D_IRQHandler,"ax",%progbits
 2428              		.align	1
 2429              		.weak	DMA2D_IRQHandler
 2430              		.syntax unified
 2431              		.thumb
 2432              		.thumb_func
 2433              		.fpu fpv5-d16
 2435              	DMA2D_IRQHandler:
 2436              	.LFB242:
 154:startup_stm32h743xx.c **** __weak void DMA2D_IRQHandler(void)                                        {Default_Handler();}
 2437              		.loc 1 154 75 view -0
 2438              		.cfi_startproc
 2439              		@ args = 0, pretend = 0, frame = 0
 2440              		@ frame_needed = 0, uses_anonymous_args = 0
 2441 0000 08B5     		push	{r3, lr}
 2442              	.LCFI93:
 2443              		.cfi_def_cfa_offset 8
 2444              		.cfi_offset 3, -8
 2445              		.cfi_offset 14, -4
 2446              		.loc 1 154 76 view .LVU211
 2447 0002 FFF7FEFF 		bl	Default_Handler
 2448              	.LVL102:
 2449              		.cfi_endproc
 2450              	.LFE242:
 2452              		.section	.text.SAI2_IRQHandler,"ax",%progbits
 2453              		.align	1
 2454              		.weak	SAI2_IRQHandler
 2455              		.syntax unified
 2456              		.thumb
 2457              		.thumb_func
 2458              		.fpu fpv5-d16
 2460              	SAI2_IRQHandler:
 2461              	.LFB243:
 155:startup_stm32h743xx.c **** __weak void SAI2_IRQHandler(void)                                         {Default_Handler();}
 2462              		.loc 1 155 75 view -0
 2463              		.cfi_startproc
 2464              		@ args = 0, pretend = 0, frame = 0
 2465              		@ frame_needed = 0, uses_anonymous_args = 0
 2466 0000 08B5     		push	{r3, lr}
 2467              	.LCFI94:
 2468              		.cfi_def_cfa_offset 8
 2469              		.cfi_offset 3, -8
 2470              		.cfi_offset 14, -4
 2471              		.loc 1 155 76 view .LVU213
 2472 0002 FFF7FEFF 		bl	Default_Handler
 2473              	.LVL103:
 2474              		.cfi_endproc
 2475              	.LFE243:
 2477              		.section	.text.QUADSPI_IRQHandler,"ax",%progbits
 2478              		.align	1
 2479              		.weak	QUADSPI_IRQHandler
 2480              		.syntax unified
 2481              		.thumb
 2482              		.thumb_func
 2483              		.fpu fpv5-d16
 2485              	QUADSPI_IRQHandler:
ARM GAS  C:\Users\jisu8\AppData\Local\Temp\ccjWHQ5a.s 			page 44


 2486              	.LFB244:
 156:startup_stm32h743xx.c **** __weak void QUADSPI_IRQHandler(void)                                      {Default_Handler();}
 2487              		.loc 1 156 75 view -0
 2488              		.cfi_startproc
 2489              		@ args = 0, pretend = 0, frame = 0
 2490              		@ frame_needed = 0, uses_anonymous_args = 0
 2491 0000 08B5     		push	{r3, lr}
 2492              	.LCFI95:
 2493              		.cfi_def_cfa_offset 8
 2494              		.cfi_offset 3, -8
 2495              		.cfi_offset 14, -4
 2496              		.loc 1 156 76 view .LVU215
 2497 0002 FFF7FEFF 		bl	Default_Handler
 2498              	.LVL104:
 2499              		.cfi_endproc
 2500              	.LFE244:
 2502              		.section	.text.LPTIM1_IRQHandler,"ax",%progbits
 2503              		.align	1
 2504              		.weak	LPTIM1_IRQHandler
 2505              		.syntax unified
 2506              		.thumb
 2507              		.thumb_func
 2508              		.fpu fpv5-d16
 2510              	LPTIM1_IRQHandler:
 2511              	.LFB245:
 157:startup_stm32h743xx.c **** __weak void LPTIM1_IRQHandler(void)                                       {Default_Handler();}
 2512              		.loc 1 157 75 view -0
 2513              		.cfi_startproc
 2514              		@ args = 0, pretend = 0, frame = 0
 2515              		@ frame_needed = 0, uses_anonymous_args = 0
 2516 0000 08B5     		push	{r3, lr}
 2517              	.LCFI96:
 2518              		.cfi_def_cfa_offset 8
 2519              		.cfi_offset 3, -8
 2520              		.cfi_offset 14, -4
 2521              		.loc 1 157 76 view .LVU217
 2522 0002 FFF7FEFF 		bl	Default_Handler
 2523              	.LVL105:
 2524              		.cfi_endproc
 2525              	.LFE245:
 2527              		.section	.text.CEC_IRQHandler,"ax",%progbits
 2528              		.align	1
 2529              		.weak	CEC_IRQHandler
 2530              		.syntax unified
 2531              		.thumb
 2532              		.thumb_func
 2533              		.fpu fpv5-d16
 2535              	CEC_IRQHandler:
 2536              	.LFB246:
 158:startup_stm32h743xx.c **** __weak void CEC_IRQHandler(void)                                          {Default_Handler();}
 2537              		.loc 1 158 75 view -0
 2538              		.cfi_startproc
 2539              		@ args = 0, pretend = 0, frame = 0
 2540              		@ frame_needed = 0, uses_anonymous_args = 0
 2541 0000 08B5     		push	{r3, lr}
 2542              	.LCFI97:
 2543              		.cfi_def_cfa_offset 8
ARM GAS  C:\Users\jisu8\AppData\Local\Temp\ccjWHQ5a.s 			page 45


 2544              		.cfi_offset 3, -8
 2545              		.cfi_offset 14, -4
 2546              		.loc 1 158 76 view .LVU219
 2547 0002 FFF7FEFF 		bl	Default_Handler
 2548              	.LVL106:
 2549              		.cfi_endproc
 2550              	.LFE246:
 2552              		.section	.text.I2C4_EV_IRQHandler,"ax",%progbits
 2553              		.align	1
 2554              		.weak	I2C4_EV_IRQHandler
 2555              		.syntax unified
 2556              		.thumb
 2557              		.thumb_func
 2558              		.fpu fpv5-d16
 2560              	I2C4_EV_IRQHandler:
 2561              	.LFB247:
 159:startup_stm32h743xx.c **** __weak void I2C4_EV_IRQHandler(void)                                      {Default_Handler();}
 2562              		.loc 1 159 75 view -0
 2563              		.cfi_startproc
 2564              		@ args = 0, pretend = 0, frame = 0
 2565              		@ frame_needed = 0, uses_anonymous_args = 0
 2566 0000 08B5     		push	{r3, lr}
 2567              	.LCFI98:
 2568              		.cfi_def_cfa_offset 8
 2569              		.cfi_offset 3, -8
 2570              		.cfi_offset 14, -4
 2571              		.loc 1 159 76 view .LVU221
 2572 0002 FFF7FEFF 		bl	Default_Handler
 2573              	.LVL107:
 2574              		.cfi_endproc
 2575              	.LFE247:
 2577              		.section	.text.I2C4_ER_IRQHandler,"ax",%progbits
 2578              		.align	1
 2579              		.weak	I2C4_ER_IRQHandler
 2580              		.syntax unified
 2581              		.thumb
 2582              		.thumb_func
 2583              		.fpu fpv5-d16
 2585              	I2C4_ER_IRQHandler:
 2586              	.LFB248:
 160:startup_stm32h743xx.c **** __weak void I2C4_ER_IRQHandler(void)                                      {Default_Handler();}
 2587              		.loc 1 160 75 view -0
 2588              		.cfi_startproc
 2589              		@ args = 0, pretend = 0, frame = 0
 2590              		@ frame_needed = 0, uses_anonymous_args = 0
 2591 0000 08B5     		push	{r3, lr}
 2592              	.LCFI99:
 2593              		.cfi_def_cfa_offset 8
 2594              		.cfi_offset 3, -8
 2595              		.cfi_offset 14, -4
 2596              		.loc 1 160 76 view .LVU223
 2597 0002 FFF7FEFF 		bl	Default_Handler
 2598              	.LVL108:
 2599              		.cfi_endproc
 2600              	.LFE248:
 2602              		.section	.text.SPDIF_RX_IRQHandler,"ax",%progbits
 2603              		.align	1
ARM GAS  C:\Users\jisu8\AppData\Local\Temp\ccjWHQ5a.s 			page 46


 2604              		.weak	SPDIF_RX_IRQHandler
 2605              		.syntax unified
 2606              		.thumb
 2607              		.thumb_func
 2608              		.fpu fpv5-d16
 2610              	SPDIF_RX_IRQHandler:
 2611              	.LFB249:
 161:startup_stm32h743xx.c **** __weak void SPDIF_RX_IRQHandler(void)                                     {Default_Handler();}
 2612              		.loc 1 161 75 view -0
 2613              		.cfi_startproc
 2614              		@ args = 0, pretend = 0, frame = 0
 2615              		@ frame_needed = 0, uses_anonymous_args = 0
 2616 0000 08B5     		push	{r3, lr}
 2617              	.LCFI100:
 2618              		.cfi_def_cfa_offset 8
 2619              		.cfi_offset 3, -8
 2620              		.cfi_offset 14, -4
 2621              		.loc 1 161 76 view .LVU225
 2622 0002 FFF7FEFF 		bl	Default_Handler
 2623              	.LVL109:
 2624              		.cfi_endproc
 2625              	.LFE249:
 2627              		.section	.text.OTG_FS_EP1_OUT_IRQHandler,"ax",%progbits
 2628              		.align	1
 2629              		.weak	OTG_FS_EP1_OUT_IRQHandler
 2630              		.syntax unified
 2631              		.thumb
 2632              		.thumb_func
 2633              		.fpu fpv5-d16
 2635              	OTG_FS_EP1_OUT_IRQHandler:
 2636              	.LFB250:
 162:startup_stm32h743xx.c **** __weak void OTG_FS_EP1_OUT_IRQHandler(void)                               {Default_Handler();}
 2637              		.loc 1 162 75 view -0
 2638              		.cfi_startproc
 2639              		@ args = 0, pretend = 0, frame = 0
 2640              		@ frame_needed = 0, uses_anonymous_args = 0
 2641 0000 08B5     		push	{r3, lr}
 2642              	.LCFI101:
 2643              		.cfi_def_cfa_offset 8
 2644              		.cfi_offset 3, -8
 2645              		.cfi_offset 14, -4
 2646              		.loc 1 162 76 view .LVU227
 2647 0002 FFF7FEFF 		bl	Default_Handler
 2648              	.LVL110:
 2649              		.cfi_endproc
 2650              	.LFE250:
 2652              		.section	.text.OTG_FS_EP1_IN_IRQHandler,"ax",%progbits
 2653              		.align	1
 2654              		.weak	OTG_FS_EP1_IN_IRQHandler
 2655              		.syntax unified
 2656              		.thumb
 2657              		.thumb_func
 2658              		.fpu fpv5-d16
 2660              	OTG_FS_EP1_IN_IRQHandler:
 2661              	.LFB251:
 163:startup_stm32h743xx.c **** __weak void OTG_FS_EP1_IN_IRQHandler(void)                                {Default_Handler();}
 2662              		.loc 1 163 75 view -0
ARM GAS  C:\Users\jisu8\AppData\Local\Temp\ccjWHQ5a.s 			page 47


 2663              		.cfi_startproc
 2664              		@ args = 0, pretend = 0, frame = 0
 2665              		@ frame_needed = 0, uses_anonymous_args = 0
 2666 0000 08B5     		push	{r3, lr}
 2667              	.LCFI102:
 2668              		.cfi_def_cfa_offset 8
 2669              		.cfi_offset 3, -8
 2670              		.cfi_offset 14, -4
 2671              		.loc 1 163 76 view .LVU229
 2672 0002 FFF7FEFF 		bl	Default_Handler
 2673              	.LVL111:
 2674              		.cfi_endproc
 2675              	.LFE251:
 2677              		.section	.text.OTG_FS_WKUP_IRQHandler,"ax",%progbits
 2678              		.align	1
 2679              		.weak	OTG_FS_WKUP_IRQHandler
 2680              		.syntax unified
 2681              		.thumb
 2682              		.thumb_func
 2683              		.fpu fpv5-d16
 2685              	OTG_FS_WKUP_IRQHandler:
 2686              	.LFB252:
 164:startup_stm32h743xx.c **** __weak void OTG_FS_WKUP_IRQHandler(void)                                  {Default_Handler();}
 2687              		.loc 1 164 75 view -0
 2688              		.cfi_startproc
 2689              		@ args = 0, pretend = 0, frame = 0
 2690              		@ frame_needed = 0, uses_anonymous_args = 0
 2691 0000 08B5     		push	{r3, lr}
 2692              	.LCFI103:
 2693              		.cfi_def_cfa_offset 8
 2694              		.cfi_offset 3, -8
 2695              		.cfi_offset 14, -4
 2696              		.loc 1 164 76 view .LVU231
 2697 0002 FFF7FEFF 		bl	Default_Handler
 2698              	.LVL112:
 2699              		.cfi_endproc
 2700              	.LFE252:
 2702              		.section	.text.OTG_FS_IRQHandler,"ax",%progbits
 2703              		.align	1
 2704              		.weak	OTG_FS_IRQHandler
 2705              		.syntax unified
 2706              		.thumb
 2707              		.thumb_func
 2708              		.fpu fpv5-d16
 2710              	OTG_FS_IRQHandler:
 2711              	.LFB253:
 165:startup_stm32h743xx.c **** __weak void OTG_FS_IRQHandler(void)                                       {Default_Handler();}
 2712              		.loc 1 165 75 view -0
 2713              		.cfi_startproc
 2714              		@ args = 0, pretend = 0, frame = 0
 2715              		@ frame_needed = 0, uses_anonymous_args = 0
 2716 0000 08B5     		push	{r3, lr}
 2717              	.LCFI104:
 2718              		.cfi_def_cfa_offset 8
 2719              		.cfi_offset 3, -8
 2720              		.cfi_offset 14, -4
 2721              		.loc 1 165 76 view .LVU233
ARM GAS  C:\Users\jisu8\AppData\Local\Temp\ccjWHQ5a.s 			page 48


 2722 0002 FFF7FEFF 		bl	Default_Handler
 2723              	.LVL113:
 2724              		.cfi_endproc
 2725              	.LFE253:
 2727              		.section	.text.DMAMUX1_OVR_IRQHandler,"ax",%progbits
 2728              		.align	1
 2729              		.weak	DMAMUX1_OVR_IRQHandler
 2730              		.syntax unified
 2731              		.thumb
 2732              		.thumb_func
 2733              		.fpu fpv5-d16
 2735              	DMAMUX1_OVR_IRQHandler:
 2736              	.LFB254:
 166:startup_stm32h743xx.c **** __weak void DMAMUX1_OVR_IRQHandler(void)                                  {Default_Handler();}
 2737              		.loc 1 166 75 view -0
 2738              		.cfi_startproc
 2739              		@ args = 0, pretend = 0, frame = 0
 2740              		@ frame_needed = 0, uses_anonymous_args = 0
 2741 0000 08B5     		push	{r3, lr}
 2742              	.LCFI105:
 2743              		.cfi_def_cfa_offset 8
 2744              		.cfi_offset 3, -8
 2745              		.cfi_offset 14, -4
 2746              		.loc 1 166 76 view .LVU235
 2747 0002 FFF7FEFF 		bl	Default_Handler
 2748              	.LVL114:
 2749              		.cfi_endproc
 2750              	.LFE254:
 2752              		.section	.text.HRTIM1_Master_IRQHandler,"ax",%progbits
 2753              		.align	1
 2754              		.weak	HRTIM1_Master_IRQHandler
 2755              		.syntax unified
 2756              		.thumb
 2757              		.thumb_func
 2758              		.fpu fpv5-d16
 2760              	HRTIM1_Master_IRQHandler:
 2761              	.LFB255:
 167:startup_stm32h743xx.c **** __weak void HRTIM1_Master_IRQHandler(void)                                {Default_Handler();}
 2762              		.loc 1 167 75 view -0
 2763              		.cfi_startproc
 2764              		@ args = 0, pretend = 0, frame = 0
 2765              		@ frame_needed = 0, uses_anonymous_args = 0
 2766 0000 08B5     		push	{r3, lr}
 2767              	.LCFI106:
 2768              		.cfi_def_cfa_offset 8
 2769              		.cfi_offset 3, -8
 2770              		.cfi_offset 14, -4
 2771              		.loc 1 167 76 view .LVU237
 2772 0002 FFF7FEFF 		bl	Default_Handler
 2773              	.LVL115:
 2774              		.cfi_endproc
 2775              	.LFE255:
 2777              		.section	.text.HRTIM1_TIMA_IRQHandler,"ax",%progbits
 2778              		.align	1
 2779              		.weak	HRTIM1_TIMA_IRQHandler
 2780              		.syntax unified
 2781              		.thumb
ARM GAS  C:\Users\jisu8\AppData\Local\Temp\ccjWHQ5a.s 			page 49


 2782              		.thumb_func
 2783              		.fpu fpv5-d16
 2785              	HRTIM1_TIMA_IRQHandler:
 2786              	.LFB256:
 168:startup_stm32h743xx.c **** __weak void HRTIM1_TIMA_IRQHandler(void)                                  {Default_Handler();}
 2787              		.loc 1 168 75 view -0
 2788              		.cfi_startproc
 2789              		@ args = 0, pretend = 0, frame = 0
 2790              		@ frame_needed = 0, uses_anonymous_args = 0
 2791 0000 08B5     		push	{r3, lr}
 2792              	.LCFI107:
 2793              		.cfi_def_cfa_offset 8
 2794              		.cfi_offset 3, -8
 2795              		.cfi_offset 14, -4
 2796              		.loc 1 168 76 view .LVU239
 2797 0002 FFF7FEFF 		bl	Default_Handler
 2798              	.LVL116:
 2799              		.cfi_endproc
 2800              	.LFE256:
 2802              		.section	.text.HRTIM1_TIMB_IRQHandler,"ax",%progbits
 2803              		.align	1
 2804              		.weak	HRTIM1_TIMB_IRQHandler
 2805              		.syntax unified
 2806              		.thumb
 2807              		.thumb_func
 2808              		.fpu fpv5-d16
 2810              	HRTIM1_TIMB_IRQHandler:
 2811              	.LFB257:
 169:startup_stm32h743xx.c **** __weak void HRTIM1_TIMB_IRQHandler(void)                                  {Default_Handler();}
 2812              		.loc 1 169 75 view -0
 2813              		.cfi_startproc
 2814              		@ args = 0, pretend = 0, frame = 0
 2815              		@ frame_needed = 0, uses_anonymous_args = 0
 2816 0000 08B5     		push	{r3, lr}
 2817              	.LCFI108:
 2818              		.cfi_def_cfa_offset 8
 2819              		.cfi_offset 3, -8
 2820              		.cfi_offset 14, -4
 2821              		.loc 1 169 76 view .LVU241
 2822 0002 FFF7FEFF 		bl	Default_Handler
 2823              	.LVL117:
 2824              		.cfi_endproc
 2825              	.LFE257:
 2827              		.section	.text.HRTIM1_TIMC_IRQHandler,"ax",%progbits
 2828              		.align	1
 2829              		.weak	HRTIM1_TIMC_IRQHandler
 2830              		.syntax unified
 2831              		.thumb
 2832              		.thumb_func
 2833              		.fpu fpv5-d16
 2835              	HRTIM1_TIMC_IRQHandler:
 2836              	.LFB258:
 170:startup_stm32h743xx.c **** __weak void HRTIM1_TIMC_IRQHandler(void)                                  {Default_Handler();}
 2837              		.loc 1 170 75 view -0
 2838              		.cfi_startproc
 2839              		@ args = 0, pretend = 0, frame = 0
 2840              		@ frame_needed = 0, uses_anonymous_args = 0
ARM GAS  C:\Users\jisu8\AppData\Local\Temp\ccjWHQ5a.s 			page 50


 2841 0000 08B5     		push	{r3, lr}
 2842              	.LCFI109:
 2843              		.cfi_def_cfa_offset 8
 2844              		.cfi_offset 3, -8
 2845              		.cfi_offset 14, -4
 2846              		.loc 1 170 76 view .LVU243
 2847 0002 FFF7FEFF 		bl	Default_Handler
 2848              	.LVL118:
 2849              		.cfi_endproc
 2850              	.LFE258:
 2852              		.section	.text.HRTIM1_TIMD_IRQHandler,"ax",%progbits
 2853              		.align	1
 2854              		.weak	HRTIM1_TIMD_IRQHandler
 2855              		.syntax unified
 2856              		.thumb
 2857              		.thumb_func
 2858              		.fpu fpv5-d16
 2860              	HRTIM1_TIMD_IRQHandler:
 2861              	.LFB259:
 171:startup_stm32h743xx.c **** __weak void HRTIM1_TIMD_IRQHandler(void)                                  {Default_Handler();}
 2862              		.loc 1 171 75 view -0
 2863              		.cfi_startproc
 2864              		@ args = 0, pretend = 0, frame = 0
 2865              		@ frame_needed = 0, uses_anonymous_args = 0
 2866 0000 08B5     		push	{r3, lr}
 2867              	.LCFI110:
 2868              		.cfi_def_cfa_offset 8
 2869              		.cfi_offset 3, -8
 2870              		.cfi_offset 14, -4
 2871              		.loc 1 171 76 view .LVU245
 2872 0002 FFF7FEFF 		bl	Default_Handler
 2873              	.LVL119:
 2874              		.cfi_endproc
 2875              	.LFE259:
 2877              		.section	.text.HRTIM1_TIME_IRQHandler,"ax",%progbits
 2878              		.align	1
 2879              		.weak	HRTIM1_TIME_IRQHandler
 2880              		.syntax unified
 2881              		.thumb
 2882              		.thumb_func
 2883              		.fpu fpv5-d16
 2885              	HRTIM1_TIME_IRQHandler:
 2886              	.LFB260:
 172:startup_stm32h743xx.c **** __weak void HRTIM1_TIME_IRQHandler(void)                                  {Default_Handler();}
 2887              		.loc 1 172 75 view -0
 2888              		.cfi_startproc
 2889              		@ args = 0, pretend = 0, frame = 0
 2890              		@ frame_needed = 0, uses_anonymous_args = 0
 2891 0000 08B5     		push	{r3, lr}
 2892              	.LCFI111:
 2893              		.cfi_def_cfa_offset 8
 2894              		.cfi_offset 3, -8
 2895              		.cfi_offset 14, -4
 2896              		.loc 1 172 76 view .LVU247
 2897 0002 FFF7FEFF 		bl	Default_Handler
 2898              	.LVL120:
 2899              		.cfi_endproc
ARM GAS  C:\Users\jisu8\AppData\Local\Temp\ccjWHQ5a.s 			page 51


 2900              	.LFE260:
 2902              		.section	.text.HRTIM1_FLT_IRQHandler,"ax",%progbits
 2903              		.align	1
 2904              		.weak	HRTIM1_FLT_IRQHandler
 2905              		.syntax unified
 2906              		.thumb
 2907              		.thumb_func
 2908              		.fpu fpv5-d16
 2910              	HRTIM1_FLT_IRQHandler:
 2911              	.LFB261:
 173:startup_stm32h743xx.c **** __weak void HRTIM1_FLT_IRQHandler(void)                                   {Default_Handler();}
 2912              		.loc 1 173 75 view -0
 2913              		.cfi_startproc
 2914              		@ args = 0, pretend = 0, frame = 0
 2915              		@ frame_needed = 0, uses_anonymous_args = 0
 2916 0000 08B5     		push	{r3, lr}
 2917              	.LCFI112:
 2918              		.cfi_def_cfa_offset 8
 2919              		.cfi_offset 3, -8
 2920              		.cfi_offset 14, -4
 2921              		.loc 1 173 76 view .LVU249
 2922 0002 FFF7FEFF 		bl	Default_Handler
 2923              	.LVL121:
 2924              		.cfi_endproc
 2925              	.LFE261:
 2927              		.section	.text.DFSDM1_FLT0_IRQHandler,"ax",%progbits
 2928              		.align	1
 2929              		.weak	DFSDM1_FLT0_IRQHandler
 2930              		.syntax unified
 2931              		.thumb
 2932              		.thumb_func
 2933              		.fpu fpv5-d16
 2935              	DFSDM1_FLT0_IRQHandler:
 2936              	.LFB262:
 174:startup_stm32h743xx.c **** __weak void DFSDM1_FLT0_IRQHandler(void)                                  {Default_Handler();}
 2937              		.loc 1 174 75 view -0
 2938              		.cfi_startproc
 2939              		@ args = 0, pretend = 0, frame = 0
 2940              		@ frame_needed = 0, uses_anonymous_args = 0
 2941 0000 08B5     		push	{r3, lr}
 2942              	.LCFI113:
 2943              		.cfi_def_cfa_offset 8
 2944              		.cfi_offset 3, -8
 2945              		.cfi_offset 14, -4
 2946              		.loc 1 174 76 view .LVU251
 2947 0002 FFF7FEFF 		bl	Default_Handler
 2948              	.LVL122:
 2949              		.cfi_endproc
 2950              	.LFE262:
 2952              		.section	.text.DFSDM1_FLT1_IRQHandler,"ax",%progbits
 2953              		.align	1
 2954              		.weak	DFSDM1_FLT1_IRQHandler
 2955              		.syntax unified
 2956              		.thumb
 2957              		.thumb_func
 2958              		.fpu fpv5-d16
 2960              	DFSDM1_FLT1_IRQHandler:
ARM GAS  C:\Users\jisu8\AppData\Local\Temp\ccjWHQ5a.s 			page 52


 2961              	.LFB263:
 175:startup_stm32h743xx.c **** __weak void DFSDM1_FLT1_IRQHandler(void)                                  {Default_Handler();}
 2962              		.loc 1 175 75 view -0
 2963              		.cfi_startproc
 2964              		@ args = 0, pretend = 0, frame = 0
 2965              		@ frame_needed = 0, uses_anonymous_args = 0
 2966 0000 08B5     		push	{r3, lr}
 2967              	.LCFI114:
 2968              		.cfi_def_cfa_offset 8
 2969              		.cfi_offset 3, -8
 2970              		.cfi_offset 14, -4
 2971              		.loc 1 175 76 view .LVU253
 2972 0002 FFF7FEFF 		bl	Default_Handler
 2973              	.LVL123:
 2974              		.cfi_endproc
 2975              	.LFE263:
 2977              		.section	.text.DFSDM1_FLT2_IRQHandler,"ax",%progbits
 2978              		.align	1
 2979              		.weak	DFSDM1_FLT2_IRQHandler
 2980              		.syntax unified
 2981              		.thumb
 2982              		.thumb_func
 2983              		.fpu fpv5-d16
 2985              	DFSDM1_FLT2_IRQHandler:
 2986              	.LFB264:
 176:startup_stm32h743xx.c **** __weak void DFSDM1_FLT2_IRQHandler(void)                                  {Default_Handler();}
 2987              		.loc 1 176 75 view -0
 2988              		.cfi_startproc
 2989              		@ args = 0, pretend = 0, frame = 0
 2990              		@ frame_needed = 0, uses_anonymous_args = 0
 2991 0000 08B5     		push	{r3, lr}
 2992              	.LCFI115:
 2993              		.cfi_def_cfa_offset 8
 2994              		.cfi_offset 3, -8
 2995              		.cfi_offset 14, -4
 2996              		.loc 1 176 76 view .LVU255
 2997 0002 FFF7FEFF 		bl	Default_Handler
 2998              	.LVL124:
 2999              		.cfi_endproc
 3000              	.LFE264:
 3002              		.section	.text.DFSDM1_FLT3_IRQHandler,"ax",%progbits
 3003              		.align	1
 3004              		.weak	DFSDM1_FLT3_IRQHandler
 3005              		.syntax unified
 3006              		.thumb
 3007              		.thumb_func
 3008              		.fpu fpv5-d16
 3010              	DFSDM1_FLT3_IRQHandler:
 3011              	.LFB265:
 177:startup_stm32h743xx.c **** __weak void DFSDM1_FLT3_IRQHandler(void)                                  {Default_Handler();}
 3012              		.loc 1 177 75 view -0
 3013              		.cfi_startproc
 3014              		@ args = 0, pretend = 0, frame = 0
 3015              		@ frame_needed = 0, uses_anonymous_args = 0
 3016 0000 08B5     		push	{r3, lr}
 3017              	.LCFI116:
 3018              		.cfi_def_cfa_offset 8
ARM GAS  C:\Users\jisu8\AppData\Local\Temp\ccjWHQ5a.s 			page 53


 3019              		.cfi_offset 3, -8
 3020              		.cfi_offset 14, -4
 3021              		.loc 1 177 76 view .LVU257
 3022 0002 FFF7FEFF 		bl	Default_Handler
 3023              	.LVL125:
 3024              		.cfi_endproc
 3025              	.LFE265:
 3027              		.section	.text.SAI3_IRQHandler,"ax",%progbits
 3028              		.align	1
 3029              		.weak	SAI3_IRQHandler
 3030              		.syntax unified
 3031              		.thumb
 3032              		.thumb_func
 3033              		.fpu fpv5-d16
 3035              	SAI3_IRQHandler:
 3036              	.LFB266:
 178:startup_stm32h743xx.c **** __weak void SAI3_IRQHandler(void)                                         {Default_Handler();}
 3037              		.loc 1 178 75 view -0
 3038              		.cfi_startproc
 3039              		@ args = 0, pretend = 0, frame = 0
 3040              		@ frame_needed = 0, uses_anonymous_args = 0
 3041 0000 08B5     		push	{r3, lr}
 3042              	.LCFI117:
 3043              		.cfi_def_cfa_offset 8
 3044              		.cfi_offset 3, -8
 3045              		.cfi_offset 14, -4
 3046              		.loc 1 178 76 view .LVU259
 3047 0002 FFF7FEFF 		bl	Default_Handler
 3048              	.LVL126:
 3049              		.cfi_endproc
 3050              	.LFE266:
 3052              		.section	.text.SWPMI1_IRQHandler,"ax",%progbits
 3053              		.align	1
 3054              		.weak	SWPMI1_IRQHandler
 3055              		.syntax unified
 3056              		.thumb
 3057              		.thumb_func
 3058              		.fpu fpv5-d16
 3060              	SWPMI1_IRQHandler:
 3061              	.LFB267:
 179:startup_stm32h743xx.c **** __weak void SWPMI1_IRQHandler(void)                                       {Default_Handler();}
 3062              		.loc 1 179 75 view -0
 3063              		.cfi_startproc
 3064              		@ args = 0, pretend = 0, frame = 0
 3065              		@ frame_needed = 0, uses_anonymous_args = 0
 3066 0000 08B5     		push	{r3, lr}
 3067              	.LCFI118:
 3068              		.cfi_def_cfa_offset 8
 3069              		.cfi_offset 3, -8
 3070              		.cfi_offset 14, -4
 3071              		.loc 1 179 76 view .LVU261
 3072 0002 FFF7FEFF 		bl	Default_Handler
 3073              	.LVL127:
 3074              		.cfi_endproc
 3075              	.LFE267:
 3077              		.section	.text.TIM15_IRQHandler,"ax",%progbits
 3078              		.align	1
ARM GAS  C:\Users\jisu8\AppData\Local\Temp\ccjWHQ5a.s 			page 54


 3079              		.weak	TIM15_IRQHandler
 3080              		.syntax unified
 3081              		.thumb
 3082              		.thumb_func
 3083              		.fpu fpv5-d16
 3085              	TIM15_IRQHandler:
 3086              	.LFB268:
 180:startup_stm32h743xx.c **** __weak void TIM15_IRQHandler(void)                                        {Default_Handler();}
 3087              		.loc 1 180 75 view -0
 3088              		.cfi_startproc
 3089              		@ args = 0, pretend = 0, frame = 0
 3090              		@ frame_needed = 0, uses_anonymous_args = 0
 3091 0000 08B5     		push	{r3, lr}
 3092              	.LCFI119:
 3093              		.cfi_def_cfa_offset 8
 3094              		.cfi_offset 3, -8
 3095              		.cfi_offset 14, -4
 3096              		.loc 1 180 76 view .LVU263
 3097 0002 FFF7FEFF 		bl	Default_Handler
 3098              	.LVL128:
 3099              		.cfi_endproc
 3100              	.LFE268:
 3102              		.section	.text.MDIOS_WKUP_IRQHandler,"ax",%progbits
 3103              		.align	1
 3104              		.weak	MDIOS_WKUP_IRQHandler
 3105              		.syntax unified
 3106              		.thumb
 3107              		.thumb_func
 3108              		.fpu fpv5-d16
 3110              	MDIOS_WKUP_IRQHandler:
 3111              	.LFB271:
 181:startup_stm32h743xx.c **** __weak void TIM16_IRQHandler(void)                                        {TIM16_Handler();}
 182:startup_stm32h743xx.c **** __weak void TIM17_IRQHandler(void)                                        {TIM17_Handler();}
 183:startup_stm32h743xx.c **** __weak void MDIOS_WKUP_IRQHandler(void)                                   {Default_Handler();}
 3112              		.loc 1 183 75 view -0
 3113              		.cfi_startproc
 3114              		@ args = 0, pretend = 0, frame = 0
 3115              		@ frame_needed = 0, uses_anonymous_args = 0
 3116 0000 08B5     		push	{r3, lr}
 3117              	.LCFI120:
 3118              		.cfi_def_cfa_offset 8
 3119              		.cfi_offset 3, -8
 3120              		.cfi_offset 14, -4
 3121              		.loc 1 183 76 view .LVU265
 3122 0002 FFF7FEFF 		bl	Default_Handler
 3123              	.LVL129:
 3124              		.cfi_endproc
 3125              	.LFE271:
 3127              		.section	.text.MDIOS_IRQHandler,"ax",%progbits
 3128              		.align	1
 3129              		.weak	MDIOS_IRQHandler
 3130              		.syntax unified
 3131              		.thumb
 3132              		.thumb_func
 3133              		.fpu fpv5-d16
 3135              	MDIOS_IRQHandler:
 3136              	.LFB272:
ARM GAS  C:\Users\jisu8\AppData\Local\Temp\ccjWHQ5a.s 			page 55


 184:startup_stm32h743xx.c **** __weak void MDIOS_IRQHandler(void)                                        {Default_Handler();}
 3137              		.loc 1 184 75 view -0
 3138              		.cfi_startproc
 3139              		@ args = 0, pretend = 0, frame = 0
 3140              		@ frame_needed = 0, uses_anonymous_args = 0
 3141 0000 08B5     		push	{r3, lr}
 3142              	.LCFI121:
 3143              		.cfi_def_cfa_offset 8
 3144              		.cfi_offset 3, -8
 3145              		.cfi_offset 14, -4
 3146              		.loc 1 184 76 view .LVU267
 3147 0002 FFF7FEFF 		bl	Default_Handler
 3148              	.LVL130:
 3149              		.cfi_endproc
 3150              	.LFE272:
 3152              		.section	.text.JPEG_IRQHandler,"ax",%progbits
 3153              		.align	1
 3154              		.weak	JPEG_IRQHandler
 3155              		.syntax unified
 3156              		.thumb
 3157              		.thumb_func
 3158              		.fpu fpv5-d16
 3160              	JPEG_IRQHandler:
 3161              	.LFB273:
 185:startup_stm32h743xx.c **** __weak void JPEG_IRQHandler(void)                                         {Default_Handler();}
 3162              		.loc 1 185 75 view -0
 3163              		.cfi_startproc
 3164              		@ args = 0, pretend = 0, frame = 0
 3165              		@ frame_needed = 0, uses_anonymous_args = 0
 3166 0000 08B5     		push	{r3, lr}
 3167              	.LCFI122:
 3168              		.cfi_def_cfa_offset 8
 3169              		.cfi_offset 3, -8
 3170              		.cfi_offset 14, -4
 3171              		.loc 1 185 76 view .LVU269
 3172 0002 FFF7FEFF 		bl	Default_Handler
 3173              	.LVL131:
 3174              		.cfi_endproc
 3175              	.LFE273:
 3177              		.section	.text.MDMA_IRQHandler,"ax",%progbits
 3178              		.align	1
 3179              		.weak	MDMA_IRQHandler
 3180              		.syntax unified
 3181              		.thumb
 3182              		.thumb_func
 3183              		.fpu fpv5-d16
 3185              	MDMA_IRQHandler:
 3186              	.LFB274:
 186:startup_stm32h743xx.c **** __weak void MDMA_IRQHandler(void)                                         {Default_Handler();}
 3187              		.loc 1 186 75 view -0
 3188              		.cfi_startproc
 3189              		@ args = 0, pretend = 0, frame = 0
 3190              		@ frame_needed = 0, uses_anonymous_args = 0
 3191 0000 08B5     		push	{r3, lr}
 3192              	.LCFI123:
 3193              		.cfi_def_cfa_offset 8
 3194              		.cfi_offset 3, -8
ARM GAS  C:\Users\jisu8\AppData\Local\Temp\ccjWHQ5a.s 			page 56


 3195              		.cfi_offset 14, -4
 3196              		.loc 1 186 76 view .LVU271
 3197 0002 FFF7FEFF 		bl	Default_Handler
 3198              	.LVL132:
 3199              		.cfi_endproc
 3200              	.LFE274:
 3202              		.section	.text.SDMMC2_IRQHandler,"ax",%progbits
 3203              		.align	1
 3204              		.weak	SDMMC2_IRQHandler
 3205              		.syntax unified
 3206              		.thumb
 3207              		.thumb_func
 3208              		.fpu fpv5-d16
 3210              	SDMMC2_IRQHandler:
 3211              	.LFB275:
 187:startup_stm32h743xx.c **** __weak void SDMMC2_IRQHandler(void)                                       {Default_Handler();}
 3212              		.loc 1 187 75 view -0
 3213              		.cfi_startproc
 3214              		@ args = 0, pretend = 0, frame = 0
 3215              		@ frame_needed = 0, uses_anonymous_args = 0
 3216 0000 08B5     		push	{r3, lr}
 3217              	.LCFI124:
 3218              		.cfi_def_cfa_offset 8
 3219              		.cfi_offset 3, -8
 3220              		.cfi_offset 14, -4
 3221              		.loc 1 187 76 view .LVU273
 3222 0002 FFF7FEFF 		bl	Default_Handler
 3223              	.LVL133:
 3224              		.cfi_endproc
 3225              	.LFE275:
 3227              		.section	.text.HSEM1_IRQHandler,"ax",%progbits
 3228              		.align	1
 3229              		.weak	HSEM1_IRQHandler
 3230              		.syntax unified
 3231              		.thumb
 3232              		.thumb_func
 3233              		.fpu fpv5-d16
 3235              	HSEM1_IRQHandler:
 3236              	.LFB276:
 188:startup_stm32h743xx.c **** __weak void HSEM1_IRQHandler(void)                                        {Default_Handler();}
 3237              		.loc 1 188 75 view -0
 3238              		.cfi_startproc
 3239              		@ args = 0, pretend = 0, frame = 0
 3240              		@ frame_needed = 0, uses_anonymous_args = 0
 3241 0000 08B5     		push	{r3, lr}
 3242              	.LCFI125:
 3243              		.cfi_def_cfa_offset 8
 3244              		.cfi_offset 3, -8
 3245              		.cfi_offset 14, -4
 3246              		.loc 1 188 76 view .LVU275
 3247 0002 FFF7FEFF 		bl	Default_Handler
 3248              	.LVL134:
 3249              		.cfi_endproc
 3250              	.LFE276:
 3252              		.section	.text.ADC3_IRQHandler,"ax",%progbits
 3253              		.align	1
 3254              		.weak	ADC3_IRQHandler
ARM GAS  C:\Users\jisu8\AppData\Local\Temp\ccjWHQ5a.s 			page 57


 3255              		.syntax unified
 3256              		.thumb
 3257              		.thumb_func
 3258              		.fpu fpv5-d16
 3260              	ADC3_IRQHandler:
 3261              	.LFB277:
 189:startup_stm32h743xx.c **** __weak void ADC3_IRQHandler(void)                                         {Default_Handler();}
 3262              		.loc 1 189 75 view -0
 3263              		.cfi_startproc
 3264              		@ args = 0, pretend = 0, frame = 0
 3265              		@ frame_needed = 0, uses_anonymous_args = 0
 3266 0000 08B5     		push	{r3, lr}
 3267              	.LCFI126:
 3268              		.cfi_def_cfa_offset 8
 3269              		.cfi_offset 3, -8
 3270              		.cfi_offset 14, -4
 3271              		.loc 1 189 76 view .LVU277
 3272 0002 FFF7FEFF 		bl	Default_Handler
 3273              	.LVL135:
 3274              		.cfi_endproc
 3275              	.LFE277:
 3277              		.section	.text.DMAMUX2_OVR_IRQHandler,"ax",%progbits
 3278              		.align	1
 3279              		.weak	DMAMUX2_OVR_IRQHandler
 3280              		.syntax unified
 3281              		.thumb
 3282              		.thumb_func
 3283              		.fpu fpv5-d16
 3285              	DMAMUX2_OVR_IRQHandler:
 3286              	.LFB278:
 190:startup_stm32h743xx.c **** __weak void DMAMUX2_OVR_IRQHandler(void)                                  {Default_Handler();}
 3287              		.loc 1 190 75 view -0
 3288              		.cfi_startproc
 3289              		@ args = 0, pretend = 0, frame = 0
 3290              		@ frame_needed = 0, uses_anonymous_args = 0
 3291 0000 08B5     		push	{r3, lr}
 3292              	.LCFI127:
 3293              		.cfi_def_cfa_offset 8
 3294              		.cfi_offset 3, -8
 3295              		.cfi_offset 14, -4
 3296              		.loc 1 190 76 view .LVU279
 3297 0002 FFF7FEFF 		bl	Default_Handler
 3298              	.LVL136:
 3299              		.cfi_endproc
 3300              	.LFE278:
 3302              		.section	.text.BDMA_Channel0_IRQHandler,"ax",%progbits
 3303              		.align	1
 3304              		.weak	BDMA_Channel0_IRQHandler
 3305              		.syntax unified
 3306              		.thumb
 3307              		.thumb_func
 3308              		.fpu fpv5-d16
 3310              	BDMA_Channel0_IRQHandler:
 3311              	.LFB279:
 191:startup_stm32h743xx.c **** __weak void BDMA_Channel0_IRQHandler(void)                                {Default_Handler();}
 3312              		.loc 1 191 75 view -0
 3313              		.cfi_startproc
ARM GAS  C:\Users\jisu8\AppData\Local\Temp\ccjWHQ5a.s 			page 58


 3314              		@ args = 0, pretend = 0, frame = 0
 3315              		@ frame_needed = 0, uses_anonymous_args = 0
 3316 0000 08B5     		push	{r3, lr}
 3317              	.LCFI128:
 3318              		.cfi_def_cfa_offset 8
 3319              		.cfi_offset 3, -8
 3320              		.cfi_offset 14, -4
 3321              		.loc 1 191 76 view .LVU281
 3322 0002 FFF7FEFF 		bl	Default_Handler
 3323              	.LVL137:
 3324              		.cfi_endproc
 3325              	.LFE279:
 3327              		.section	.text.BDMA_Channel1_IRQHandler,"ax",%progbits
 3328              		.align	1
 3329              		.weak	BDMA_Channel1_IRQHandler
 3330              		.syntax unified
 3331              		.thumb
 3332              		.thumb_func
 3333              		.fpu fpv5-d16
 3335              	BDMA_Channel1_IRQHandler:
 3336              	.LFB280:
 192:startup_stm32h743xx.c **** __weak void BDMA_Channel1_IRQHandler(void)                                {Default_Handler();}
 3337              		.loc 1 192 75 view -0
 3338              		.cfi_startproc
 3339              		@ args = 0, pretend = 0, frame = 0
 3340              		@ frame_needed = 0, uses_anonymous_args = 0
 3341 0000 08B5     		push	{r3, lr}
 3342              	.LCFI129:
 3343              		.cfi_def_cfa_offset 8
 3344              		.cfi_offset 3, -8
 3345              		.cfi_offset 14, -4
 3346              		.loc 1 192 76 view .LVU283
 3347 0002 FFF7FEFF 		bl	Default_Handler
 3348              	.LVL138:
 3349              		.cfi_endproc
 3350              	.LFE280:
 3352              		.section	.text.BDMA_Channel2_IRQHandler,"ax",%progbits
 3353              		.align	1
 3354              		.weak	BDMA_Channel2_IRQHandler
 3355              		.syntax unified
 3356              		.thumb
 3357              		.thumb_func
 3358              		.fpu fpv5-d16
 3360              	BDMA_Channel2_IRQHandler:
 3361              	.LFB281:
 193:startup_stm32h743xx.c **** __weak void BDMA_Channel2_IRQHandler(void)                                {Default_Handler();}
 3362              		.loc 1 193 75 view -0
 3363              		.cfi_startproc
 3364              		@ args = 0, pretend = 0, frame = 0
 3365              		@ frame_needed = 0, uses_anonymous_args = 0
 3366 0000 08B5     		push	{r3, lr}
 3367              	.LCFI130:
 3368              		.cfi_def_cfa_offset 8
 3369              		.cfi_offset 3, -8
 3370              		.cfi_offset 14, -4
 3371              		.loc 1 193 76 view .LVU285
 3372 0002 FFF7FEFF 		bl	Default_Handler
ARM GAS  C:\Users\jisu8\AppData\Local\Temp\ccjWHQ5a.s 			page 59


 3373              	.LVL139:
 3374              		.cfi_endproc
 3375              	.LFE281:
 3377              		.section	.text.BDMA_Channel3_IRQHandler,"ax",%progbits
 3378              		.align	1
 3379              		.weak	BDMA_Channel3_IRQHandler
 3380              		.syntax unified
 3381              		.thumb
 3382              		.thumb_func
 3383              		.fpu fpv5-d16
 3385              	BDMA_Channel3_IRQHandler:
 3386              	.LFB282:
 194:startup_stm32h743xx.c **** __weak void BDMA_Channel3_IRQHandler(void)                                {Default_Handler();}
 3387              		.loc 1 194 75 view -0
 3388              		.cfi_startproc
 3389              		@ args = 0, pretend = 0, frame = 0
 3390              		@ frame_needed = 0, uses_anonymous_args = 0
 3391 0000 08B5     		push	{r3, lr}
 3392              	.LCFI131:
 3393              		.cfi_def_cfa_offset 8
 3394              		.cfi_offset 3, -8
 3395              		.cfi_offset 14, -4
 3396              		.loc 1 194 76 view .LVU287
 3397 0002 FFF7FEFF 		bl	Default_Handler
 3398              	.LVL140:
 3399              		.cfi_endproc
 3400              	.LFE282:
 3402              		.section	.text.BDMA_Channel4_IRQHandler,"ax",%progbits
 3403              		.align	1
 3404              		.weak	BDMA_Channel4_IRQHandler
 3405              		.syntax unified
 3406              		.thumb
 3407              		.thumb_func
 3408              		.fpu fpv5-d16
 3410              	BDMA_Channel4_IRQHandler:
 3411              	.LFB283:
 195:startup_stm32h743xx.c **** __weak void BDMA_Channel4_IRQHandler(void)                                {Default_Handler();}
 3412              		.loc 1 195 75 view -0
 3413              		.cfi_startproc
 3414              		@ args = 0, pretend = 0, frame = 0
 3415              		@ frame_needed = 0, uses_anonymous_args = 0
 3416 0000 08B5     		push	{r3, lr}
 3417              	.LCFI132:
 3418              		.cfi_def_cfa_offset 8
 3419              		.cfi_offset 3, -8
 3420              		.cfi_offset 14, -4
 3421              		.loc 1 195 76 view .LVU289
 3422 0002 FFF7FEFF 		bl	Default_Handler
 3423              	.LVL141:
 3424              		.cfi_endproc
 3425              	.LFE283:
 3427              		.section	.text.BDMA_Channel5_IRQHandler,"ax",%progbits
 3428              		.align	1
 3429              		.weak	BDMA_Channel5_IRQHandler
 3430              		.syntax unified
 3431              		.thumb
 3432              		.thumb_func
ARM GAS  C:\Users\jisu8\AppData\Local\Temp\ccjWHQ5a.s 			page 60


 3433              		.fpu fpv5-d16
 3435              	BDMA_Channel5_IRQHandler:
 3436              	.LFB284:
 196:startup_stm32h743xx.c **** __weak void BDMA_Channel5_IRQHandler(void)                                {Default_Handler();}
 3437              		.loc 1 196 75 view -0
 3438              		.cfi_startproc
 3439              		@ args = 0, pretend = 0, frame = 0
 3440              		@ frame_needed = 0, uses_anonymous_args = 0
 3441 0000 08B5     		push	{r3, lr}
 3442              	.LCFI133:
 3443              		.cfi_def_cfa_offset 8
 3444              		.cfi_offset 3, -8
 3445              		.cfi_offset 14, -4
 3446              		.loc 1 196 76 view .LVU291
 3447 0002 FFF7FEFF 		bl	Default_Handler
 3448              	.LVL142:
 3449              		.cfi_endproc
 3450              	.LFE284:
 3452              		.section	.text.BDMA_Channel6_IRQHandler,"ax",%progbits
 3453              		.align	1
 3454              		.weak	BDMA_Channel6_IRQHandler
 3455              		.syntax unified
 3456              		.thumb
 3457              		.thumb_func
 3458              		.fpu fpv5-d16
 3460              	BDMA_Channel6_IRQHandler:
 3461              	.LFB285:
 197:startup_stm32h743xx.c **** __weak void BDMA_Channel6_IRQHandler(void)                                {Default_Handler();}
 3462              		.loc 1 197 75 view -0
 3463              		.cfi_startproc
 3464              		@ args = 0, pretend = 0, frame = 0
 3465              		@ frame_needed = 0, uses_anonymous_args = 0
 3466 0000 08B5     		push	{r3, lr}
 3467              	.LCFI134:
 3468              		.cfi_def_cfa_offset 8
 3469              		.cfi_offset 3, -8
 3470              		.cfi_offset 14, -4
 3471              		.loc 1 197 76 view .LVU293
 3472 0002 FFF7FEFF 		bl	Default_Handler
 3473              	.LVL143:
 3474              		.cfi_endproc
 3475              	.LFE285:
 3477              		.section	.text.BDMA_Channel7_IRQHandler,"ax",%progbits
 3478              		.align	1
 3479              		.weak	BDMA_Channel7_IRQHandler
 3480              		.syntax unified
 3481              		.thumb
 3482              		.thumb_func
 3483              		.fpu fpv5-d16
 3485              	BDMA_Channel7_IRQHandler:
 3486              	.LFB286:
 198:startup_stm32h743xx.c **** __weak void BDMA_Channel7_IRQHandler(void)                                {Default_Handler();}
 3487              		.loc 1 198 75 view -0
 3488              		.cfi_startproc
 3489              		@ args = 0, pretend = 0, frame = 0
 3490              		@ frame_needed = 0, uses_anonymous_args = 0
 3491 0000 08B5     		push	{r3, lr}
ARM GAS  C:\Users\jisu8\AppData\Local\Temp\ccjWHQ5a.s 			page 61


 3492              	.LCFI135:
 3493              		.cfi_def_cfa_offset 8
 3494              		.cfi_offset 3, -8
 3495              		.cfi_offset 14, -4
 3496              		.loc 1 198 76 view .LVU295
 3497 0002 FFF7FEFF 		bl	Default_Handler
 3498              	.LVL144:
 3499              		.cfi_endproc
 3500              	.LFE286:
 3502              		.section	.text.COMP1_IRQHandler,"ax",%progbits
 3503              		.align	1
 3504              		.weak	COMP1_IRQHandler
 3505              		.syntax unified
 3506              		.thumb
 3507              		.thumb_func
 3508              		.fpu fpv5-d16
 3510              	COMP1_IRQHandler:
 3511              	.LFB287:
 199:startup_stm32h743xx.c **** __weak void COMP1_IRQHandler(void)                                        {Default_Handler();}
 3512              		.loc 1 199 75 view -0
 3513              		.cfi_startproc
 3514              		@ args = 0, pretend = 0, frame = 0
 3515              		@ frame_needed = 0, uses_anonymous_args = 0
 3516 0000 08B5     		push	{r3, lr}
 3517              	.LCFI136:
 3518              		.cfi_def_cfa_offset 8
 3519              		.cfi_offset 3, -8
 3520              		.cfi_offset 14, -4
 3521              		.loc 1 199 76 view .LVU297
 3522 0002 FFF7FEFF 		bl	Default_Handler
 3523              	.LVL145:
 3524              		.cfi_endproc
 3525              	.LFE287:
 3527              		.section	.text.LPTIM2_IRQHandler,"ax",%progbits
 3528              		.align	1
 3529              		.weak	LPTIM2_IRQHandler
 3530              		.syntax unified
 3531              		.thumb
 3532              		.thumb_func
 3533              		.fpu fpv5-d16
 3535              	LPTIM2_IRQHandler:
 3536              	.LFB288:
 200:startup_stm32h743xx.c **** __weak void LPTIM2_IRQHandler(void)                                       {Default_Handler();}
 3537              		.loc 1 200 75 view -0
 3538              		.cfi_startproc
 3539              		@ args = 0, pretend = 0, frame = 0
 3540              		@ frame_needed = 0, uses_anonymous_args = 0
 3541 0000 08B5     		push	{r3, lr}
 3542              	.LCFI137:
 3543              		.cfi_def_cfa_offset 8
 3544              		.cfi_offset 3, -8
 3545              		.cfi_offset 14, -4
 3546              		.loc 1 200 76 view .LVU299
 3547 0002 FFF7FEFF 		bl	Default_Handler
 3548              	.LVL146:
 3549              		.cfi_endproc
 3550              	.LFE288:
ARM GAS  C:\Users\jisu8\AppData\Local\Temp\ccjWHQ5a.s 			page 62


 3552              		.section	.text.LPTIM3_IRQHandler,"ax",%progbits
 3553              		.align	1
 3554              		.weak	LPTIM3_IRQHandler
 3555              		.syntax unified
 3556              		.thumb
 3557              		.thumb_func
 3558              		.fpu fpv5-d16
 3560              	LPTIM3_IRQHandler:
 3561              	.LFB289:
 201:startup_stm32h743xx.c **** __weak void LPTIM3_IRQHandler(void)                                       {Default_Handler();}
 3562              		.loc 1 201 75 view -0
 3563              		.cfi_startproc
 3564              		@ args = 0, pretend = 0, frame = 0
 3565              		@ frame_needed = 0, uses_anonymous_args = 0
 3566 0000 08B5     		push	{r3, lr}
 3567              	.LCFI138:
 3568              		.cfi_def_cfa_offset 8
 3569              		.cfi_offset 3, -8
 3570              		.cfi_offset 14, -4
 3571              		.loc 1 201 76 view .LVU301
 3572 0002 FFF7FEFF 		bl	Default_Handler
 3573              	.LVL147:
 3574              		.cfi_endproc
 3575              	.LFE289:
 3577              		.section	.text.LPTIM4_IRQHandler,"ax",%progbits
 3578              		.align	1
 3579              		.weak	LPTIM4_IRQHandler
 3580              		.syntax unified
 3581              		.thumb
 3582              		.thumb_func
 3583              		.fpu fpv5-d16
 3585              	LPTIM4_IRQHandler:
 3586              	.LFB290:
 202:startup_stm32h743xx.c **** __weak void LPTIM4_IRQHandler(void)                                       {Default_Handler();}
 3587              		.loc 1 202 75 view -0
 3588              		.cfi_startproc
 3589              		@ args = 0, pretend = 0, frame = 0
 3590              		@ frame_needed = 0, uses_anonymous_args = 0
 3591 0000 08B5     		push	{r3, lr}
 3592              	.LCFI139:
 3593              		.cfi_def_cfa_offset 8
 3594              		.cfi_offset 3, -8
 3595              		.cfi_offset 14, -4
 3596              		.loc 1 202 76 view .LVU303
 3597 0002 FFF7FEFF 		bl	Default_Handler
 3598              	.LVL148:
 3599              		.cfi_endproc
 3600              	.LFE290:
 3602              		.section	.text.LPTIM5_IRQHandler,"ax",%progbits
 3603              		.align	1
 3604              		.weak	LPTIM5_IRQHandler
 3605              		.syntax unified
 3606              		.thumb
 3607              		.thumb_func
 3608              		.fpu fpv5-d16
 3610              	LPTIM5_IRQHandler:
 3611              	.LFB291:
ARM GAS  C:\Users\jisu8\AppData\Local\Temp\ccjWHQ5a.s 			page 63


 203:startup_stm32h743xx.c **** __weak void LPTIM5_IRQHandler(void)                                       {Default_Handler();}
 3612              		.loc 1 203 75 view -0
 3613              		.cfi_startproc
 3614              		@ args = 0, pretend = 0, frame = 0
 3615              		@ frame_needed = 0, uses_anonymous_args = 0
 3616 0000 08B5     		push	{r3, lr}
 3617              	.LCFI140:
 3618              		.cfi_def_cfa_offset 8
 3619              		.cfi_offset 3, -8
 3620              		.cfi_offset 14, -4
 3621              		.loc 1 203 76 view .LVU305
 3622 0002 FFF7FEFF 		bl	Default_Handler
 3623              	.LVL149:
 3624              		.cfi_endproc
 3625              	.LFE291:
 3627              		.section	.text.LPUART1_IRQHandler,"ax",%progbits
 3628              		.align	1
 3629              		.weak	LPUART1_IRQHandler
 3630              		.syntax unified
 3631              		.thumb
 3632              		.thumb_func
 3633              		.fpu fpv5-d16
 3635              	LPUART1_IRQHandler:
 3636              	.LFB292:
 204:startup_stm32h743xx.c **** __weak void LPUART1_IRQHandler(void)                                      {Default_Handler();}
 3637              		.loc 1 204 75 view -0
 3638              		.cfi_startproc
 3639              		@ args = 0, pretend = 0, frame = 0
 3640              		@ frame_needed = 0, uses_anonymous_args = 0
 3641 0000 08B5     		push	{r3, lr}
 3642              	.LCFI141:
 3643              		.cfi_def_cfa_offset 8
 3644              		.cfi_offset 3, -8
 3645              		.cfi_offset 14, -4
 3646              		.loc 1 204 76 view .LVU307
 3647 0002 FFF7FEFF 		bl	Default_Handler
 3648              	.LVL150:
 3649              		.cfi_endproc
 3650              	.LFE292:
 3652              		.section	.text.CRS_IRQHandler,"ax",%progbits
 3653              		.align	1
 3654              		.weak	CRS_IRQHandler
 3655              		.syntax unified
 3656              		.thumb
 3657              		.thumb_func
 3658              		.fpu fpv5-d16
 3660              	CRS_IRQHandler:
 3661              	.LFB293:
 205:startup_stm32h743xx.c **** __weak void CRS_IRQHandler(void)                                          {Default_Handler();}
 3662              		.loc 1 205 75 view -0
 3663              		.cfi_startproc
 3664              		@ args = 0, pretend = 0, frame = 0
 3665              		@ frame_needed = 0, uses_anonymous_args = 0
 3666 0000 08B5     		push	{r3, lr}
 3667              	.LCFI142:
 3668              		.cfi_def_cfa_offset 8
 3669              		.cfi_offset 3, -8
ARM GAS  C:\Users\jisu8\AppData\Local\Temp\ccjWHQ5a.s 			page 64


 3670              		.cfi_offset 14, -4
 3671              		.loc 1 205 76 view .LVU309
 3672 0002 FFF7FEFF 		bl	Default_Handler
 3673              	.LVL151:
 3674              		.cfi_endproc
 3675              	.LFE293:
 3677              		.section	.text.ECC_IRQHandler,"ax",%progbits
 3678              		.align	1
 3679              		.weak	ECC_IRQHandler
 3680              		.syntax unified
 3681              		.thumb
 3682              		.thumb_func
 3683              		.fpu fpv5-d16
 3685              	ECC_IRQHandler:
 3686              	.LFB294:
 206:startup_stm32h743xx.c **** __weak void ECC_IRQHandler(void)                                          {Default_Handler();}
 3687              		.loc 1 206 75 view -0
 3688              		.cfi_startproc
 3689              		@ args = 0, pretend = 0, frame = 0
 3690              		@ frame_needed = 0, uses_anonymous_args = 0
 3691 0000 08B5     		push	{r3, lr}
 3692              	.LCFI143:
 3693              		.cfi_def_cfa_offset 8
 3694              		.cfi_offset 3, -8
 3695              		.cfi_offset 14, -4
 3696              		.loc 1 206 76 view .LVU311
 3697 0002 FFF7FEFF 		bl	Default_Handler
 3698              	.LVL152:
 3699              		.cfi_endproc
 3700              	.LFE294:
 3702              		.section	.text.SAI4_IRQHandler,"ax",%progbits
 3703              		.align	1
 3704              		.weak	SAI4_IRQHandler
 3705              		.syntax unified
 3706              		.thumb
 3707              		.thumb_func
 3708              		.fpu fpv5-d16
 3710              	SAI4_IRQHandler:
 3711              	.LFB295:
 207:startup_stm32h743xx.c **** __weak void SAI4_IRQHandler(void)                                         {Default_Handler();}
 3712              		.loc 1 207 75 view -0
 3713              		.cfi_startproc
 3714              		@ args = 0, pretend = 0, frame = 0
 3715              		@ frame_needed = 0, uses_anonymous_args = 0
 3716 0000 08B5     		push	{r3, lr}
 3717              	.LCFI144:
 3718              		.cfi_def_cfa_offset 8
 3719              		.cfi_offset 3, -8
 3720              		.cfi_offset 14, -4
 3721              		.loc 1 207 76 view .LVU313
 3722 0002 FFF7FEFF 		bl	Default_Handler
 3723              	.LVL153:
 3724              		.cfi_endproc
 3725              	.LFE295:
 3727              		.section	.text.WAKEUP_PIN_IRQHandler,"ax",%progbits
 3728              		.align	1
 3729              		.weak	WAKEUP_PIN_IRQHandler
ARM GAS  C:\Users\jisu8\AppData\Local\Temp\ccjWHQ5a.s 			page 65


 3730              		.syntax unified
 3731              		.thumb
 3732              		.thumb_func
 3733              		.fpu fpv5-d16
 3735              	WAKEUP_PIN_IRQHandler:
 3736              	.LFB296:
 208:startup_stm32h743xx.c **** __weak void WAKEUP_PIN_IRQHandler(void)                                   {Default_Handler();}
 3737              		.loc 1 208 75 view -0
 3738              		.cfi_startproc
 3739              		@ args = 0, pretend = 0, frame = 0
 3740              		@ frame_needed = 0, uses_anonymous_args = 0
 3741 0000 08B5     		push	{r3, lr}
 3742              	.LCFI145:
 3743              		.cfi_def_cfa_offset 8
 3744              		.cfi_offset 3, -8
 3745              		.cfi_offset 14, -4
 3746              		.loc 1 208 76 view .LVU315
 3747 0002 FFF7FEFF 		bl	Default_Handler
 3748              	.LVL154:
 3749              		.cfi_endproc
 3750              	.LFE296:
 3752              		.section	.text.TIM16_Handler,"ax",%progbits
 3753              		.align	1
 3754              		.global	TIM16_Handler
 3755              		.syntax unified
 3756              		.thumb
 3757              		.thumb_func
 3758              		.fpu fpv5-d16
 3760              	TIM16_Handler:
 3761              	.LFB146:
  42:startup_stm32h743xx.c ****     HAL_TIM_IRQHandler(&htim16);
 3762              		.loc 1 42 1 view -0
 3763              		.cfi_startproc
 3764              		@ args = 0, pretend = 0, frame = 0
 3765              		@ frame_needed = 0, uses_anonymous_args = 0
 3766 0000 08B5     		push	{r3, lr}
 3767              	.LCFI146:
 3768              		.cfi_def_cfa_offset 8
 3769              		.cfi_offset 3, -8
 3770              		.cfi_offset 14, -4
  43:startup_stm32h743xx.c **** }
 3771              		.loc 1 43 5 view .LVU317
 3772 0002 0248     		ldr	r0, .L304
 3773 0004 FFF7FEFF 		bl	HAL_TIM_IRQHandler
 3774              	.LVL155:
  44:startup_stm32h743xx.c **** 
 3775              		.loc 1 44 1 is_stmt 0 view .LVU318
 3776 0008 08BD     		pop	{r3, pc}
 3777              	.L305:
 3778 000a 00BF     		.align	2
 3779              	.L304:
 3780 000c 00000000 		.word	htim16
 3781              		.cfi_endproc
 3782              	.LFE146:
 3784              		.section	.text.TIM16_IRQHandler,"ax",%progbits
 3785              		.align	1
 3786              		.weak	TIM16_IRQHandler
ARM GAS  C:\Users\jisu8\AppData\Local\Temp\ccjWHQ5a.s 			page 66


 3787              		.syntax unified
 3788              		.thumb
 3789              		.thumb_func
 3790              		.fpu fpv5-d16
 3792              	TIM16_IRQHandler:
 3793              	.LFB269:
 181:startup_stm32h743xx.c **** __weak void TIM17_IRQHandler(void)                                        {TIM17_Handler();}
 3794              		.loc 1 181 75 is_stmt 1 view -0
 3795              		.cfi_startproc
 3796              		@ args = 0, pretend = 0, frame = 0
 3797              		@ frame_needed = 0, uses_anonymous_args = 0
 3798 0000 08B5     		push	{r3, lr}
 3799              	.LCFI147:
 3800              		.cfi_def_cfa_offset 8
 3801              		.cfi_offset 3, -8
 3802              		.cfi_offset 14, -4
 181:startup_stm32h743xx.c **** __weak void TIM17_IRQHandler(void)                                        {TIM17_Handler();}
 3803              		.loc 1 181 76 view .LVU320
 3804 0002 FFF7FEFF 		bl	TIM16_Handler
 3805              	.LVL156:
 181:startup_stm32h743xx.c **** __weak void TIM17_IRQHandler(void)                                        {TIM17_Handler();}
 3806              		.loc 1 181 92 is_stmt 0 view .LVU321
 3807 0006 08BD     		pop	{r3, pc}
 3808              		.cfi_endproc
 3809              	.LFE269:
 3811              		.section	.text.TIM17_Handler,"ax",%progbits
 3812              		.align	1
 3813              		.global	TIM17_Handler
 3814              		.syntax unified
 3815              		.thumb
 3816              		.thumb_func
 3817              		.fpu fpv5-d16
 3819              	TIM17_Handler:
 3820              	.LFB147:
  47:startup_stm32h743xx.c ****     HAL_TIM_IRQHandler(&htim17);
 3821              		.loc 1 47 1 is_stmt 1 view -0
 3822              		.cfi_startproc
 3823              		@ args = 0, pretend = 0, frame = 0
 3824              		@ frame_needed = 0, uses_anonymous_args = 0
 3825 0000 08B5     		push	{r3, lr}
 3826              	.LCFI148:
 3827              		.cfi_def_cfa_offset 8
 3828              		.cfi_offset 3, -8
 3829              		.cfi_offset 14, -4
  48:startup_stm32h743xx.c **** }
 3830              		.loc 1 48 5 view .LVU323
 3831 0002 0248     		ldr	r0, .L310
 3832 0004 FFF7FEFF 		bl	HAL_TIM_IRQHandler
 3833              	.LVL157:
  49:startup_stm32h743xx.c **** 
 3834              		.loc 1 49 1 is_stmt 0 view .LVU324
 3835 0008 08BD     		pop	{r3, pc}
 3836              	.L311:
 3837 000a 00BF     		.align	2
 3838              	.L310:
 3839 000c 00000000 		.word	htim17
 3840              		.cfi_endproc
ARM GAS  C:\Users\jisu8\AppData\Local\Temp\ccjWHQ5a.s 			page 67


 3841              	.LFE147:
 3843              		.section	.text.TIM17_IRQHandler,"ax",%progbits
 3844              		.align	1
 3845              		.weak	TIM17_IRQHandler
 3846              		.syntax unified
 3847              		.thumb
 3848              		.thumb_func
 3849              		.fpu fpv5-d16
 3851              	TIM17_IRQHandler:
 3852              	.LFB270:
 182:startup_stm32h743xx.c **** __weak void MDIOS_WKUP_IRQHandler(void)                                   {Default_Handler();}
 3853              		.loc 1 182 75 is_stmt 1 view -0
 3854              		.cfi_startproc
 3855              		@ args = 0, pretend = 0, frame = 0
 3856              		@ frame_needed = 0, uses_anonymous_args = 0
 3857 0000 08B5     		push	{r3, lr}
 3858              	.LCFI149:
 3859              		.cfi_def_cfa_offset 8
 3860              		.cfi_offset 3, -8
 3861              		.cfi_offset 14, -4
 182:startup_stm32h743xx.c **** __weak void MDIOS_WKUP_IRQHandler(void)                                   {Default_Handler();}
 3862              		.loc 1 182 76 view .LVU326
 3863 0002 FFF7FEFF 		bl	TIM17_Handler
 3864              	.LVL158:
 182:startup_stm32h743xx.c **** __weak void MDIOS_WKUP_IRQHandler(void)                                   {Default_Handler();}
 3865              		.loc 1 182 92 is_stmt 0 view .LVU327
 3866 0006 08BD     		pop	{r3, pc}
 3867              		.cfi_endproc
 3868              	.LFE270:
 3870              		.section	.text.SystemTick_Handler,"ax",%progbits
 3871              		.align	1
 3872              		.global	SystemTick_Handler
 3873              		.syntax unified
 3874              		.thumb
 3875              		.thumb_func
 3876              		.fpu fpv5-d16
 3878              	SystemTick_Handler:
 3879              	.LFB148:
  52:startup_stm32h743xx.c ****     /* USER CODE BEGIN SysTick_IRQn 0 */
 3880              		.loc 1 52 1 is_stmt 1 view -0
 3881              		.cfi_startproc
 3882              		@ args = 0, pretend = 0, frame = 0
 3883              		@ frame_needed = 0, uses_anonymous_args = 0
 3884 0000 08B5     		push	{r3, lr}
 3885              	.LCFI150:
 3886              		.cfi_def_cfa_offset 8
 3887              		.cfi_offset 3, -8
 3888              		.cfi_offset 14, -4
  56:startup_stm32h743xx.c ****     /* USER CODE BEGIN SysTick_IRQn 1 */
 3889              		.loc 1 56 5 view .LVU329
 3890 0002 FFF7FEFF 		bl	HAL_IncTick
 3891              	.LVL159:
  60:startup_stm32h743xx.c **** __weak void NMI_Handler(void)                                             {Default_Handler();}
 3892              		.loc 1 60 1 is_stmt 0 view .LVU330
 3893 0006 08BD     		pop	{r3, pc}
 3894              		.cfi_endproc
 3895              	.LFE148:
ARM GAS  C:\Users\jisu8\AppData\Local\Temp\ccjWHQ5a.s 			page 68


 3897              		.section	.text.SysTick_Handler,"ax",%progbits
 3898              		.align	1
 3899              		.weak	SysTick_Handler
 3900              		.syntax unified
 3901              		.thumb
 3902              		.thumb_func
 3903              		.fpu fpv5-d16
 3905              	SysTick_Handler:
 3906              	.LFB157:
  69:startup_stm32h743xx.c **** __weak void WWDG_IRQHandler(void)                                         {Default_Handler();}
 3907              		.loc 1 69 75 is_stmt 1 view -0
 3908              		.cfi_startproc
 3909              		@ args = 0, pretend = 0, frame = 0
 3910              		@ frame_needed = 0, uses_anonymous_args = 0
 3911 0000 08B5     		push	{r3, lr}
 3912              	.LCFI151:
 3913              		.cfi_def_cfa_offset 8
 3914              		.cfi_offset 3, -8
 3915              		.cfi_offset 14, -4
  69:startup_stm32h743xx.c **** __weak void WWDG_IRQHandler(void)                                         {Default_Handler();}
 3916              		.loc 1 69 76 view .LVU332
 3917 0002 FFF7FEFF 		bl	SystemTick_Handler
 3918              	.LVL160:
  69:startup_stm32h743xx.c **** __weak void WWDG_IRQHandler(void)                                         {Default_Handler();}
 3919              		.loc 1 69 97 is_stmt 0 view .LVU333
 3920 0006 08BD     		pop	{r3, pc}
 3921              		.cfi_endproc
 3922              	.LFE157:
 3924              		.global	VectorTable
 3925              		.section	.isr_vector,"aw"
 3926              		.align	2
 3929              	VectorTable:
 3930 0000 00000000 		.word	_estack
 3931 0004 00000000 		.word	Reset_Handler
 3932 0008 00000000 		.word	NMI_Handler
 3933 000c 00000000 		.word	HardFault_Handler
 3934 0010 00000000 		.word	MemManage_Handler
 3935 0014 00000000 		.word	BusFault_Handler
 3936 0018 00000000 		.word	UsageFault_Handler
 3937 001c 00000000 		.word	0
 3938 0020 00000000 		.word	0
 3939 0024 00000000 		.word	0
 3940 0028 00000000 		.word	0
 3941 002c 00000000 		.word	SVC_Handler
 3942 0030 00000000 		.word	DebugMon_Handler
 3943 0034 00000000 		.word	0
 3944 0038 00000000 		.word	PendSV_Handler
 3945 003c 00000000 		.word	SysTick_Handler
 3946 0040 00000000 		.word	WWDG_IRQHandler
 3947 0044 00000000 		.word	PVD_AVD_IRQHandler
 3948 0048 00000000 		.word	TAMP_STAMP_IRQHandler
 3949 004c 00000000 		.word	RTC_WKUP_IRQHandler
 3950 0050 00000000 		.word	FLASH_IRQHandler
 3951 0054 00000000 		.word	RCC_IRQHandler
 3952 0058 00000000 		.word	EXTI0_IRQHandler
 3953 005c 00000000 		.word	EXTI1_IRQHandler
 3954 0060 00000000 		.word	EXTI2_IRQHandler
ARM GAS  C:\Users\jisu8\AppData\Local\Temp\ccjWHQ5a.s 			page 69


 3955 0064 00000000 		.word	EXTI3_IRQHandler
 3956 0068 00000000 		.word	EXTI4_IRQHandler
 3957 006c 00000000 		.word	DMA1_Stream0_IRQHandler
 3958 0070 00000000 		.word	DMA1_Stream1_IRQHandler
 3959 0074 00000000 		.word	DMA1_Stream2_IRQHandler
 3960 0078 00000000 		.word	DMA1_Stream3_IRQHandler
 3961 007c 00000000 		.word	DMA1_Stream4_IRQHandler
 3962 0080 00000000 		.word	DMA1_Stream5_IRQHandler
 3963 0084 00000000 		.word	DMA1_Stream6_IRQHandler
 3964 0088 00000000 		.word	ADC_IRQHandler
 3965 008c 00000000 		.word	FDCAN1_IT0_IRQHandler
 3966 0090 00000000 		.word	FDCAN2_IT0_IRQHandler
 3967 0094 00000000 		.word	FDCAN1_IT1_IRQHandler
 3968 0098 00000000 		.word	FDCAN2_IT1_IRQHandler
 3969 009c 00000000 		.word	EXTI9_5_IRQHandler
 3970 00a0 00000000 		.word	TIM1_BRK_IRQHandler
 3971 00a4 00000000 		.word	TIM1_UP_IRQHandler
 3972 00a8 00000000 		.word	TIM1_TRG_COM_IRQHandler
 3973 00ac 00000000 		.word	TIM1_CC_IRQHandler
 3974 00b0 00000000 		.word	TIM2_IRQHandler
 3975 00b4 00000000 		.word	TIM3_IRQHandler
 3976 00b8 00000000 		.word	TIM4_IRQHandler
 3977 00bc 00000000 		.word	I2C1_EV_IRQHandler
 3978 00c0 00000000 		.word	I2C1_ER_IRQHandler
 3979 00c4 00000000 		.word	I2C2_EV_IRQHandler
 3980 00c8 00000000 		.word	I2C2_ER_IRQHandler
 3981 00cc 00000000 		.word	SPI1_IRQHandler
 3982 00d0 00000000 		.word	SPI2_IRQHandler
 3983 00d4 00000000 		.word	USART1_IRQHandler
 3984 00d8 00000000 		.word	USART2_IRQHandler
 3985 00dc 00000000 		.word	USART3_IRQHandler
 3986 00e0 00000000 		.word	EXTI15_10_IRQHandler
 3987 00e4 00000000 		.word	RTC_Alarm_IRQHandler
 3988 00e8 00000000 		.word	0
 3989 00ec 00000000 		.word	TIM8_BRK_TIM12_IRQHandler
 3990 00f0 00000000 		.word	TIM8_UP_TIM13_IRQHandler
 3991 00f4 00000000 		.word	TIM8_TRG_COM_TIM14_IRQHandler
 3992 00f8 00000000 		.word	TIM8_CC_IRQHandler
 3993 00fc 00000000 		.word	DMA1_Stream7_IRQHandler
 3994 0100 00000000 		.word	FMC_IRQHandler
 3995 0104 00000000 		.word	SDMMC1_IRQHandler
 3996 0108 00000000 		.word	TIM5_IRQHandler
 3997 010c 00000000 		.word	SPI3_IRQHandler
 3998 0110 00000000 		.word	UART4_IRQHandler
 3999 0114 00000000 		.word	UART5_IRQHandler
 4000 0118 00000000 		.word	TIM6_DAC_IRQHandler
 4001 011c 00000000 		.word	TIM7_IRQHandler
 4002 0120 00000000 		.word	DMA2_Stream0_IRQHandler
 4003 0124 00000000 		.word	DMA2_Stream1_IRQHandler
 4004 0128 00000000 		.word	DMA2_Stream2_IRQHandler
 4005 012c 00000000 		.word	DMA2_Stream3_IRQHandler
 4006 0130 00000000 		.word	DMA2_Stream4_IRQHandler
 4007 0134 00000000 		.word	ETH_IRQHandler
 4008 0138 00000000 		.word	ETH_WKUP_IRQHandler
 4009 013c 00000000 		.word	FDCAN_CAL_IRQHandler
 4010 0140 00000000 		.word	0
 4011 0144 00000000 		.word	0
ARM GAS  C:\Users\jisu8\AppData\Local\Temp\ccjWHQ5a.s 			page 70


 4012 0148 00000000 		.word	0
 4013 014c 00000000 		.word	0
 4014 0150 00000000 		.word	DMA2_Stream5_IRQHandler
 4015 0154 00000000 		.word	DMA2_Stream6_IRQHandler
 4016 0158 00000000 		.word	DMA2_Stream7_IRQHandler
 4017 015c 00000000 		.word	USART6_IRQHandler
 4018 0160 00000000 		.word	I2C3_EV_IRQHandler
 4019 0164 00000000 		.word	I2C3_ER_IRQHandler
 4020 0168 00000000 		.word	OTG_HS_EP1_OUT_IRQHandler
 4021 016c 00000000 		.word	OTG_HS_EP1_IN_IRQHandler
 4022 0170 00000000 		.word	OTG_HS_WKUP_IRQHandler
 4023 0174 00000000 		.word	OTG_HS_IRQHandler
 4024 0178 00000000 		.word	DCMI_IRQHandler
 4025 017c 00000000 		.word	0
 4026 0180 00000000 		.word	RNG_IRQHandler
 4027 0184 00000000 		.word	FPU_IRQHandler
 4028 0188 00000000 		.word	UART7_IRQHandler
 4029 018c 00000000 		.word	UART8_IRQHandler
 4030 0190 00000000 		.word	SPI4_IRQHandler
 4031 0194 00000000 		.word	SPI5_IRQHandler
 4032 0198 00000000 		.word	SPI6_IRQHandler
 4033 019c 00000000 		.word	SAI1_IRQHandler
 4034 01a0 00000000 		.word	LTDC_IRQHandler
 4035 01a4 00000000 		.word	LTDC_ER_IRQHandler
 4036 01a8 00000000 		.word	DMA2D_IRQHandler
 4037 01ac 00000000 		.word	SAI2_IRQHandler
 4038 01b0 00000000 		.word	QUADSPI_IRQHandler
 4039 01b4 00000000 		.word	LPTIM1_IRQHandler
 4040 01b8 00000000 		.word	CEC_IRQHandler
 4041 01bc 00000000 		.word	I2C4_EV_IRQHandler
 4042 01c0 00000000 		.word	I2C4_ER_IRQHandler
 4043 01c4 00000000 		.word	SPDIF_RX_IRQHandler
 4044 01c8 00000000 		.word	OTG_FS_EP1_OUT_IRQHandler
 4045 01cc 00000000 		.word	OTG_FS_EP1_IN_IRQHandler
 4046 01d0 00000000 		.word	OTG_FS_WKUP_IRQHandler
 4047 01d4 00000000 		.word	OTG_FS_IRQHandler
 4048 01d8 00000000 		.word	DMAMUX1_OVR_IRQHandler
 4049 01dc 00000000 		.word	HRTIM1_Master_IRQHandler
 4050 01e0 00000000 		.word	HRTIM1_TIMA_IRQHandler
 4051 01e4 00000000 		.word	HRTIM1_TIMB_IRQHandler
 4052 01e8 00000000 		.word	HRTIM1_TIMC_IRQHandler
 4053 01ec 00000000 		.word	HRTIM1_TIMD_IRQHandler
 4054 01f0 00000000 		.word	HRTIM1_TIME_IRQHandler
 4055 01f4 00000000 		.word	HRTIM1_FLT_IRQHandler
 4056 01f8 00000000 		.word	DFSDM1_FLT0_IRQHandler
 4057 01fc 00000000 		.word	DFSDM1_FLT1_IRQHandler
 4058 0200 00000000 		.word	DFSDM1_FLT2_IRQHandler
 4059 0204 00000000 		.word	DFSDM1_FLT3_IRQHandler
 4060 0208 00000000 		.word	SAI3_IRQHandler
 4061 020c 00000000 		.word	SWPMI1_IRQHandler
 4062 0210 00000000 		.word	TIM15_IRQHandler
 4063 0214 00000000 		.word	TIM16_IRQHandler
 4064 0218 00000000 		.word	TIM17_IRQHandler
 4065 021c 00000000 		.word	MDIOS_WKUP_IRQHandler
 4066 0220 00000000 		.word	MDIOS_IRQHandler
 4067 0224 00000000 		.word	JPEG_IRQHandler
 4068 0228 00000000 		.word	MDMA_IRQHandler
ARM GAS  C:\Users\jisu8\AppData\Local\Temp\ccjWHQ5a.s 			page 71


 4069 022c 00000000 		.word	0
 4070 0230 00000000 		.word	SDMMC2_IRQHandler
 4071 0234 00000000 		.word	HSEM1_IRQHandler
 4072 0238 00000000 		.word	0
 4073 023c 00000000 		.word	ADC3_IRQHandler
 4074 0240 00000000 		.word	DMAMUX2_OVR_IRQHandler
 4075 0244 00000000 		.word	BDMA_Channel0_IRQHandler
 4076 0248 00000000 		.word	BDMA_Channel1_IRQHandler
 4077 024c 00000000 		.word	BDMA_Channel2_IRQHandler
 4078 0250 00000000 		.word	BDMA_Channel3_IRQHandler
 4079 0254 00000000 		.word	BDMA_Channel4_IRQHandler
 4080 0258 00000000 		.word	BDMA_Channel5_IRQHandler
 4081 025c 00000000 		.word	BDMA_Channel6_IRQHandler
 4082 0260 00000000 		.word	BDMA_Channel7_IRQHandler
 4083 0264 00000000 		.word	COMP1_IRQHandler
 4084 0268 00000000 		.word	LPTIM2_IRQHandler
 4085 026c 00000000 		.word	LPTIM3_IRQHandler
 4086 0270 00000000 		.word	LPTIM4_IRQHandler
 4087 0274 00000000 		.word	LPTIM5_IRQHandler
 4088 0278 00000000 		.word	LPUART1_IRQHandler
 4089 027c 00000000 		.word	0
 4090 0280 00000000 		.word	CRS_IRQHandler
 4091 0284 00000000 		.word	ECC_IRQHandler
 4092 0288 00000000 		.word	SAI4_IRQHandler
 4093 028c 00000000 		.word	0
 4094 0290 00000000 		.word	0
 4095 0294 00000000 		.word	WAKEUP_PIN_IRQHandler
 4096              		.text
 4097              	.Letext0:
 4098              		.file 2 "d:\\3.tools\\arm_gcc_toolchain\\20_q4_major\\arm-none-eabi\\include\\machine\\_default_ty
 4099              		.file 3 "d:\\3.tools\\arm_gcc_toolchain\\20_q4_major\\arm-none-eabi\\include\\sys\\_stdint.h"
 4100              		.file 4 "Drivers/CMSIS/Device/ST/STM32H7xx/Include/stm32h743xx.h"
 4101              		.file 5 "Drivers/STM32H7xx_HAL_Driver/Inc/stm32h7xx_hal_def.h"
 4102              		.file 6 "Drivers/STM32H7xx_HAL_Driver/Inc/stm32h7xx_hal_dma.h"
 4103              		.file 7 "Drivers/STM32H7xx_HAL_Driver/Inc/stm32h7xx_hal_tim.h"
 4104              		.file 8 "Core/Inc/main.h"
 4105              		.file 9 "Drivers/STM32H7xx_HAL_Driver/Inc/stm32h7xx_hal.h"
 4106              		.file 10 "Drivers/CMSIS/Device/ST/STM32H7xx/Include/system_stm32h7xx.h"
ARM GAS  C:\Users\jisu8\AppData\Local\Temp\ccjWHQ5a.s 			page 72

