ARM GAS  C:\Users\jisu8\AppData\Local\Temp\cc493r1c.s 			page 1


   1              		.cpu cortex-m7
   2              		.arch armv7e-m
   3              		.fpu fpv5-d16
   4              		.eabi_attribute 28, 1
   5              		.eabi_attribute 20, 1
   6              		.eabi_attribute 21, 1
   7              		.eabi_attribute 23, 3
   8              		.eabi_attribute 24, 1
   9              		.eabi_attribute 25, 1
  10              		.eabi_attribute 26, 1
  11              		.eabi_attribute 30, 1
  12              		.eabi_attribute 34, 1
  13              		.eabi_attribute 18, 4
  14              		.file	"startup_stm32h743xx.c"
  15              		.text
  16              	.Ltext0:
  17              		.cfi_sections	.debug_frame
  18              		.section	.text.Reset_Handler,"ax",%progbits
  19              		.align	1
  20              		.global	Reset_Handler
  21              		.syntax unified
  22              		.thumb
  23              		.thumb_func
  25              	Reset_Handler:
  26              	.LFB333:
  27              		.file 1 "startup_stm32h743xx.c"
   1:startup_stm32h743xx.c **** #include "stdint.h"
   2:startup_stm32h743xx.c **** #include "main.h"
   3:startup_stm32h743xx.c **** #include "os.h"
   4:startup_stm32h743xx.c **** 
   5:startup_stm32h743xx.c **** extern uint32_t _sidata;
   6:startup_stm32h743xx.c **** extern uint32_t _sdata;
   7:startup_stm32h743xx.c **** extern uint32_t _edata;
   8:startup_stm32h743xx.c **** extern uint32_t _sbss;
   9:startup_stm32h743xx.c **** extern uint32_t _ebss;
  10:startup_stm32h743xx.c **** extern uint32_t _estack;
  11:startup_stm32h743xx.c **** 
  12:startup_stm32h743xx.c **** extern void __libc_init_array();
  13:startup_stm32h743xx.c **** 
  14:startup_stm32h743xx.c **** void Reset_Handler()
  15:startup_stm32h743xx.c **** {
  28              		.loc 1 15 1 view -0
  29              		.cfi_startproc
  30              		@ args = 0, pretend = 0, frame = 0
  31              		@ frame_needed = 0, uses_anonymous_args = 0
  32 0000 08B5     		push	{r3, lr}
  33              	.LCFI0:
  34              		.cfi_def_cfa_offset 8
  35              		.cfi_offset 3, -8
  36              		.cfi_offset 14, -4
  16:startup_stm32h743xx.c ****     uint32_t *dataInit = &_sidata;
  37              		.loc 1 16 5 view .LVU1
  38              	.LVL0:
  17:startup_stm32h743xx.c ****     uint32_t *data = &_sdata;
  39              		.loc 1 17 5 view .LVU2
  18:startup_stm32h743xx.c ****     while (data < &_edata)
  40              		.loc 1 18 5 view .LVU3
ARM GAS  C:\Users\jisu8\AppData\Local\Temp\cc493r1c.s 			page 2


  17:startup_stm32h743xx.c ****     uint32_t *data = &_sdata;
  41              		.loc 1 17 15 is_stmt 0 view .LVU4
  42 0002 0C4B     		ldr	r3, .L8
  16:startup_stm32h743xx.c ****     uint32_t *dataInit = &_sidata;
  43              		.loc 1 16 15 view .LVU5
  44 0004 0C4A     		ldr	r2, .L8+4
  45              		.loc 1 18 11 view .LVU6
  46 0006 03E0     		b	.L2
  47              	.LVL1:
  48              	.L3:
  19:startup_stm32h743xx.c ****     {
  20:startup_stm32h743xx.c ****         *data++ = *dataInit++;
  49              		.loc 1 20 9 is_stmt 1 view .LVU7
  50              		.loc 1 20 19 is_stmt 0 view .LVU8
  51 0008 52F8041B 		ldr	r1, [r2], #4
  52              	.LVL2:
  53              		.loc 1 20 17 view .LVU9
  54 000c 43F8041B 		str	r1, [r3], #4
  55              	.LVL3:
  56              	.L2:
  18:startup_stm32h743xx.c ****     while (data < &_edata)
  57              		.loc 1 18 11 is_stmt 1 view .LVU10
  58 0010 0A49     		ldr	r1, .L8+8
  59 0012 8B42     		cmp	r3, r1
  60 0014 F8D3     		bcc	.L3
  21:startup_stm32h743xx.c ****     }
  22:startup_stm32h743xx.c **** 
  23:startup_stm32h743xx.c ****     uint32_t *bss = &_sbss;
  61              		.loc 1 23 15 is_stmt 0 view .LVU11
  62 0016 0A4B     		ldr	r3, .L8+12
  63              	.LVL4:
  64              		.loc 1 23 15 view .LVU12
  65 0018 02E0     		b	.L4
  66              	.LVL5:
  67              	.L5:
  24:startup_stm32h743xx.c ****     while (bss < &_ebss)
  25:startup_stm32h743xx.c ****     {
  26:startup_stm32h743xx.c ****         *bss++ = 0;
  68              		.loc 1 26 9 is_stmt 1 view .LVU13
  69              		.loc 1 26 16 is_stmt 0 view .LVU14
  70 001a 0022     		movs	r2, #0
  71 001c 43F8042B 		str	r2, [r3], #4
  72              	.LVL6:
  73              	.L4:
  24:startup_stm32h743xx.c ****     while (bss < &_ebss)
  74              		.loc 1 24 11 is_stmt 1 view .LVU15
  75 0020 084A     		ldr	r2, .L8+16
  76 0022 9342     		cmp	r3, r2
  77 0024 F9D3     		bcc	.L5
  27:startup_stm32h743xx.c ****     }
  28:startup_stm32h743xx.c **** 
  29:startup_stm32h743xx.c ****     SystemInit();
  78              		.loc 1 29 5 view .LVU16
  79 0026 FFF7FEFF 		bl	SystemInit
  80              	.LVL7:
  30:startup_stm32h743xx.c ****     __libc_init_array();
  81              		.loc 1 30 5 view .LVU17
ARM GAS  C:\Users\jisu8\AppData\Local\Temp\cc493r1c.s 			page 3


  82 002a FFF7FEFF 		bl	__libc_init_array
  83              	.LVL8:
  31:startup_stm32h743xx.c ****     main();
  84              		.loc 1 31 5 view .LVU18
  85 002e FFF7FEFF 		bl	main
  86              	.LVL9:
  87              	.L6:
  32:startup_stm32h743xx.c **** 
  33:startup_stm32h743xx.c ****     while (1);
  88              		.loc 1 33 5 discriminator 1 view .LVU19
  89              		.loc 1 33 14 discriminator 1 view .LVU20
  90              		.loc 1 33 11 discriminator 1 view .LVU21
  91 0032 FEE7     		b	.L6
  92              	.L9:
  93              		.align	2
  94              	.L8:
  95 0034 00000000 		.word	_sdata
  96 0038 00000000 		.word	_sidata
  97 003c 00000000 		.word	_edata
  98 0040 00000000 		.word	_sbss
  99 0044 00000000 		.word	_ebss
 100              		.cfi_endproc
 101              	.LFE333:
 103              		.section	.text.Default_Handler,"ax",%progbits
 104              		.align	1
 105              		.global	Default_Handler
 106              		.syntax unified
 107              		.thumb
 108              		.thumb_func
 110              	Default_Handler:
 111              	.LFB334:
  34:startup_stm32h743xx.c **** }
  35:startup_stm32h743xx.c **** 
  36:startup_stm32h743xx.c **** void Default_Handler(void) 
  37:startup_stm32h743xx.c **** {
 112              		.loc 1 37 1 view -0
 113              		.cfi_startproc
 114              		@ Volatile: function does not return.
 115              		@ args = 0, pretend = 0, frame = 0
 116              		@ frame_needed = 0, uses_anonymous_args = 0
 117              		@ link register save eliminated.
 118              	.L11:
  38:startup_stm32h743xx.c ****     while (1);
 119              		.loc 1 38 5 discriminator 1 view .LVU23
 120              		.loc 1 38 14 discriminator 1 view .LVU24
 121              		.loc 1 38 11 discriminator 1 view .LVU25
 122 0000 FEE7     		b	.L11
 123              		.cfi_endproc
 124              	.LFE334:
 126              		.section	.text.NMI_Handler,"ax",%progbits
 127              		.align	1
 128              		.weak	NMI_Handler
 129              		.syntax unified
 130              		.thumb
 131              		.thumb_func
 133              	NMI_Handler:
 134              	.LFB339:
ARM GAS  C:\Users\jisu8\AppData\Local\Temp\cc493r1c.s 			page 4


  39:startup_stm32h743xx.c **** }
  40:startup_stm32h743xx.c **** 
  41:startup_stm32h743xx.c **** void TIM15_Handler(void)
  42:startup_stm32h743xx.c **** {
  43:startup_stm32h743xx.c ****     HAL_TIM_IRQHandler(&htim15);
  44:startup_stm32h743xx.c **** }
  45:startup_stm32h743xx.c **** 
  46:startup_stm32h743xx.c **** void TIM16_Handler(void)
  47:startup_stm32h743xx.c **** {
  48:startup_stm32h743xx.c ****     HAL_TIM_IRQHandler(&htim16);
  49:startup_stm32h743xx.c **** }
  50:startup_stm32h743xx.c **** 
  51:startup_stm32h743xx.c **** void TIM17_Handler(void)
  52:startup_stm32h743xx.c **** {
  53:startup_stm32h743xx.c ****     HAL_TIM_IRQHandler(&htim17);
  54:startup_stm32h743xx.c **** }
  55:startup_stm32h743xx.c **** 
  56:startup_stm32h743xx.c **** void SystemTick_Handler(void)
  57:startup_stm32h743xx.c **** {
  58:startup_stm32h743xx.c ****     /* USER CODE BEGIN SysTick_IRQn 0 */
  59:startup_stm32h743xx.c **** 
  60:startup_stm32h743xx.c ****     /* USER CODE END SysTick_IRQn 0 */
  61:startup_stm32h743xx.c ****     HAL_IncTick();
  62:startup_stm32h743xx.c ****     /* USER CODE BEGIN SysTick_IRQn 1 */
  63:startup_stm32h743xx.c ****     //Os_Handler();
  64:startup_stm32h743xx.c ****     /* USER CODE END SysTick_IRQn 1 */
  65:startup_stm32h743xx.c **** }
  66:startup_stm32h743xx.c **** __weak void NMI_Handler(void)                                             {Default_Handler();}
 135              		.loc 1 66 75 view -0
 136              		.cfi_startproc
 137              		@ args = 0, pretend = 0, frame = 0
 138              		@ frame_needed = 0, uses_anonymous_args = 0
 139 0000 08B5     		push	{r3, lr}
 140              	.LCFI1:
 141              		.cfi_def_cfa_offset 8
 142              		.cfi_offset 3, -8
 143              		.cfi_offset 14, -4
 144              		.loc 1 66 76 view .LVU27
 145 0002 FFF7FEFF 		bl	Default_Handler
 146              	.LVL10:
 147              		.cfi_endproc
 148              	.LFE339:
 150              		.section	.text.HardFault_Handler,"ax",%progbits
 151              		.align	1
 152              		.weak	HardFault_Handler
 153              		.syntax unified
 154              		.thumb
 155              		.thumb_func
 157              	HardFault_Handler:
 158              	.LFB340:
  67:startup_stm32h743xx.c **** __weak void HardFault_Handler(void)                                       {Default_Handler();}
 159              		.loc 1 67 75 view -0
 160              		.cfi_startproc
 161              		@ args = 0, pretend = 0, frame = 0
 162              		@ frame_needed = 0, uses_anonymous_args = 0
 163 0000 08B5     		push	{r3, lr}
 164              	.LCFI2:
ARM GAS  C:\Users\jisu8\AppData\Local\Temp\cc493r1c.s 			page 5


 165              		.cfi_def_cfa_offset 8
 166              		.cfi_offset 3, -8
 167              		.cfi_offset 14, -4
 168              		.loc 1 67 76 view .LVU29
 169 0002 FFF7FEFF 		bl	Default_Handler
 170              	.LVL11:
 171              		.cfi_endproc
 172              	.LFE340:
 174              		.section	.text.MemManage_Handler,"ax",%progbits
 175              		.align	1
 176              		.weak	MemManage_Handler
 177              		.syntax unified
 178              		.thumb
 179              		.thumb_func
 181              	MemManage_Handler:
 182              	.LFB341:
  68:startup_stm32h743xx.c **** __weak void MemManage_Handler(void)                                       {Default_Handler();}
 183              		.loc 1 68 75 view -0
 184              		.cfi_startproc
 185              		@ args = 0, pretend = 0, frame = 0
 186              		@ frame_needed = 0, uses_anonymous_args = 0
 187 0000 08B5     		push	{r3, lr}
 188              	.LCFI3:
 189              		.cfi_def_cfa_offset 8
 190              		.cfi_offset 3, -8
 191              		.cfi_offset 14, -4
 192              		.loc 1 68 76 view .LVU31
 193 0002 FFF7FEFF 		bl	Default_Handler
 194              	.LVL12:
 195              		.cfi_endproc
 196              	.LFE341:
 198              		.section	.text.BusFault_Handler,"ax",%progbits
 199              		.align	1
 200              		.weak	BusFault_Handler
 201              		.syntax unified
 202              		.thumb
 203              		.thumb_func
 205              	BusFault_Handler:
 206              	.LFB342:
  69:startup_stm32h743xx.c **** __weak void BusFault_Handler(void)                                        {Default_Handler();}
 207              		.loc 1 69 75 view -0
 208              		.cfi_startproc
 209              		@ args = 0, pretend = 0, frame = 0
 210              		@ frame_needed = 0, uses_anonymous_args = 0
 211 0000 08B5     		push	{r3, lr}
 212              	.LCFI4:
 213              		.cfi_def_cfa_offset 8
 214              		.cfi_offset 3, -8
 215              		.cfi_offset 14, -4
 216              		.loc 1 69 76 view .LVU33
 217 0002 FFF7FEFF 		bl	Default_Handler
 218              	.LVL13:
 219              		.cfi_endproc
 220              	.LFE342:
 222              		.section	.text.UsageFault_Handler,"ax",%progbits
 223              		.align	1
 224              		.weak	UsageFault_Handler
ARM GAS  C:\Users\jisu8\AppData\Local\Temp\cc493r1c.s 			page 6


 225              		.syntax unified
 226              		.thumb
 227              		.thumb_func
 229              	UsageFault_Handler:
 230              	.LFB343:
  70:startup_stm32h743xx.c **** __weak void UsageFault_Handler(void)                                      {Default_Handler();}
 231              		.loc 1 70 75 view -0
 232              		.cfi_startproc
 233              		@ args = 0, pretend = 0, frame = 0
 234              		@ frame_needed = 0, uses_anonymous_args = 0
 235 0000 08B5     		push	{r3, lr}
 236              	.LCFI5:
 237              		.cfi_def_cfa_offset 8
 238              		.cfi_offset 3, -8
 239              		.cfi_offset 14, -4
 240              		.loc 1 70 76 view .LVU35
 241 0002 FFF7FEFF 		bl	Default_Handler
 242              	.LVL14:
 243              		.cfi_endproc
 244              	.LFE343:
 246              		.section	.text.SVC_Handler,"ax",%progbits
 247              		.align	1
 248              		.weak	SVC_Handler
 249              		.syntax unified
 250              		.thumb
 251              		.thumb_func
 253              	SVC_Handler:
 254              	.LFB344:
  71:startup_stm32h743xx.c **** __weak void SVC_Handler(void)                                             {Default_Handler();}
 255              		.loc 1 71 75 view -0
 256              		.cfi_startproc
 257              		@ args = 0, pretend = 0, frame = 0
 258              		@ frame_needed = 0, uses_anonymous_args = 0
 259 0000 08B5     		push	{r3, lr}
 260              	.LCFI6:
 261              		.cfi_def_cfa_offset 8
 262              		.cfi_offset 3, -8
 263              		.cfi_offset 14, -4
 264              		.loc 1 71 76 view .LVU37
 265 0002 FFF7FEFF 		bl	Default_Handler
 266              	.LVL15:
 267              		.cfi_endproc
 268              	.LFE344:
 270              		.section	.text.DebugMon_Handler,"ax",%progbits
 271              		.align	1
 272              		.weak	DebugMon_Handler
 273              		.syntax unified
 274              		.thumb
 275              		.thumb_func
 277              	DebugMon_Handler:
 278              	.LFB345:
  72:startup_stm32h743xx.c **** __weak void DebugMon_Handler(void)                                        {Default_Handler();}
 279              		.loc 1 72 75 view -0
 280              		.cfi_startproc
 281              		@ args = 0, pretend = 0, frame = 0
 282              		@ frame_needed = 0, uses_anonymous_args = 0
 283 0000 08B5     		push	{r3, lr}
ARM GAS  C:\Users\jisu8\AppData\Local\Temp\cc493r1c.s 			page 7


 284              	.LCFI7:
 285              		.cfi_def_cfa_offset 8
 286              		.cfi_offset 3, -8
 287              		.cfi_offset 14, -4
 288              		.loc 1 72 76 view .LVU39
 289 0002 FFF7FEFF 		bl	Default_Handler
 290              	.LVL16:
 291              		.cfi_endproc
 292              	.LFE345:
 294              		.section	.text.PendSV_Handler,"ax",%progbits
 295              		.align	1
 296              		.weak	PendSV_Handler
 297              		.syntax unified
 298              		.thumb
 299              		.thumb_func
 301              	PendSV_Handler:
 302              	.LFB346:
  73:startup_stm32h743xx.c **** __weak void PendSV_Handler(void)                                          {Default_Handler();}
 303              		.loc 1 73 75 view -0
 304              		.cfi_startproc
 305              		@ args = 0, pretend = 0, frame = 0
 306              		@ frame_needed = 0, uses_anonymous_args = 0
 307 0000 08B5     		push	{r3, lr}
 308              	.LCFI8:
 309              		.cfi_def_cfa_offset 8
 310              		.cfi_offset 3, -8
 311              		.cfi_offset 14, -4
 312              		.loc 1 73 76 view .LVU41
 313 0002 FFF7FEFF 		bl	Default_Handler
 314              	.LVL17:
 315              		.cfi_endproc
 316              	.LFE346:
 318              		.section	.text.WWDG_IRQHandler,"ax",%progbits
 319              		.align	1
 320              		.weak	WWDG_IRQHandler
 321              		.syntax unified
 322              		.thumb
 323              		.thumb_func
 325              	WWDG_IRQHandler:
 326              	.LFB348:
  74:startup_stm32h743xx.c **** __weak void SysTick_Handler(void)                                         {SystemTick_Handler();}
  75:startup_stm32h743xx.c **** __weak void WWDG_IRQHandler(void)                                         {Default_Handler();}
 327              		.loc 1 75 75 view -0
 328              		.cfi_startproc
 329              		@ args = 0, pretend = 0, frame = 0
 330              		@ frame_needed = 0, uses_anonymous_args = 0
 331 0000 08B5     		push	{r3, lr}
 332              	.LCFI9:
 333              		.cfi_def_cfa_offset 8
 334              		.cfi_offset 3, -8
 335              		.cfi_offset 14, -4
 336              		.loc 1 75 76 view .LVU43
 337 0002 FFF7FEFF 		bl	Default_Handler
 338              	.LVL18:
 339              		.cfi_endproc
 340              	.LFE348:
 342              		.section	.text.PVD_AVD_IRQHandler,"ax",%progbits
ARM GAS  C:\Users\jisu8\AppData\Local\Temp\cc493r1c.s 			page 8


 343              		.align	1
 344              		.weak	PVD_AVD_IRQHandler
 345              		.syntax unified
 346              		.thumb
 347              		.thumb_func
 349              	PVD_AVD_IRQHandler:
 350              	.LFB349:
  76:startup_stm32h743xx.c **** __weak void PVD_AVD_IRQHandler(void)                                      {Default_Handler();}
 351              		.loc 1 76 75 view -0
 352              		.cfi_startproc
 353              		@ args = 0, pretend = 0, frame = 0
 354              		@ frame_needed = 0, uses_anonymous_args = 0
 355 0000 08B5     		push	{r3, lr}
 356              	.LCFI10:
 357              		.cfi_def_cfa_offset 8
 358              		.cfi_offset 3, -8
 359              		.cfi_offset 14, -4
 360              		.loc 1 76 76 view .LVU45
 361 0002 FFF7FEFF 		bl	Default_Handler
 362              	.LVL19:
 363              		.cfi_endproc
 364              	.LFE349:
 366              		.section	.text.TAMP_STAMP_IRQHandler,"ax",%progbits
 367              		.align	1
 368              		.weak	TAMP_STAMP_IRQHandler
 369              		.syntax unified
 370              		.thumb
 371              		.thumb_func
 373              	TAMP_STAMP_IRQHandler:
 374              	.LFB350:
  77:startup_stm32h743xx.c **** __weak void TAMP_STAMP_IRQHandler(void)                                   {Default_Handler();}
 375              		.loc 1 77 75 view -0
 376              		.cfi_startproc
 377              		@ args = 0, pretend = 0, frame = 0
 378              		@ frame_needed = 0, uses_anonymous_args = 0
 379 0000 08B5     		push	{r3, lr}
 380              	.LCFI11:
 381              		.cfi_def_cfa_offset 8
 382              		.cfi_offset 3, -8
 383              		.cfi_offset 14, -4
 384              		.loc 1 77 76 view .LVU47
 385 0002 FFF7FEFF 		bl	Default_Handler
 386              	.LVL20:
 387              		.cfi_endproc
 388              	.LFE350:
 390              		.section	.text.RTC_WKUP_IRQHandler,"ax",%progbits
 391              		.align	1
 392              		.weak	RTC_WKUP_IRQHandler
 393              		.syntax unified
 394              		.thumb
 395              		.thumb_func
 397              	RTC_WKUP_IRQHandler:
 398              	.LFB351:
  78:startup_stm32h743xx.c **** __weak void RTC_WKUP_IRQHandler(void)                                     {Default_Handler();}
 399              		.loc 1 78 75 view -0
 400              		.cfi_startproc
 401              		@ args = 0, pretend = 0, frame = 0
ARM GAS  C:\Users\jisu8\AppData\Local\Temp\cc493r1c.s 			page 9


 402              		@ frame_needed = 0, uses_anonymous_args = 0
 403 0000 08B5     		push	{r3, lr}
 404              	.LCFI12:
 405              		.cfi_def_cfa_offset 8
 406              		.cfi_offset 3, -8
 407              		.cfi_offset 14, -4
 408              		.loc 1 78 76 view .LVU49
 409 0002 FFF7FEFF 		bl	Default_Handler
 410              	.LVL21:
 411              		.cfi_endproc
 412              	.LFE351:
 414              		.section	.text.FLASH_IRQHandler,"ax",%progbits
 415              		.align	1
 416              		.weak	FLASH_IRQHandler
 417              		.syntax unified
 418              		.thumb
 419              		.thumb_func
 421              	FLASH_IRQHandler:
 422              	.LFB352:
  79:startup_stm32h743xx.c **** __weak void FLASH_IRQHandler(void)                                        {Default_Handler();}
 423              		.loc 1 79 75 view -0
 424              		.cfi_startproc
 425              		@ args = 0, pretend = 0, frame = 0
 426              		@ frame_needed = 0, uses_anonymous_args = 0
 427 0000 08B5     		push	{r3, lr}
 428              	.LCFI13:
 429              		.cfi_def_cfa_offset 8
 430              		.cfi_offset 3, -8
 431              		.cfi_offset 14, -4
 432              		.loc 1 79 76 view .LVU51
 433 0002 FFF7FEFF 		bl	Default_Handler
 434              	.LVL22:
 435              		.cfi_endproc
 436              	.LFE352:
 438              		.section	.text.RCC_IRQHandler,"ax",%progbits
 439              		.align	1
 440              		.weak	RCC_IRQHandler
 441              		.syntax unified
 442              		.thumb
 443              		.thumb_func
 445              	RCC_IRQHandler:
 446              	.LFB353:
  80:startup_stm32h743xx.c **** __weak void RCC_IRQHandler(void)                                          {Default_Handler();}
 447              		.loc 1 80 75 view -0
 448              		.cfi_startproc
 449              		@ args = 0, pretend = 0, frame = 0
 450              		@ frame_needed = 0, uses_anonymous_args = 0
 451 0000 08B5     		push	{r3, lr}
 452              	.LCFI14:
 453              		.cfi_def_cfa_offset 8
 454              		.cfi_offset 3, -8
 455              		.cfi_offset 14, -4
 456              		.loc 1 80 76 view .LVU53
 457 0002 FFF7FEFF 		bl	Default_Handler
 458              	.LVL23:
 459              		.cfi_endproc
 460              	.LFE353:
ARM GAS  C:\Users\jisu8\AppData\Local\Temp\cc493r1c.s 			page 10


 462              		.section	.text.EXTI0_IRQHandler,"ax",%progbits
 463              		.align	1
 464              		.weak	EXTI0_IRQHandler
 465              		.syntax unified
 466              		.thumb
 467              		.thumb_func
 469              	EXTI0_IRQHandler:
 470              	.LFB354:
  81:startup_stm32h743xx.c **** __weak void EXTI0_IRQHandler(void)                                        {Default_Handler();}
 471              		.loc 1 81 75 view -0
 472              		.cfi_startproc
 473              		@ args = 0, pretend = 0, frame = 0
 474              		@ frame_needed = 0, uses_anonymous_args = 0
 475 0000 08B5     		push	{r3, lr}
 476              	.LCFI15:
 477              		.cfi_def_cfa_offset 8
 478              		.cfi_offset 3, -8
 479              		.cfi_offset 14, -4
 480              		.loc 1 81 76 view .LVU55
 481 0002 FFF7FEFF 		bl	Default_Handler
 482              	.LVL24:
 483              		.cfi_endproc
 484              	.LFE354:
 486              		.section	.text.EXTI1_IRQHandler,"ax",%progbits
 487              		.align	1
 488              		.weak	EXTI1_IRQHandler
 489              		.syntax unified
 490              		.thumb
 491              		.thumb_func
 493              	EXTI1_IRQHandler:
 494              	.LFB355:
  82:startup_stm32h743xx.c **** __weak void EXTI1_IRQHandler(void)                                        {Default_Handler();}
 495              		.loc 1 82 75 view -0
 496              		.cfi_startproc
 497              		@ args = 0, pretend = 0, frame = 0
 498              		@ frame_needed = 0, uses_anonymous_args = 0
 499 0000 08B5     		push	{r3, lr}
 500              	.LCFI16:
 501              		.cfi_def_cfa_offset 8
 502              		.cfi_offset 3, -8
 503              		.cfi_offset 14, -4
 504              		.loc 1 82 76 view .LVU57
 505 0002 FFF7FEFF 		bl	Default_Handler
 506              	.LVL25:
 507              		.cfi_endproc
 508              	.LFE355:
 510              		.section	.text.EXTI2_IRQHandler,"ax",%progbits
 511              		.align	1
 512              		.weak	EXTI2_IRQHandler
 513              		.syntax unified
 514              		.thumb
 515              		.thumb_func
 517              	EXTI2_IRQHandler:
 518              	.LFB356:
  83:startup_stm32h743xx.c **** __weak void EXTI2_IRQHandler(void)                                        {Default_Handler();}
 519              		.loc 1 83 75 view -0
 520              		.cfi_startproc
ARM GAS  C:\Users\jisu8\AppData\Local\Temp\cc493r1c.s 			page 11


 521              		@ args = 0, pretend = 0, frame = 0
 522              		@ frame_needed = 0, uses_anonymous_args = 0
 523 0000 08B5     		push	{r3, lr}
 524              	.LCFI17:
 525              		.cfi_def_cfa_offset 8
 526              		.cfi_offset 3, -8
 527              		.cfi_offset 14, -4
 528              		.loc 1 83 76 view .LVU59
 529 0002 FFF7FEFF 		bl	Default_Handler
 530              	.LVL26:
 531              		.cfi_endproc
 532              	.LFE356:
 534              		.section	.text.EXTI3_IRQHandler,"ax",%progbits
 535              		.align	1
 536              		.weak	EXTI3_IRQHandler
 537              		.syntax unified
 538              		.thumb
 539              		.thumb_func
 541              	EXTI3_IRQHandler:
 542              	.LFB357:
  84:startup_stm32h743xx.c **** __weak void EXTI3_IRQHandler(void)                                        {Default_Handler();}
 543              		.loc 1 84 75 view -0
 544              		.cfi_startproc
 545              		@ args = 0, pretend = 0, frame = 0
 546              		@ frame_needed = 0, uses_anonymous_args = 0
 547 0000 08B5     		push	{r3, lr}
 548              	.LCFI18:
 549              		.cfi_def_cfa_offset 8
 550              		.cfi_offset 3, -8
 551              		.cfi_offset 14, -4
 552              		.loc 1 84 76 view .LVU61
 553 0002 FFF7FEFF 		bl	Default_Handler
 554              	.LVL27:
 555              		.cfi_endproc
 556              	.LFE357:
 558              		.section	.text.EXTI4_IRQHandler,"ax",%progbits
 559              		.align	1
 560              		.weak	EXTI4_IRQHandler
 561              		.syntax unified
 562              		.thumb
 563              		.thumb_func
 565              	EXTI4_IRQHandler:
 566              	.LFB358:
  85:startup_stm32h743xx.c **** __weak void EXTI4_IRQHandler(void)                                        {Default_Handler();}
 567              		.loc 1 85 75 view -0
 568              		.cfi_startproc
 569              		@ args = 0, pretend = 0, frame = 0
 570              		@ frame_needed = 0, uses_anonymous_args = 0
 571 0000 08B5     		push	{r3, lr}
 572              	.LCFI19:
 573              		.cfi_def_cfa_offset 8
 574              		.cfi_offset 3, -8
 575              		.cfi_offset 14, -4
 576              		.loc 1 85 76 view .LVU63
 577 0002 FFF7FEFF 		bl	Default_Handler
 578              	.LVL28:
 579              		.cfi_endproc
ARM GAS  C:\Users\jisu8\AppData\Local\Temp\cc493r1c.s 			page 12


 580              	.LFE358:
 582              		.section	.text.DMA1_Stream0_IRQHandler,"ax",%progbits
 583              		.align	1
 584              		.weak	DMA1_Stream0_IRQHandler
 585              		.syntax unified
 586              		.thumb
 587              		.thumb_func
 589              	DMA1_Stream0_IRQHandler:
 590              	.LFB359:
  86:startup_stm32h743xx.c **** __weak void DMA1_Stream0_IRQHandler(void)                                 {Default_Handler();}
 591              		.loc 1 86 75 view -0
 592              		.cfi_startproc
 593              		@ args = 0, pretend = 0, frame = 0
 594              		@ frame_needed = 0, uses_anonymous_args = 0
 595 0000 08B5     		push	{r3, lr}
 596              	.LCFI20:
 597              		.cfi_def_cfa_offset 8
 598              		.cfi_offset 3, -8
 599              		.cfi_offset 14, -4
 600              		.loc 1 86 76 view .LVU65
 601 0002 FFF7FEFF 		bl	Default_Handler
 602              	.LVL29:
 603              		.cfi_endproc
 604              	.LFE359:
 606              		.section	.text.DMA1_Stream1_IRQHandler,"ax",%progbits
 607              		.align	1
 608              		.weak	DMA1_Stream1_IRQHandler
 609              		.syntax unified
 610              		.thumb
 611              		.thumb_func
 613              	DMA1_Stream1_IRQHandler:
 614              	.LFB360:
  87:startup_stm32h743xx.c **** __weak void DMA1_Stream1_IRQHandler(void)                                 {Default_Handler();}
 615              		.loc 1 87 75 view -0
 616              		.cfi_startproc
 617              		@ args = 0, pretend = 0, frame = 0
 618              		@ frame_needed = 0, uses_anonymous_args = 0
 619 0000 08B5     		push	{r3, lr}
 620              	.LCFI21:
 621              		.cfi_def_cfa_offset 8
 622              		.cfi_offset 3, -8
 623              		.cfi_offset 14, -4
 624              		.loc 1 87 76 view .LVU67
 625 0002 FFF7FEFF 		bl	Default_Handler
 626              	.LVL30:
 627              		.cfi_endproc
 628              	.LFE360:
 630              		.section	.text.DMA1_Stream2_IRQHandler,"ax",%progbits
 631              		.align	1
 632              		.weak	DMA1_Stream2_IRQHandler
 633              		.syntax unified
 634              		.thumb
 635              		.thumb_func
 637              	DMA1_Stream2_IRQHandler:
 638              	.LFB361:
  88:startup_stm32h743xx.c **** __weak void DMA1_Stream2_IRQHandler(void)                                 {Default_Handler();}
 639              		.loc 1 88 75 view -0
ARM GAS  C:\Users\jisu8\AppData\Local\Temp\cc493r1c.s 			page 13


 640              		.cfi_startproc
 641              		@ args = 0, pretend = 0, frame = 0
 642              		@ frame_needed = 0, uses_anonymous_args = 0
 643 0000 08B5     		push	{r3, lr}
 644              	.LCFI22:
 645              		.cfi_def_cfa_offset 8
 646              		.cfi_offset 3, -8
 647              		.cfi_offset 14, -4
 648              		.loc 1 88 76 view .LVU69
 649 0002 FFF7FEFF 		bl	Default_Handler
 650              	.LVL31:
 651              		.cfi_endproc
 652              	.LFE361:
 654              		.section	.text.DMA1_Stream3_IRQHandler,"ax",%progbits
 655              		.align	1
 656              		.weak	DMA1_Stream3_IRQHandler
 657              		.syntax unified
 658              		.thumb
 659              		.thumb_func
 661              	DMA1_Stream3_IRQHandler:
 662              	.LFB362:
  89:startup_stm32h743xx.c **** __weak void DMA1_Stream3_IRQHandler(void)                                 {Default_Handler();}
 663              		.loc 1 89 75 view -0
 664              		.cfi_startproc
 665              		@ args = 0, pretend = 0, frame = 0
 666              		@ frame_needed = 0, uses_anonymous_args = 0
 667 0000 08B5     		push	{r3, lr}
 668              	.LCFI23:
 669              		.cfi_def_cfa_offset 8
 670              		.cfi_offset 3, -8
 671              		.cfi_offset 14, -4
 672              		.loc 1 89 76 view .LVU71
 673 0002 FFF7FEFF 		bl	Default_Handler
 674              	.LVL32:
 675              		.cfi_endproc
 676              	.LFE362:
 678              		.section	.text.DMA1_Stream4_IRQHandler,"ax",%progbits
 679              		.align	1
 680              		.weak	DMA1_Stream4_IRQHandler
 681              		.syntax unified
 682              		.thumb
 683              		.thumb_func
 685              	DMA1_Stream4_IRQHandler:
 686              	.LFB363:
  90:startup_stm32h743xx.c **** __weak void DMA1_Stream4_IRQHandler(void)                                 {Default_Handler();}
 687              		.loc 1 90 75 view -0
 688              		.cfi_startproc
 689              		@ args = 0, pretend = 0, frame = 0
 690              		@ frame_needed = 0, uses_anonymous_args = 0
 691 0000 08B5     		push	{r3, lr}
 692              	.LCFI24:
 693              		.cfi_def_cfa_offset 8
 694              		.cfi_offset 3, -8
 695              		.cfi_offset 14, -4
 696              		.loc 1 90 76 view .LVU73
 697 0002 FFF7FEFF 		bl	Default_Handler
 698              	.LVL33:
ARM GAS  C:\Users\jisu8\AppData\Local\Temp\cc493r1c.s 			page 14


 699              		.cfi_endproc
 700              	.LFE363:
 702              		.section	.text.DMA1_Stream5_IRQHandler,"ax",%progbits
 703              		.align	1
 704              		.weak	DMA1_Stream5_IRQHandler
 705              		.syntax unified
 706              		.thumb
 707              		.thumb_func
 709              	DMA1_Stream5_IRQHandler:
 710              	.LFB364:
  91:startup_stm32h743xx.c **** __weak void DMA1_Stream5_IRQHandler(void)                                 {Default_Handler();}
 711              		.loc 1 91 75 view -0
 712              		.cfi_startproc
 713              		@ args = 0, pretend = 0, frame = 0
 714              		@ frame_needed = 0, uses_anonymous_args = 0
 715 0000 08B5     		push	{r3, lr}
 716              	.LCFI25:
 717              		.cfi_def_cfa_offset 8
 718              		.cfi_offset 3, -8
 719              		.cfi_offset 14, -4
 720              		.loc 1 91 76 view .LVU75
 721 0002 FFF7FEFF 		bl	Default_Handler
 722              	.LVL34:
 723              		.cfi_endproc
 724              	.LFE364:
 726              		.section	.text.DMA1_Stream6_IRQHandler,"ax",%progbits
 727              		.align	1
 728              		.weak	DMA1_Stream6_IRQHandler
 729              		.syntax unified
 730              		.thumb
 731              		.thumb_func
 733              	DMA1_Stream6_IRQHandler:
 734              	.LFB365:
  92:startup_stm32h743xx.c **** __weak void DMA1_Stream6_IRQHandler(void)                                 {Default_Handler();}
 735              		.loc 1 92 75 view -0
 736              		.cfi_startproc
 737              		@ args = 0, pretend = 0, frame = 0
 738              		@ frame_needed = 0, uses_anonymous_args = 0
 739 0000 08B5     		push	{r3, lr}
 740              	.LCFI26:
 741              		.cfi_def_cfa_offset 8
 742              		.cfi_offset 3, -8
 743              		.cfi_offset 14, -4
 744              		.loc 1 92 76 view .LVU77
 745 0002 FFF7FEFF 		bl	Default_Handler
 746              	.LVL35:
 747              		.cfi_endproc
 748              	.LFE365:
 750              		.section	.text.ADC_IRQHandler,"ax",%progbits
 751              		.align	1
 752              		.weak	ADC_IRQHandler
 753              		.syntax unified
 754              		.thumb
 755              		.thumb_func
 757              	ADC_IRQHandler:
 758              	.LFB366:
  93:startup_stm32h743xx.c **** __weak void ADC_IRQHandler(void)                                          {Default_Handler();}
ARM GAS  C:\Users\jisu8\AppData\Local\Temp\cc493r1c.s 			page 15


 759              		.loc 1 93 75 view -0
 760              		.cfi_startproc
 761              		@ args = 0, pretend = 0, frame = 0
 762              		@ frame_needed = 0, uses_anonymous_args = 0
 763 0000 08B5     		push	{r3, lr}
 764              	.LCFI27:
 765              		.cfi_def_cfa_offset 8
 766              		.cfi_offset 3, -8
 767              		.cfi_offset 14, -4
 768              		.loc 1 93 76 view .LVU79
 769 0002 FFF7FEFF 		bl	Default_Handler
 770              	.LVL36:
 771              		.cfi_endproc
 772              	.LFE366:
 774              		.section	.text.FDCAN1_IT0_IRQHandler,"ax",%progbits
 775              		.align	1
 776              		.weak	FDCAN1_IT0_IRQHandler
 777              		.syntax unified
 778              		.thumb
 779              		.thumb_func
 781              	FDCAN1_IT0_IRQHandler:
 782              	.LFB367:
  94:startup_stm32h743xx.c **** __weak void FDCAN1_IT0_IRQHandler(void)                                   {Default_Handler();}
 783              		.loc 1 94 75 view -0
 784              		.cfi_startproc
 785              		@ args = 0, pretend = 0, frame = 0
 786              		@ frame_needed = 0, uses_anonymous_args = 0
 787 0000 08B5     		push	{r3, lr}
 788              	.LCFI28:
 789              		.cfi_def_cfa_offset 8
 790              		.cfi_offset 3, -8
 791              		.cfi_offset 14, -4
 792              		.loc 1 94 76 view .LVU81
 793 0002 FFF7FEFF 		bl	Default_Handler
 794              	.LVL37:
 795              		.cfi_endproc
 796              	.LFE367:
 798              		.section	.text.FDCAN2_IT0_IRQHandler,"ax",%progbits
 799              		.align	1
 800              		.weak	FDCAN2_IT0_IRQHandler
 801              		.syntax unified
 802              		.thumb
 803              		.thumb_func
 805              	FDCAN2_IT0_IRQHandler:
 806              	.LFB368:
  95:startup_stm32h743xx.c **** __weak void FDCAN2_IT0_IRQHandler(void)                                   {Default_Handler();}
 807              		.loc 1 95 75 view -0
 808              		.cfi_startproc
 809              		@ args = 0, pretend = 0, frame = 0
 810              		@ frame_needed = 0, uses_anonymous_args = 0
 811 0000 08B5     		push	{r3, lr}
 812              	.LCFI29:
 813              		.cfi_def_cfa_offset 8
 814              		.cfi_offset 3, -8
 815              		.cfi_offset 14, -4
 816              		.loc 1 95 76 view .LVU83
 817 0002 FFF7FEFF 		bl	Default_Handler
ARM GAS  C:\Users\jisu8\AppData\Local\Temp\cc493r1c.s 			page 16


 818              	.LVL38:
 819              		.cfi_endproc
 820              	.LFE368:
 822              		.section	.text.FDCAN1_IT1_IRQHandler,"ax",%progbits
 823              		.align	1
 824              		.weak	FDCAN1_IT1_IRQHandler
 825              		.syntax unified
 826              		.thumb
 827              		.thumb_func
 829              	FDCAN1_IT1_IRQHandler:
 830              	.LFB369:
  96:startup_stm32h743xx.c **** __weak void FDCAN1_IT1_IRQHandler(void)                                   {Default_Handler();}
 831              		.loc 1 96 75 view -0
 832              		.cfi_startproc
 833              		@ args = 0, pretend = 0, frame = 0
 834              		@ frame_needed = 0, uses_anonymous_args = 0
 835 0000 08B5     		push	{r3, lr}
 836              	.LCFI30:
 837              		.cfi_def_cfa_offset 8
 838              		.cfi_offset 3, -8
 839              		.cfi_offset 14, -4
 840              		.loc 1 96 76 view .LVU85
 841 0002 FFF7FEFF 		bl	Default_Handler
 842              	.LVL39:
 843              		.cfi_endproc
 844              	.LFE369:
 846              		.section	.text.FDCAN2_IT1_IRQHandler,"ax",%progbits
 847              		.align	1
 848              		.weak	FDCAN2_IT1_IRQHandler
 849              		.syntax unified
 850              		.thumb
 851              		.thumb_func
 853              	FDCAN2_IT1_IRQHandler:
 854              	.LFB370:
  97:startup_stm32h743xx.c **** __weak void FDCAN2_IT1_IRQHandler(void)                                   {Default_Handler();}
 855              		.loc 1 97 75 view -0
 856              		.cfi_startproc
 857              		@ args = 0, pretend = 0, frame = 0
 858              		@ frame_needed = 0, uses_anonymous_args = 0
 859 0000 08B5     		push	{r3, lr}
 860              	.LCFI31:
 861              		.cfi_def_cfa_offset 8
 862              		.cfi_offset 3, -8
 863              		.cfi_offset 14, -4
 864              		.loc 1 97 76 view .LVU87
 865 0002 FFF7FEFF 		bl	Default_Handler
 866              	.LVL40:
 867              		.cfi_endproc
 868              	.LFE370:
 870              		.section	.text.EXTI9_5_IRQHandler,"ax",%progbits
 871              		.align	1
 872              		.weak	EXTI9_5_IRQHandler
 873              		.syntax unified
 874              		.thumb
 875              		.thumb_func
 877              	EXTI9_5_IRQHandler:
 878              	.LFB371:
ARM GAS  C:\Users\jisu8\AppData\Local\Temp\cc493r1c.s 			page 17


  98:startup_stm32h743xx.c **** __weak void EXTI9_5_IRQHandler(void)                                      {Default_Handler();}
 879              		.loc 1 98 75 view -0
 880              		.cfi_startproc
 881              		@ args = 0, pretend = 0, frame = 0
 882              		@ frame_needed = 0, uses_anonymous_args = 0
 883 0000 08B5     		push	{r3, lr}
 884              	.LCFI32:
 885              		.cfi_def_cfa_offset 8
 886              		.cfi_offset 3, -8
 887              		.cfi_offset 14, -4
 888              		.loc 1 98 76 view .LVU89
 889 0002 FFF7FEFF 		bl	Default_Handler
 890              	.LVL41:
 891              		.cfi_endproc
 892              	.LFE371:
 894              		.section	.text.TIM1_BRK_IRQHandler,"ax",%progbits
 895              		.align	1
 896              		.weak	TIM1_BRK_IRQHandler
 897              		.syntax unified
 898              		.thumb
 899              		.thumb_func
 901              	TIM1_BRK_IRQHandler:
 902              	.LFB372:
  99:startup_stm32h743xx.c **** __weak void TIM1_BRK_IRQHandler(void)                                     {Default_Handler();}
 903              		.loc 1 99 75 view -0
 904              		.cfi_startproc
 905              		@ args = 0, pretend = 0, frame = 0
 906              		@ frame_needed = 0, uses_anonymous_args = 0
 907 0000 08B5     		push	{r3, lr}
 908              	.LCFI33:
 909              		.cfi_def_cfa_offset 8
 910              		.cfi_offset 3, -8
 911              		.cfi_offset 14, -4
 912              		.loc 1 99 76 view .LVU91
 913 0002 FFF7FEFF 		bl	Default_Handler
 914              	.LVL42:
 915              		.cfi_endproc
 916              	.LFE372:
 918              		.section	.text.TIM1_UP_IRQHandler,"ax",%progbits
 919              		.align	1
 920              		.weak	TIM1_UP_IRQHandler
 921              		.syntax unified
 922              		.thumb
 923              		.thumb_func
 925              	TIM1_UP_IRQHandler:
 926              	.LFB373:
 100:startup_stm32h743xx.c **** __weak void TIM1_UP_IRQHandler(void)                                      {Default_Handler();}
 927              		.loc 1 100 75 view -0
 928              		.cfi_startproc
 929              		@ args = 0, pretend = 0, frame = 0
 930              		@ frame_needed = 0, uses_anonymous_args = 0
 931 0000 08B5     		push	{r3, lr}
 932              	.LCFI34:
 933              		.cfi_def_cfa_offset 8
 934              		.cfi_offset 3, -8
 935              		.cfi_offset 14, -4
 936              		.loc 1 100 76 view .LVU93
ARM GAS  C:\Users\jisu8\AppData\Local\Temp\cc493r1c.s 			page 18


 937 0002 FFF7FEFF 		bl	Default_Handler
 938              	.LVL43:
 939              		.cfi_endproc
 940              	.LFE373:
 942              		.section	.text.TIM1_TRG_COM_IRQHandler,"ax",%progbits
 943              		.align	1
 944              		.weak	TIM1_TRG_COM_IRQHandler
 945              		.syntax unified
 946              		.thumb
 947              		.thumb_func
 949              	TIM1_TRG_COM_IRQHandler:
 950              	.LFB374:
 101:startup_stm32h743xx.c **** __weak void TIM1_TRG_COM_IRQHandler(void)                                 {Default_Handler();}
 951              		.loc 1 101 75 view -0
 952              		.cfi_startproc
 953              		@ args = 0, pretend = 0, frame = 0
 954              		@ frame_needed = 0, uses_anonymous_args = 0
 955 0000 08B5     		push	{r3, lr}
 956              	.LCFI35:
 957              		.cfi_def_cfa_offset 8
 958              		.cfi_offset 3, -8
 959              		.cfi_offset 14, -4
 960              		.loc 1 101 76 view .LVU95
 961 0002 FFF7FEFF 		bl	Default_Handler
 962              	.LVL44:
 963              		.cfi_endproc
 964              	.LFE374:
 966              		.section	.text.TIM1_CC_IRQHandler,"ax",%progbits
 967              		.align	1
 968              		.weak	TIM1_CC_IRQHandler
 969              		.syntax unified
 970              		.thumb
 971              		.thumb_func
 973              	TIM1_CC_IRQHandler:
 974              	.LFB375:
 102:startup_stm32h743xx.c **** __weak void TIM1_CC_IRQHandler(void)                                      {Default_Handler();}
 975              		.loc 1 102 75 view -0
 976              		.cfi_startproc
 977              		@ args = 0, pretend = 0, frame = 0
 978              		@ frame_needed = 0, uses_anonymous_args = 0
 979 0000 08B5     		push	{r3, lr}
 980              	.LCFI36:
 981              		.cfi_def_cfa_offset 8
 982              		.cfi_offset 3, -8
 983              		.cfi_offset 14, -4
 984              		.loc 1 102 76 view .LVU97
 985 0002 FFF7FEFF 		bl	Default_Handler
 986              	.LVL45:
 987              		.cfi_endproc
 988              	.LFE375:
 990              		.section	.text.TIM2_IRQHandler,"ax",%progbits
 991              		.align	1
 992              		.weak	TIM2_IRQHandler
 993              		.syntax unified
 994              		.thumb
 995              		.thumb_func
 997              	TIM2_IRQHandler:
ARM GAS  C:\Users\jisu8\AppData\Local\Temp\cc493r1c.s 			page 19


 998              	.LFB376:
 103:startup_stm32h743xx.c **** __weak void TIM2_IRQHandler(void)                                         {Default_Handler();}
 999              		.loc 1 103 75 view -0
 1000              		.cfi_startproc
 1001              		@ args = 0, pretend = 0, frame = 0
 1002              		@ frame_needed = 0, uses_anonymous_args = 0
 1003 0000 08B5     		push	{r3, lr}
 1004              	.LCFI37:
 1005              		.cfi_def_cfa_offset 8
 1006              		.cfi_offset 3, -8
 1007              		.cfi_offset 14, -4
 1008              		.loc 1 103 76 view .LVU99
 1009 0002 FFF7FEFF 		bl	Default_Handler
 1010              	.LVL46:
 1011              		.cfi_endproc
 1012              	.LFE376:
 1014              		.section	.text.TIM3_IRQHandler,"ax",%progbits
 1015              		.align	1
 1016              		.weak	TIM3_IRQHandler
 1017              		.syntax unified
 1018              		.thumb
 1019              		.thumb_func
 1021              	TIM3_IRQHandler:
 1022              	.LFB377:
 104:startup_stm32h743xx.c **** __weak void TIM3_IRQHandler(void)                                         {Default_Handler();}
 1023              		.loc 1 104 75 view -0
 1024              		.cfi_startproc
 1025              		@ args = 0, pretend = 0, frame = 0
 1026              		@ frame_needed = 0, uses_anonymous_args = 0
 1027 0000 08B5     		push	{r3, lr}
 1028              	.LCFI38:
 1029              		.cfi_def_cfa_offset 8
 1030              		.cfi_offset 3, -8
 1031              		.cfi_offset 14, -4
 1032              		.loc 1 104 76 view .LVU101
 1033 0002 FFF7FEFF 		bl	Default_Handler
 1034              	.LVL47:
 1035              		.cfi_endproc
 1036              	.LFE377:
 1038              		.section	.text.TIM4_IRQHandler,"ax",%progbits
 1039              		.align	1
 1040              		.weak	TIM4_IRQHandler
 1041              		.syntax unified
 1042              		.thumb
 1043              		.thumb_func
 1045              	TIM4_IRQHandler:
 1046              	.LFB378:
 105:startup_stm32h743xx.c **** __weak void TIM4_IRQHandler(void)                                         {Default_Handler();}
 1047              		.loc 1 105 75 view -0
 1048              		.cfi_startproc
 1049              		@ args = 0, pretend = 0, frame = 0
 1050              		@ frame_needed = 0, uses_anonymous_args = 0
 1051 0000 08B5     		push	{r3, lr}
 1052              	.LCFI39:
 1053              		.cfi_def_cfa_offset 8
 1054              		.cfi_offset 3, -8
 1055              		.cfi_offset 14, -4
ARM GAS  C:\Users\jisu8\AppData\Local\Temp\cc493r1c.s 			page 20


 1056              		.loc 1 105 76 view .LVU103
 1057 0002 FFF7FEFF 		bl	Default_Handler
 1058              	.LVL48:
 1059              		.cfi_endproc
 1060              	.LFE378:
 1062              		.section	.text.I2C1_EV_IRQHandler,"ax",%progbits
 1063              		.align	1
 1064              		.weak	I2C1_EV_IRQHandler
 1065              		.syntax unified
 1066              		.thumb
 1067              		.thumb_func
 1069              	I2C1_EV_IRQHandler:
 1070              	.LFB379:
 106:startup_stm32h743xx.c **** __weak void I2C1_EV_IRQHandler(void)                                      {Default_Handler();}
 1071              		.loc 1 106 75 view -0
 1072              		.cfi_startproc
 1073              		@ args = 0, pretend = 0, frame = 0
 1074              		@ frame_needed = 0, uses_anonymous_args = 0
 1075 0000 08B5     		push	{r3, lr}
 1076              	.LCFI40:
 1077              		.cfi_def_cfa_offset 8
 1078              		.cfi_offset 3, -8
 1079              		.cfi_offset 14, -4
 1080              		.loc 1 106 76 view .LVU105
 1081 0002 FFF7FEFF 		bl	Default_Handler
 1082              	.LVL49:
 1083              		.cfi_endproc
 1084              	.LFE379:
 1086              		.section	.text.I2C1_ER_IRQHandler,"ax",%progbits
 1087              		.align	1
 1088              		.weak	I2C1_ER_IRQHandler
 1089              		.syntax unified
 1090              		.thumb
 1091              		.thumb_func
 1093              	I2C1_ER_IRQHandler:
 1094              	.LFB380:
 107:startup_stm32h743xx.c **** __weak void I2C1_ER_IRQHandler(void)                                      {Default_Handler();}
 1095              		.loc 1 107 75 view -0
 1096              		.cfi_startproc
 1097              		@ args = 0, pretend = 0, frame = 0
 1098              		@ frame_needed = 0, uses_anonymous_args = 0
 1099 0000 08B5     		push	{r3, lr}
 1100              	.LCFI41:
 1101              		.cfi_def_cfa_offset 8
 1102              		.cfi_offset 3, -8
 1103              		.cfi_offset 14, -4
 1104              		.loc 1 107 76 view .LVU107
 1105 0002 FFF7FEFF 		bl	Default_Handler
 1106              	.LVL50:
 1107              		.cfi_endproc
 1108              	.LFE380:
 1110              		.section	.text.I2C2_EV_IRQHandler,"ax",%progbits
 1111              		.align	1
 1112              		.weak	I2C2_EV_IRQHandler
 1113              		.syntax unified
 1114              		.thumb
 1115              		.thumb_func
ARM GAS  C:\Users\jisu8\AppData\Local\Temp\cc493r1c.s 			page 21


 1117              	I2C2_EV_IRQHandler:
 1118              	.LFB381:
 108:startup_stm32h743xx.c **** __weak void I2C2_EV_IRQHandler(void)                                      {Default_Handler();}
 1119              		.loc 1 108 75 view -0
 1120              		.cfi_startproc
 1121              		@ args = 0, pretend = 0, frame = 0
 1122              		@ frame_needed = 0, uses_anonymous_args = 0
 1123 0000 08B5     		push	{r3, lr}
 1124              	.LCFI42:
 1125              		.cfi_def_cfa_offset 8
 1126              		.cfi_offset 3, -8
 1127              		.cfi_offset 14, -4
 1128              		.loc 1 108 76 view .LVU109
 1129 0002 FFF7FEFF 		bl	Default_Handler
 1130              	.LVL51:
 1131              		.cfi_endproc
 1132              	.LFE381:
 1134              		.section	.text.I2C2_ER_IRQHandler,"ax",%progbits
 1135              		.align	1
 1136              		.weak	I2C2_ER_IRQHandler
 1137              		.syntax unified
 1138              		.thumb
 1139              		.thumb_func
 1141              	I2C2_ER_IRQHandler:
 1142              	.LFB382:
 109:startup_stm32h743xx.c **** __weak void I2C2_ER_IRQHandler(void)                                      {Default_Handler();}
 1143              		.loc 1 109 75 view -0
 1144              		.cfi_startproc
 1145              		@ args = 0, pretend = 0, frame = 0
 1146              		@ frame_needed = 0, uses_anonymous_args = 0
 1147 0000 08B5     		push	{r3, lr}
 1148              	.LCFI43:
 1149              		.cfi_def_cfa_offset 8
 1150              		.cfi_offset 3, -8
 1151              		.cfi_offset 14, -4
 1152              		.loc 1 109 76 view .LVU111
 1153 0002 FFF7FEFF 		bl	Default_Handler
 1154              	.LVL52:
 1155              		.cfi_endproc
 1156              	.LFE382:
 1158              		.section	.text.SPI1_IRQHandler,"ax",%progbits
 1159              		.align	1
 1160              		.weak	SPI1_IRQHandler
 1161              		.syntax unified
 1162              		.thumb
 1163              		.thumb_func
 1165              	SPI1_IRQHandler:
 1166              	.LFB383:
 110:startup_stm32h743xx.c **** __weak void SPI1_IRQHandler(void)                                         {Default_Handler();}
 1167              		.loc 1 110 75 view -0
 1168              		.cfi_startproc
 1169              		@ args = 0, pretend = 0, frame = 0
 1170              		@ frame_needed = 0, uses_anonymous_args = 0
 1171 0000 08B5     		push	{r3, lr}
 1172              	.LCFI44:
 1173              		.cfi_def_cfa_offset 8
 1174              		.cfi_offset 3, -8
ARM GAS  C:\Users\jisu8\AppData\Local\Temp\cc493r1c.s 			page 22


 1175              		.cfi_offset 14, -4
 1176              		.loc 1 110 76 view .LVU113
 1177 0002 FFF7FEFF 		bl	Default_Handler
 1178              	.LVL53:
 1179              		.cfi_endproc
 1180              	.LFE383:
 1182              		.section	.text.SPI2_IRQHandler,"ax",%progbits
 1183              		.align	1
 1184              		.weak	SPI2_IRQHandler
 1185              		.syntax unified
 1186              		.thumb
 1187              		.thumb_func
 1189              	SPI2_IRQHandler:
 1190              	.LFB384:
 111:startup_stm32h743xx.c **** __weak void SPI2_IRQHandler(void)                                         {Default_Handler();}
 1191              		.loc 1 111 75 view -0
 1192              		.cfi_startproc
 1193              		@ args = 0, pretend = 0, frame = 0
 1194              		@ frame_needed = 0, uses_anonymous_args = 0
 1195 0000 08B5     		push	{r3, lr}
 1196              	.LCFI45:
 1197              		.cfi_def_cfa_offset 8
 1198              		.cfi_offset 3, -8
 1199              		.cfi_offset 14, -4
 1200              		.loc 1 111 76 view .LVU115
 1201 0002 FFF7FEFF 		bl	Default_Handler
 1202              	.LVL54:
 1203              		.cfi_endproc
 1204              	.LFE384:
 1206              		.section	.text.USART1_IRQHandler,"ax",%progbits
 1207              		.align	1
 1208              		.weak	USART1_IRQHandler
 1209              		.syntax unified
 1210              		.thumb
 1211              		.thumb_func
 1213              	USART1_IRQHandler:
 1214              	.LFB385:
 112:startup_stm32h743xx.c **** __weak void USART1_IRQHandler(void)                                       {Default_Handler();}
 1215              		.loc 1 112 75 view -0
 1216              		.cfi_startproc
 1217              		@ args = 0, pretend = 0, frame = 0
 1218              		@ frame_needed = 0, uses_anonymous_args = 0
 1219 0000 08B5     		push	{r3, lr}
 1220              	.LCFI46:
 1221              		.cfi_def_cfa_offset 8
 1222              		.cfi_offset 3, -8
 1223              		.cfi_offset 14, -4
 1224              		.loc 1 112 76 view .LVU117
 1225 0002 FFF7FEFF 		bl	Default_Handler
 1226              	.LVL55:
 1227              		.cfi_endproc
 1228              	.LFE385:
 1230              		.section	.text.USART2_IRQHandler,"ax",%progbits
 1231              		.align	1
 1232              		.weak	USART2_IRQHandler
 1233              		.syntax unified
 1234              		.thumb
ARM GAS  C:\Users\jisu8\AppData\Local\Temp\cc493r1c.s 			page 23


 1235              		.thumb_func
 1237              	USART2_IRQHandler:
 1238              	.LFB386:
 113:startup_stm32h743xx.c **** __weak void USART2_IRQHandler(void)                                       {Default_Handler();}
 1239              		.loc 1 113 75 view -0
 1240              		.cfi_startproc
 1241              		@ args = 0, pretend = 0, frame = 0
 1242              		@ frame_needed = 0, uses_anonymous_args = 0
 1243 0000 08B5     		push	{r3, lr}
 1244              	.LCFI47:
 1245              		.cfi_def_cfa_offset 8
 1246              		.cfi_offset 3, -8
 1247              		.cfi_offset 14, -4
 1248              		.loc 1 113 76 view .LVU119
 1249 0002 FFF7FEFF 		bl	Default_Handler
 1250              	.LVL56:
 1251              		.cfi_endproc
 1252              	.LFE386:
 1254              		.section	.text.USART3_IRQHandler,"ax",%progbits
 1255              		.align	1
 1256              		.weak	USART3_IRQHandler
 1257              		.syntax unified
 1258              		.thumb
 1259              		.thumb_func
 1261              	USART3_IRQHandler:
 1262              	.LFB387:
 114:startup_stm32h743xx.c **** __weak void USART3_IRQHandler(void)                                       {Default_Handler();}
 1263              		.loc 1 114 75 view -0
 1264              		.cfi_startproc
 1265              		@ args = 0, pretend = 0, frame = 0
 1266              		@ frame_needed = 0, uses_anonymous_args = 0
 1267 0000 08B5     		push	{r3, lr}
 1268              	.LCFI48:
 1269              		.cfi_def_cfa_offset 8
 1270              		.cfi_offset 3, -8
 1271              		.cfi_offset 14, -4
 1272              		.loc 1 114 76 view .LVU121
 1273 0002 FFF7FEFF 		bl	Default_Handler
 1274              	.LVL57:
 1275              		.cfi_endproc
 1276              	.LFE387:
 1278              		.section	.text.EXTI15_10_IRQHandler,"ax",%progbits
 1279              		.align	1
 1280              		.weak	EXTI15_10_IRQHandler
 1281              		.syntax unified
 1282              		.thumb
 1283              		.thumb_func
 1285              	EXTI15_10_IRQHandler:
 1286              	.LFB388:
 115:startup_stm32h743xx.c **** __weak void EXTI15_10_IRQHandler(void)                                    {Default_Handler();}
 1287              		.loc 1 115 75 view -0
 1288              		.cfi_startproc
 1289              		@ args = 0, pretend = 0, frame = 0
 1290              		@ frame_needed = 0, uses_anonymous_args = 0
 1291 0000 08B5     		push	{r3, lr}
 1292              	.LCFI49:
 1293              		.cfi_def_cfa_offset 8
ARM GAS  C:\Users\jisu8\AppData\Local\Temp\cc493r1c.s 			page 24


 1294              		.cfi_offset 3, -8
 1295              		.cfi_offset 14, -4
 1296              		.loc 1 115 76 view .LVU123
 1297 0002 FFF7FEFF 		bl	Default_Handler
 1298              	.LVL58:
 1299              		.cfi_endproc
 1300              	.LFE388:
 1302              		.section	.text.RTC_Alarm_IRQHandler,"ax",%progbits
 1303              		.align	1
 1304              		.weak	RTC_Alarm_IRQHandler
 1305              		.syntax unified
 1306              		.thumb
 1307              		.thumb_func
 1309              	RTC_Alarm_IRQHandler:
 1310              	.LFB389:
 116:startup_stm32h743xx.c **** __weak void RTC_Alarm_IRQHandler(void)                                    {Default_Handler();}
 1311              		.loc 1 116 75 view -0
 1312              		.cfi_startproc
 1313              		@ args = 0, pretend = 0, frame = 0
 1314              		@ frame_needed = 0, uses_anonymous_args = 0
 1315 0000 08B5     		push	{r3, lr}
 1316              	.LCFI50:
 1317              		.cfi_def_cfa_offset 8
 1318              		.cfi_offset 3, -8
 1319              		.cfi_offset 14, -4
 1320              		.loc 1 116 76 view .LVU125
 1321 0002 FFF7FEFF 		bl	Default_Handler
 1322              	.LVL59:
 1323              		.cfi_endproc
 1324              	.LFE389:
 1326              		.section	.text.TIM8_BRK_TIM12_IRQHandler,"ax",%progbits
 1327              		.align	1
 1328              		.weak	TIM8_BRK_TIM12_IRQHandler
 1329              		.syntax unified
 1330              		.thumb
 1331              		.thumb_func
 1333              	TIM8_BRK_TIM12_IRQHandler:
 1334              	.LFB390:
 117:startup_stm32h743xx.c **** __weak void TIM8_BRK_TIM12_IRQHandler(void)                               {Default_Handler();}
 1335              		.loc 1 117 75 view -0
 1336              		.cfi_startproc
 1337              		@ args = 0, pretend = 0, frame = 0
 1338              		@ frame_needed = 0, uses_anonymous_args = 0
 1339 0000 08B5     		push	{r3, lr}
 1340              	.LCFI51:
 1341              		.cfi_def_cfa_offset 8
 1342              		.cfi_offset 3, -8
 1343              		.cfi_offset 14, -4
 1344              		.loc 1 117 76 view .LVU127
 1345 0002 FFF7FEFF 		bl	Default_Handler
 1346              	.LVL60:
 1347              		.cfi_endproc
 1348              	.LFE390:
 1350              		.section	.text.TIM8_UP_TIM13_IRQHandler,"ax",%progbits
 1351              		.align	1
 1352              		.weak	TIM8_UP_TIM13_IRQHandler
 1353              		.syntax unified
ARM GAS  C:\Users\jisu8\AppData\Local\Temp\cc493r1c.s 			page 25


 1354              		.thumb
 1355              		.thumb_func
 1357              	TIM8_UP_TIM13_IRQHandler:
 1358              	.LFB391:
 118:startup_stm32h743xx.c **** __weak void TIM8_UP_TIM13_IRQHandler(void)                                {Default_Handler();}
 1359              		.loc 1 118 75 view -0
 1360              		.cfi_startproc
 1361              		@ args = 0, pretend = 0, frame = 0
 1362              		@ frame_needed = 0, uses_anonymous_args = 0
 1363 0000 08B5     		push	{r3, lr}
 1364              	.LCFI52:
 1365              		.cfi_def_cfa_offset 8
 1366              		.cfi_offset 3, -8
 1367              		.cfi_offset 14, -4
 1368              		.loc 1 118 76 view .LVU129
 1369 0002 FFF7FEFF 		bl	Default_Handler
 1370              	.LVL61:
 1371              		.cfi_endproc
 1372              	.LFE391:
 1374              		.section	.text.TIM8_TRG_COM_TIM14_IRQHandler,"ax",%progbits
 1375              		.align	1
 1376              		.weak	TIM8_TRG_COM_TIM14_IRQHandler
 1377              		.syntax unified
 1378              		.thumb
 1379              		.thumb_func
 1381              	TIM8_TRG_COM_TIM14_IRQHandler:
 1382              	.LFB392:
 119:startup_stm32h743xx.c **** __weak void TIM8_TRG_COM_TIM14_IRQHandler(void)                           {Default_Handler();}
 1383              		.loc 1 119 75 view -0
 1384              		.cfi_startproc
 1385              		@ args = 0, pretend = 0, frame = 0
 1386              		@ frame_needed = 0, uses_anonymous_args = 0
 1387 0000 08B5     		push	{r3, lr}
 1388              	.LCFI53:
 1389              		.cfi_def_cfa_offset 8
 1390              		.cfi_offset 3, -8
 1391              		.cfi_offset 14, -4
 1392              		.loc 1 119 76 view .LVU131
 1393 0002 FFF7FEFF 		bl	Default_Handler
 1394              	.LVL62:
 1395              		.cfi_endproc
 1396              	.LFE392:
 1398              		.section	.text.TIM8_CC_IRQHandler,"ax",%progbits
 1399              		.align	1
 1400              		.weak	TIM8_CC_IRQHandler
 1401              		.syntax unified
 1402              		.thumb
 1403              		.thumb_func
 1405              	TIM8_CC_IRQHandler:
 1406              	.LFB393:
 120:startup_stm32h743xx.c **** __weak void TIM8_CC_IRQHandler(void)                                      {Default_Handler();}
 1407              		.loc 1 120 75 view -0
 1408              		.cfi_startproc
 1409              		@ args = 0, pretend = 0, frame = 0
 1410              		@ frame_needed = 0, uses_anonymous_args = 0
 1411 0000 08B5     		push	{r3, lr}
 1412              	.LCFI54:
ARM GAS  C:\Users\jisu8\AppData\Local\Temp\cc493r1c.s 			page 26


 1413              		.cfi_def_cfa_offset 8
 1414              		.cfi_offset 3, -8
 1415              		.cfi_offset 14, -4
 1416              		.loc 1 120 76 view .LVU133
 1417 0002 FFF7FEFF 		bl	Default_Handler
 1418              	.LVL63:
 1419              		.cfi_endproc
 1420              	.LFE393:
 1422              		.section	.text.DMA1_Stream7_IRQHandler,"ax",%progbits
 1423              		.align	1
 1424              		.weak	DMA1_Stream7_IRQHandler
 1425              		.syntax unified
 1426              		.thumb
 1427              		.thumb_func
 1429              	DMA1_Stream7_IRQHandler:
 1430              	.LFB394:
 121:startup_stm32h743xx.c **** __weak void DMA1_Stream7_IRQHandler(void)                                 {Default_Handler();}
 1431              		.loc 1 121 75 view -0
 1432              		.cfi_startproc
 1433              		@ args = 0, pretend = 0, frame = 0
 1434              		@ frame_needed = 0, uses_anonymous_args = 0
 1435 0000 08B5     		push	{r3, lr}
 1436              	.LCFI55:
 1437              		.cfi_def_cfa_offset 8
 1438              		.cfi_offset 3, -8
 1439              		.cfi_offset 14, -4
 1440              		.loc 1 121 76 view .LVU135
 1441 0002 FFF7FEFF 		bl	Default_Handler
 1442              	.LVL64:
 1443              		.cfi_endproc
 1444              	.LFE394:
 1446              		.section	.text.FMC_IRQHandler,"ax",%progbits
 1447              		.align	1
 1448              		.weak	FMC_IRQHandler
 1449              		.syntax unified
 1450              		.thumb
 1451              		.thumb_func
 1453              	FMC_IRQHandler:
 1454              	.LFB395:
 122:startup_stm32h743xx.c **** __weak void FMC_IRQHandler(void)                                          {Default_Handler();}
 1455              		.loc 1 122 75 view -0
 1456              		.cfi_startproc
 1457              		@ args = 0, pretend = 0, frame = 0
 1458              		@ frame_needed = 0, uses_anonymous_args = 0
 1459 0000 08B5     		push	{r3, lr}
 1460              	.LCFI56:
 1461              		.cfi_def_cfa_offset 8
 1462              		.cfi_offset 3, -8
 1463              		.cfi_offset 14, -4
 1464              		.loc 1 122 76 view .LVU137
 1465 0002 FFF7FEFF 		bl	Default_Handler
 1466              	.LVL65:
 1467              		.cfi_endproc
 1468              	.LFE395:
 1470              		.section	.text.SDMMC1_IRQHandler,"ax",%progbits
 1471              		.align	1
 1472              		.weak	SDMMC1_IRQHandler
ARM GAS  C:\Users\jisu8\AppData\Local\Temp\cc493r1c.s 			page 27


 1473              		.syntax unified
 1474              		.thumb
 1475              		.thumb_func
 1477              	SDMMC1_IRQHandler:
 1478              	.LFB396:
 123:startup_stm32h743xx.c **** __weak void SDMMC1_IRQHandler(void)                                       {Default_Handler();}
 1479              		.loc 1 123 75 view -0
 1480              		.cfi_startproc
 1481              		@ args = 0, pretend = 0, frame = 0
 1482              		@ frame_needed = 0, uses_anonymous_args = 0
 1483 0000 08B5     		push	{r3, lr}
 1484              	.LCFI57:
 1485              		.cfi_def_cfa_offset 8
 1486              		.cfi_offset 3, -8
 1487              		.cfi_offset 14, -4
 1488              		.loc 1 123 76 view .LVU139
 1489 0002 FFF7FEFF 		bl	Default_Handler
 1490              	.LVL66:
 1491              		.cfi_endproc
 1492              	.LFE396:
 1494              		.section	.text.TIM5_IRQHandler,"ax",%progbits
 1495              		.align	1
 1496              		.weak	TIM5_IRQHandler
 1497              		.syntax unified
 1498              		.thumb
 1499              		.thumb_func
 1501              	TIM5_IRQHandler:
 1502              	.LFB397:
 124:startup_stm32h743xx.c **** __weak void TIM5_IRQHandler(void)                                         {Default_Handler();}
 1503              		.loc 1 124 75 view -0
 1504              		.cfi_startproc
 1505              		@ args = 0, pretend = 0, frame = 0
 1506              		@ frame_needed = 0, uses_anonymous_args = 0
 1507 0000 08B5     		push	{r3, lr}
 1508              	.LCFI58:
 1509              		.cfi_def_cfa_offset 8
 1510              		.cfi_offset 3, -8
 1511              		.cfi_offset 14, -4
 1512              		.loc 1 124 76 view .LVU141
 1513 0002 FFF7FEFF 		bl	Default_Handler
 1514              	.LVL67:
 1515              		.cfi_endproc
 1516              	.LFE397:
 1518              		.section	.text.SPI3_IRQHandler,"ax",%progbits
 1519              		.align	1
 1520              		.weak	SPI3_IRQHandler
 1521              		.syntax unified
 1522              		.thumb
 1523              		.thumb_func
 1525              	SPI3_IRQHandler:
 1526              	.LFB398:
 125:startup_stm32h743xx.c **** __weak void SPI3_IRQHandler(void)                                         {Default_Handler();}
 1527              		.loc 1 125 75 view -0
 1528              		.cfi_startproc
 1529              		@ args = 0, pretend = 0, frame = 0
 1530              		@ frame_needed = 0, uses_anonymous_args = 0
 1531 0000 08B5     		push	{r3, lr}
ARM GAS  C:\Users\jisu8\AppData\Local\Temp\cc493r1c.s 			page 28


 1532              	.LCFI59:
 1533              		.cfi_def_cfa_offset 8
 1534              		.cfi_offset 3, -8
 1535              		.cfi_offset 14, -4
 1536              		.loc 1 125 76 view .LVU143
 1537 0002 FFF7FEFF 		bl	Default_Handler
 1538              	.LVL68:
 1539              		.cfi_endproc
 1540              	.LFE398:
 1542              		.section	.text.UART4_IRQHandler,"ax",%progbits
 1543              		.align	1
 1544              		.weak	UART4_IRQHandler
 1545              		.syntax unified
 1546              		.thumb
 1547              		.thumb_func
 1549              	UART4_IRQHandler:
 1550              	.LFB399:
 126:startup_stm32h743xx.c **** __weak void UART4_IRQHandler(void)                                        {Default_Handler();}
 1551              		.loc 1 126 75 view -0
 1552              		.cfi_startproc
 1553              		@ args = 0, pretend = 0, frame = 0
 1554              		@ frame_needed = 0, uses_anonymous_args = 0
 1555 0000 08B5     		push	{r3, lr}
 1556              	.LCFI60:
 1557              		.cfi_def_cfa_offset 8
 1558              		.cfi_offset 3, -8
 1559              		.cfi_offset 14, -4
 1560              		.loc 1 126 76 view .LVU145
 1561 0002 FFF7FEFF 		bl	Default_Handler
 1562              	.LVL69:
 1563              		.cfi_endproc
 1564              	.LFE399:
 1566              		.section	.text.UART5_IRQHandler,"ax",%progbits
 1567              		.align	1
 1568              		.weak	UART5_IRQHandler
 1569              		.syntax unified
 1570              		.thumb
 1571              		.thumb_func
 1573              	UART5_IRQHandler:
 1574              	.LFB400:
 127:startup_stm32h743xx.c **** __weak void UART5_IRQHandler(void)                                        {Default_Handler();}
 1575              		.loc 1 127 75 view -0
 1576              		.cfi_startproc
 1577              		@ args = 0, pretend = 0, frame = 0
 1578              		@ frame_needed = 0, uses_anonymous_args = 0
 1579 0000 08B5     		push	{r3, lr}
 1580              	.LCFI61:
 1581              		.cfi_def_cfa_offset 8
 1582              		.cfi_offset 3, -8
 1583              		.cfi_offset 14, -4
 1584              		.loc 1 127 76 view .LVU147
 1585 0002 FFF7FEFF 		bl	Default_Handler
 1586              	.LVL70:
 1587              		.cfi_endproc
 1588              	.LFE400:
 1590              		.section	.text.TIM6_DAC_IRQHandler,"ax",%progbits
 1591              		.align	1
ARM GAS  C:\Users\jisu8\AppData\Local\Temp\cc493r1c.s 			page 29


 1592              		.weak	TIM6_DAC_IRQHandler
 1593              		.syntax unified
 1594              		.thumb
 1595              		.thumb_func
 1597              	TIM6_DAC_IRQHandler:
 1598              	.LFB401:
 128:startup_stm32h743xx.c **** __weak void TIM6_DAC_IRQHandler(void)                                     {Default_Handler();}
 1599              		.loc 1 128 75 view -0
 1600              		.cfi_startproc
 1601              		@ args = 0, pretend = 0, frame = 0
 1602              		@ frame_needed = 0, uses_anonymous_args = 0
 1603 0000 08B5     		push	{r3, lr}
 1604              	.LCFI62:
 1605              		.cfi_def_cfa_offset 8
 1606              		.cfi_offset 3, -8
 1607              		.cfi_offset 14, -4
 1608              		.loc 1 128 76 view .LVU149
 1609 0002 FFF7FEFF 		bl	Default_Handler
 1610              	.LVL71:
 1611              		.cfi_endproc
 1612              	.LFE401:
 1614              		.section	.text.TIM7_IRQHandler,"ax",%progbits
 1615              		.align	1
 1616              		.weak	TIM7_IRQHandler
 1617              		.syntax unified
 1618              		.thumb
 1619              		.thumb_func
 1621              	TIM7_IRQHandler:
 1622              	.LFB402:
 129:startup_stm32h743xx.c **** __weak void TIM7_IRQHandler(void)                                         {Default_Handler();}
 1623              		.loc 1 129 75 view -0
 1624              		.cfi_startproc
 1625              		@ args = 0, pretend = 0, frame = 0
 1626              		@ frame_needed = 0, uses_anonymous_args = 0
 1627 0000 08B5     		push	{r3, lr}
 1628              	.LCFI63:
 1629              		.cfi_def_cfa_offset 8
 1630              		.cfi_offset 3, -8
 1631              		.cfi_offset 14, -4
 1632              		.loc 1 129 76 view .LVU151
 1633 0002 FFF7FEFF 		bl	Default_Handler
 1634              	.LVL72:
 1635              		.cfi_endproc
 1636              	.LFE402:
 1638              		.section	.text.DMA2_Stream0_IRQHandler,"ax",%progbits
 1639              		.align	1
 1640              		.weak	DMA2_Stream0_IRQHandler
 1641              		.syntax unified
 1642              		.thumb
 1643              		.thumb_func
 1645              	DMA2_Stream0_IRQHandler:
 1646              	.LFB403:
 130:startup_stm32h743xx.c **** __weak void DMA2_Stream0_IRQHandler(void)                                 {Default_Handler();}
 1647              		.loc 1 130 75 view -0
 1648              		.cfi_startproc
 1649              		@ args = 0, pretend = 0, frame = 0
 1650              		@ frame_needed = 0, uses_anonymous_args = 0
ARM GAS  C:\Users\jisu8\AppData\Local\Temp\cc493r1c.s 			page 30


 1651 0000 08B5     		push	{r3, lr}
 1652              	.LCFI64:
 1653              		.cfi_def_cfa_offset 8
 1654              		.cfi_offset 3, -8
 1655              		.cfi_offset 14, -4
 1656              		.loc 1 130 76 view .LVU153
 1657 0002 FFF7FEFF 		bl	Default_Handler
 1658              	.LVL73:
 1659              		.cfi_endproc
 1660              	.LFE403:
 1662              		.section	.text.DMA2_Stream1_IRQHandler,"ax",%progbits
 1663              		.align	1
 1664              		.weak	DMA2_Stream1_IRQHandler
 1665              		.syntax unified
 1666              		.thumb
 1667              		.thumb_func
 1669              	DMA2_Stream1_IRQHandler:
 1670              	.LFB404:
 131:startup_stm32h743xx.c **** __weak void DMA2_Stream1_IRQHandler(void)                                 {Default_Handler();}
 1671              		.loc 1 131 75 view -0
 1672              		.cfi_startproc
 1673              		@ args = 0, pretend = 0, frame = 0
 1674              		@ frame_needed = 0, uses_anonymous_args = 0
 1675 0000 08B5     		push	{r3, lr}
 1676              	.LCFI65:
 1677              		.cfi_def_cfa_offset 8
 1678              		.cfi_offset 3, -8
 1679              		.cfi_offset 14, -4
 1680              		.loc 1 131 76 view .LVU155
 1681 0002 FFF7FEFF 		bl	Default_Handler
 1682              	.LVL74:
 1683              		.cfi_endproc
 1684              	.LFE404:
 1686              		.section	.text.DMA2_Stream2_IRQHandler,"ax",%progbits
 1687              		.align	1
 1688              		.weak	DMA2_Stream2_IRQHandler
 1689              		.syntax unified
 1690              		.thumb
 1691              		.thumb_func
 1693              	DMA2_Stream2_IRQHandler:
 1694              	.LFB405:
 132:startup_stm32h743xx.c **** __weak void DMA2_Stream2_IRQHandler(void)                                 {Default_Handler();}
 1695              		.loc 1 132 75 view -0
 1696              		.cfi_startproc
 1697              		@ args = 0, pretend = 0, frame = 0
 1698              		@ frame_needed = 0, uses_anonymous_args = 0
 1699 0000 08B5     		push	{r3, lr}
 1700              	.LCFI66:
 1701              		.cfi_def_cfa_offset 8
 1702              		.cfi_offset 3, -8
 1703              		.cfi_offset 14, -4
 1704              		.loc 1 132 76 view .LVU157
 1705 0002 FFF7FEFF 		bl	Default_Handler
 1706              	.LVL75:
 1707              		.cfi_endproc
 1708              	.LFE405:
 1710              		.section	.text.DMA2_Stream3_IRQHandler,"ax",%progbits
ARM GAS  C:\Users\jisu8\AppData\Local\Temp\cc493r1c.s 			page 31


 1711              		.align	1
 1712              		.weak	DMA2_Stream3_IRQHandler
 1713              		.syntax unified
 1714              		.thumb
 1715              		.thumb_func
 1717              	DMA2_Stream3_IRQHandler:
 1718              	.LFB406:
 133:startup_stm32h743xx.c **** __weak void DMA2_Stream3_IRQHandler(void)                                 {Default_Handler();}
 1719              		.loc 1 133 75 view -0
 1720              		.cfi_startproc
 1721              		@ args = 0, pretend = 0, frame = 0
 1722              		@ frame_needed = 0, uses_anonymous_args = 0
 1723 0000 08B5     		push	{r3, lr}
 1724              	.LCFI67:
 1725              		.cfi_def_cfa_offset 8
 1726              		.cfi_offset 3, -8
 1727              		.cfi_offset 14, -4
 1728              		.loc 1 133 76 view .LVU159
 1729 0002 FFF7FEFF 		bl	Default_Handler
 1730              	.LVL76:
 1731              		.cfi_endproc
 1732              	.LFE406:
 1734              		.section	.text.DMA2_Stream4_IRQHandler,"ax",%progbits
 1735              		.align	1
 1736              		.weak	DMA2_Stream4_IRQHandler
 1737              		.syntax unified
 1738              		.thumb
 1739              		.thumb_func
 1741              	DMA2_Stream4_IRQHandler:
 1742              	.LFB407:
 134:startup_stm32h743xx.c **** __weak void DMA2_Stream4_IRQHandler(void)                                 {Default_Handler();}
 1743              		.loc 1 134 75 view -0
 1744              		.cfi_startproc
 1745              		@ args = 0, pretend = 0, frame = 0
 1746              		@ frame_needed = 0, uses_anonymous_args = 0
 1747 0000 08B5     		push	{r3, lr}
 1748              	.LCFI68:
 1749              		.cfi_def_cfa_offset 8
 1750              		.cfi_offset 3, -8
 1751              		.cfi_offset 14, -4
 1752              		.loc 1 134 76 view .LVU161
 1753 0002 FFF7FEFF 		bl	Default_Handler
 1754              	.LVL77:
 1755              		.cfi_endproc
 1756              	.LFE407:
 1758              		.section	.text.ETH_IRQHandler,"ax",%progbits
 1759              		.align	1
 1760              		.weak	ETH_IRQHandler
 1761              		.syntax unified
 1762              		.thumb
 1763              		.thumb_func
 1765              	ETH_IRQHandler:
 1766              	.LFB408:
 135:startup_stm32h743xx.c **** __weak void ETH_IRQHandler(void)                                          {Default_Handler();}
 1767              		.loc 1 135 75 view -0
 1768              		.cfi_startproc
 1769              		@ args = 0, pretend = 0, frame = 0
ARM GAS  C:\Users\jisu8\AppData\Local\Temp\cc493r1c.s 			page 32


 1770              		@ frame_needed = 0, uses_anonymous_args = 0
 1771 0000 08B5     		push	{r3, lr}
 1772              	.LCFI69:
 1773              		.cfi_def_cfa_offset 8
 1774              		.cfi_offset 3, -8
 1775              		.cfi_offset 14, -4
 1776              		.loc 1 135 76 view .LVU163
 1777 0002 FFF7FEFF 		bl	Default_Handler
 1778              	.LVL78:
 1779              		.cfi_endproc
 1780              	.LFE408:
 1782              		.section	.text.ETH_WKUP_IRQHandler,"ax",%progbits
 1783              		.align	1
 1784              		.weak	ETH_WKUP_IRQHandler
 1785              		.syntax unified
 1786              		.thumb
 1787              		.thumb_func
 1789              	ETH_WKUP_IRQHandler:
 1790              	.LFB409:
 136:startup_stm32h743xx.c **** __weak void ETH_WKUP_IRQHandler(void)                                     {Default_Handler();}
 1791              		.loc 1 136 75 view -0
 1792              		.cfi_startproc
 1793              		@ args = 0, pretend = 0, frame = 0
 1794              		@ frame_needed = 0, uses_anonymous_args = 0
 1795 0000 08B5     		push	{r3, lr}
 1796              	.LCFI70:
 1797              		.cfi_def_cfa_offset 8
 1798              		.cfi_offset 3, -8
 1799              		.cfi_offset 14, -4
 1800              		.loc 1 136 76 view .LVU165
 1801 0002 FFF7FEFF 		bl	Default_Handler
 1802              	.LVL79:
 1803              		.cfi_endproc
 1804              	.LFE409:
 1806              		.section	.text.FDCAN_CAL_IRQHandler,"ax",%progbits
 1807              		.align	1
 1808              		.weak	FDCAN_CAL_IRQHandler
 1809              		.syntax unified
 1810              		.thumb
 1811              		.thumb_func
 1813              	FDCAN_CAL_IRQHandler:
 1814              	.LFB410:
 137:startup_stm32h743xx.c **** __weak void FDCAN_CAL_IRQHandler(void)                                    {Default_Handler();}
 1815              		.loc 1 137 75 view -0
 1816              		.cfi_startproc
 1817              		@ args = 0, pretend = 0, frame = 0
 1818              		@ frame_needed = 0, uses_anonymous_args = 0
 1819 0000 08B5     		push	{r3, lr}
 1820              	.LCFI71:
 1821              		.cfi_def_cfa_offset 8
 1822              		.cfi_offset 3, -8
 1823              		.cfi_offset 14, -4
 1824              		.loc 1 137 76 view .LVU167
 1825 0002 FFF7FEFF 		bl	Default_Handler
 1826              	.LVL80:
 1827              		.cfi_endproc
 1828              	.LFE410:
ARM GAS  C:\Users\jisu8\AppData\Local\Temp\cc493r1c.s 			page 33


 1830              		.section	.text.DMA2_Stream5_IRQHandler,"ax",%progbits
 1831              		.align	1
 1832              		.weak	DMA2_Stream5_IRQHandler
 1833              		.syntax unified
 1834              		.thumb
 1835              		.thumb_func
 1837              	DMA2_Stream5_IRQHandler:
 1838              	.LFB411:
 138:startup_stm32h743xx.c **** __weak void DMA2_Stream5_IRQHandler(void)                                 {Default_Handler();}
 1839              		.loc 1 138 75 view -0
 1840              		.cfi_startproc
 1841              		@ args = 0, pretend = 0, frame = 0
 1842              		@ frame_needed = 0, uses_anonymous_args = 0
 1843 0000 08B5     		push	{r3, lr}
 1844              	.LCFI72:
 1845              		.cfi_def_cfa_offset 8
 1846              		.cfi_offset 3, -8
 1847              		.cfi_offset 14, -4
 1848              		.loc 1 138 76 view .LVU169
 1849 0002 FFF7FEFF 		bl	Default_Handler
 1850              	.LVL81:
 1851              		.cfi_endproc
 1852              	.LFE411:
 1854              		.section	.text.DMA2_Stream6_IRQHandler,"ax",%progbits
 1855              		.align	1
 1856              		.weak	DMA2_Stream6_IRQHandler
 1857              		.syntax unified
 1858              		.thumb
 1859              		.thumb_func
 1861              	DMA2_Stream6_IRQHandler:
 1862              	.LFB412:
 139:startup_stm32h743xx.c **** __weak void DMA2_Stream6_IRQHandler(void)                                 {Default_Handler();}
 1863              		.loc 1 139 75 view -0
 1864              		.cfi_startproc
 1865              		@ args = 0, pretend = 0, frame = 0
 1866              		@ frame_needed = 0, uses_anonymous_args = 0
 1867 0000 08B5     		push	{r3, lr}
 1868              	.LCFI73:
 1869              		.cfi_def_cfa_offset 8
 1870              		.cfi_offset 3, -8
 1871              		.cfi_offset 14, -4
 1872              		.loc 1 139 76 view .LVU171
 1873 0002 FFF7FEFF 		bl	Default_Handler
 1874              	.LVL82:
 1875              		.cfi_endproc
 1876              	.LFE412:
 1878              		.section	.text.DMA2_Stream7_IRQHandler,"ax",%progbits
 1879              		.align	1
 1880              		.weak	DMA2_Stream7_IRQHandler
 1881              		.syntax unified
 1882              		.thumb
 1883              		.thumb_func
 1885              	DMA2_Stream7_IRQHandler:
 1886              	.LFB413:
 140:startup_stm32h743xx.c **** __weak void DMA2_Stream7_IRQHandler(void)                                 {Default_Handler();}
 1887              		.loc 1 140 75 view -0
 1888              		.cfi_startproc
ARM GAS  C:\Users\jisu8\AppData\Local\Temp\cc493r1c.s 			page 34


 1889              		@ args = 0, pretend = 0, frame = 0
 1890              		@ frame_needed = 0, uses_anonymous_args = 0
 1891 0000 08B5     		push	{r3, lr}
 1892              	.LCFI74:
 1893              		.cfi_def_cfa_offset 8
 1894              		.cfi_offset 3, -8
 1895              		.cfi_offset 14, -4
 1896              		.loc 1 140 76 view .LVU173
 1897 0002 FFF7FEFF 		bl	Default_Handler
 1898              	.LVL83:
 1899              		.cfi_endproc
 1900              	.LFE413:
 1902              		.section	.text.USART6_IRQHandler,"ax",%progbits
 1903              		.align	1
 1904              		.weak	USART6_IRQHandler
 1905              		.syntax unified
 1906              		.thumb
 1907              		.thumb_func
 1909              	USART6_IRQHandler:
 1910              	.LFB414:
 141:startup_stm32h743xx.c **** __weak void USART6_IRQHandler(void)                                       {Default_Handler();}
 1911              		.loc 1 141 75 view -0
 1912              		.cfi_startproc
 1913              		@ args = 0, pretend = 0, frame = 0
 1914              		@ frame_needed = 0, uses_anonymous_args = 0
 1915 0000 08B5     		push	{r3, lr}
 1916              	.LCFI75:
 1917              		.cfi_def_cfa_offset 8
 1918              		.cfi_offset 3, -8
 1919              		.cfi_offset 14, -4
 1920              		.loc 1 141 76 view .LVU175
 1921 0002 FFF7FEFF 		bl	Default_Handler
 1922              	.LVL84:
 1923              		.cfi_endproc
 1924              	.LFE414:
 1926              		.section	.text.I2C3_EV_IRQHandler,"ax",%progbits
 1927              		.align	1
 1928              		.weak	I2C3_EV_IRQHandler
 1929              		.syntax unified
 1930              		.thumb
 1931              		.thumb_func
 1933              	I2C3_EV_IRQHandler:
 1934              	.LFB415:
 142:startup_stm32h743xx.c **** __weak void I2C3_EV_IRQHandler(void)                                      {Default_Handler();}
 1935              		.loc 1 142 75 view -0
 1936              		.cfi_startproc
 1937              		@ args = 0, pretend = 0, frame = 0
 1938              		@ frame_needed = 0, uses_anonymous_args = 0
 1939 0000 08B5     		push	{r3, lr}
 1940              	.LCFI76:
 1941              		.cfi_def_cfa_offset 8
 1942              		.cfi_offset 3, -8
 1943              		.cfi_offset 14, -4
 1944              		.loc 1 142 76 view .LVU177
 1945 0002 FFF7FEFF 		bl	Default_Handler
 1946              	.LVL85:
 1947              		.cfi_endproc
ARM GAS  C:\Users\jisu8\AppData\Local\Temp\cc493r1c.s 			page 35


 1948              	.LFE415:
 1950              		.section	.text.I2C3_ER_IRQHandler,"ax",%progbits
 1951              		.align	1
 1952              		.weak	I2C3_ER_IRQHandler
 1953              		.syntax unified
 1954              		.thumb
 1955              		.thumb_func
 1957              	I2C3_ER_IRQHandler:
 1958              	.LFB416:
 143:startup_stm32h743xx.c **** __weak void I2C3_ER_IRQHandler(void)                                      {Default_Handler();}
 1959              		.loc 1 143 75 view -0
 1960              		.cfi_startproc
 1961              		@ args = 0, pretend = 0, frame = 0
 1962              		@ frame_needed = 0, uses_anonymous_args = 0
 1963 0000 08B5     		push	{r3, lr}
 1964              	.LCFI77:
 1965              		.cfi_def_cfa_offset 8
 1966              		.cfi_offset 3, -8
 1967              		.cfi_offset 14, -4
 1968              		.loc 1 143 76 view .LVU179
 1969 0002 FFF7FEFF 		bl	Default_Handler
 1970              	.LVL86:
 1971              		.cfi_endproc
 1972              	.LFE416:
 1974              		.section	.text.OTG_HS_EP1_OUT_IRQHandler,"ax",%progbits
 1975              		.align	1
 1976              		.weak	OTG_HS_EP1_OUT_IRQHandler
 1977              		.syntax unified
 1978              		.thumb
 1979              		.thumb_func
 1981              	OTG_HS_EP1_OUT_IRQHandler:
 1982              	.LFB417:
 144:startup_stm32h743xx.c **** __weak void OTG_HS_EP1_OUT_IRQHandler(void)                               {Default_Handler();}
 1983              		.loc 1 144 75 view -0
 1984              		.cfi_startproc
 1985              		@ args = 0, pretend = 0, frame = 0
 1986              		@ frame_needed = 0, uses_anonymous_args = 0
 1987 0000 08B5     		push	{r3, lr}
 1988              	.LCFI78:
 1989              		.cfi_def_cfa_offset 8
 1990              		.cfi_offset 3, -8
 1991              		.cfi_offset 14, -4
 1992              		.loc 1 144 76 view .LVU181
 1993 0002 FFF7FEFF 		bl	Default_Handler
 1994              	.LVL87:
 1995              		.cfi_endproc
 1996              	.LFE417:
 1998              		.section	.text.OTG_HS_EP1_IN_IRQHandler,"ax",%progbits
 1999              		.align	1
 2000              		.weak	OTG_HS_EP1_IN_IRQHandler
 2001              		.syntax unified
 2002              		.thumb
 2003              		.thumb_func
 2005              	OTG_HS_EP1_IN_IRQHandler:
 2006              	.LFB418:
 145:startup_stm32h743xx.c **** __weak void OTG_HS_EP1_IN_IRQHandler(void)                                {Default_Handler();}
 2007              		.loc 1 145 75 view -0
ARM GAS  C:\Users\jisu8\AppData\Local\Temp\cc493r1c.s 			page 36


 2008              		.cfi_startproc
 2009              		@ args = 0, pretend = 0, frame = 0
 2010              		@ frame_needed = 0, uses_anonymous_args = 0
 2011 0000 08B5     		push	{r3, lr}
 2012              	.LCFI79:
 2013              		.cfi_def_cfa_offset 8
 2014              		.cfi_offset 3, -8
 2015              		.cfi_offset 14, -4
 2016              		.loc 1 145 76 view .LVU183
 2017 0002 FFF7FEFF 		bl	Default_Handler
 2018              	.LVL88:
 2019              		.cfi_endproc
 2020              	.LFE418:
 2022              		.section	.text.OTG_HS_WKUP_IRQHandler,"ax",%progbits
 2023              		.align	1
 2024              		.weak	OTG_HS_WKUP_IRQHandler
 2025              		.syntax unified
 2026              		.thumb
 2027              		.thumb_func
 2029              	OTG_HS_WKUP_IRQHandler:
 2030              	.LFB419:
 146:startup_stm32h743xx.c **** __weak void OTG_HS_WKUP_IRQHandler(void)                                  {Default_Handler();}
 2031              		.loc 1 146 75 view -0
 2032              		.cfi_startproc
 2033              		@ args = 0, pretend = 0, frame = 0
 2034              		@ frame_needed = 0, uses_anonymous_args = 0
 2035 0000 08B5     		push	{r3, lr}
 2036              	.LCFI80:
 2037              		.cfi_def_cfa_offset 8
 2038              		.cfi_offset 3, -8
 2039              		.cfi_offset 14, -4
 2040              		.loc 1 146 76 view .LVU185
 2041 0002 FFF7FEFF 		bl	Default_Handler
 2042              	.LVL89:
 2043              		.cfi_endproc
 2044              	.LFE419:
 2046              		.section	.text.OTG_HS_IRQHandler,"ax",%progbits
 2047              		.align	1
 2048              		.weak	OTG_HS_IRQHandler
 2049              		.syntax unified
 2050              		.thumb
 2051              		.thumb_func
 2053              	OTG_HS_IRQHandler:
 2054              	.LFB420:
 147:startup_stm32h743xx.c **** __weak void OTG_HS_IRQHandler(void)                                       {Default_Handler();}
 2055              		.loc 1 147 75 view -0
 2056              		.cfi_startproc
 2057              		@ args = 0, pretend = 0, frame = 0
 2058              		@ frame_needed = 0, uses_anonymous_args = 0
 2059 0000 08B5     		push	{r3, lr}
 2060              	.LCFI81:
 2061              		.cfi_def_cfa_offset 8
 2062              		.cfi_offset 3, -8
 2063              		.cfi_offset 14, -4
 2064              		.loc 1 147 76 view .LVU187
 2065 0002 FFF7FEFF 		bl	Default_Handler
 2066              	.LVL90:
ARM GAS  C:\Users\jisu8\AppData\Local\Temp\cc493r1c.s 			page 37


 2067              		.cfi_endproc
 2068              	.LFE420:
 2070              		.section	.text.DCMI_IRQHandler,"ax",%progbits
 2071              		.align	1
 2072              		.weak	DCMI_IRQHandler
 2073              		.syntax unified
 2074              		.thumb
 2075              		.thumb_func
 2077              	DCMI_IRQHandler:
 2078              	.LFB421:
 148:startup_stm32h743xx.c **** __weak void DCMI_IRQHandler(void)                                         {Default_Handler();}
 2079              		.loc 1 148 75 view -0
 2080              		.cfi_startproc
 2081              		@ args = 0, pretend = 0, frame = 0
 2082              		@ frame_needed = 0, uses_anonymous_args = 0
 2083 0000 08B5     		push	{r3, lr}
 2084              	.LCFI82:
 2085              		.cfi_def_cfa_offset 8
 2086              		.cfi_offset 3, -8
 2087              		.cfi_offset 14, -4
 2088              		.loc 1 148 76 view .LVU189
 2089 0002 FFF7FEFF 		bl	Default_Handler
 2090              	.LVL91:
 2091              		.cfi_endproc
 2092              	.LFE421:
 2094              		.section	.text.RNG_IRQHandler,"ax",%progbits
 2095              		.align	1
 2096              		.weak	RNG_IRQHandler
 2097              		.syntax unified
 2098              		.thumb
 2099              		.thumb_func
 2101              	RNG_IRQHandler:
 2102              	.LFB422:
 149:startup_stm32h743xx.c **** __weak void RNG_IRQHandler(void)                                          {Default_Handler();}
 2103              		.loc 1 149 75 view -0
 2104              		.cfi_startproc
 2105              		@ args = 0, pretend = 0, frame = 0
 2106              		@ frame_needed = 0, uses_anonymous_args = 0
 2107 0000 08B5     		push	{r3, lr}
 2108              	.LCFI83:
 2109              		.cfi_def_cfa_offset 8
 2110              		.cfi_offset 3, -8
 2111              		.cfi_offset 14, -4
 2112              		.loc 1 149 76 view .LVU191
 2113 0002 FFF7FEFF 		bl	Default_Handler
 2114              	.LVL92:
 2115              		.cfi_endproc
 2116              	.LFE422:
 2118              		.section	.text.FPU_IRQHandler,"ax",%progbits
 2119              		.align	1
 2120              		.weak	FPU_IRQHandler
 2121              		.syntax unified
 2122              		.thumb
 2123              		.thumb_func
 2125              	FPU_IRQHandler:
 2126              	.LFB423:
 150:startup_stm32h743xx.c **** __weak void FPU_IRQHandler(void)                                          {Default_Handler();}
ARM GAS  C:\Users\jisu8\AppData\Local\Temp\cc493r1c.s 			page 38


 2127              		.loc 1 150 75 view -0
 2128              		.cfi_startproc
 2129              		@ args = 0, pretend = 0, frame = 0
 2130              		@ frame_needed = 0, uses_anonymous_args = 0
 2131 0000 08B5     		push	{r3, lr}
 2132              	.LCFI84:
 2133              		.cfi_def_cfa_offset 8
 2134              		.cfi_offset 3, -8
 2135              		.cfi_offset 14, -4
 2136              		.loc 1 150 76 view .LVU193
 2137 0002 FFF7FEFF 		bl	Default_Handler
 2138              	.LVL93:
 2139              		.cfi_endproc
 2140              	.LFE423:
 2142              		.section	.text.UART7_IRQHandler,"ax",%progbits
 2143              		.align	1
 2144              		.weak	UART7_IRQHandler
 2145              		.syntax unified
 2146              		.thumb
 2147              		.thumb_func
 2149              	UART7_IRQHandler:
 2150              	.LFB424:
 151:startup_stm32h743xx.c **** __weak void UART7_IRQHandler(void)                                        {Default_Handler();}
 2151              		.loc 1 151 75 view -0
 2152              		.cfi_startproc
 2153              		@ args = 0, pretend = 0, frame = 0
 2154              		@ frame_needed = 0, uses_anonymous_args = 0
 2155 0000 08B5     		push	{r3, lr}
 2156              	.LCFI85:
 2157              		.cfi_def_cfa_offset 8
 2158              		.cfi_offset 3, -8
 2159              		.cfi_offset 14, -4
 2160              		.loc 1 151 76 view .LVU195
 2161 0002 FFF7FEFF 		bl	Default_Handler
 2162              	.LVL94:
 2163              		.cfi_endproc
 2164              	.LFE424:
 2166              		.section	.text.UART8_IRQHandler,"ax",%progbits
 2167              		.align	1
 2168              		.weak	UART8_IRQHandler
 2169              		.syntax unified
 2170              		.thumb
 2171              		.thumb_func
 2173              	UART8_IRQHandler:
 2174              	.LFB425:
 152:startup_stm32h743xx.c **** __weak void UART8_IRQHandler(void)                                        {Default_Handler();}
 2175              		.loc 1 152 75 view -0
 2176              		.cfi_startproc
 2177              		@ args = 0, pretend = 0, frame = 0
 2178              		@ frame_needed = 0, uses_anonymous_args = 0
 2179 0000 08B5     		push	{r3, lr}
 2180              	.LCFI86:
 2181              		.cfi_def_cfa_offset 8
 2182              		.cfi_offset 3, -8
 2183              		.cfi_offset 14, -4
 2184              		.loc 1 152 76 view .LVU197
 2185 0002 FFF7FEFF 		bl	Default_Handler
ARM GAS  C:\Users\jisu8\AppData\Local\Temp\cc493r1c.s 			page 39


 2186              	.LVL95:
 2187              		.cfi_endproc
 2188              	.LFE425:
 2190              		.section	.text.SPI4_IRQHandler,"ax",%progbits
 2191              		.align	1
 2192              		.weak	SPI4_IRQHandler
 2193              		.syntax unified
 2194              		.thumb
 2195              		.thumb_func
 2197              	SPI4_IRQHandler:
 2198              	.LFB426:
 153:startup_stm32h743xx.c **** __weak void SPI4_IRQHandler(void)                                         {Default_Handler();}
 2199              		.loc 1 153 75 view -0
 2200              		.cfi_startproc
 2201              		@ args = 0, pretend = 0, frame = 0
 2202              		@ frame_needed = 0, uses_anonymous_args = 0
 2203 0000 08B5     		push	{r3, lr}
 2204              	.LCFI87:
 2205              		.cfi_def_cfa_offset 8
 2206              		.cfi_offset 3, -8
 2207              		.cfi_offset 14, -4
 2208              		.loc 1 153 76 view .LVU199
 2209 0002 FFF7FEFF 		bl	Default_Handler
 2210              	.LVL96:
 2211              		.cfi_endproc
 2212              	.LFE426:
 2214              		.section	.text.SPI5_IRQHandler,"ax",%progbits
 2215              		.align	1
 2216              		.weak	SPI5_IRQHandler
 2217              		.syntax unified
 2218              		.thumb
 2219              		.thumb_func
 2221              	SPI5_IRQHandler:
 2222              	.LFB427:
 154:startup_stm32h743xx.c **** __weak void SPI5_IRQHandler(void)                                         {Default_Handler();}
 2223              		.loc 1 154 75 view -0
 2224              		.cfi_startproc
 2225              		@ args = 0, pretend = 0, frame = 0
 2226              		@ frame_needed = 0, uses_anonymous_args = 0
 2227 0000 08B5     		push	{r3, lr}
 2228              	.LCFI88:
 2229              		.cfi_def_cfa_offset 8
 2230              		.cfi_offset 3, -8
 2231              		.cfi_offset 14, -4
 2232              		.loc 1 154 76 view .LVU201
 2233 0002 FFF7FEFF 		bl	Default_Handler
 2234              	.LVL97:
 2235              		.cfi_endproc
 2236              	.LFE427:
 2238              		.section	.text.SPI6_IRQHandler,"ax",%progbits
 2239              		.align	1
 2240              		.weak	SPI6_IRQHandler
 2241              		.syntax unified
 2242              		.thumb
 2243              		.thumb_func
 2245              	SPI6_IRQHandler:
 2246              	.LFB428:
ARM GAS  C:\Users\jisu8\AppData\Local\Temp\cc493r1c.s 			page 40


 155:startup_stm32h743xx.c **** __weak void SPI6_IRQHandler(void)                                         {Default_Handler();}
 2247              		.loc 1 155 75 view -0
 2248              		.cfi_startproc
 2249              		@ args = 0, pretend = 0, frame = 0
 2250              		@ frame_needed = 0, uses_anonymous_args = 0
 2251 0000 08B5     		push	{r3, lr}
 2252              	.LCFI89:
 2253              		.cfi_def_cfa_offset 8
 2254              		.cfi_offset 3, -8
 2255              		.cfi_offset 14, -4
 2256              		.loc 1 155 76 view .LVU203
 2257 0002 FFF7FEFF 		bl	Default_Handler
 2258              	.LVL98:
 2259              		.cfi_endproc
 2260              	.LFE428:
 2262              		.section	.text.SAI1_IRQHandler,"ax",%progbits
 2263              		.align	1
 2264              		.weak	SAI1_IRQHandler
 2265              		.syntax unified
 2266              		.thumb
 2267              		.thumb_func
 2269              	SAI1_IRQHandler:
 2270              	.LFB429:
 156:startup_stm32h743xx.c **** __weak void SAI1_IRQHandler(void)                                         {Default_Handler();}
 2271              		.loc 1 156 75 view -0
 2272              		.cfi_startproc
 2273              		@ args = 0, pretend = 0, frame = 0
 2274              		@ frame_needed = 0, uses_anonymous_args = 0
 2275 0000 08B5     		push	{r3, lr}
 2276              	.LCFI90:
 2277              		.cfi_def_cfa_offset 8
 2278              		.cfi_offset 3, -8
 2279              		.cfi_offset 14, -4
 2280              		.loc 1 156 76 view .LVU205
 2281 0002 FFF7FEFF 		bl	Default_Handler
 2282              	.LVL99:
 2283              		.cfi_endproc
 2284              	.LFE429:
 2286              		.section	.text.LTDC_IRQHandler,"ax",%progbits
 2287              		.align	1
 2288              		.weak	LTDC_IRQHandler
 2289              		.syntax unified
 2290              		.thumb
 2291              		.thumb_func
 2293              	LTDC_IRQHandler:
 2294              	.LFB430:
 157:startup_stm32h743xx.c **** __weak void LTDC_IRQHandler(void)                                         {Default_Handler();}
 2295              		.loc 1 157 75 view -0
 2296              		.cfi_startproc
 2297              		@ args = 0, pretend = 0, frame = 0
 2298              		@ frame_needed = 0, uses_anonymous_args = 0
 2299 0000 08B5     		push	{r3, lr}
 2300              	.LCFI91:
 2301              		.cfi_def_cfa_offset 8
 2302              		.cfi_offset 3, -8
 2303              		.cfi_offset 14, -4
 2304              		.loc 1 157 76 view .LVU207
ARM GAS  C:\Users\jisu8\AppData\Local\Temp\cc493r1c.s 			page 41


 2305 0002 FFF7FEFF 		bl	Default_Handler
 2306              	.LVL100:
 2307              		.cfi_endproc
 2308              	.LFE430:
 2310              		.section	.text.LTDC_ER_IRQHandler,"ax",%progbits
 2311              		.align	1
 2312              		.weak	LTDC_ER_IRQHandler
 2313              		.syntax unified
 2314              		.thumb
 2315              		.thumb_func
 2317              	LTDC_ER_IRQHandler:
 2318              	.LFB431:
 158:startup_stm32h743xx.c **** __weak void LTDC_ER_IRQHandler(void)                                      {Default_Handler();}
 2319              		.loc 1 158 75 view -0
 2320              		.cfi_startproc
 2321              		@ args = 0, pretend = 0, frame = 0
 2322              		@ frame_needed = 0, uses_anonymous_args = 0
 2323 0000 08B5     		push	{r3, lr}
 2324              	.LCFI92:
 2325              		.cfi_def_cfa_offset 8
 2326              		.cfi_offset 3, -8
 2327              		.cfi_offset 14, -4
 2328              		.loc 1 158 76 view .LVU209
 2329 0002 FFF7FEFF 		bl	Default_Handler
 2330              	.LVL101:
 2331              		.cfi_endproc
 2332              	.LFE431:
 2334              		.section	.text.DMA2D_IRQHandler,"ax",%progbits
 2335              		.align	1
 2336              		.weak	DMA2D_IRQHandler
 2337              		.syntax unified
 2338              		.thumb
 2339              		.thumb_func
 2341              	DMA2D_IRQHandler:
 2342              	.LFB432:
 159:startup_stm32h743xx.c **** __weak void DMA2D_IRQHandler(void)                                        {Default_Handler();}
 2343              		.loc 1 159 75 view -0
 2344              		.cfi_startproc
 2345              		@ args = 0, pretend = 0, frame = 0
 2346              		@ frame_needed = 0, uses_anonymous_args = 0
 2347 0000 08B5     		push	{r3, lr}
 2348              	.LCFI93:
 2349              		.cfi_def_cfa_offset 8
 2350              		.cfi_offset 3, -8
 2351              		.cfi_offset 14, -4
 2352              		.loc 1 159 76 view .LVU211
 2353 0002 FFF7FEFF 		bl	Default_Handler
 2354              	.LVL102:
 2355              		.cfi_endproc
 2356              	.LFE432:
 2358              		.section	.text.SAI2_IRQHandler,"ax",%progbits
 2359              		.align	1
 2360              		.weak	SAI2_IRQHandler
 2361              		.syntax unified
 2362              		.thumb
 2363              		.thumb_func
 2365              	SAI2_IRQHandler:
ARM GAS  C:\Users\jisu8\AppData\Local\Temp\cc493r1c.s 			page 42


 2366              	.LFB433:
 160:startup_stm32h743xx.c **** __weak void SAI2_IRQHandler(void)                                         {Default_Handler();}
 2367              		.loc 1 160 75 view -0
 2368              		.cfi_startproc
 2369              		@ args = 0, pretend = 0, frame = 0
 2370              		@ frame_needed = 0, uses_anonymous_args = 0
 2371 0000 08B5     		push	{r3, lr}
 2372              	.LCFI94:
 2373              		.cfi_def_cfa_offset 8
 2374              		.cfi_offset 3, -8
 2375              		.cfi_offset 14, -4
 2376              		.loc 1 160 76 view .LVU213
 2377 0002 FFF7FEFF 		bl	Default_Handler
 2378              	.LVL103:
 2379              		.cfi_endproc
 2380              	.LFE433:
 2382              		.section	.text.QUADSPI_IRQHandler,"ax",%progbits
 2383              		.align	1
 2384              		.weak	QUADSPI_IRQHandler
 2385              		.syntax unified
 2386              		.thumb
 2387              		.thumb_func
 2389              	QUADSPI_IRQHandler:
 2390              	.LFB434:
 161:startup_stm32h743xx.c **** __weak void QUADSPI_IRQHandler(void)                                      {Default_Handler();}
 2391              		.loc 1 161 75 view -0
 2392              		.cfi_startproc
 2393              		@ args = 0, pretend = 0, frame = 0
 2394              		@ frame_needed = 0, uses_anonymous_args = 0
 2395 0000 08B5     		push	{r3, lr}
 2396              	.LCFI95:
 2397              		.cfi_def_cfa_offset 8
 2398              		.cfi_offset 3, -8
 2399              		.cfi_offset 14, -4
 2400              		.loc 1 161 76 view .LVU215
 2401 0002 FFF7FEFF 		bl	Default_Handler
 2402              	.LVL104:
 2403              		.cfi_endproc
 2404              	.LFE434:
 2406              		.section	.text.LPTIM1_IRQHandler,"ax",%progbits
 2407              		.align	1
 2408              		.weak	LPTIM1_IRQHandler
 2409              		.syntax unified
 2410              		.thumb
 2411              		.thumb_func
 2413              	LPTIM1_IRQHandler:
 2414              	.LFB435:
 162:startup_stm32h743xx.c **** __weak void LPTIM1_IRQHandler(void)                                       {Default_Handler();}
 2415              		.loc 1 162 75 view -0
 2416              		.cfi_startproc
 2417              		@ args = 0, pretend = 0, frame = 0
 2418              		@ frame_needed = 0, uses_anonymous_args = 0
 2419 0000 08B5     		push	{r3, lr}
 2420              	.LCFI96:
 2421              		.cfi_def_cfa_offset 8
 2422              		.cfi_offset 3, -8
 2423              		.cfi_offset 14, -4
ARM GAS  C:\Users\jisu8\AppData\Local\Temp\cc493r1c.s 			page 43


 2424              		.loc 1 162 76 view .LVU217
 2425 0002 FFF7FEFF 		bl	Default_Handler
 2426              	.LVL105:
 2427              		.cfi_endproc
 2428              	.LFE435:
 2430              		.section	.text.CEC_IRQHandler,"ax",%progbits
 2431              		.align	1
 2432              		.weak	CEC_IRQHandler
 2433              		.syntax unified
 2434              		.thumb
 2435              		.thumb_func
 2437              	CEC_IRQHandler:
 2438              	.LFB436:
 163:startup_stm32h743xx.c **** __weak void CEC_IRQHandler(void)                                          {Default_Handler();}
 2439              		.loc 1 163 75 view -0
 2440              		.cfi_startproc
 2441              		@ args = 0, pretend = 0, frame = 0
 2442              		@ frame_needed = 0, uses_anonymous_args = 0
 2443 0000 08B5     		push	{r3, lr}
 2444              	.LCFI97:
 2445              		.cfi_def_cfa_offset 8
 2446              		.cfi_offset 3, -8
 2447              		.cfi_offset 14, -4
 2448              		.loc 1 163 76 view .LVU219
 2449 0002 FFF7FEFF 		bl	Default_Handler
 2450              	.LVL106:
 2451              		.cfi_endproc
 2452              	.LFE436:
 2454              		.section	.text.I2C4_EV_IRQHandler,"ax",%progbits
 2455              		.align	1
 2456              		.weak	I2C4_EV_IRQHandler
 2457              		.syntax unified
 2458              		.thumb
 2459              		.thumb_func
 2461              	I2C4_EV_IRQHandler:
 2462              	.LFB437:
 164:startup_stm32h743xx.c **** __weak void I2C4_EV_IRQHandler(void)                                      {Default_Handler();}
 2463              		.loc 1 164 75 view -0
 2464              		.cfi_startproc
 2465              		@ args = 0, pretend = 0, frame = 0
 2466              		@ frame_needed = 0, uses_anonymous_args = 0
 2467 0000 08B5     		push	{r3, lr}
 2468              	.LCFI98:
 2469              		.cfi_def_cfa_offset 8
 2470              		.cfi_offset 3, -8
 2471              		.cfi_offset 14, -4
 2472              		.loc 1 164 76 view .LVU221
 2473 0002 FFF7FEFF 		bl	Default_Handler
 2474              	.LVL107:
 2475              		.cfi_endproc
 2476              	.LFE437:
 2478              		.section	.text.I2C4_ER_IRQHandler,"ax",%progbits
 2479              		.align	1
 2480              		.weak	I2C4_ER_IRQHandler
 2481              		.syntax unified
 2482              		.thumb
 2483              		.thumb_func
ARM GAS  C:\Users\jisu8\AppData\Local\Temp\cc493r1c.s 			page 44


 2485              	I2C4_ER_IRQHandler:
 2486              	.LFB438:
 165:startup_stm32h743xx.c **** __weak void I2C4_ER_IRQHandler(void)                                      {Default_Handler();}
 2487              		.loc 1 165 75 view -0
 2488              		.cfi_startproc
 2489              		@ args = 0, pretend = 0, frame = 0
 2490              		@ frame_needed = 0, uses_anonymous_args = 0
 2491 0000 08B5     		push	{r3, lr}
 2492              	.LCFI99:
 2493              		.cfi_def_cfa_offset 8
 2494              		.cfi_offset 3, -8
 2495              		.cfi_offset 14, -4
 2496              		.loc 1 165 76 view .LVU223
 2497 0002 FFF7FEFF 		bl	Default_Handler
 2498              	.LVL108:
 2499              		.cfi_endproc
 2500              	.LFE438:
 2502              		.section	.text.SPDIF_RX_IRQHandler,"ax",%progbits
 2503              		.align	1
 2504              		.weak	SPDIF_RX_IRQHandler
 2505              		.syntax unified
 2506              		.thumb
 2507              		.thumb_func
 2509              	SPDIF_RX_IRQHandler:
 2510              	.LFB439:
 166:startup_stm32h743xx.c **** __weak void SPDIF_RX_IRQHandler(void)                                     {Default_Handler();}
 2511              		.loc 1 166 75 view -0
 2512              		.cfi_startproc
 2513              		@ args = 0, pretend = 0, frame = 0
 2514              		@ frame_needed = 0, uses_anonymous_args = 0
 2515 0000 08B5     		push	{r3, lr}
 2516              	.LCFI100:
 2517              		.cfi_def_cfa_offset 8
 2518              		.cfi_offset 3, -8
 2519              		.cfi_offset 14, -4
 2520              		.loc 1 166 76 view .LVU225
 2521 0002 FFF7FEFF 		bl	Default_Handler
 2522              	.LVL109:
 2523              		.cfi_endproc
 2524              	.LFE439:
 2526              		.section	.text.OTG_FS_EP1_OUT_IRQHandler,"ax",%progbits
 2527              		.align	1
 2528              		.weak	OTG_FS_EP1_OUT_IRQHandler
 2529              		.syntax unified
 2530              		.thumb
 2531              		.thumb_func
 2533              	OTG_FS_EP1_OUT_IRQHandler:
 2534              	.LFB440:
 167:startup_stm32h743xx.c **** __weak void OTG_FS_EP1_OUT_IRQHandler(void)                               {Default_Handler();}
 2535              		.loc 1 167 75 view -0
 2536              		.cfi_startproc
 2537              		@ args = 0, pretend = 0, frame = 0
 2538              		@ frame_needed = 0, uses_anonymous_args = 0
 2539 0000 08B5     		push	{r3, lr}
 2540              	.LCFI101:
 2541              		.cfi_def_cfa_offset 8
 2542              		.cfi_offset 3, -8
ARM GAS  C:\Users\jisu8\AppData\Local\Temp\cc493r1c.s 			page 45


 2543              		.cfi_offset 14, -4
 2544              		.loc 1 167 76 view .LVU227
 2545 0002 FFF7FEFF 		bl	Default_Handler
 2546              	.LVL110:
 2547              		.cfi_endproc
 2548              	.LFE440:
 2550              		.section	.text.OTG_FS_EP1_IN_IRQHandler,"ax",%progbits
 2551              		.align	1
 2552              		.weak	OTG_FS_EP1_IN_IRQHandler
 2553              		.syntax unified
 2554              		.thumb
 2555              		.thumb_func
 2557              	OTG_FS_EP1_IN_IRQHandler:
 2558              	.LFB441:
 168:startup_stm32h743xx.c **** __weak void OTG_FS_EP1_IN_IRQHandler(void)                                {Default_Handler();}
 2559              		.loc 1 168 75 view -0
 2560              		.cfi_startproc
 2561              		@ args = 0, pretend = 0, frame = 0
 2562              		@ frame_needed = 0, uses_anonymous_args = 0
 2563 0000 08B5     		push	{r3, lr}
 2564              	.LCFI102:
 2565              		.cfi_def_cfa_offset 8
 2566              		.cfi_offset 3, -8
 2567              		.cfi_offset 14, -4
 2568              		.loc 1 168 76 view .LVU229
 2569 0002 FFF7FEFF 		bl	Default_Handler
 2570              	.LVL111:
 2571              		.cfi_endproc
 2572              	.LFE441:
 2574              		.section	.text.OTG_FS_WKUP_IRQHandler,"ax",%progbits
 2575              		.align	1
 2576              		.weak	OTG_FS_WKUP_IRQHandler
 2577              		.syntax unified
 2578              		.thumb
 2579              		.thumb_func
 2581              	OTG_FS_WKUP_IRQHandler:
 2582              	.LFB442:
 169:startup_stm32h743xx.c **** __weak void OTG_FS_WKUP_IRQHandler(void)                                  {Default_Handler();}
 2583              		.loc 1 169 75 view -0
 2584              		.cfi_startproc
 2585              		@ args = 0, pretend = 0, frame = 0
 2586              		@ frame_needed = 0, uses_anonymous_args = 0
 2587 0000 08B5     		push	{r3, lr}
 2588              	.LCFI103:
 2589              		.cfi_def_cfa_offset 8
 2590              		.cfi_offset 3, -8
 2591              		.cfi_offset 14, -4
 2592              		.loc 1 169 76 view .LVU231
 2593 0002 FFF7FEFF 		bl	Default_Handler
 2594              	.LVL112:
 2595              		.cfi_endproc
 2596              	.LFE442:
 2598              		.section	.text.OTG_FS_IRQHandler,"ax",%progbits
 2599              		.align	1
 2600              		.weak	OTG_FS_IRQHandler
 2601              		.syntax unified
 2602              		.thumb
ARM GAS  C:\Users\jisu8\AppData\Local\Temp\cc493r1c.s 			page 46


 2603              		.thumb_func
 2605              	OTG_FS_IRQHandler:
 2606              	.LFB443:
 170:startup_stm32h743xx.c **** __weak void OTG_FS_IRQHandler(void)                                       {Default_Handler();}
 2607              		.loc 1 170 75 view -0
 2608              		.cfi_startproc
 2609              		@ args = 0, pretend = 0, frame = 0
 2610              		@ frame_needed = 0, uses_anonymous_args = 0
 2611 0000 08B5     		push	{r3, lr}
 2612              	.LCFI104:
 2613              		.cfi_def_cfa_offset 8
 2614              		.cfi_offset 3, -8
 2615              		.cfi_offset 14, -4
 2616              		.loc 1 170 76 view .LVU233
 2617 0002 FFF7FEFF 		bl	Default_Handler
 2618              	.LVL113:
 2619              		.cfi_endproc
 2620              	.LFE443:
 2622              		.section	.text.DMAMUX1_OVR_IRQHandler,"ax",%progbits
 2623              		.align	1
 2624              		.weak	DMAMUX1_OVR_IRQHandler
 2625              		.syntax unified
 2626              		.thumb
 2627              		.thumb_func
 2629              	DMAMUX1_OVR_IRQHandler:
 2630              	.LFB444:
 171:startup_stm32h743xx.c **** __weak void DMAMUX1_OVR_IRQHandler(void)                                  {Default_Handler();}
 2631              		.loc 1 171 75 view -0
 2632              		.cfi_startproc
 2633              		@ args = 0, pretend = 0, frame = 0
 2634              		@ frame_needed = 0, uses_anonymous_args = 0
 2635 0000 08B5     		push	{r3, lr}
 2636              	.LCFI105:
 2637              		.cfi_def_cfa_offset 8
 2638              		.cfi_offset 3, -8
 2639              		.cfi_offset 14, -4
 2640              		.loc 1 171 76 view .LVU235
 2641 0002 FFF7FEFF 		bl	Default_Handler
 2642              	.LVL114:
 2643              		.cfi_endproc
 2644              	.LFE444:
 2646              		.section	.text.HRTIM1_Master_IRQHandler,"ax",%progbits
 2647              		.align	1
 2648              		.weak	HRTIM1_Master_IRQHandler
 2649              		.syntax unified
 2650              		.thumb
 2651              		.thumb_func
 2653              	HRTIM1_Master_IRQHandler:
 2654              	.LFB445:
 172:startup_stm32h743xx.c **** __weak void HRTIM1_Master_IRQHandler(void)                                {Default_Handler();}
 2655              		.loc 1 172 75 view -0
 2656              		.cfi_startproc
 2657              		@ args = 0, pretend = 0, frame = 0
 2658              		@ frame_needed = 0, uses_anonymous_args = 0
 2659 0000 08B5     		push	{r3, lr}
 2660              	.LCFI106:
 2661              		.cfi_def_cfa_offset 8
ARM GAS  C:\Users\jisu8\AppData\Local\Temp\cc493r1c.s 			page 47


 2662              		.cfi_offset 3, -8
 2663              		.cfi_offset 14, -4
 2664              		.loc 1 172 76 view .LVU237
 2665 0002 FFF7FEFF 		bl	Default_Handler
 2666              	.LVL115:
 2667              		.cfi_endproc
 2668              	.LFE445:
 2670              		.section	.text.HRTIM1_TIMA_IRQHandler,"ax",%progbits
 2671              		.align	1
 2672              		.weak	HRTIM1_TIMA_IRQHandler
 2673              		.syntax unified
 2674              		.thumb
 2675              		.thumb_func
 2677              	HRTIM1_TIMA_IRQHandler:
 2678              	.LFB446:
 173:startup_stm32h743xx.c **** __weak void HRTIM1_TIMA_IRQHandler(void)                                  {Default_Handler();}
 2679              		.loc 1 173 75 view -0
 2680              		.cfi_startproc
 2681              		@ args = 0, pretend = 0, frame = 0
 2682              		@ frame_needed = 0, uses_anonymous_args = 0
 2683 0000 08B5     		push	{r3, lr}
 2684              	.LCFI107:
 2685              		.cfi_def_cfa_offset 8
 2686              		.cfi_offset 3, -8
 2687              		.cfi_offset 14, -4
 2688              		.loc 1 173 76 view .LVU239
 2689 0002 FFF7FEFF 		bl	Default_Handler
 2690              	.LVL116:
 2691              		.cfi_endproc
 2692              	.LFE446:
 2694              		.section	.text.HRTIM1_TIMB_IRQHandler,"ax",%progbits
 2695              		.align	1
 2696              		.weak	HRTIM1_TIMB_IRQHandler
 2697              		.syntax unified
 2698              		.thumb
 2699              		.thumb_func
 2701              	HRTIM1_TIMB_IRQHandler:
 2702              	.LFB447:
 174:startup_stm32h743xx.c **** __weak void HRTIM1_TIMB_IRQHandler(void)                                  {Default_Handler();}
 2703              		.loc 1 174 75 view -0
 2704              		.cfi_startproc
 2705              		@ args = 0, pretend = 0, frame = 0
 2706              		@ frame_needed = 0, uses_anonymous_args = 0
 2707 0000 08B5     		push	{r3, lr}
 2708              	.LCFI108:
 2709              		.cfi_def_cfa_offset 8
 2710              		.cfi_offset 3, -8
 2711              		.cfi_offset 14, -4
 2712              		.loc 1 174 76 view .LVU241
 2713 0002 FFF7FEFF 		bl	Default_Handler
 2714              	.LVL117:
 2715              		.cfi_endproc
 2716              	.LFE447:
 2718              		.section	.text.HRTIM1_TIMC_IRQHandler,"ax",%progbits
 2719              		.align	1
 2720              		.weak	HRTIM1_TIMC_IRQHandler
 2721              		.syntax unified
ARM GAS  C:\Users\jisu8\AppData\Local\Temp\cc493r1c.s 			page 48


 2722              		.thumb
 2723              		.thumb_func
 2725              	HRTIM1_TIMC_IRQHandler:
 2726              	.LFB448:
 175:startup_stm32h743xx.c **** __weak void HRTIM1_TIMC_IRQHandler(void)                                  {Default_Handler();}
 2727              		.loc 1 175 75 view -0
 2728              		.cfi_startproc
 2729              		@ args = 0, pretend = 0, frame = 0
 2730              		@ frame_needed = 0, uses_anonymous_args = 0
 2731 0000 08B5     		push	{r3, lr}
 2732              	.LCFI109:
 2733              		.cfi_def_cfa_offset 8
 2734              		.cfi_offset 3, -8
 2735              		.cfi_offset 14, -4
 2736              		.loc 1 175 76 view .LVU243
 2737 0002 FFF7FEFF 		bl	Default_Handler
 2738              	.LVL118:
 2739              		.cfi_endproc
 2740              	.LFE448:
 2742              		.section	.text.HRTIM1_TIMD_IRQHandler,"ax",%progbits
 2743              		.align	1
 2744              		.weak	HRTIM1_TIMD_IRQHandler
 2745              		.syntax unified
 2746              		.thumb
 2747              		.thumb_func
 2749              	HRTIM1_TIMD_IRQHandler:
 2750              	.LFB449:
 176:startup_stm32h743xx.c **** __weak void HRTIM1_TIMD_IRQHandler(void)                                  {Default_Handler();}
 2751              		.loc 1 176 75 view -0
 2752              		.cfi_startproc
 2753              		@ args = 0, pretend = 0, frame = 0
 2754              		@ frame_needed = 0, uses_anonymous_args = 0
 2755 0000 08B5     		push	{r3, lr}
 2756              	.LCFI110:
 2757              		.cfi_def_cfa_offset 8
 2758              		.cfi_offset 3, -8
 2759              		.cfi_offset 14, -4
 2760              		.loc 1 176 76 view .LVU245
 2761 0002 FFF7FEFF 		bl	Default_Handler
 2762              	.LVL119:
 2763              		.cfi_endproc
 2764              	.LFE449:
 2766              		.section	.text.HRTIM1_TIME_IRQHandler,"ax",%progbits
 2767              		.align	1
 2768              		.weak	HRTIM1_TIME_IRQHandler
 2769              		.syntax unified
 2770              		.thumb
 2771              		.thumb_func
 2773              	HRTIM1_TIME_IRQHandler:
 2774              	.LFB450:
 177:startup_stm32h743xx.c **** __weak void HRTIM1_TIME_IRQHandler(void)                                  {Default_Handler();}
 2775              		.loc 1 177 75 view -0
 2776              		.cfi_startproc
 2777              		@ args = 0, pretend = 0, frame = 0
 2778              		@ frame_needed = 0, uses_anonymous_args = 0
 2779 0000 08B5     		push	{r3, lr}
 2780              	.LCFI111:
ARM GAS  C:\Users\jisu8\AppData\Local\Temp\cc493r1c.s 			page 49


 2781              		.cfi_def_cfa_offset 8
 2782              		.cfi_offset 3, -8
 2783              		.cfi_offset 14, -4
 2784              		.loc 1 177 76 view .LVU247
 2785 0002 FFF7FEFF 		bl	Default_Handler
 2786              	.LVL120:
 2787              		.cfi_endproc
 2788              	.LFE450:
 2790              		.section	.text.HRTIM1_FLT_IRQHandler,"ax",%progbits
 2791              		.align	1
 2792              		.weak	HRTIM1_FLT_IRQHandler
 2793              		.syntax unified
 2794              		.thumb
 2795              		.thumb_func
 2797              	HRTIM1_FLT_IRQHandler:
 2798              	.LFB451:
 178:startup_stm32h743xx.c **** __weak void HRTIM1_FLT_IRQHandler(void)                                   {Default_Handler();}
 2799              		.loc 1 178 75 view -0
 2800              		.cfi_startproc
 2801              		@ args = 0, pretend = 0, frame = 0
 2802              		@ frame_needed = 0, uses_anonymous_args = 0
 2803 0000 08B5     		push	{r3, lr}
 2804              	.LCFI112:
 2805              		.cfi_def_cfa_offset 8
 2806              		.cfi_offset 3, -8
 2807              		.cfi_offset 14, -4
 2808              		.loc 1 178 76 view .LVU249
 2809 0002 FFF7FEFF 		bl	Default_Handler
 2810              	.LVL121:
 2811              		.cfi_endproc
 2812              	.LFE451:
 2814              		.section	.text.DFSDM1_FLT0_IRQHandler,"ax",%progbits
 2815              		.align	1
 2816              		.weak	DFSDM1_FLT0_IRQHandler
 2817              		.syntax unified
 2818              		.thumb
 2819              		.thumb_func
 2821              	DFSDM1_FLT0_IRQHandler:
 2822              	.LFB452:
 179:startup_stm32h743xx.c **** __weak void DFSDM1_FLT0_IRQHandler(void)                                  {Default_Handler();}
 2823              		.loc 1 179 75 view -0
 2824              		.cfi_startproc
 2825              		@ args = 0, pretend = 0, frame = 0
 2826              		@ frame_needed = 0, uses_anonymous_args = 0
 2827 0000 08B5     		push	{r3, lr}
 2828              	.LCFI113:
 2829              		.cfi_def_cfa_offset 8
 2830              		.cfi_offset 3, -8
 2831              		.cfi_offset 14, -4
 2832              		.loc 1 179 76 view .LVU251
 2833 0002 FFF7FEFF 		bl	Default_Handler
 2834              	.LVL122:
 2835              		.cfi_endproc
 2836              	.LFE452:
 2838              		.section	.text.DFSDM1_FLT1_IRQHandler,"ax",%progbits
 2839              		.align	1
 2840              		.weak	DFSDM1_FLT1_IRQHandler
ARM GAS  C:\Users\jisu8\AppData\Local\Temp\cc493r1c.s 			page 50


 2841              		.syntax unified
 2842              		.thumb
 2843              		.thumb_func
 2845              	DFSDM1_FLT1_IRQHandler:
 2846              	.LFB453:
 180:startup_stm32h743xx.c **** __weak void DFSDM1_FLT1_IRQHandler(void)                                  {Default_Handler();}
 2847              		.loc 1 180 75 view -0
 2848              		.cfi_startproc
 2849              		@ args = 0, pretend = 0, frame = 0
 2850              		@ frame_needed = 0, uses_anonymous_args = 0
 2851 0000 08B5     		push	{r3, lr}
 2852              	.LCFI114:
 2853              		.cfi_def_cfa_offset 8
 2854              		.cfi_offset 3, -8
 2855              		.cfi_offset 14, -4
 2856              		.loc 1 180 76 view .LVU253
 2857 0002 FFF7FEFF 		bl	Default_Handler
 2858              	.LVL123:
 2859              		.cfi_endproc
 2860              	.LFE453:
 2862              		.section	.text.DFSDM1_FLT2_IRQHandler,"ax",%progbits
 2863              		.align	1
 2864              		.weak	DFSDM1_FLT2_IRQHandler
 2865              		.syntax unified
 2866              		.thumb
 2867              		.thumb_func
 2869              	DFSDM1_FLT2_IRQHandler:
 2870              	.LFB454:
 181:startup_stm32h743xx.c **** __weak void DFSDM1_FLT2_IRQHandler(void)                                  {Default_Handler();}
 2871              		.loc 1 181 75 view -0
 2872              		.cfi_startproc
 2873              		@ args = 0, pretend = 0, frame = 0
 2874              		@ frame_needed = 0, uses_anonymous_args = 0
 2875 0000 08B5     		push	{r3, lr}
 2876              	.LCFI115:
 2877              		.cfi_def_cfa_offset 8
 2878              		.cfi_offset 3, -8
 2879              		.cfi_offset 14, -4
 2880              		.loc 1 181 76 view .LVU255
 2881 0002 FFF7FEFF 		bl	Default_Handler
 2882              	.LVL124:
 2883              		.cfi_endproc
 2884              	.LFE454:
 2886              		.section	.text.DFSDM1_FLT3_IRQHandler,"ax",%progbits
 2887              		.align	1
 2888              		.weak	DFSDM1_FLT3_IRQHandler
 2889              		.syntax unified
 2890              		.thumb
 2891              		.thumb_func
 2893              	DFSDM1_FLT3_IRQHandler:
 2894              	.LFB455:
 182:startup_stm32h743xx.c **** __weak void DFSDM1_FLT3_IRQHandler(void)                                  {Default_Handler();}
 2895              		.loc 1 182 75 view -0
 2896              		.cfi_startproc
 2897              		@ args = 0, pretend = 0, frame = 0
 2898              		@ frame_needed = 0, uses_anonymous_args = 0
 2899 0000 08B5     		push	{r3, lr}
ARM GAS  C:\Users\jisu8\AppData\Local\Temp\cc493r1c.s 			page 51


 2900              	.LCFI116:
 2901              		.cfi_def_cfa_offset 8
 2902              		.cfi_offset 3, -8
 2903              		.cfi_offset 14, -4
 2904              		.loc 1 182 76 view .LVU257
 2905 0002 FFF7FEFF 		bl	Default_Handler
 2906              	.LVL125:
 2907              		.cfi_endproc
 2908              	.LFE455:
 2910              		.section	.text.SAI3_IRQHandler,"ax",%progbits
 2911              		.align	1
 2912              		.weak	SAI3_IRQHandler
 2913              		.syntax unified
 2914              		.thumb
 2915              		.thumb_func
 2917              	SAI3_IRQHandler:
 2918              	.LFB456:
 183:startup_stm32h743xx.c **** __weak void SAI3_IRQHandler(void)                                         {Default_Handler();}
 2919              		.loc 1 183 75 view -0
 2920              		.cfi_startproc
 2921              		@ args = 0, pretend = 0, frame = 0
 2922              		@ frame_needed = 0, uses_anonymous_args = 0
 2923 0000 08B5     		push	{r3, lr}
 2924              	.LCFI117:
 2925              		.cfi_def_cfa_offset 8
 2926              		.cfi_offset 3, -8
 2927              		.cfi_offset 14, -4
 2928              		.loc 1 183 76 view .LVU259
 2929 0002 FFF7FEFF 		bl	Default_Handler
 2930              	.LVL126:
 2931              		.cfi_endproc
 2932              	.LFE456:
 2934              		.section	.text.SWPMI1_IRQHandler,"ax",%progbits
 2935              		.align	1
 2936              		.weak	SWPMI1_IRQHandler
 2937              		.syntax unified
 2938              		.thumb
 2939              		.thumb_func
 2941              	SWPMI1_IRQHandler:
 2942              	.LFB457:
 184:startup_stm32h743xx.c **** __weak void SWPMI1_IRQHandler(void)                                       {Default_Handler();}
 2943              		.loc 1 184 75 view -0
 2944              		.cfi_startproc
 2945              		@ args = 0, pretend = 0, frame = 0
 2946              		@ frame_needed = 0, uses_anonymous_args = 0
 2947 0000 08B5     		push	{r3, lr}
 2948              	.LCFI118:
 2949              		.cfi_def_cfa_offset 8
 2950              		.cfi_offset 3, -8
 2951              		.cfi_offset 14, -4
 2952              		.loc 1 184 76 view .LVU261
 2953 0002 FFF7FEFF 		bl	Default_Handler
 2954              	.LVL127:
 2955              		.cfi_endproc
 2956              	.LFE457:
 2958              		.section	.text.MDIOS_WKUP_IRQHandler,"ax",%progbits
 2959              		.align	1
ARM GAS  C:\Users\jisu8\AppData\Local\Temp\cc493r1c.s 			page 52


 2960              		.weak	MDIOS_WKUP_IRQHandler
 2961              		.syntax unified
 2962              		.thumb
 2963              		.thumb_func
 2965              	MDIOS_WKUP_IRQHandler:
 2966              	.LFB461:
 185:startup_stm32h743xx.c **** __weak void TIM15_IRQHandler(void)                                        {TIM15_Handler();}
 186:startup_stm32h743xx.c **** __weak void TIM16_IRQHandler(void)                                        {TIM16_Handler();}
 187:startup_stm32h743xx.c **** __weak void TIM17_IRQHandler(void)                                        {TIM17_Handler();}
 188:startup_stm32h743xx.c **** __weak void MDIOS_WKUP_IRQHandler(void)                                   {Default_Handler();}
 2967              		.loc 1 188 75 view -0
 2968              		.cfi_startproc
 2969              		@ args = 0, pretend = 0, frame = 0
 2970              		@ frame_needed = 0, uses_anonymous_args = 0
 2971 0000 08B5     		push	{r3, lr}
 2972              	.LCFI119:
 2973              		.cfi_def_cfa_offset 8
 2974              		.cfi_offset 3, -8
 2975              		.cfi_offset 14, -4
 2976              		.loc 1 188 76 view .LVU263
 2977 0002 FFF7FEFF 		bl	Default_Handler
 2978              	.LVL128:
 2979              		.cfi_endproc
 2980              	.LFE461:
 2982              		.section	.text.MDIOS_IRQHandler,"ax",%progbits
 2983              		.align	1
 2984              		.weak	MDIOS_IRQHandler
 2985              		.syntax unified
 2986              		.thumb
 2987              		.thumb_func
 2989              	MDIOS_IRQHandler:
 2990              	.LFB462:
 189:startup_stm32h743xx.c **** __weak void MDIOS_IRQHandler(void)                                        {Default_Handler();}
 2991              		.loc 1 189 75 view -0
 2992              		.cfi_startproc
 2993              		@ args = 0, pretend = 0, frame = 0
 2994              		@ frame_needed = 0, uses_anonymous_args = 0
 2995 0000 08B5     		push	{r3, lr}
 2996              	.LCFI120:
 2997              		.cfi_def_cfa_offset 8
 2998              		.cfi_offset 3, -8
 2999              		.cfi_offset 14, -4
 3000              		.loc 1 189 76 view .LVU265
 3001 0002 FFF7FEFF 		bl	Default_Handler
 3002              	.LVL129:
 3003              		.cfi_endproc
 3004              	.LFE462:
 3006              		.section	.text.JPEG_IRQHandler,"ax",%progbits
 3007              		.align	1
 3008              		.weak	JPEG_IRQHandler
 3009              		.syntax unified
 3010              		.thumb
 3011              		.thumb_func
 3013              	JPEG_IRQHandler:
 3014              	.LFB463:
 190:startup_stm32h743xx.c **** __weak void JPEG_IRQHandler(void)                                         {Default_Handler();}
 3015              		.loc 1 190 75 view -0
ARM GAS  C:\Users\jisu8\AppData\Local\Temp\cc493r1c.s 			page 53


 3016              		.cfi_startproc
 3017              		@ args = 0, pretend = 0, frame = 0
 3018              		@ frame_needed = 0, uses_anonymous_args = 0
 3019 0000 08B5     		push	{r3, lr}
 3020              	.LCFI121:
 3021              		.cfi_def_cfa_offset 8
 3022              		.cfi_offset 3, -8
 3023              		.cfi_offset 14, -4
 3024              		.loc 1 190 76 view .LVU267
 3025 0002 FFF7FEFF 		bl	Default_Handler
 3026              	.LVL130:
 3027              		.cfi_endproc
 3028              	.LFE463:
 3030              		.section	.text.MDMA_IRQHandler,"ax",%progbits
 3031              		.align	1
 3032              		.weak	MDMA_IRQHandler
 3033              		.syntax unified
 3034              		.thumb
 3035              		.thumb_func
 3037              	MDMA_IRQHandler:
 3038              	.LFB464:
 191:startup_stm32h743xx.c **** __weak void MDMA_IRQHandler(void)                                         {Default_Handler();}
 3039              		.loc 1 191 75 view -0
 3040              		.cfi_startproc
 3041              		@ args = 0, pretend = 0, frame = 0
 3042              		@ frame_needed = 0, uses_anonymous_args = 0
 3043 0000 08B5     		push	{r3, lr}
 3044              	.LCFI122:
 3045              		.cfi_def_cfa_offset 8
 3046              		.cfi_offset 3, -8
 3047              		.cfi_offset 14, -4
 3048              		.loc 1 191 76 view .LVU269
 3049 0002 FFF7FEFF 		bl	Default_Handler
 3050              	.LVL131:
 3051              		.cfi_endproc
 3052              	.LFE464:
 3054              		.section	.text.SDMMC2_IRQHandler,"ax",%progbits
 3055              		.align	1
 3056              		.weak	SDMMC2_IRQHandler
 3057              		.syntax unified
 3058              		.thumb
 3059              		.thumb_func
 3061              	SDMMC2_IRQHandler:
 3062              	.LFB465:
 192:startup_stm32h743xx.c **** __weak void SDMMC2_IRQHandler(void)                                       {Default_Handler();}
 3063              		.loc 1 192 75 view -0
 3064              		.cfi_startproc
 3065              		@ args = 0, pretend = 0, frame = 0
 3066              		@ frame_needed = 0, uses_anonymous_args = 0
 3067 0000 08B5     		push	{r3, lr}
 3068              	.LCFI123:
 3069              		.cfi_def_cfa_offset 8
 3070              		.cfi_offset 3, -8
 3071              		.cfi_offset 14, -4
 3072              		.loc 1 192 76 view .LVU271
 3073 0002 FFF7FEFF 		bl	Default_Handler
 3074              	.LVL132:
ARM GAS  C:\Users\jisu8\AppData\Local\Temp\cc493r1c.s 			page 54


 3075              		.cfi_endproc
 3076              	.LFE465:
 3078              		.section	.text.HSEM1_IRQHandler,"ax",%progbits
 3079              		.align	1
 3080              		.weak	HSEM1_IRQHandler
 3081              		.syntax unified
 3082              		.thumb
 3083              		.thumb_func
 3085              	HSEM1_IRQHandler:
 3086              	.LFB466:
 193:startup_stm32h743xx.c **** __weak void HSEM1_IRQHandler(void)                                        {Default_Handler();}
 3087              		.loc 1 193 75 view -0
 3088              		.cfi_startproc
 3089              		@ args = 0, pretend = 0, frame = 0
 3090              		@ frame_needed = 0, uses_anonymous_args = 0
 3091 0000 08B5     		push	{r3, lr}
 3092              	.LCFI124:
 3093              		.cfi_def_cfa_offset 8
 3094              		.cfi_offset 3, -8
 3095              		.cfi_offset 14, -4
 3096              		.loc 1 193 76 view .LVU273
 3097 0002 FFF7FEFF 		bl	Default_Handler
 3098              	.LVL133:
 3099              		.cfi_endproc
 3100              	.LFE466:
 3102              		.section	.text.ADC3_IRQHandler,"ax",%progbits
 3103              		.align	1
 3104              		.weak	ADC3_IRQHandler
 3105              		.syntax unified
 3106              		.thumb
 3107              		.thumb_func
 3109              	ADC3_IRQHandler:
 3110              	.LFB467:
 194:startup_stm32h743xx.c **** __weak void ADC3_IRQHandler(void)                                         {Default_Handler();}
 3111              		.loc 1 194 75 view -0
 3112              		.cfi_startproc
 3113              		@ args = 0, pretend = 0, frame = 0
 3114              		@ frame_needed = 0, uses_anonymous_args = 0
 3115 0000 08B5     		push	{r3, lr}
 3116              	.LCFI125:
 3117              		.cfi_def_cfa_offset 8
 3118              		.cfi_offset 3, -8
 3119              		.cfi_offset 14, -4
 3120              		.loc 1 194 76 view .LVU275
 3121 0002 FFF7FEFF 		bl	Default_Handler
 3122              	.LVL134:
 3123              		.cfi_endproc
 3124              	.LFE467:
 3126              		.section	.text.DMAMUX2_OVR_IRQHandler,"ax",%progbits
 3127              		.align	1
 3128              		.weak	DMAMUX2_OVR_IRQHandler
 3129              		.syntax unified
 3130              		.thumb
 3131              		.thumb_func
 3133              	DMAMUX2_OVR_IRQHandler:
 3134              	.LFB468:
 195:startup_stm32h743xx.c **** __weak void DMAMUX2_OVR_IRQHandler(void)                                  {Default_Handler();}
ARM GAS  C:\Users\jisu8\AppData\Local\Temp\cc493r1c.s 			page 55


 3135              		.loc 1 195 75 view -0
 3136              		.cfi_startproc
 3137              		@ args = 0, pretend = 0, frame = 0
 3138              		@ frame_needed = 0, uses_anonymous_args = 0
 3139 0000 08B5     		push	{r3, lr}
 3140              	.LCFI126:
 3141              		.cfi_def_cfa_offset 8
 3142              		.cfi_offset 3, -8
 3143              		.cfi_offset 14, -4
 3144              		.loc 1 195 76 view .LVU277
 3145 0002 FFF7FEFF 		bl	Default_Handler
 3146              	.LVL135:
 3147              		.cfi_endproc
 3148              	.LFE468:
 3150              		.section	.text.BDMA_Channel0_IRQHandler,"ax",%progbits
 3151              		.align	1
 3152              		.weak	BDMA_Channel0_IRQHandler
 3153              		.syntax unified
 3154              		.thumb
 3155              		.thumb_func
 3157              	BDMA_Channel0_IRQHandler:
 3158              	.LFB469:
 196:startup_stm32h743xx.c **** __weak void BDMA_Channel0_IRQHandler(void)                                {Default_Handler();}
 3159              		.loc 1 196 75 view -0
 3160              		.cfi_startproc
 3161              		@ args = 0, pretend = 0, frame = 0
 3162              		@ frame_needed = 0, uses_anonymous_args = 0
 3163 0000 08B5     		push	{r3, lr}
 3164              	.LCFI127:
 3165              		.cfi_def_cfa_offset 8
 3166              		.cfi_offset 3, -8
 3167              		.cfi_offset 14, -4
 3168              		.loc 1 196 76 view .LVU279
 3169 0002 FFF7FEFF 		bl	Default_Handler
 3170              	.LVL136:
 3171              		.cfi_endproc
 3172              	.LFE469:
 3174              		.section	.text.BDMA_Channel1_IRQHandler,"ax",%progbits
 3175              		.align	1
 3176              		.weak	BDMA_Channel1_IRQHandler
 3177              		.syntax unified
 3178              		.thumb
 3179              		.thumb_func
 3181              	BDMA_Channel1_IRQHandler:
 3182              	.LFB470:
 197:startup_stm32h743xx.c **** __weak void BDMA_Channel1_IRQHandler(void)                                {Default_Handler();}
 3183              		.loc 1 197 75 view -0
 3184              		.cfi_startproc
 3185              		@ args = 0, pretend = 0, frame = 0
 3186              		@ frame_needed = 0, uses_anonymous_args = 0
 3187 0000 08B5     		push	{r3, lr}
 3188              	.LCFI128:
 3189              		.cfi_def_cfa_offset 8
 3190              		.cfi_offset 3, -8
 3191              		.cfi_offset 14, -4
 3192              		.loc 1 197 76 view .LVU281
 3193 0002 FFF7FEFF 		bl	Default_Handler
ARM GAS  C:\Users\jisu8\AppData\Local\Temp\cc493r1c.s 			page 56


 3194              	.LVL137:
 3195              		.cfi_endproc
 3196              	.LFE470:
 3198              		.section	.text.BDMA_Channel2_IRQHandler,"ax",%progbits
 3199              		.align	1
 3200              		.weak	BDMA_Channel2_IRQHandler
 3201              		.syntax unified
 3202              		.thumb
 3203              		.thumb_func
 3205              	BDMA_Channel2_IRQHandler:
 3206              	.LFB471:
 198:startup_stm32h743xx.c **** __weak void BDMA_Channel2_IRQHandler(void)                                {Default_Handler();}
 3207              		.loc 1 198 75 view -0
 3208              		.cfi_startproc
 3209              		@ args = 0, pretend = 0, frame = 0
 3210              		@ frame_needed = 0, uses_anonymous_args = 0
 3211 0000 08B5     		push	{r3, lr}
 3212              	.LCFI129:
 3213              		.cfi_def_cfa_offset 8
 3214              		.cfi_offset 3, -8
 3215              		.cfi_offset 14, -4
 3216              		.loc 1 198 76 view .LVU283
 3217 0002 FFF7FEFF 		bl	Default_Handler
 3218              	.LVL138:
 3219              		.cfi_endproc
 3220              	.LFE471:
 3222              		.section	.text.BDMA_Channel3_IRQHandler,"ax",%progbits
 3223              		.align	1
 3224              		.weak	BDMA_Channel3_IRQHandler
 3225              		.syntax unified
 3226              		.thumb
 3227              		.thumb_func
 3229              	BDMA_Channel3_IRQHandler:
 3230              	.LFB472:
 199:startup_stm32h743xx.c **** __weak void BDMA_Channel3_IRQHandler(void)                                {Default_Handler();}
 3231              		.loc 1 199 75 view -0
 3232              		.cfi_startproc
 3233              		@ args = 0, pretend = 0, frame = 0
 3234              		@ frame_needed = 0, uses_anonymous_args = 0
 3235 0000 08B5     		push	{r3, lr}
 3236              	.LCFI130:
 3237              		.cfi_def_cfa_offset 8
 3238              		.cfi_offset 3, -8
 3239              		.cfi_offset 14, -4
 3240              		.loc 1 199 76 view .LVU285
 3241 0002 FFF7FEFF 		bl	Default_Handler
 3242              	.LVL139:
 3243              		.cfi_endproc
 3244              	.LFE472:
 3246              		.section	.text.BDMA_Channel4_IRQHandler,"ax",%progbits
 3247              		.align	1
 3248              		.weak	BDMA_Channel4_IRQHandler
 3249              		.syntax unified
 3250              		.thumb
 3251              		.thumb_func
 3253              	BDMA_Channel4_IRQHandler:
 3254              	.LFB473:
ARM GAS  C:\Users\jisu8\AppData\Local\Temp\cc493r1c.s 			page 57


 200:startup_stm32h743xx.c **** __weak void BDMA_Channel4_IRQHandler(void)                                {Default_Handler();}
 3255              		.loc 1 200 75 view -0
 3256              		.cfi_startproc
 3257              		@ args = 0, pretend = 0, frame = 0
 3258              		@ frame_needed = 0, uses_anonymous_args = 0
 3259 0000 08B5     		push	{r3, lr}
 3260              	.LCFI131:
 3261              		.cfi_def_cfa_offset 8
 3262              		.cfi_offset 3, -8
 3263              		.cfi_offset 14, -4
 3264              		.loc 1 200 76 view .LVU287
 3265 0002 FFF7FEFF 		bl	Default_Handler
 3266              	.LVL140:
 3267              		.cfi_endproc
 3268              	.LFE473:
 3270              		.section	.text.BDMA_Channel5_IRQHandler,"ax",%progbits
 3271              		.align	1
 3272              		.weak	BDMA_Channel5_IRQHandler
 3273              		.syntax unified
 3274              		.thumb
 3275              		.thumb_func
 3277              	BDMA_Channel5_IRQHandler:
 3278              	.LFB474:
 201:startup_stm32h743xx.c **** __weak void BDMA_Channel5_IRQHandler(void)                                {Default_Handler();}
 3279              		.loc 1 201 75 view -0
 3280              		.cfi_startproc
 3281              		@ args = 0, pretend = 0, frame = 0
 3282              		@ frame_needed = 0, uses_anonymous_args = 0
 3283 0000 08B5     		push	{r3, lr}
 3284              	.LCFI132:
 3285              		.cfi_def_cfa_offset 8
 3286              		.cfi_offset 3, -8
 3287              		.cfi_offset 14, -4
 3288              		.loc 1 201 76 view .LVU289
 3289 0002 FFF7FEFF 		bl	Default_Handler
 3290              	.LVL141:
 3291              		.cfi_endproc
 3292              	.LFE474:
 3294              		.section	.text.BDMA_Channel6_IRQHandler,"ax",%progbits
 3295              		.align	1
 3296              		.weak	BDMA_Channel6_IRQHandler
 3297              		.syntax unified
 3298              		.thumb
 3299              		.thumb_func
 3301              	BDMA_Channel6_IRQHandler:
 3302              	.LFB475:
 202:startup_stm32h743xx.c **** __weak void BDMA_Channel6_IRQHandler(void)                                {Default_Handler();}
 3303              		.loc 1 202 75 view -0
 3304              		.cfi_startproc
 3305              		@ args = 0, pretend = 0, frame = 0
 3306              		@ frame_needed = 0, uses_anonymous_args = 0
 3307 0000 08B5     		push	{r3, lr}
 3308              	.LCFI133:
 3309              		.cfi_def_cfa_offset 8
 3310              		.cfi_offset 3, -8
 3311              		.cfi_offset 14, -4
 3312              		.loc 1 202 76 view .LVU291
ARM GAS  C:\Users\jisu8\AppData\Local\Temp\cc493r1c.s 			page 58


 3313 0002 FFF7FEFF 		bl	Default_Handler
 3314              	.LVL142:
 3315              		.cfi_endproc
 3316              	.LFE475:
 3318              		.section	.text.BDMA_Channel7_IRQHandler,"ax",%progbits
 3319              		.align	1
 3320              		.weak	BDMA_Channel7_IRQHandler
 3321              		.syntax unified
 3322              		.thumb
 3323              		.thumb_func
 3325              	BDMA_Channel7_IRQHandler:
 3326              	.LFB476:
 203:startup_stm32h743xx.c **** __weak void BDMA_Channel7_IRQHandler(void)                                {Default_Handler();}
 3327              		.loc 1 203 75 view -0
 3328              		.cfi_startproc
 3329              		@ args = 0, pretend = 0, frame = 0
 3330              		@ frame_needed = 0, uses_anonymous_args = 0
 3331 0000 08B5     		push	{r3, lr}
 3332              	.LCFI134:
 3333              		.cfi_def_cfa_offset 8
 3334              		.cfi_offset 3, -8
 3335              		.cfi_offset 14, -4
 3336              		.loc 1 203 76 view .LVU293
 3337 0002 FFF7FEFF 		bl	Default_Handler
 3338              	.LVL143:
 3339              		.cfi_endproc
 3340              	.LFE476:
 3342              		.section	.text.COMP1_IRQHandler,"ax",%progbits
 3343              		.align	1
 3344              		.weak	COMP1_IRQHandler
 3345              		.syntax unified
 3346              		.thumb
 3347              		.thumb_func
 3349              	COMP1_IRQHandler:
 3350              	.LFB477:
 204:startup_stm32h743xx.c **** __weak void COMP1_IRQHandler(void)                                        {Default_Handler();}
 3351              		.loc 1 204 75 view -0
 3352              		.cfi_startproc
 3353              		@ args = 0, pretend = 0, frame = 0
 3354              		@ frame_needed = 0, uses_anonymous_args = 0
 3355 0000 08B5     		push	{r3, lr}
 3356              	.LCFI135:
 3357              		.cfi_def_cfa_offset 8
 3358              		.cfi_offset 3, -8
 3359              		.cfi_offset 14, -4
 3360              		.loc 1 204 76 view .LVU295
 3361 0002 FFF7FEFF 		bl	Default_Handler
 3362              	.LVL144:
 3363              		.cfi_endproc
 3364              	.LFE477:
 3366              		.section	.text.LPTIM2_IRQHandler,"ax",%progbits
 3367              		.align	1
 3368              		.weak	LPTIM2_IRQHandler
 3369              		.syntax unified
 3370              		.thumb
 3371              		.thumb_func
 3373              	LPTIM2_IRQHandler:
ARM GAS  C:\Users\jisu8\AppData\Local\Temp\cc493r1c.s 			page 59


 3374              	.LFB478:
 205:startup_stm32h743xx.c **** __weak void LPTIM2_IRQHandler(void)                                       {Default_Handler();}
 3375              		.loc 1 205 75 view -0
 3376              		.cfi_startproc
 3377              		@ args = 0, pretend = 0, frame = 0
 3378              		@ frame_needed = 0, uses_anonymous_args = 0
 3379 0000 08B5     		push	{r3, lr}
 3380              	.LCFI136:
 3381              		.cfi_def_cfa_offset 8
 3382              		.cfi_offset 3, -8
 3383              		.cfi_offset 14, -4
 3384              		.loc 1 205 76 view .LVU297
 3385 0002 FFF7FEFF 		bl	Default_Handler
 3386              	.LVL145:
 3387              		.cfi_endproc
 3388              	.LFE478:
 3390              		.section	.text.LPTIM3_IRQHandler,"ax",%progbits
 3391              		.align	1
 3392              		.weak	LPTIM3_IRQHandler
 3393              		.syntax unified
 3394              		.thumb
 3395              		.thumb_func
 3397              	LPTIM3_IRQHandler:
 3398              	.LFB479:
 206:startup_stm32h743xx.c **** __weak void LPTIM3_IRQHandler(void)                                       {Default_Handler();}
 3399              		.loc 1 206 75 view -0
 3400              		.cfi_startproc
 3401              		@ args = 0, pretend = 0, frame = 0
 3402              		@ frame_needed = 0, uses_anonymous_args = 0
 3403 0000 08B5     		push	{r3, lr}
 3404              	.LCFI137:
 3405              		.cfi_def_cfa_offset 8
 3406              		.cfi_offset 3, -8
 3407              		.cfi_offset 14, -4
 3408              		.loc 1 206 76 view .LVU299
 3409 0002 FFF7FEFF 		bl	Default_Handler
 3410              	.LVL146:
 3411              		.cfi_endproc
 3412              	.LFE479:
 3414              		.section	.text.LPTIM4_IRQHandler,"ax",%progbits
 3415              		.align	1
 3416              		.weak	LPTIM4_IRQHandler
 3417              		.syntax unified
 3418              		.thumb
 3419              		.thumb_func
 3421              	LPTIM4_IRQHandler:
 3422              	.LFB480:
 207:startup_stm32h743xx.c **** __weak void LPTIM4_IRQHandler(void)                                       {Default_Handler();}
 3423              		.loc 1 207 75 view -0
 3424              		.cfi_startproc
 3425              		@ args = 0, pretend = 0, frame = 0
 3426              		@ frame_needed = 0, uses_anonymous_args = 0
 3427 0000 08B5     		push	{r3, lr}
 3428              	.LCFI138:
 3429              		.cfi_def_cfa_offset 8
 3430              		.cfi_offset 3, -8
 3431              		.cfi_offset 14, -4
ARM GAS  C:\Users\jisu8\AppData\Local\Temp\cc493r1c.s 			page 60


 3432              		.loc 1 207 76 view .LVU301
 3433 0002 FFF7FEFF 		bl	Default_Handler
 3434              	.LVL147:
 3435              		.cfi_endproc
 3436              	.LFE480:
 3438              		.section	.text.LPTIM5_IRQHandler,"ax",%progbits
 3439              		.align	1
 3440              		.weak	LPTIM5_IRQHandler
 3441              		.syntax unified
 3442              		.thumb
 3443              		.thumb_func
 3445              	LPTIM5_IRQHandler:
 3446              	.LFB481:
 208:startup_stm32h743xx.c **** __weak void LPTIM5_IRQHandler(void)                                       {Default_Handler();}
 3447              		.loc 1 208 75 view -0
 3448              		.cfi_startproc
 3449              		@ args = 0, pretend = 0, frame = 0
 3450              		@ frame_needed = 0, uses_anonymous_args = 0
 3451 0000 08B5     		push	{r3, lr}
 3452              	.LCFI139:
 3453              		.cfi_def_cfa_offset 8
 3454              		.cfi_offset 3, -8
 3455              		.cfi_offset 14, -4
 3456              		.loc 1 208 76 view .LVU303
 3457 0002 FFF7FEFF 		bl	Default_Handler
 3458              	.LVL148:
 3459              		.cfi_endproc
 3460              	.LFE481:
 3462              		.section	.text.LPUART1_IRQHandler,"ax",%progbits
 3463              		.align	1
 3464              		.weak	LPUART1_IRQHandler
 3465              		.syntax unified
 3466              		.thumb
 3467              		.thumb_func
 3469              	LPUART1_IRQHandler:
 3470              	.LFB482:
 209:startup_stm32h743xx.c **** __weak void LPUART1_IRQHandler(void)                                      {Default_Handler();}
 3471              		.loc 1 209 75 view -0
 3472              		.cfi_startproc
 3473              		@ args = 0, pretend = 0, frame = 0
 3474              		@ frame_needed = 0, uses_anonymous_args = 0
 3475 0000 08B5     		push	{r3, lr}
 3476              	.LCFI140:
 3477              		.cfi_def_cfa_offset 8
 3478              		.cfi_offset 3, -8
 3479              		.cfi_offset 14, -4
 3480              		.loc 1 209 76 view .LVU305
 3481 0002 FFF7FEFF 		bl	Default_Handler
 3482              	.LVL149:
 3483              		.cfi_endproc
 3484              	.LFE482:
 3486              		.section	.text.CRS_IRQHandler,"ax",%progbits
 3487              		.align	1
 3488              		.weak	CRS_IRQHandler
 3489              		.syntax unified
 3490              		.thumb
 3491              		.thumb_func
ARM GAS  C:\Users\jisu8\AppData\Local\Temp\cc493r1c.s 			page 61


 3493              	CRS_IRQHandler:
 3494              	.LFB483:
 210:startup_stm32h743xx.c **** __weak void CRS_IRQHandler(void)                                          {Default_Handler();}
 3495              		.loc 1 210 75 view -0
 3496              		.cfi_startproc
 3497              		@ args = 0, pretend = 0, frame = 0
 3498              		@ frame_needed = 0, uses_anonymous_args = 0
 3499 0000 08B5     		push	{r3, lr}
 3500              	.LCFI141:
 3501              		.cfi_def_cfa_offset 8
 3502              		.cfi_offset 3, -8
 3503              		.cfi_offset 14, -4
 3504              		.loc 1 210 76 view .LVU307
 3505 0002 FFF7FEFF 		bl	Default_Handler
 3506              	.LVL150:
 3507              		.cfi_endproc
 3508              	.LFE483:
 3510              		.section	.text.ECC_IRQHandler,"ax",%progbits
 3511              		.align	1
 3512              		.weak	ECC_IRQHandler
 3513              		.syntax unified
 3514              		.thumb
 3515              		.thumb_func
 3517              	ECC_IRQHandler:
 3518              	.LFB484:
 211:startup_stm32h743xx.c **** __weak void ECC_IRQHandler(void)                                          {Default_Handler();}
 3519              		.loc 1 211 75 view -0
 3520              		.cfi_startproc
 3521              		@ args = 0, pretend = 0, frame = 0
 3522              		@ frame_needed = 0, uses_anonymous_args = 0
 3523 0000 08B5     		push	{r3, lr}
 3524              	.LCFI142:
 3525              		.cfi_def_cfa_offset 8
 3526              		.cfi_offset 3, -8
 3527              		.cfi_offset 14, -4
 3528              		.loc 1 211 76 view .LVU309
 3529 0002 FFF7FEFF 		bl	Default_Handler
 3530              	.LVL151:
 3531              		.cfi_endproc
 3532              	.LFE484:
 3534              		.section	.text.SAI4_IRQHandler,"ax",%progbits
 3535              		.align	1
 3536              		.weak	SAI4_IRQHandler
 3537              		.syntax unified
 3538              		.thumb
 3539              		.thumb_func
 3541              	SAI4_IRQHandler:
 3542              	.LFB485:
 212:startup_stm32h743xx.c **** __weak void SAI4_IRQHandler(void)                                         {Default_Handler();}
 3543              		.loc 1 212 75 view -0
 3544              		.cfi_startproc
 3545              		@ args = 0, pretend = 0, frame = 0
 3546              		@ frame_needed = 0, uses_anonymous_args = 0
 3547 0000 08B5     		push	{r3, lr}
 3548              	.LCFI143:
 3549              		.cfi_def_cfa_offset 8
 3550              		.cfi_offset 3, -8
ARM GAS  C:\Users\jisu8\AppData\Local\Temp\cc493r1c.s 			page 62


 3551              		.cfi_offset 14, -4
 3552              		.loc 1 212 76 view .LVU311
 3553 0002 FFF7FEFF 		bl	Default_Handler
 3554              	.LVL152:
 3555              		.cfi_endproc
 3556              	.LFE485:
 3558              		.section	.text.WAKEUP_PIN_IRQHandler,"ax",%progbits
 3559              		.align	1
 3560              		.weak	WAKEUP_PIN_IRQHandler
 3561              		.syntax unified
 3562              		.thumb
 3563              		.thumb_func
 3565              	WAKEUP_PIN_IRQHandler:
 3566              	.LFB486:
 213:startup_stm32h743xx.c **** __weak void WAKEUP_PIN_IRQHandler(void)                                   {Default_Handler();}
 3567              		.loc 1 213 75 view -0
 3568              		.cfi_startproc
 3569              		@ args = 0, pretend = 0, frame = 0
 3570              		@ frame_needed = 0, uses_anonymous_args = 0
 3571 0000 08B5     		push	{r3, lr}
 3572              	.LCFI144:
 3573              		.cfi_def_cfa_offset 8
 3574              		.cfi_offset 3, -8
 3575              		.cfi_offset 14, -4
 3576              		.loc 1 213 76 view .LVU313
 3577 0002 FFF7FEFF 		bl	Default_Handler
 3578              	.LVL153:
 3579              		.cfi_endproc
 3580              	.LFE486:
 3582              		.section	.text.TIM15_Handler,"ax",%progbits
 3583              		.align	1
 3584              		.global	TIM15_Handler
 3585              		.syntax unified
 3586              		.thumb
 3587              		.thumb_func
 3589              	TIM15_Handler:
 3590              	.LFB335:
  42:startup_stm32h743xx.c ****     HAL_TIM_IRQHandler(&htim15);
 3591              		.loc 1 42 1 view -0
 3592              		.cfi_startproc
 3593              		@ args = 0, pretend = 0, frame = 0
 3594              		@ frame_needed = 0, uses_anonymous_args = 0
 3595 0000 08B5     		push	{r3, lr}
 3596              	.LCFI145:
 3597              		.cfi_def_cfa_offset 8
 3598              		.cfi_offset 3, -8
 3599              		.cfi_offset 14, -4
  43:startup_stm32h743xx.c **** }
 3600              		.loc 1 43 5 view .LVU315
 3601 0002 0248     		ldr	r0, .L302
 3602 0004 FFF7FEFF 		bl	HAL_TIM_IRQHandler
 3603              	.LVL154:
  44:startup_stm32h743xx.c **** 
 3604              		.loc 1 44 1 is_stmt 0 view .LVU316
 3605 0008 08BD     		pop	{r3, pc}
 3606              	.L303:
 3607 000a 00BF     		.align	2
ARM GAS  C:\Users\jisu8\AppData\Local\Temp\cc493r1c.s 			page 63


 3608              	.L302:
 3609 000c 00000000 		.word	htim15
 3610              		.cfi_endproc
 3611              	.LFE335:
 3613              		.section	.text.TIM15_IRQHandler,"ax",%progbits
 3614              		.align	1
 3615              		.weak	TIM15_IRQHandler
 3616              		.syntax unified
 3617              		.thumb
 3618              		.thumb_func
 3620              	TIM15_IRQHandler:
 3621              	.LFB458:
 185:startup_stm32h743xx.c **** __weak void TIM16_IRQHandler(void)                                        {TIM16_Handler();}
 3622              		.loc 1 185 75 is_stmt 1 view -0
 3623              		.cfi_startproc
 3624              		@ args = 0, pretend = 0, frame = 0
 3625              		@ frame_needed = 0, uses_anonymous_args = 0
 3626 0000 08B5     		push	{r3, lr}
 3627              	.LCFI146:
 3628              		.cfi_def_cfa_offset 8
 3629              		.cfi_offset 3, -8
 3630              		.cfi_offset 14, -4
 185:startup_stm32h743xx.c **** __weak void TIM16_IRQHandler(void)                                        {TIM16_Handler();}
 3631              		.loc 1 185 76 view .LVU318
 3632 0002 FFF7FEFF 		bl	TIM15_Handler
 3633              	.LVL155:
 185:startup_stm32h743xx.c **** __weak void TIM16_IRQHandler(void)                                        {TIM16_Handler();}
 3634              		.loc 1 185 92 is_stmt 0 view .LVU319
 3635 0006 08BD     		pop	{r3, pc}
 3636              		.cfi_endproc
 3637              	.LFE458:
 3639              		.section	.text.TIM16_Handler,"ax",%progbits
 3640              		.align	1
 3641              		.global	TIM16_Handler
 3642              		.syntax unified
 3643              		.thumb
 3644              		.thumb_func
 3646              	TIM16_Handler:
 3647              	.LFB336:
  47:startup_stm32h743xx.c ****     HAL_TIM_IRQHandler(&htim16);
 3648              		.loc 1 47 1 is_stmt 1 view -0
 3649              		.cfi_startproc
 3650              		@ args = 0, pretend = 0, frame = 0
 3651              		@ frame_needed = 0, uses_anonymous_args = 0
 3652 0000 08B5     		push	{r3, lr}
 3653              	.LCFI147:
 3654              		.cfi_def_cfa_offset 8
 3655              		.cfi_offset 3, -8
 3656              		.cfi_offset 14, -4
  48:startup_stm32h743xx.c **** }
 3657              		.loc 1 48 5 view .LVU321
 3658 0002 0248     		ldr	r0, .L308
 3659 0004 FFF7FEFF 		bl	HAL_TIM_IRQHandler
 3660              	.LVL156:
  49:startup_stm32h743xx.c **** 
 3661              		.loc 1 49 1 is_stmt 0 view .LVU322
 3662 0008 08BD     		pop	{r3, pc}
ARM GAS  C:\Users\jisu8\AppData\Local\Temp\cc493r1c.s 			page 64


 3663              	.L309:
 3664 000a 00BF     		.align	2
 3665              	.L308:
 3666 000c 00000000 		.word	htim16
 3667              		.cfi_endproc
 3668              	.LFE336:
 3670              		.section	.text.TIM16_IRQHandler,"ax",%progbits
 3671              		.align	1
 3672              		.weak	TIM16_IRQHandler
 3673              		.syntax unified
 3674              		.thumb
 3675              		.thumb_func
 3677              	TIM16_IRQHandler:
 3678              	.LFB459:
 186:startup_stm32h743xx.c **** __weak void TIM17_IRQHandler(void)                                        {TIM17_Handler();}
 3679              		.loc 1 186 75 is_stmt 1 view -0
 3680              		.cfi_startproc
 3681              		@ args = 0, pretend = 0, frame = 0
 3682              		@ frame_needed = 0, uses_anonymous_args = 0
 3683 0000 08B5     		push	{r3, lr}
 3684              	.LCFI148:
 3685              		.cfi_def_cfa_offset 8
 3686              		.cfi_offset 3, -8
 3687              		.cfi_offset 14, -4
 186:startup_stm32h743xx.c **** __weak void TIM17_IRQHandler(void)                                        {TIM17_Handler();}
 3688              		.loc 1 186 76 view .LVU324
 3689 0002 FFF7FEFF 		bl	TIM16_Handler
 3690              	.LVL157:
 186:startup_stm32h743xx.c **** __weak void TIM17_IRQHandler(void)                                        {TIM17_Handler();}
 3691              		.loc 1 186 92 is_stmt 0 view .LVU325
 3692 0006 08BD     		pop	{r3, pc}
 3693              		.cfi_endproc
 3694              	.LFE459:
 3696              		.section	.text.TIM17_Handler,"ax",%progbits
 3697              		.align	1
 3698              		.global	TIM17_Handler
 3699              		.syntax unified
 3700              		.thumb
 3701              		.thumb_func
 3703              	TIM17_Handler:
 3704              	.LFB337:
  52:startup_stm32h743xx.c ****     HAL_TIM_IRQHandler(&htim17);
 3705              		.loc 1 52 1 is_stmt 1 view -0
 3706              		.cfi_startproc
 3707              		@ args = 0, pretend = 0, frame = 0
 3708              		@ frame_needed = 0, uses_anonymous_args = 0
 3709 0000 08B5     		push	{r3, lr}
 3710              	.LCFI149:
 3711              		.cfi_def_cfa_offset 8
 3712              		.cfi_offset 3, -8
 3713              		.cfi_offset 14, -4
  53:startup_stm32h743xx.c **** }
 3714              		.loc 1 53 5 view .LVU327
 3715 0002 0248     		ldr	r0, .L314
 3716 0004 FFF7FEFF 		bl	HAL_TIM_IRQHandler
 3717              	.LVL158:
  54:startup_stm32h743xx.c **** 
ARM GAS  C:\Users\jisu8\AppData\Local\Temp\cc493r1c.s 			page 65


 3718              		.loc 1 54 1 is_stmt 0 view .LVU328
 3719 0008 08BD     		pop	{r3, pc}
 3720              	.L315:
 3721 000a 00BF     		.align	2
 3722              	.L314:
 3723 000c 00000000 		.word	htim17
 3724              		.cfi_endproc
 3725              	.LFE337:
 3727              		.section	.text.TIM17_IRQHandler,"ax",%progbits
 3728              		.align	1
 3729              		.weak	TIM17_IRQHandler
 3730              		.syntax unified
 3731              		.thumb
 3732              		.thumb_func
 3734              	TIM17_IRQHandler:
 3735              	.LFB460:
 187:startup_stm32h743xx.c **** __weak void MDIOS_WKUP_IRQHandler(void)                                   {Default_Handler();}
 3736              		.loc 1 187 75 is_stmt 1 view -0
 3737              		.cfi_startproc
 3738              		@ args = 0, pretend = 0, frame = 0
 3739              		@ frame_needed = 0, uses_anonymous_args = 0
 3740 0000 08B5     		push	{r3, lr}
 3741              	.LCFI150:
 3742              		.cfi_def_cfa_offset 8
 3743              		.cfi_offset 3, -8
 3744              		.cfi_offset 14, -4
 187:startup_stm32h743xx.c **** __weak void MDIOS_WKUP_IRQHandler(void)                                   {Default_Handler();}
 3745              		.loc 1 187 76 view .LVU330
 3746 0002 FFF7FEFF 		bl	TIM17_Handler
 3747              	.LVL159:
 187:startup_stm32h743xx.c **** __weak void MDIOS_WKUP_IRQHandler(void)                                   {Default_Handler();}
 3748              		.loc 1 187 92 is_stmt 0 view .LVU331
 3749 0006 08BD     		pop	{r3, pc}
 3750              		.cfi_endproc
 3751              	.LFE460:
 3753              		.section	.text.SystemTick_Handler,"ax",%progbits
 3754              		.align	1
 3755              		.global	SystemTick_Handler
 3756              		.syntax unified
 3757              		.thumb
 3758              		.thumb_func
 3760              	SystemTick_Handler:
 3761              	.LFB338:
  57:startup_stm32h743xx.c ****     /* USER CODE BEGIN SysTick_IRQn 0 */
 3762              		.loc 1 57 1 is_stmt 1 view -0
 3763              		.cfi_startproc
 3764              		@ args = 0, pretend = 0, frame = 0
 3765              		@ frame_needed = 0, uses_anonymous_args = 0
 3766 0000 08B5     		push	{r3, lr}
 3767              	.LCFI151:
 3768              		.cfi_def_cfa_offset 8
 3769              		.cfi_offset 3, -8
 3770              		.cfi_offset 14, -4
  61:startup_stm32h743xx.c ****     /* USER CODE BEGIN SysTick_IRQn 1 */
 3771              		.loc 1 61 5 view .LVU333
 3772 0002 FFF7FEFF 		bl	HAL_IncTick
 3773              	.LVL160:
ARM GAS  C:\Users\jisu8\AppData\Local\Temp\cc493r1c.s 			page 66


  65:startup_stm32h743xx.c **** __weak void NMI_Handler(void)                                             {Default_Handler();}
 3774              		.loc 1 65 1 is_stmt 0 view .LVU334
 3775 0006 08BD     		pop	{r3, pc}
 3776              		.cfi_endproc
 3777              	.LFE338:
 3779              		.section	.text.SysTick_Handler,"ax",%progbits
 3780              		.align	1
 3781              		.weak	SysTick_Handler
 3782              		.syntax unified
 3783              		.thumb
 3784              		.thumb_func
 3786              	SysTick_Handler:
 3787              	.LFB347:
  74:startup_stm32h743xx.c **** __weak void WWDG_IRQHandler(void)                                         {Default_Handler();}
 3788              		.loc 1 74 75 is_stmt 1 view -0
 3789              		.cfi_startproc
 3790              		@ args = 0, pretend = 0, frame = 0
 3791              		@ frame_needed = 0, uses_anonymous_args = 0
 3792 0000 08B5     		push	{r3, lr}
 3793              	.LCFI152:
 3794              		.cfi_def_cfa_offset 8
 3795              		.cfi_offset 3, -8
 3796              		.cfi_offset 14, -4
  74:startup_stm32h743xx.c **** __weak void WWDG_IRQHandler(void)                                         {Default_Handler();}
 3797              		.loc 1 74 76 view .LVU336
 3798 0002 FFF7FEFF 		bl	SystemTick_Handler
 3799              	.LVL161:
  74:startup_stm32h743xx.c **** __weak void WWDG_IRQHandler(void)                                         {Default_Handler();}
 3800              		.loc 1 74 97 is_stmt 0 view .LVU337
 3801 0006 08BD     		pop	{r3, pc}
 3802              		.cfi_endproc
 3803              	.LFE347:
 3805              		.global	VectorTable
 3806              		.section	.isr_vector,"aw"
 3807              		.align	2
 3810              	VectorTable:
 3811 0000 00000000 		.word	_estack
 3812 0004 00000000 		.word	Reset_Handler
 3813 0008 00000000 		.word	NMI_Handler
 3814 000c 00000000 		.word	HardFault_Handler
 3815 0010 00000000 		.word	MemManage_Handler
 3816 0014 00000000 		.word	BusFault_Handler
 3817 0018 00000000 		.word	UsageFault_Handler
 3818 001c 00000000 		.word	0
 3819 0020 00000000 		.word	0
 3820 0024 00000000 		.word	0
 3821 0028 00000000 		.word	0
 3822 002c 00000000 		.word	SVC_Handler
 3823 0030 00000000 		.word	DebugMon_Handler
 3824 0034 00000000 		.word	0
 3825 0038 00000000 		.word	PendSV_Handler
 3826 003c 00000000 		.word	SysTick_Handler
 3827 0040 00000000 		.word	WWDG_IRQHandler
 3828 0044 00000000 		.word	PVD_AVD_IRQHandler
 3829 0048 00000000 		.word	TAMP_STAMP_IRQHandler
 3830 004c 00000000 		.word	RTC_WKUP_IRQHandler
 3831 0050 00000000 		.word	FLASH_IRQHandler
ARM GAS  C:\Users\jisu8\AppData\Local\Temp\cc493r1c.s 			page 67


 3832 0054 00000000 		.word	RCC_IRQHandler
 3833 0058 00000000 		.word	EXTI0_IRQHandler
 3834 005c 00000000 		.word	EXTI1_IRQHandler
 3835 0060 00000000 		.word	EXTI2_IRQHandler
 3836 0064 00000000 		.word	EXTI3_IRQHandler
 3837 0068 00000000 		.word	EXTI4_IRQHandler
 3838 006c 00000000 		.word	DMA1_Stream0_IRQHandler
 3839 0070 00000000 		.word	DMA1_Stream1_IRQHandler
 3840 0074 00000000 		.word	DMA1_Stream2_IRQHandler
 3841 0078 00000000 		.word	DMA1_Stream3_IRQHandler
 3842 007c 00000000 		.word	DMA1_Stream4_IRQHandler
 3843 0080 00000000 		.word	DMA1_Stream5_IRQHandler
 3844 0084 00000000 		.word	DMA1_Stream6_IRQHandler
 3845 0088 00000000 		.word	ADC_IRQHandler
 3846 008c 00000000 		.word	FDCAN1_IT0_IRQHandler
 3847 0090 00000000 		.word	FDCAN2_IT0_IRQHandler
 3848 0094 00000000 		.word	FDCAN1_IT1_IRQHandler
 3849 0098 00000000 		.word	FDCAN2_IT1_IRQHandler
 3850 009c 00000000 		.word	EXTI9_5_IRQHandler
 3851 00a0 00000000 		.word	TIM1_BRK_IRQHandler
 3852 00a4 00000000 		.word	TIM1_UP_IRQHandler
 3853 00a8 00000000 		.word	TIM1_TRG_COM_IRQHandler
 3854 00ac 00000000 		.word	TIM1_CC_IRQHandler
 3855 00b0 00000000 		.word	TIM2_IRQHandler
 3856 00b4 00000000 		.word	TIM3_IRQHandler
 3857 00b8 00000000 		.word	TIM4_IRQHandler
 3858 00bc 00000000 		.word	I2C1_EV_IRQHandler
 3859 00c0 00000000 		.word	I2C1_ER_IRQHandler
 3860 00c4 00000000 		.word	I2C2_EV_IRQHandler
 3861 00c8 00000000 		.word	I2C2_ER_IRQHandler
 3862 00cc 00000000 		.word	SPI1_IRQHandler
 3863 00d0 00000000 		.word	SPI2_IRQHandler
 3864 00d4 00000000 		.word	USART1_IRQHandler
 3865 00d8 00000000 		.word	USART2_IRQHandler
 3866 00dc 00000000 		.word	USART3_IRQHandler
 3867 00e0 00000000 		.word	EXTI15_10_IRQHandler
 3868 00e4 00000000 		.word	RTC_Alarm_IRQHandler
 3869 00e8 00000000 		.word	0
 3870 00ec 00000000 		.word	TIM8_BRK_TIM12_IRQHandler
 3871 00f0 00000000 		.word	TIM8_UP_TIM13_IRQHandler
 3872 00f4 00000000 		.word	TIM8_TRG_COM_TIM14_IRQHandler
 3873 00f8 00000000 		.word	TIM8_CC_IRQHandler
 3874 00fc 00000000 		.word	DMA1_Stream7_IRQHandler
 3875 0100 00000000 		.word	FMC_IRQHandler
 3876 0104 00000000 		.word	SDMMC1_IRQHandler
 3877 0108 00000000 		.word	TIM5_IRQHandler
 3878 010c 00000000 		.word	SPI3_IRQHandler
 3879 0110 00000000 		.word	UART4_IRQHandler
 3880 0114 00000000 		.word	UART5_IRQHandler
 3881 0118 00000000 		.word	TIM6_DAC_IRQHandler
 3882 011c 00000000 		.word	TIM7_IRQHandler
 3883 0120 00000000 		.word	DMA2_Stream0_IRQHandler
 3884 0124 00000000 		.word	DMA2_Stream1_IRQHandler
 3885 0128 00000000 		.word	DMA2_Stream2_IRQHandler
 3886 012c 00000000 		.word	DMA2_Stream3_IRQHandler
 3887 0130 00000000 		.word	DMA2_Stream4_IRQHandler
 3888 0134 00000000 		.word	ETH_IRQHandler
ARM GAS  C:\Users\jisu8\AppData\Local\Temp\cc493r1c.s 			page 68


 3889 0138 00000000 		.word	ETH_WKUP_IRQHandler
 3890 013c 00000000 		.word	FDCAN_CAL_IRQHandler
 3891 0140 00000000 		.word	0
 3892 0144 00000000 		.word	0
 3893 0148 00000000 		.word	0
 3894 014c 00000000 		.word	0
 3895 0150 00000000 		.word	DMA2_Stream5_IRQHandler
 3896 0154 00000000 		.word	DMA2_Stream6_IRQHandler
 3897 0158 00000000 		.word	DMA2_Stream7_IRQHandler
 3898 015c 00000000 		.word	USART6_IRQHandler
 3899 0160 00000000 		.word	I2C3_EV_IRQHandler
 3900 0164 00000000 		.word	I2C3_ER_IRQHandler
 3901 0168 00000000 		.word	OTG_HS_EP1_OUT_IRQHandler
 3902 016c 00000000 		.word	OTG_HS_EP1_IN_IRQHandler
 3903 0170 00000000 		.word	OTG_HS_WKUP_IRQHandler
 3904 0174 00000000 		.word	OTG_HS_IRQHandler
 3905 0178 00000000 		.word	DCMI_IRQHandler
 3906 017c 00000000 		.word	0
 3907 0180 00000000 		.word	RNG_IRQHandler
 3908 0184 00000000 		.word	FPU_IRQHandler
 3909 0188 00000000 		.word	UART7_IRQHandler
 3910 018c 00000000 		.word	UART8_IRQHandler
 3911 0190 00000000 		.word	SPI4_IRQHandler
 3912 0194 00000000 		.word	SPI5_IRQHandler
 3913 0198 00000000 		.word	SPI6_IRQHandler
 3914 019c 00000000 		.word	SAI1_IRQHandler
 3915 01a0 00000000 		.word	LTDC_IRQHandler
 3916 01a4 00000000 		.word	LTDC_ER_IRQHandler
 3917 01a8 00000000 		.word	DMA2D_IRQHandler
 3918 01ac 00000000 		.word	SAI2_IRQHandler
 3919 01b0 00000000 		.word	QUADSPI_IRQHandler
 3920 01b4 00000000 		.word	LPTIM1_IRQHandler
 3921 01b8 00000000 		.word	CEC_IRQHandler
 3922 01bc 00000000 		.word	I2C4_EV_IRQHandler
 3923 01c0 00000000 		.word	I2C4_ER_IRQHandler
 3924 01c4 00000000 		.word	SPDIF_RX_IRQHandler
 3925 01c8 00000000 		.word	OTG_FS_EP1_OUT_IRQHandler
 3926 01cc 00000000 		.word	OTG_FS_EP1_IN_IRQHandler
 3927 01d0 00000000 		.word	OTG_FS_WKUP_IRQHandler
 3928 01d4 00000000 		.word	OTG_FS_IRQHandler
 3929 01d8 00000000 		.word	DMAMUX1_OVR_IRQHandler
 3930 01dc 00000000 		.word	HRTIM1_Master_IRQHandler
 3931 01e0 00000000 		.word	HRTIM1_TIMA_IRQHandler
 3932 01e4 00000000 		.word	HRTIM1_TIMB_IRQHandler
 3933 01e8 00000000 		.word	HRTIM1_TIMC_IRQHandler
 3934 01ec 00000000 		.word	HRTIM1_TIMD_IRQHandler
 3935 01f0 00000000 		.word	HRTIM1_TIME_IRQHandler
 3936 01f4 00000000 		.word	HRTIM1_FLT_IRQHandler
 3937 01f8 00000000 		.word	DFSDM1_FLT0_IRQHandler
 3938 01fc 00000000 		.word	DFSDM1_FLT1_IRQHandler
 3939 0200 00000000 		.word	DFSDM1_FLT2_IRQHandler
 3940 0204 00000000 		.word	DFSDM1_FLT3_IRQHandler
 3941 0208 00000000 		.word	SAI3_IRQHandler
 3942 020c 00000000 		.word	SWPMI1_IRQHandler
 3943 0210 00000000 		.word	TIM15_IRQHandler
 3944 0214 00000000 		.word	TIM16_IRQHandler
 3945 0218 00000000 		.word	TIM17_IRQHandler
ARM GAS  C:\Users\jisu8\AppData\Local\Temp\cc493r1c.s 			page 69


 3946 021c 00000000 		.word	MDIOS_WKUP_IRQHandler
 3947 0220 00000000 		.word	MDIOS_IRQHandler
 3948 0224 00000000 		.word	JPEG_IRQHandler
 3949 0228 00000000 		.word	MDMA_IRQHandler
 3950 022c 00000000 		.word	0
 3951 0230 00000000 		.word	SDMMC2_IRQHandler
 3952 0234 00000000 		.word	HSEM1_IRQHandler
 3953 0238 00000000 		.word	0
 3954 023c 00000000 		.word	ADC3_IRQHandler
 3955 0240 00000000 		.word	DMAMUX2_OVR_IRQHandler
 3956 0244 00000000 		.word	BDMA_Channel0_IRQHandler
 3957 0248 00000000 		.word	BDMA_Channel1_IRQHandler
 3958 024c 00000000 		.word	BDMA_Channel2_IRQHandler
 3959 0250 00000000 		.word	BDMA_Channel3_IRQHandler
 3960 0254 00000000 		.word	BDMA_Channel4_IRQHandler
 3961 0258 00000000 		.word	BDMA_Channel5_IRQHandler
 3962 025c 00000000 		.word	BDMA_Channel6_IRQHandler
 3963 0260 00000000 		.word	BDMA_Channel7_IRQHandler
 3964 0264 00000000 		.word	COMP1_IRQHandler
 3965 0268 00000000 		.word	LPTIM2_IRQHandler
 3966 026c 00000000 		.word	LPTIM3_IRQHandler
 3967 0270 00000000 		.word	LPTIM4_IRQHandler
 3968 0274 00000000 		.word	LPTIM5_IRQHandler
 3969 0278 00000000 		.word	LPUART1_IRQHandler
 3970 027c 00000000 		.word	0
 3971 0280 00000000 		.word	CRS_IRQHandler
 3972 0284 00000000 		.word	ECC_IRQHandler
 3973 0288 00000000 		.word	SAI4_IRQHandler
 3974 028c 00000000 		.word	0
 3975 0290 00000000 		.word	0
 3976 0294 00000000 		.word	WAKEUP_PIN_IRQHandler
 3977              		.text
 3978              	.Letext0:
 3979              		.file 2 "d:\\3.tools\\arm_gcc_toolchain\\arm-none-eabi\\include\\machine\\_default_types.h"
 3980              		.file 3 "d:\\3.tools\\arm_gcc_toolchain\\arm-none-eabi\\include\\sys\\_stdint.h"
 3981              		.file 4 "Drivers/CMSIS/Device/ST/STM32H7xx/Include/stm32h743xx.h"
 3982              		.file 5 "Drivers/STM32H7xx_HAL_Driver/Inc/stm32h7xx_hal_def.h"
 3983              		.file 6 "Drivers/STM32H7xx_HAL_Driver/Inc/stm32h7xx_hal_dma.h"
 3984              		.file 7 "Drivers/STM32H7xx_HAL_Driver/Inc/stm32h7xx_hal_tim.h"
 3985              		.file 8 "Core/Inc/main.h"
 3986              		.file 9 "Drivers/STM32H7xx_HAL_Driver/Inc/stm32h7xx_hal.h"
 3987              		.file 10 "Drivers/CMSIS/Device/ST/STM32H7xx/Include/system_stm32h7xx.h"
ARM GAS  C:\Users\jisu8\AppData\Local\Temp\cc493r1c.s 			page 70


DEFINED SYMBOLS
                            *ABS*:00000000 startup_stm32h743xx.c
C:\Users\jisu8\AppData\Local\Temp\cc493r1c.s:19     .text.Reset_Handler:00000000 $t
C:\Users\jisu8\AppData\Local\Temp\cc493r1c.s:25     .text.Reset_Handler:00000000 Reset_Handler
C:\Users\jisu8\AppData\Local\Temp\cc493r1c.s:95     .text.Reset_Handler:00000034 $d
C:\Users\jisu8\AppData\Local\Temp\cc493r1c.s:104    .text.Default_Handler:00000000 $t
C:\Users\jisu8\AppData\Local\Temp\cc493r1c.s:110    .text.Default_Handler:00000000 Default_Handler
C:\Users\jisu8\AppData\Local\Temp\cc493r1c.s:127    .text.NMI_Handler:00000000 $t
C:\Users\jisu8\AppData\Local\Temp\cc493r1c.s:133    .text.NMI_Handler:00000000 NMI_Handler
C:\Users\jisu8\AppData\Local\Temp\cc493r1c.s:151    .text.HardFault_Handler:00000000 $t
C:\Users\jisu8\AppData\Local\Temp\cc493r1c.s:157    .text.HardFault_Handler:00000000 HardFault_Handler
C:\Users\jisu8\AppData\Local\Temp\cc493r1c.s:175    .text.MemManage_Handler:00000000 $t
C:\Users\jisu8\AppData\Local\Temp\cc493r1c.s:181    .text.MemManage_Handler:00000000 MemManage_Handler
C:\Users\jisu8\AppData\Local\Temp\cc493r1c.s:199    .text.BusFault_Handler:00000000 $t
C:\Users\jisu8\AppData\Local\Temp\cc493r1c.s:205    .text.BusFault_Handler:00000000 BusFault_Handler
C:\Users\jisu8\AppData\Local\Temp\cc493r1c.s:223    .text.UsageFault_Handler:00000000 $t
C:\Users\jisu8\AppData\Local\Temp\cc493r1c.s:229    .text.UsageFault_Handler:00000000 UsageFault_Handler
C:\Users\jisu8\AppData\Local\Temp\cc493r1c.s:247    .text.SVC_Handler:00000000 $t
C:\Users\jisu8\AppData\Local\Temp\cc493r1c.s:253    .text.SVC_Handler:00000000 SVC_Handler
C:\Users\jisu8\AppData\Local\Temp\cc493r1c.s:271    .text.DebugMon_Handler:00000000 $t
C:\Users\jisu8\AppData\Local\Temp\cc493r1c.s:277    .text.DebugMon_Handler:00000000 DebugMon_Handler
C:\Users\jisu8\AppData\Local\Temp\cc493r1c.s:295    .text.PendSV_Handler:00000000 $t
C:\Users\jisu8\AppData\Local\Temp\cc493r1c.s:301    .text.PendSV_Handler:00000000 PendSV_Handler
C:\Users\jisu8\AppData\Local\Temp\cc493r1c.s:319    .text.WWDG_IRQHandler:00000000 $t
C:\Users\jisu8\AppData\Local\Temp\cc493r1c.s:325    .text.WWDG_IRQHandler:00000000 WWDG_IRQHandler
C:\Users\jisu8\AppData\Local\Temp\cc493r1c.s:343    .text.PVD_AVD_IRQHandler:00000000 $t
C:\Users\jisu8\AppData\Local\Temp\cc493r1c.s:349    .text.PVD_AVD_IRQHandler:00000000 PVD_AVD_IRQHandler
C:\Users\jisu8\AppData\Local\Temp\cc493r1c.s:367    .text.TAMP_STAMP_IRQHandler:00000000 $t
C:\Users\jisu8\AppData\Local\Temp\cc493r1c.s:373    .text.TAMP_STAMP_IRQHandler:00000000 TAMP_STAMP_IRQHandler
C:\Users\jisu8\AppData\Local\Temp\cc493r1c.s:391    .text.RTC_WKUP_IRQHandler:00000000 $t
C:\Users\jisu8\AppData\Local\Temp\cc493r1c.s:397    .text.RTC_WKUP_IRQHandler:00000000 RTC_WKUP_IRQHandler
C:\Users\jisu8\AppData\Local\Temp\cc493r1c.s:415    .text.FLASH_IRQHandler:00000000 $t
C:\Users\jisu8\AppData\Local\Temp\cc493r1c.s:421    .text.FLASH_IRQHandler:00000000 FLASH_IRQHandler
C:\Users\jisu8\AppData\Local\Temp\cc493r1c.s:439    .text.RCC_IRQHandler:00000000 $t
C:\Users\jisu8\AppData\Local\Temp\cc493r1c.s:445    .text.RCC_IRQHandler:00000000 RCC_IRQHandler
C:\Users\jisu8\AppData\Local\Temp\cc493r1c.s:463    .text.EXTI0_IRQHandler:00000000 $t
C:\Users\jisu8\AppData\Local\Temp\cc493r1c.s:469    .text.EXTI0_IRQHandler:00000000 EXTI0_IRQHandler
C:\Users\jisu8\AppData\Local\Temp\cc493r1c.s:487    .text.EXTI1_IRQHandler:00000000 $t
C:\Users\jisu8\AppData\Local\Temp\cc493r1c.s:493    .text.EXTI1_IRQHandler:00000000 EXTI1_IRQHandler
C:\Users\jisu8\AppData\Local\Temp\cc493r1c.s:511    .text.EXTI2_IRQHandler:00000000 $t
C:\Users\jisu8\AppData\Local\Temp\cc493r1c.s:517    .text.EXTI2_IRQHandler:00000000 EXTI2_IRQHandler
C:\Users\jisu8\AppData\Local\Temp\cc493r1c.s:535    .text.EXTI3_IRQHandler:00000000 $t
C:\Users\jisu8\AppData\Local\Temp\cc493r1c.s:541    .text.EXTI3_IRQHandler:00000000 EXTI3_IRQHandler
C:\Users\jisu8\AppData\Local\Temp\cc493r1c.s:559    .text.EXTI4_IRQHandler:00000000 $t
C:\Users\jisu8\AppData\Local\Temp\cc493r1c.s:565    .text.EXTI4_IRQHandler:00000000 EXTI4_IRQHandler
C:\Users\jisu8\AppData\Local\Temp\cc493r1c.s:583    .text.DMA1_Stream0_IRQHandler:00000000 $t
C:\Users\jisu8\AppData\Local\Temp\cc493r1c.s:589    .text.DMA1_Stream0_IRQHandler:00000000 DMA1_Stream0_IRQHandler
C:\Users\jisu8\AppData\Local\Temp\cc493r1c.s:607    .text.DMA1_Stream1_IRQHandler:00000000 $t
C:\Users\jisu8\AppData\Local\Temp\cc493r1c.s:613    .text.DMA1_Stream1_IRQHandler:00000000 DMA1_Stream1_IRQHandler
C:\Users\jisu8\AppData\Local\Temp\cc493r1c.s:631    .text.DMA1_Stream2_IRQHandler:00000000 $t
C:\Users\jisu8\AppData\Local\Temp\cc493r1c.s:637    .text.DMA1_Stream2_IRQHandler:00000000 DMA1_Stream2_IRQHandler
C:\Users\jisu8\AppData\Local\Temp\cc493r1c.s:655    .text.DMA1_Stream3_IRQHandler:00000000 $t
C:\Users\jisu8\AppData\Local\Temp\cc493r1c.s:661    .text.DMA1_Stream3_IRQHandler:00000000 DMA1_Stream3_IRQHandler
C:\Users\jisu8\AppData\Local\Temp\cc493r1c.s:679    .text.DMA1_Stream4_IRQHandler:00000000 $t
C:\Users\jisu8\AppData\Local\Temp\cc493r1c.s:685    .text.DMA1_Stream4_IRQHandler:00000000 DMA1_Stream4_IRQHandler
C:\Users\jisu8\AppData\Local\Temp\cc493r1c.s:703    .text.DMA1_Stream5_IRQHandler:00000000 $t
C:\Users\jisu8\AppData\Local\Temp\cc493r1c.s:709    .text.DMA1_Stream5_IRQHandler:00000000 DMA1_Stream5_IRQHandler
ARM GAS  C:\Users\jisu8\AppData\Local\Temp\cc493r1c.s 			page 71


C:\Users\jisu8\AppData\Local\Temp\cc493r1c.s:727    .text.DMA1_Stream6_IRQHandler:00000000 $t
C:\Users\jisu8\AppData\Local\Temp\cc493r1c.s:733    .text.DMA1_Stream6_IRQHandler:00000000 DMA1_Stream6_IRQHandler
C:\Users\jisu8\AppData\Local\Temp\cc493r1c.s:751    .text.ADC_IRQHandler:00000000 $t
C:\Users\jisu8\AppData\Local\Temp\cc493r1c.s:757    .text.ADC_IRQHandler:00000000 ADC_IRQHandler
C:\Users\jisu8\AppData\Local\Temp\cc493r1c.s:775    .text.FDCAN1_IT0_IRQHandler:00000000 $t
C:\Users\jisu8\AppData\Local\Temp\cc493r1c.s:781    .text.FDCAN1_IT0_IRQHandler:00000000 FDCAN1_IT0_IRQHandler
C:\Users\jisu8\AppData\Local\Temp\cc493r1c.s:799    .text.FDCAN2_IT0_IRQHandler:00000000 $t
C:\Users\jisu8\AppData\Local\Temp\cc493r1c.s:805    .text.FDCAN2_IT0_IRQHandler:00000000 FDCAN2_IT0_IRQHandler
C:\Users\jisu8\AppData\Local\Temp\cc493r1c.s:823    .text.FDCAN1_IT1_IRQHandler:00000000 $t
C:\Users\jisu8\AppData\Local\Temp\cc493r1c.s:829    .text.FDCAN1_IT1_IRQHandler:00000000 FDCAN1_IT1_IRQHandler
C:\Users\jisu8\AppData\Local\Temp\cc493r1c.s:847    .text.FDCAN2_IT1_IRQHandler:00000000 $t
C:\Users\jisu8\AppData\Local\Temp\cc493r1c.s:853    .text.FDCAN2_IT1_IRQHandler:00000000 FDCAN2_IT1_IRQHandler
C:\Users\jisu8\AppData\Local\Temp\cc493r1c.s:871    .text.EXTI9_5_IRQHandler:00000000 $t
C:\Users\jisu8\AppData\Local\Temp\cc493r1c.s:877    .text.EXTI9_5_IRQHandler:00000000 EXTI9_5_IRQHandler
C:\Users\jisu8\AppData\Local\Temp\cc493r1c.s:895    .text.TIM1_BRK_IRQHandler:00000000 $t
C:\Users\jisu8\AppData\Local\Temp\cc493r1c.s:901    .text.TIM1_BRK_IRQHandler:00000000 TIM1_BRK_IRQHandler
C:\Users\jisu8\AppData\Local\Temp\cc493r1c.s:919    .text.TIM1_UP_IRQHandler:00000000 $t
C:\Users\jisu8\AppData\Local\Temp\cc493r1c.s:925    .text.TIM1_UP_IRQHandler:00000000 TIM1_UP_IRQHandler
C:\Users\jisu8\AppData\Local\Temp\cc493r1c.s:943    .text.TIM1_TRG_COM_IRQHandler:00000000 $t
C:\Users\jisu8\AppData\Local\Temp\cc493r1c.s:949    .text.TIM1_TRG_COM_IRQHandler:00000000 TIM1_TRG_COM_IRQHandler
C:\Users\jisu8\AppData\Local\Temp\cc493r1c.s:967    .text.TIM1_CC_IRQHandler:00000000 $t
C:\Users\jisu8\AppData\Local\Temp\cc493r1c.s:973    .text.TIM1_CC_IRQHandler:00000000 TIM1_CC_IRQHandler
C:\Users\jisu8\AppData\Local\Temp\cc493r1c.s:991    .text.TIM2_IRQHandler:00000000 $t
C:\Users\jisu8\AppData\Local\Temp\cc493r1c.s:997    .text.TIM2_IRQHandler:00000000 TIM2_IRQHandler
C:\Users\jisu8\AppData\Local\Temp\cc493r1c.s:1015   .text.TIM3_IRQHandler:00000000 $t
C:\Users\jisu8\AppData\Local\Temp\cc493r1c.s:1021   .text.TIM3_IRQHandler:00000000 TIM3_IRQHandler
C:\Users\jisu8\AppData\Local\Temp\cc493r1c.s:1039   .text.TIM4_IRQHandler:00000000 $t
C:\Users\jisu8\AppData\Local\Temp\cc493r1c.s:1045   .text.TIM4_IRQHandler:00000000 TIM4_IRQHandler
C:\Users\jisu8\AppData\Local\Temp\cc493r1c.s:1063   .text.I2C1_EV_IRQHandler:00000000 $t
C:\Users\jisu8\AppData\Local\Temp\cc493r1c.s:1069   .text.I2C1_EV_IRQHandler:00000000 I2C1_EV_IRQHandler
C:\Users\jisu8\AppData\Local\Temp\cc493r1c.s:1087   .text.I2C1_ER_IRQHandler:00000000 $t
C:\Users\jisu8\AppData\Local\Temp\cc493r1c.s:1093   .text.I2C1_ER_IRQHandler:00000000 I2C1_ER_IRQHandler
C:\Users\jisu8\AppData\Local\Temp\cc493r1c.s:1111   .text.I2C2_EV_IRQHandler:00000000 $t
C:\Users\jisu8\AppData\Local\Temp\cc493r1c.s:1117   .text.I2C2_EV_IRQHandler:00000000 I2C2_EV_IRQHandler
C:\Users\jisu8\AppData\Local\Temp\cc493r1c.s:1135   .text.I2C2_ER_IRQHandler:00000000 $t
C:\Users\jisu8\AppData\Local\Temp\cc493r1c.s:1141   .text.I2C2_ER_IRQHandler:00000000 I2C2_ER_IRQHandler
C:\Users\jisu8\AppData\Local\Temp\cc493r1c.s:1159   .text.SPI1_IRQHandler:00000000 $t
C:\Users\jisu8\AppData\Local\Temp\cc493r1c.s:1165   .text.SPI1_IRQHandler:00000000 SPI1_IRQHandler
C:\Users\jisu8\AppData\Local\Temp\cc493r1c.s:1183   .text.SPI2_IRQHandler:00000000 $t
C:\Users\jisu8\AppData\Local\Temp\cc493r1c.s:1189   .text.SPI2_IRQHandler:00000000 SPI2_IRQHandler
C:\Users\jisu8\AppData\Local\Temp\cc493r1c.s:1207   .text.USART1_IRQHandler:00000000 $t
C:\Users\jisu8\AppData\Local\Temp\cc493r1c.s:1213   .text.USART1_IRQHandler:00000000 USART1_IRQHandler
C:\Users\jisu8\AppData\Local\Temp\cc493r1c.s:1231   .text.USART2_IRQHandler:00000000 $t
C:\Users\jisu8\AppData\Local\Temp\cc493r1c.s:1237   .text.USART2_IRQHandler:00000000 USART2_IRQHandler
C:\Users\jisu8\AppData\Local\Temp\cc493r1c.s:1255   .text.USART3_IRQHandler:00000000 $t
C:\Users\jisu8\AppData\Local\Temp\cc493r1c.s:1261   .text.USART3_IRQHandler:00000000 USART3_IRQHandler
C:\Users\jisu8\AppData\Local\Temp\cc493r1c.s:1279   .text.EXTI15_10_IRQHandler:00000000 $t
C:\Users\jisu8\AppData\Local\Temp\cc493r1c.s:1285   .text.EXTI15_10_IRQHandler:00000000 EXTI15_10_IRQHandler
C:\Users\jisu8\AppData\Local\Temp\cc493r1c.s:1303   .text.RTC_Alarm_IRQHandler:00000000 $t
C:\Users\jisu8\AppData\Local\Temp\cc493r1c.s:1309   .text.RTC_Alarm_IRQHandler:00000000 RTC_Alarm_IRQHandler
C:\Users\jisu8\AppData\Local\Temp\cc493r1c.s:1327   .text.TIM8_BRK_TIM12_IRQHandler:00000000 $t
C:\Users\jisu8\AppData\Local\Temp\cc493r1c.s:1333   .text.TIM8_BRK_TIM12_IRQHandler:00000000 TIM8_BRK_TIM12_IRQHandler
C:\Users\jisu8\AppData\Local\Temp\cc493r1c.s:1351   .text.TIM8_UP_TIM13_IRQHandler:00000000 $t
C:\Users\jisu8\AppData\Local\Temp\cc493r1c.s:1357   .text.TIM8_UP_TIM13_IRQHandler:00000000 TIM8_UP_TIM13_IRQHandler
C:\Users\jisu8\AppData\Local\Temp\cc493r1c.s:1375   .text.TIM8_TRG_COM_TIM14_IRQHandler:00000000 $t
C:\Users\jisu8\AppData\Local\Temp\cc493r1c.s:1381   .text.TIM8_TRG_COM_TIM14_IRQHandler:00000000 TIM8_TRG_COM_TIM14_IRQHandler
C:\Users\jisu8\AppData\Local\Temp\cc493r1c.s:1399   .text.TIM8_CC_IRQHandler:00000000 $t
ARM GAS  C:\Users\jisu8\AppData\Local\Temp\cc493r1c.s 			page 72


C:\Users\jisu8\AppData\Local\Temp\cc493r1c.s:1405   .text.TIM8_CC_IRQHandler:00000000 TIM8_CC_IRQHandler
C:\Users\jisu8\AppData\Local\Temp\cc493r1c.s:1423   .text.DMA1_Stream7_IRQHandler:00000000 $t
C:\Users\jisu8\AppData\Local\Temp\cc493r1c.s:1429   .text.DMA1_Stream7_IRQHandler:00000000 DMA1_Stream7_IRQHandler
C:\Users\jisu8\AppData\Local\Temp\cc493r1c.s:1447   .text.FMC_IRQHandler:00000000 $t
C:\Users\jisu8\AppData\Local\Temp\cc493r1c.s:1453   .text.FMC_IRQHandler:00000000 FMC_IRQHandler
C:\Users\jisu8\AppData\Local\Temp\cc493r1c.s:1471   .text.SDMMC1_IRQHandler:00000000 $t
C:\Users\jisu8\AppData\Local\Temp\cc493r1c.s:1477   .text.SDMMC1_IRQHandler:00000000 SDMMC1_IRQHandler
C:\Users\jisu8\AppData\Local\Temp\cc493r1c.s:1495   .text.TIM5_IRQHandler:00000000 $t
C:\Users\jisu8\AppData\Local\Temp\cc493r1c.s:1501   .text.TIM5_IRQHandler:00000000 TIM5_IRQHandler
C:\Users\jisu8\AppData\Local\Temp\cc493r1c.s:1519   .text.SPI3_IRQHandler:00000000 $t
C:\Users\jisu8\AppData\Local\Temp\cc493r1c.s:1525   .text.SPI3_IRQHandler:00000000 SPI3_IRQHandler
C:\Users\jisu8\AppData\Local\Temp\cc493r1c.s:1543   .text.UART4_IRQHandler:00000000 $t
C:\Users\jisu8\AppData\Local\Temp\cc493r1c.s:1549   .text.UART4_IRQHandler:00000000 UART4_IRQHandler
C:\Users\jisu8\AppData\Local\Temp\cc493r1c.s:1567   .text.UART5_IRQHandler:00000000 $t
C:\Users\jisu8\AppData\Local\Temp\cc493r1c.s:1573   .text.UART5_IRQHandler:00000000 UART5_IRQHandler
C:\Users\jisu8\AppData\Local\Temp\cc493r1c.s:1591   .text.TIM6_DAC_IRQHandler:00000000 $t
C:\Users\jisu8\AppData\Local\Temp\cc493r1c.s:1597   .text.TIM6_DAC_IRQHandler:00000000 TIM6_DAC_IRQHandler
C:\Users\jisu8\AppData\Local\Temp\cc493r1c.s:1615   .text.TIM7_IRQHandler:00000000 $t
C:\Users\jisu8\AppData\Local\Temp\cc493r1c.s:1621   .text.TIM7_IRQHandler:00000000 TIM7_IRQHandler
C:\Users\jisu8\AppData\Local\Temp\cc493r1c.s:1639   .text.DMA2_Stream0_IRQHandler:00000000 $t
C:\Users\jisu8\AppData\Local\Temp\cc493r1c.s:1645   .text.DMA2_Stream0_IRQHandler:00000000 DMA2_Stream0_IRQHandler
C:\Users\jisu8\AppData\Local\Temp\cc493r1c.s:1663   .text.DMA2_Stream1_IRQHandler:00000000 $t
C:\Users\jisu8\AppData\Local\Temp\cc493r1c.s:1669   .text.DMA2_Stream1_IRQHandler:00000000 DMA2_Stream1_IRQHandler
C:\Users\jisu8\AppData\Local\Temp\cc493r1c.s:1687   .text.DMA2_Stream2_IRQHandler:00000000 $t
C:\Users\jisu8\AppData\Local\Temp\cc493r1c.s:1693   .text.DMA2_Stream2_IRQHandler:00000000 DMA2_Stream2_IRQHandler
C:\Users\jisu8\AppData\Local\Temp\cc493r1c.s:1711   .text.DMA2_Stream3_IRQHandler:00000000 $t
C:\Users\jisu8\AppData\Local\Temp\cc493r1c.s:1717   .text.DMA2_Stream3_IRQHandler:00000000 DMA2_Stream3_IRQHandler
C:\Users\jisu8\AppData\Local\Temp\cc493r1c.s:1735   .text.DMA2_Stream4_IRQHandler:00000000 $t
C:\Users\jisu8\AppData\Local\Temp\cc493r1c.s:1741   .text.DMA2_Stream4_IRQHandler:00000000 DMA2_Stream4_IRQHandler
C:\Users\jisu8\AppData\Local\Temp\cc493r1c.s:1759   .text.ETH_IRQHandler:00000000 $t
C:\Users\jisu8\AppData\Local\Temp\cc493r1c.s:1765   .text.ETH_IRQHandler:00000000 ETH_IRQHandler
C:\Users\jisu8\AppData\Local\Temp\cc493r1c.s:1783   .text.ETH_WKUP_IRQHandler:00000000 $t
C:\Users\jisu8\AppData\Local\Temp\cc493r1c.s:1789   .text.ETH_WKUP_IRQHandler:00000000 ETH_WKUP_IRQHandler
C:\Users\jisu8\AppData\Local\Temp\cc493r1c.s:1807   .text.FDCAN_CAL_IRQHandler:00000000 $t
C:\Users\jisu8\AppData\Local\Temp\cc493r1c.s:1813   .text.FDCAN_CAL_IRQHandler:00000000 FDCAN_CAL_IRQHandler
C:\Users\jisu8\AppData\Local\Temp\cc493r1c.s:1831   .text.DMA2_Stream5_IRQHandler:00000000 $t
C:\Users\jisu8\AppData\Local\Temp\cc493r1c.s:1837   .text.DMA2_Stream5_IRQHandler:00000000 DMA2_Stream5_IRQHandler
C:\Users\jisu8\AppData\Local\Temp\cc493r1c.s:1855   .text.DMA2_Stream6_IRQHandler:00000000 $t
C:\Users\jisu8\AppData\Local\Temp\cc493r1c.s:1861   .text.DMA2_Stream6_IRQHandler:00000000 DMA2_Stream6_IRQHandler
C:\Users\jisu8\AppData\Local\Temp\cc493r1c.s:1879   .text.DMA2_Stream7_IRQHandler:00000000 $t
C:\Users\jisu8\AppData\Local\Temp\cc493r1c.s:1885   .text.DMA2_Stream7_IRQHandler:00000000 DMA2_Stream7_IRQHandler
C:\Users\jisu8\AppData\Local\Temp\cc493r1c.s:1903   .text.USART6_IRQHandler:00000000 $t
C:\Users\jisu8\AppData\Local\Temp\cc493r1c.s:1909   .text.USART6_IRQHandler:00000000 USART6_IRQHandler
C:\Users\jisu8\AppData\Local\Temp\cc493r1c.s:1927   .text.I2C3_EV_IRQHandler:00000000 $t
C:\Users\jisu8\AppData\Local\Temp\cc493r1c.s:1933   .text.I2C3_EV_IRQHandler:00000000 I2C3_EV_IRQHandler
C:\Users\jisu8\AppData\Local\Temp\cc493r1c.s:1951   .text.I2C3_ER_IRQHandler:00000000 $t
C:\Users\jisu8\AppData\Local\Temp\cc493r1c.s:1957   .text.I2C3_ER_IRQHandler:00000000 I2C3_ER_IRQHandler
C:\Users\jisu8\AppData\Local\Temp\cc493r1c.s:1975   .text.OTG_HS_EP1_OUT_IRQHandler:00000000 $t
C:\Users\jisu8\AppData\Local\Temp\cc493r1c.s:1981   .text.OTG_HS_EP1_OUT_IRQHandler:00000000 OTG_HS_EP1_OUT_IRQHandler
C:\Users\jisu8\AppData\Local\Temp\cc493r1c.s:1999   .text.OTG_HS_EP1_IN_IRQHandler:00000000 $t
C:\Users\jisu8\AppData\Local\Temp\cc493r1c.s:2005   .text.OTG_HS_EP1_IN_IRQHandler:00000000 OTG_HS_EP1_IN_IRQHandler
C:\Users\jisu8\AppData\Local\Temp\cc493r1c.s:2023   .text.OTG_HS_WKUP_IRQHandler:00000000 $t
C:\Users\jisu8\AppData\Local\Temp\cc493r1c.s:2029   .text.OTG_HS_WKUP_IRQHandler:00000000 OTG_HS_WKUP_IRQHandler
C:\Users\jisu8\AppData\Local\Temp\cc493r1c.s:2047   .text.OTG_HS_IRQHandler:00000000 $t
C:\Users\jisu8\AppData\Local\Temp\cc493r1c.s:2053   .text.OTG_HS_IRQHandler:00000000 OTG_HS_IRQHandler
C:\Users\jisu8\AppData\Local\Temp\cc493r1c.s:2071   .text.DCMI_IRQHandler:00000000 $t
C:\Users\jisu8\AppData\Local\Temp\cc493r1c.s:2077   .text.DCMI_IRQHandler:00000000 DCMI_IRQHandler
ARM GAS  C:\Users\jisu8\AppData\Local\Temp\cc493r1c.s 			page 73


C:\Users\jisu8\AppData\Local\Temp\cc493r1c.s:2095   .text.RNG_IRQHandler:00000000 $t
C:\Users\jisu8\AppData\Local\Temp\cc493r1c.s:2101   .text.RNG_IRQHandler:00000000 RNG_IRQHandler
C:\Users\jisu8\AppData\Local\Temp\cc493r1c.s:2119   .text.FPU_IRQHandler:00000000 $t
C:\Users\jisu8\AppData\Local\Temp\cc493r1c.s:2125   .text.FPU_IRQHandler:00000000 FPU_IRQHandler
C:\Users\jisu8\AppData\Local\Temp\cc493r1c.s:2143   .text.UART7_IRQHandler:00000000 $t
C:\Users\jisu8\AppData\Local\Temp\cc493r1c.s:2149   .text.UART7_IRQHandler:00000000 UART7_IRQHandler
C:\Users\jisu8\AppData\Local\Temp\cc493r1c.s:2167   .text.UART8_IRQHandler:00000000 $t
C:\Users\jisu8\AppData\Local\Temp\cc493r1c.s:2173   .text.UART8_IRQHandler:00000000 UART8_IRQHandler
C:\Users\jisu8\AppData\Local\Temp\cc493r1c.s:2191   .text.SPI4_IRQHandler:00000000 $t
C:\Users\jisu8\AppData\Local\Temp\cc493r1c.s:2197   .text.SPI4_IRQHandler:00000000 SPI4_IRQHandler
C:\Users\jisu8\AppData\Local\Temp\cc493r1c.s:2215   .text.SPI5_IRQHandler:00000000 $t
C:\Users\jisu8\AppData\Local\Temp\cc493r1c.s:2221   .text.SPI5_IRQHandler:00000000 SPI5_IRQHandler
C:\Users\jisu8\AppData\Local\Temp\cc493r1c.s:2239   .text.SPI6_IRQHandler:00000000 $t
C:\Users\jisu8\AppData\Local\Temp\cc493r1c.s:2245   .text.SPI6_IRQHandler:00000000 SPI6_IRQHandler
C:\Users\jisu8\AppData\Local\Temp\cc493r1c.s:2263   .text.SAI1_IRQHandler:00000000 $t
C:\Users\jisu8\AppData\Local\Temp\cc493r1c.s:2269   .text.SAI1_IRQHandler:00000000 SAI1_IRQHandler
C:\Users\jisu8\AppData\Local\Temp\cc493r1c.s:2287   .text.LTDC_IRQHandler:00000000 $t
C:\Users\jisu8\AppData\Local\Temp\cc493r1c.s:2293   .text.LTDC_IRQHandler:00000000 LTDC_IRQHandler
C:\Users\jisu8\AppData\Local\Temp\cc493r1c.s:2311   .text.LTDC_ER_IRQHandler:00000000 $t
C:\Users\jisu8\AppData\Local\Temp\cc493r1c.s:2317   .text.LTDC_ER_IRQHandler:00000000 LTDC_ER_IRQHandler
C:\Users\jisu8\AppData\Local\Temp\cc493r1c.s:2335   .text.DMA2D_IRQHandler:00000000 $t
C:\Users\jisu8\AppData\Local\Temp\cc493r1c.s:2341   .text.DMA2D_IRQHandler:00000000 DMA2D_IRQHandler
C:\Users\jisu8\AppData\Local\Temp\cc493r1c.s:2359   .text.SAI2_IRQHandler:00000000 $t
C:\Users\jisu8\AppData\Local\Temp\cc493r1c.s:2365   .text.SAI2_IRQHandler:00000000 SAI2_IRQHandler
C:\Users\jisu8\AppData\Local\Temp\cc493r1c.s:2383   .text.QUADSPI_IRQHandler:00000000 $t
C:\Users\jisu8\AppData\Local\Temp\cc493r1c.s:2389   .text.QUADSPI_IRQHandler:00000000 QUADSPI_IRQHandler
C:\Users\jisu8\AppData\Local\Temp\cc493r1c.s:2407   .text.LPTIM1_IRQHandler:00000000 $t
C:\Users\jisu8\AppData\Local\Temp\cc493r1c.s:2413   .text.LPTIM1_IRQHandler:00000000 LPTIM1_IRQHandler
C:\Users\jisu8\AppData\Local\Temp\cc493r1c.s:2431   .text.CEC_IRQHandler:00000000 $t
C:\Users\jisu8\AppData\Local\Temp\cc493r1c.s:2437   .text.CEC_IRQHandler:00000000 CEC_IRQHandler
C:\Users\jisu8\AppData\Local\Temp\cc493r1c.s:2455   .text.I2C4_EV_IRQHandler:00000000 $t
C:\Users\jisu8\AppData\Local\Temp\cc493r1c.s:2461   .text.I2C4_EV_IRQHandler:00000000 I2C4_EV_IRQHandler
C:\Users\jisu8\AppData\Local\Temp\cc493r1c.s:2479   .text.I2C4_ER_IRQHandler:00000000 $t
C:\Users\jisu8\AppData\Local\Temp\cc493r1c.s:2485   .text.I2C4_ER_IRQHandler:00000000 I2C4_ER_IRQHandler
C:\Users\jisu8\AppData\Local\Temp\cc493r1c.s:2503   .text.SPDIF_RX_IRQHandler:00000000 $t
C:\Users\jisu8\AppData\Local\Temp\cc493r1c.s:2509   .text.SPDIF_RX_IRQHandler:00000000 SPDIF_RX_IRQHandler
C:\Users\jisu8\AppData\Local\Temp\cc493r1c.s:2527   .text.OTG_FS_EP1_OUT_IRQHandler:00000000 $t
C:\Users\jisu8\AppData\Local\Temp\cc493r1c.s:2533   .text.OTG_FS_EP1_OUT_IRQHandler:00000000 OTG_FS_EP1_OUT_IRQHandler
C:\Users\jisu8\AppData\Local\Temp\cc493r1c.s:2551   .text.OTG_FS_EP1_IN_IRQHandler:00000000 $t
C:\Users\jisu8\AppData\Local\Temp\cc493r1c.s:2557   .text.OTG_FS_EP1_IN_IRQHandler:00000000 OTG_FS_EP1_IN_IRQHandler
C:\Users\jisu8\AppData\Local\Temp\cc493r1c.s:2575   .text.OTG_FS_WKUP_IRQHandler:00000000 $t
C:\Users\jisu8\AppData\Local\Temp\cc493r1c.s:2581   .text.OTG_FS_WKUP_IRQHandler:00000000 OTG_FS_WKUP_IRQHandler
C:\Users\jisu8\AppData\Local\Temp\cc493r1c.s:2599   .text.OTG_FS_IRQHandler:00000000 $t
C:\Users\jisu8\AppData\Local\Temp\cc493r1c.s:2605   .text.OTG_FS_IRQHandler:00000000 OTG_FS_IRQHandler
C:\Users\jisu8\AppData\Local\Temp\cc493r1c.s:2623   .text.DMAMUX1_OVR_IRQHandler:00000000 $t
C:\Users\jisu8\AppData\Local\Temp\cc493r1c.s:2629   .text.DMAMUX1_OVR_IRQHandler:00000000 DMAMUX1_OVR_IRQHandler
C:\Users\jisu8\AppData\Local\Temp\cc493r1c.s:2647   .text.HRTIM1_Master_IRQHandler:00000000 $t
C:\Users\jisu8\AppData\Local\Temp\cc493r1c.s:2653   .text.HRTIM1_Master_IRQHandler:00000000 HRTIM1_Master_IRQHandler
C:\Users\jisu8\AppData\Local\Temp\cc493r1c.s:2671   .text.HRTIM1_TIMA_IRQHandler:00000000 $t
C:\Users\jisu8\AppData\Local\Temp\cc493r1c.s:2677   .text.HRTIM1_TIMA_IRQHandler:00000000 HRTIM1_TIMA_IRQHandler
C:\Users\jisu8\AppData\Local\Temp\cc493r1c.s:2695   .text.HRTIM1_TIMB_IRQHandler:00000000 $t
C:\Users\jisu8\AppData\Local\Temp\cc493r1c.s:2701   .text.HRTIM1_TIMB_IRQHandler:00000000 HRTIM1_TIMB_IRQHandler
C:\Users\jisu8\AppData\Local\Temp\cc493r1c.s:2719   .text.HRTIM1_TIMC_IRQHandler:00000000 $t
C:\Users\jisu8\AppData\Local\Temp\cc493r1c.s:2725   .text.HRTIM1_TIMC_IRQHandler:00000000 HRTIM1_TIMC_IRQHandler
C:\Users\jisu8\AppData\Local\Temp\cc493r1c.s:2743   .text.HRTIM1_TIMD_IRQHandler:00000000 $t
C:\Users\jisu8\AppData\Local\Temp\cc493r1c.s:2749   .text.HRTIM1_TIMD_IRQHandler:00000000 HRTIM1_TIMD_IRQHandler
C:\Users\jisu8\AppData\Local\Temp\cc493r1c.s:2767   .text.HRTIM1_TIME_IRQHandler:00000000 $t
ARM GAS  C:\Users\jisu8\AppData\Local\Temp\cc493r1c.s 			page 74


C:\Users\jisu8\AppData\Local\Temp\cc493r1c.s:2773   .text.HRTIM1_TIME_IRQHandler:00000000 HRTIM1_TIME_IRQHandler
C:\Users\jisu8\AppData\Local\Temp\cc493r1c.s:2791   .text.HRTIM1_FLT_IRQHandler:00000000 $t
C:\Users\jisu8\AppData\Local\Temp\cc493r1c.s:2797   .text.HRTIM1_FLT_IRQHandler:00000000 HRTIM1_FLT_IRQHandler
C:\Users\jisu8\AppData\Local\Temp\cc493r1c.s:2815   .text.DFSDM1_FLT0_IRQHandler:00000000 $t
C:\Users\jisu8\AppData\Local\Temp\cc493r1c.s:2821   .text.DFSDM1_FLT0_IRQHandler:00000000 DFSDM1_FLT0_IRQHandler
C:\Users\jisu8\AppData\Local\Temp\cc493r1c.s:2839   .text.DFSDM1_FLT1_IRQHandler:00000000 $t
C:\Users\jisu8\AppData\Local\Temp\cc493r1c.s:2845   .text.DFSDM1_FLT1_IRQHandler:00000000 DFSDM1_FLT1_IRQHandler
C:\Users\jisu8\AppData\Local\Temp\cc493r1c.s:2863   .text.DFSDM1_FLT2_IRQHandler:00000000 $t
C:\Users\jisu8\AppData\Local\Temp\cc493r1c.s:2869   .text.DFSDM1_FLT2_IRQHandler:00000000 DFSDM1_FLT2_IRQHandler
C:\Users\jisu8\AppData\Local\Temp\cc493r1c.s:2887   .text.DFSDM1_FLT3_IRQHandler:00000000 $t
C:\Users\jisu8\AppData\Local\Temp\cc493r1c.s:2893   .text.DFSDM1_FLT3_IRQHandler:00000000 DFSDM1_FLT3_IRQHandler
C:\Users\jisu8\AppData\Local\Temp\cc493r1c.s:2911   .text.SAI3_IRQHandler:00000000 $t
C:\Users\jisu8\AppData\Local\Temp\cc493r1c.s:2917   .text.SAI3_IRQHandler:00000000 SAI3_IRQHandler
C:\Users\jisu8\AppData\Local\Temp\cc493r1c.s:2935   .text.SWPMI1_IRQHandler:00000000 $t
C:\Users\jisu8\AppData\Local\Temp\cc493r1c.s:2941   .text.SWPMI1_IRQHandler:00000000 SWPMI1_IRQHandler
C:\Users\jisu8\AppData\Local\Temp\cc493r1c.s:2959   .text.MDIOS_WKUP_IRQHandler:00000000 $t
C:\Users\jisu8\AppData\Local\Temp\cc493r1c.s:2965   .text.MDIOS_WKUP_IRQHandler:00000000 MDIOS_WKUP_IRQHandler
C:\Users\jisu8\AppData\Local\Temp\cc493r1c.s:2983   .text.MDIOS_IRQHandler:00000000 $t
C:\Users\jisu8\AppData\Local\Temp\cc493r1c.s:2989   .text.MDIOS_IRQHandler:00000000 MDIOS_IRQHandler
C:\Users\jisu8\AppData\Local\Temp\cc493r1c.s:3007   .text.JPEG_IRQHandler:00000000 $t
C:\Users\jisu8\AppData\Local\Temp\cc493r1c.s:3013   .text.JPEG_IRQHandler:00000000 JPEG_IRQHandler
C:\Users\jisu8\AppData\Local\Temp\cc493r1c.s:3031   .text.MDMA_IRQHandler:00000000 $t
C:\Users\jisu8\AppData\Local\Temp\cc493r1c.s:3037   .text.MDMA_IRQHandler:00000000 MDMA_IRQHandler
C:\Users\jisu8\AppData\Local\Temp\cc493r1c.s:3055   .text.SDMMC2_IRQHandler:00000000 $t
C:\Users\jisu8\AppData\Local\Temp\cc493r1c.s:3061   .text.SDMMC2_IRQHandler:00000000 SDMMC2_IRQHandler
C:\Users\jisu8\AppData\Local\Temp\cc493r1c.s:3079   .text.HSEM1_IRQHandler:00000000 $t
C:\Users\jisu8\AppData\Local\Temp\cc493r1c.s:3085   .text.HSEM1_IRQHandler:00000000 HSEM1_IRQHandler
C:\Users\jisu8\AppData\Local\Temp\cc493r1c.s:3103   .text.ADC3_IRQHandler:00000000 $t
C:\Users\jisu8\AppData\Local\Temp\cc493r1c.s:3109   .text.ADC3_IRQHandler:00000000 ADC3_IRQHandler
C:\Users\jisu8\AppData\Local\Temp\cc493r1c.s:3127   .text.DMAMUX2_OVR_IRQHandler:00000000 $t
C:\Users\jisu8\AppData\Local\Temp\cc493r1c.s:3133   .text.DMAMUX2_OVR_IRQHandler:00000000 DMAMUX2_OVR_IRQHandler
C:\Users\jisu8\AppData\Local\Temp\cc493r1c.s:3151   .text.BDMA_Channel0_IRQHandler:00000000 $t
C:\Users\jisu8\AppData\Local\Temp\cc493r1c.s:3157   .text.BDMA_Channel0_IRQHandler:00000000 BDMA_Channel0_IRQHandler
C:\Users\jisu8\AppData\Local\Temp\cc493r1c.s:3175   .text.BDMA_Channel1_IRQHandler:00000000 $t
C:\Users\jisu8\AppData\Local\Temp\cc493r1c.s:3181   .text.BDMA_Channel1_IRQHandler:00000000 BDMA_Channel1_IRQHandler
C:\Users\jisu8\AppData\Local\Temp\cc493r1c.s:3199   .text.BDMA_Channel2_IRQHandler:00000000 $t
C:\Users\jisu8\AppData\Local\Temp\cc493r1c.s:3205   .text.BDMA_Channel2_IRQHandler:00000000 BDMA_Channel2_IRQHandler
C:\Users\jisu8\AppData\Local\Temp\cc493r1c.s:3223   .text.BDMA_Channel3_IRQHandler:00000000 $t
C:\Users\jisu8\AppData\Local\Temp\cc493r1c.s:3229   .text.BDMA_Channel3_IRQHandler:00000000 BDMA_Channel3_IRQHandler
C:\Users\jisu8\AppData\Local\Temp\cc493r1c.s:3247   .text.BDMA_Channel4_IRQHandler:00000000 $t
C:\Users\jisu8\AppData\Local\Temp\cc493r1c.s:3253   .text.BDMA_Channel4_IRQHandler:00000000 BDMA_Channel4_IRQHandler
C:\Users\jisu8\AppData\Local\Temp\cc493r1c.s:3271   .text.BDMA_Channel5_IRQHandler:00000000 $t
C:\Users\jisu8\AppData\Local\Temp\cc493r1c.s:3277   .text.BDMA_Channel5_IRQHandler:00000000 BDMA_Channel5_IRQHandler
C:\Users\jisu8\AppData\Local\Temp\cc493r1c.s:3295   .text.BDMA_Channel6_IRQHandler:00000000 $t
C:\Users\jisu8\AppData\Local\Temp\cc493r1c.s:3301   .text.BDMA_Channel6_IRQHandler:00000000 BDMA_Channel6_IRQHandler
C:\Users\jisu8\AppData\Local\Temp\cc493r1c.s:3319   .text.BDMA_Channel7_IRQHandler:00000000 $t
C:\Users\jisu8\AppData\Local\Temp\cc493r1c.s:3325   .text.BDMA_Channel7_IRQHandler:00000000 BDMA_Channel7_IRQHandler
C:\Users\jisu8\AppData\Local\Temp\cc493r1c.s:3343   .text.COMP1_IRQHandler:00000000 $t
C:\Users\jisu8\AppData\Local\Temp\cc493r1c.s:3349   .text.COMP1_IRQHandler:00000000 COMP1_IRQHandler
C:\Users\jisu8\AppData\Local\Temp\cc493r1c.s:3367   .text.LPTIM2_IRQHandler:00000000 $t
C:\Users\jisu8\AppData\Local\Temp\cc493r1c.s:3373   .text.LPTIM2_IRQHandler:00000000 LPTIM2_IRQHandler
C:\Users\jisu8\AppData\Local\Temp\cc493r1c.s:3391   .text.LPTIM3_IRQHandler:00000000 $t
C:\Users\jisu8\AppData\Local\Temp\cc493r1c.s:3397   .text.LPTIM3_IRQHandler:00000000 LPTIM3_IRQHandler
C:\Users\jisu8\AppData\Local\Temp\cc493r1c.s:3415   .text.LPTIM4_IRQHandler:00000000 $t
C:\Users\jisu8\AppData\Local\Temp\cc493r1c.s:3421   .text.LPTIM4_IRQHandler:00000000 LPTIM4_IRQHandler
C:\Users\jisu8\AppData\Local\Temp\cc493r1c.s:3439   .text.LPTIM5_IRQHandler:00000000 $t
C:\Users\jisu8\AppData\Local\Temp\cc493r1c.s:3445   .text.LPTIM5_IRQHandler:00000000 LPTIM5_IRQHandler
ARM GAS  C:\Users\jisu8\AppData\Local\Temp\cc493r1c.s 			page 75


C:\Users\jisu8\AppData\Local\Temp\cc493r1c.s:3463   .text.LPUART1_IRQHandler:00000000 $t
C:\Users\jisu8\AppData\Local\Temp\cc493r1c.s:3469   .text.LPUART1_IRQHandler:00000000 LPUART1_IRQHandler
C:\Users\jisu8\AppData\Local\Temp\cc493r1c.s:3487   .text.CRS_IRQHandler:00000000 $t
C:\Users\jisu8\AppData\Local\Temp\cc493r1c.s:3493   .text.CRS_IRQHandler:00000000 CRS_IRQHandler
C:\Users\jisu8\AppData\Local\Temp\cc493r1c.s:3511   .text.ECC_IRQHandler:00000000 $t
C:\Users\jisu8\AppData\Local\Temp\cc493r1c.s:3517   .text.ECC_IRQHandler:00000000 ECC_IRQHandler
C:\Users\jisu8\AppData\Local\Temp\cc493r1c.s:3535   .text.SAI4_IRQHandler:00000000 $t
C:\Users\jisu8\AppData\Local\Temp\cc493r1c.s:3541   .text.SAI4_IRQHandler:00000000 SAI4_IRQHandler
C:\Users\jisu8\AppData\Local\Temp\cc493r1c.s:3559   .text.WAKEUP_PIN_IRQHandler:00000000 $t
C:\Users\jisu8\AppData\Local\Temp\cc493r1c.s:3565   .text.WAKEUP_PIN_IRQHandler:00000000 WAKEUP_PIN_IRQHandler
C:\Users\jisu8\AppData\Local\Temp\cc493r1c.s:3583   .text.TIM15_Handler:00000000 $t
C:\Users\jisu8\AppData\Local\Temp\cc493r1c.s:3589   .text.TIM15_Handler:00000000 TIM15_Handler
C:\Users\jisu8\AppData\Local\Temp\cc493r1c.s:3609   .text.TIM15_Handler:0000000c $d
C:\Users\jisu8\AppData\Local\Temp\cc493r1c.s:3614   .text.TIM15_IRQHandler:00000000 $t
C:\Users\jisu8\AppData\Local\Temp\cc493r1c.s:3620   .text.TIM15_IRQHandler:00000000 TIM15_IRQHandler
C:\Users\jisu8\AppData\Local\Temp\cc493r1c.s:3640   .text.TIM16_Handler:00000000 $t
C:\Users\jisu8\AppData\Local\Temp\cc493r1c.s:3646   .text.TIM16_Handler:00000000 TIM16_Handler
C:\Users\jisu8\AppData\Local\Temp\cc493r1c.s:3666   .text.TIM16_Handler:0000000c $d
C:\Users\jisu8\AppData\Local\Temp\cc493r1c.s:3671   .text.TIM16_IRQHandler:00000000 $t
C:\Users\jisu8\AppData\Local\Temp\cc493r1c.s:3677   .text.TIM16_IRQHandler:00000000 TIM16_IRQHandler
C:\Users\jisu8\AppData\Local\Temp\cc493r1c.s:3697   .text.TIM17_Handler:00000000 $t
C:\Users\jisu8\AppData\Local\Temp\cc493r1c.s:3703   .text.TIM17_Handler:00000000 TIM17_Handler
C:\Users\jisu8\AppData\Local\Temp\cc493r1c.s:3723   .text.TIM17_Handler:0000000c $d
C:\Users\jisu8\AppData\Local\Temp\cc493r1c.s:3728   .text.TIM17_IRQHandler:00000000 $t
C:\Users\jisu8\AppData\Local\Temp\cc493r1c.s:3734   .text.TIM17_IRQHandler:00000000 TIM17_IRQHandler
C:\Users\jisu8\AppData\Local\Temp\cc493r1c.s:3754   .text.SystemTick_Handler:00000000 $t
C:\Users\jisu8\AppData\Local\Temp\cc493r1c.s:3760   .text.SystemTick_Handler:00000000 SystemTick_Handler
C:\Users\jisu8\AppData\Local\Temp\cc493r1c.s:3780   .text.SysTick_Handler:00000000 $t
C:\Users\jisu8\AppData\Local\Temp\cc493r1c.s:3786   .text.SysTick_Handler:00000000 SysTick_Handler
C:\Users\jisu8\AppData\Local\Temp\cc493r1c.s:3810   .isr_vector:00000000 VectorTable
C:\Users\jisu8\AppData\Local\Temp\cc493r1c.s:3807   .isr_vector:00000000 $d

UNDEFINED SYMBOLS
SystemInit
__libc_init_array
main
_sdata
_sidata
_edata
_sbss
_ebss
HAL_TIM_IRQHandler
htim15
htim16
htim17
HAL_IncTick
_estack
