ARM GAS  C:\Users\jisu8\AppData\Local\Temp\ccyzchVo.s 			page 1


   1              		.cpu cortex-m7
   2              		.arch armv7e-m
   3              		.fpu fpv5-d16
   4              		.eabi_attribute 28, 1
   5              		.eabi_attribute 20, 1
   6              		.eabi_attribute 21, 1
   7              		.eabi_attribute 23, 3
   8              		.eabi_attribute 24, 1
   9              		.eabi_attribute 25, 1
  10              		.eabi_attribute 26, 1
  11              		.eabi_attribute 30, 1
  12              		.eabi_attribute 34, 1
  13              		.eabi_attribute 18, 4
  14              		.file	"stm32h7xx_hal_uart_ex.c"
  15              		.text
  16              	.Ltext0:
  17              		.cfi_sections	.debug_frame
  18              		.section	.text.UARTEx_Wakeup_AddressConfig,"ax",%progbits
  19              		.align	1
  20              		.syntax unified
  21              		.thumb
  22              		.thumb_func
  24              	UARTEx_Wakeup_AddressConfig:
  25              	.LVL0:
  26              	.LFB346:
  27              		.file 1 "Drivers/STM32H7xx_HAL_Driver/Src/stm32h7xx_hal_uart_ex.c"
   1:Drivers/STM32H7xx_HAL_Driver/Src/stm32h7xx_hal_uart_ex.c **** /**
   2:Drivers/STM32H7xx_HAL_Driver/Src/stm32h7xx_hal_uart_ex.c ****   ******************************************************************************
   3:Drivers/STM32H7xx_HAL_Driver/Src/stm32h7xx_hal_uart_ex.c ****   * @file    stm32h7xx_hal_uart_ex.c
   4:Drivers/STM32H7xx_HAL_Driver/Src/stm32h7xx_hal_uart_ex.c ****   * @author  MCD Application Team
   5:Drivers/STM32H7xx_HAL_Driver/Src/stm32h7xx_hal_uart_ex.c ****   * @brief   Extended UART HAL module driver.
   6:Drivers/STM32H7xx_HAL_Driver/Src/stm32h7xx_hal_uart_ex.c ****   *          This file provides firmware functions to manage the following extended
   7:Drivers/STM32H7xx_HAL_Driver/Src/stm32h7xx_hal_uart_ex.c ****   *          functionalities of the Universal Asynchronous Receiver Transmitter Peripheral (UART).
   8:Drivers/STM32H7xx_HAL_Driver/Src/stm32h7xx_hal_uart_ex.c ****   *           + Initialization and de-initialization functions
   9:Drivers/STM32H7xx_HAL_Driver/Src/stm32h7xx_hal_uart_ex.c ****   *           + Peripheral Control functions
  10:Drivers/STM32H7xx_HAL_Driver/Src/stm32h7xx_hal_uart_ex.c ****   *
  11:Drivers/STM32H7xx_HAL_Driver/Src/stm32h7xx_hal_uart_ex.c ****   *
  12:Drivers/STM32H7xx_HAL_Driver/Src/stm32h7xx_hal_uart_ex.c ****   @verbatim
  13:Drivers/STM32H7xx_HAL_Driver/Src/stm32h7xx_hal_uart_ex.c ****   ==============================================================================
  14:Drivers/STM32H7xx_HAL_Driver/Src/stm32h7xx_hal_uart_ex.c ****                ##### UART peripheral extended features  #####
  15:Drivers/STM32H7xx_HAL_Driver/Src/stm32h7xx_hal_uart_ex.c ****   ==============================================================================
  16:Drivers/STM32H7xx_HAL_Driver/Src/stm32h7xx_hal_uart_ex.c **** 
  17:Drivers/STM32H7xx_HAL_Driver/Src/stm32h7xx_hal_uart_ex.c ****     (#) Declare a UART_HandleTypeDef handle structure.
  18:Drivers/STM32H7xx_HAL_Driver/Src/stm32h7xx_hal_uart_ex.c **** 
  19:Drivers/STM32H7xx_HAL_Driver/Src/stm32h7xx_hal_uart_ex.c ****     (#) For the UART RS485 Driver Enable mode, initialize the UART registers
  20:Drivers/STM32H7xx_HAL_Driver/Src/stm32h7xx_hal_uart_ex.c ****         by calling the HAL_RS485Ex_Init() API.
  21:Drivers/STM32H7xx_HAL_Driver/Src/stm32h7xx_hal_uart_ex.c **** 
  22:Drivers/STM32H7xx_HAL_Driver/Src/stm32h7xx_hal_uart_ex.c ****     (#) FIFO mode enabling/disabling and RX/TX FIFO threshold programming.
  23:Drivers/STM32H7xx_HAL_Driver/Src/stm32h7xx_hal_uart_ex.c **** 
  24:Drivers/STM32H7xx_HAL_Driver/Src/stm32h7xx_hal_uart_ex.c ****         -@- When UART operates in FIFO mode, FIFO mode must be enabled prior
  25:Drivers/STM32H7xx_HAL_Driver/Src/stm32h7xx_hal_uart_ex.c ****             starting RX/TX transfers. Also RX/TX FIFO thresholds must be
  26:Drivers/STM32H7xx_HAL_Driver/Src/stm32h7xx_hal_uart_ex.c ****             configured prior starting RX/TX transfers.
  27:Drivers/STM32H7xx_HAL_Driver/Src/stm32h7xx_hal_uart_ex.c **** 
  28:Drivers/STM32H7xx_HAL_Driver/Src/stm32h7xx_hal_uart_ex.c ****   @endverbatim
  29:Drivers/STM32H7xx_HAL_Driver/Src/stm32h7xx_hal_uart_ex.c ****   ******************************************************************************
  30:Drivers/STM32H7xx_HAL_Driver/Src/stm32h7xx_hal_uart_ex.c ****   * @attention
  31:Drivers/STM32H7xx_HAL_Driver/Src/stm32h7xx_hal_uart_ex.c ****   *
ARM GAS  C:\Users\jisu8\AppData\Local\Temp\ccyzchVo.s 			page 2


  32:Drivers/STM32H7xx_HAL_Driver/Src/stm32h7xx_hal_uart_ex.c ****   * <h2><center>&copy; Copyright (c) 2017 STMicroelectronics.
  33:Drivers/STM32H7xx_HAL_Driver/Src/stm32h7xx_hal_uart_ex.c ****   * All rights reserved.</center></h2>
  34:Drivers/STM32H7xx_HAL_Driver/Src/stm32h7xx_hal_uart_ex.c ****   *
  35:Drivers/STM32H7xx_HAL_Driver/Src/stm32h7xx_hal_uart_ex.c ****   * This software component is licensed by ST under BSD 3-Clause license,
  36:Drivers/STM32H7xx_HAL_Driver/Src/stm32h7xx_hal_uart_ex.c ****   * the "License"; You may not use this file except in compliance with the
  37:Drivers/STM32H7xx_HAL_Driver/Src/stm32h7xx_hal_uart_ex.c ****   * License. You may obtain a copy of the License at:
  38:Drivers/STM32H7xx_HAL_Driver/Src/stm32h7xx_hal_uart_ex.c ****   *                        opensource.org/licenses/BSD-3-Clause
  39:Drivers/STM32H7xx_HAL_Driver/Src/stm32h7xx_hal_uart_ex.c ****   *
  40:Drivers/STM32H7xx_HAL_Driver/Src/stm32h7xx_hal_uart_ex.c ****   ******************************************************************************
  41:Drivers/STM32H7xx_HAL_Driver/Src/stm32h7xx_hal_uart_ex.c ****   */
  42:Drivers/STM32H7xx_HAL_Driver/Src/stm32h7xx_hal_uart_ex.c **** 
  43:Drivers/STM32H7xx_HAL_Driver/Src/stm32h7xx_hal_uart_ex.c **** /* Includes ------------------------------------------------------------------*/
  44:Drivers/STM32H7xx_HAL_Driver/Src/stm32h7xx_hal_uart_ex.c **** #include "stm32h7xx_hal.h"
  45:Drivers/STM32H7xx_HAL_Driver/Src/stm32h7xx_hal_uart_ex.c **** 
  46:Drivers/STM32H7xx_HAL_Driver/Src/stm32h7xx_hal_uart_ex.c **** /** @addtogroup STM32H7xx_HAL_Driver
  47:Drivers/STM32H7xx_HAL_Driver/Src/stm32h7xx_hal_uart_ex.c ****   * @{
  48:Drivers/STM32H7xx_HAL_Driver/Src/stm32h7xx_hal_uart_ex.c ****   */
  49:Drivers/STM32H7xx_HAL_Driver/Src/stm32h7xx_hal_uart_ex.c **** 
  50:Drivers/STM32H7xx_HAL_Driver/Src/stm32h7xx_hal_uart_ex.c **** /** @defgroup UARTEx UARTEx
  51:Drivers/STM32H7xx_HAL_Driver/Src/stm32h7xx_hal_uart_ex.c ****   * @brief UART Extended HAL module driver
  52:Drivers/STM32H7xx_HAL_Driver/Src/stm32h7xx_hal_uart_ex.c ****   * @{
  53:Drivers/STM32H7xx_HAL_Driver/Src/stm32h7xx_hal_uart_ex.c ****   */
  54:Drivers/STM32H7xx_HAL_Driver/Src/stm32h7xx_hal_uart_ex.c **** 
  55:Drivers/STM32H7xx_HAL_Driver/Src/stm32h7xx_hal_uart_ex.c **** #ifdef HAL_UART_MODULE_ENABLED
  56:Drivers/STM32H7xx_HAL_Driver/Src/stm32h7xx_hal_uart_ex.c **** 
  57:Drivers/STM32H7xx_HAL_Driver/Src/stm32h7xx_hal_uart_ex.c **** /* Private typedef -----------------------------------------------------------*/
  58:Drivers/STM32H7xx_HAL_Driver/Src/stm32h7xx_hal_uart_ex.c **** /* Private define ------------------------------------------------------------*/
  59:Drivers/STM32H7xx_HAL_Driver/Src/stm32h7xx_hal_uart_ex.c **** /** @defgroup UARTEX_Private_Constants UARTEx Private Constants
  60:Drivers/STM32H7xx_HAL_Driver/Src/stm32h7xx_hal_uart_ex.c ****   * @{
  61:Drivers/STM32H7xx_HAL_Driver/Src/stm32h7xx_hal_uart_ex.c ****   */
  62:Drivers/STM32H7xx_HAL_Driver/Src/stm32h7xx_hal_uart_ex.c **** /* UART RX FIFO depth */
  63:Drivers/STM32H7xx_HAL_Driver/Src/stm32h7xx_hal_uart_ex.c **** #define RX_FIFO_DEPTH 16U
  64:Drivers/STM32H7xx_HAL_Driver/Src/stm32h7xx_hal_uart_ex.c **** 
  65:Drivers/STM32H7xx_HAL_Driver/Src/stm32h7xx_hal_uart_ex.c **** /* UART TX FIFO depth */
  66:Drivers/STM32H7xx_HAL_Driver/Src/stm32h7xx_hal_uart_ex.c **** #define TX_FIFO_DEPTH 16U
  67:Drivers/STM32H7xx_HAL_Driver/Src/stm32h7xx_hal_uart_ex.c **** /**
  68:Drivers/STM32H7xx_HAL_Driver/Src/stm32h7xx_hal_uart_ex.c ****   * @}
  69:Drivers/STM32H7xx_HAL_Driver/Src/stm32h7xx_hal_uart_ex.c ****   */
  70:Drivers/STM32H7xx_HAL_Driver/Src/stm32h7xx_hal_uart_ex.c **** 
  71:Drivers/STM32H7xx_HAL_Driver/Src/stm32h7xx_hal_uart_ex.c **** /* Private macros ------------------------------------------------------------*/
  72:Drivers/STM32H7xx_HAL_Driver/Src/stm32h7xx_hal_uart_ex.c **** /* Private variables ---------------------------------------------------------*/
  73:Drivers/STM32H7xx_HAL_Driver/Src/stm32h7xx_hal_uart_ex.c **** /* Private function prototypes -----------------------------------------------*/
  74:Drivers/STM32H7xx_HAL_Driver/Src/stm32h7xx_hal_uart_ex.c **** /** @defgroup UARTEx_Private_Functions UARTEx Private Functions
  75:Drivers/STM32H7xx_HAL_Driver/Src/stm32h7xx_hal_uart_ex.c ****   * @{
  76:Drivers/STM32H7xx_HAL_Driver/Src/stm32h7xx_hal_uart_ex.c ****   */
  77:Drivers/STM32H7xx_HAL_Driver/Src/stm32h7xx_hal_uart_ex.c **** static void UARTEx_Wakeup_AddressConfig(UART_HandleTypeDef *huart, UART_WakeUpTypeDef WakeUpSelecti
  78:Drivers/STM32H7xx_HAL_Driver/Src/stm32h7xx_hal_uart_ex.c **** static void UARTEx_SetNbDataToProcess(UART_HandleTypeDef *huart);
  79:Drivers/STM32H7xx_HAL_Driver/Src/stm32h7xx_hal_uart_ex.c **** /**
  80:Drivers/STM32H7xx_HAL_Driver/Src/stm32h7xx_hal_uart_ex.c ****   * @}
  81:Drivers/STM32H7xx_HAL_Driver/Src/stm32h7xx_hal_uart_ex.c ****   */
  82:Drivers/STM32H7xx_HAL_Driver/Src/stm32h7xx_hal_uart_ex.c **** 
  83:Drivers/STM32H7xx_HAL_Driver/Src/stm32h7xx_hal_uart_ex.c **** /* Exported functions --------------------------------------------------------*/
  84:Drivers/STM32H7xx_HAL_Driver/Src/stm32h7xx_hal_uart_ex.c **** 
  85:Drivers/STM32H7xx_HAL_Driver/Src/stm32h7xx_hal_uart_ex.c **** /** @defgroup UARTEx_Exported_Functions  UARTEx Exported Functions
  86:Drivers/STM32H7xx_HAL_Driver/Src/stm32h7xx_hal_uart_ex.c ****   * @{
  87:Drivers/STM32H7xx_HAL_Driver/Src/stm32h7xx_hal_uart_ex.c ****   */
  88:Drivers/STM32H7xx_HAL_Driver/Src/stm32h7xx_hal_uart_ex.c **** 
ARM GAS  C:\Users\jisu8\AppData\Local\Temp\ccyzchVo.s 			page 3


  89:Drivers/STM32H7xx_HAL_Driver/Src/stm32h7xx_hal_uart_ex.c **** /** @defgroup UARTEx_Exported_Functions_Group1 Initialization and de-initialization functions
  90:Drivers/STM32H7xx_HAL_Driver/Src/stm32h7xx_hal_uart_ex.c ****   * @brief    Extended Initialization and Configuration Functions
  91:Drivers/STM32H7xx_HAL_Driver/Src/stm32h7xx_hal_uart_ex.c ****   *
  92:Drivers/STM32H7xx_HAL_Driver/Src/stm32h7xx_hal_uart_ex.c **** @verbatim
  93:Drivers/STM32H7xx_HAL_Driver/Src/stm32h7xx_hal_uart_ex.c **** ===============================================================================
  94:Drivers/STM32H7xx_HAL_Driver/Src/stm32h7xx_hal_uart_ex.c ****             ##### Initialization and Configuration functions #####
  95:Drivers/STM32H7xx_HAL_Driver/Src/stm32h7xx_hal_uart_ex.c ****  ===============================================================================
  96:Drivers/STM32H7xx_HAL_Driver/Src/stm32h7xx_hal_uart_ex.c ****     [..]
  97:Drivers/STM32H7xx_HAL_Driver/Src/stm32h7xx_hal_uart_ex.c ****     This subsection provides a set of functions allowing to initialize the USARTx or the UARTy
  98:Drivers/STM32H7xx_HAL_Driver/Src/stm32h7xx_hal_uart_ex.c ****     in asynchronous mode.
  99:Drivers/STM32H7xx_HAL_Driver/Src/stm32h7xx_hal_uart_ex.c ****       (+) For the asynchronous mode the parameters below can be configured:
 100:Drivers/STM32H7xx_HAL_Driver/Src/stm32h7xx_hal_uart_ex.c ****         (++) Baud Rate
 101:Drivers/STM32H7xx_HAL_Driver/Src/stm32h7xx_hal_uart_ex.c ****         (++) Word Length
 102:Drivers/STM32H7xx_HAL_Driver/Src/stm32h7xx_hal_uart_ex.c ****         (++) Stop Bit
 103:Drivers/STM32H7xx_HAL_Driver/Src/stm32h7xx_hal_uart_ex.c ****         (++) Parity: If the parity is enabled, then the MSB bit of the data written
 104:Drivers/STM32H7xx_HAL_Driver/Src/stm32h7xx_hal_uart_ex.c ****              in the data register is transmitted but is changed by the parity bit.
 105:Drivers/STM32H7xx_HAL_Driver/Src/stm32h7xx_hal_uart_ex.c ****         (++) Hardware flow control
 106:Drivers/STM32H7xx_HAL_Driver/Src/stm32h7xx_hal_uart_ex.c ****         (++) Receiver/transmitter modes
 107:Drivers/STM32H7xx_HAL_Driver/Src/stm32h7xx_hal_uart_ex.c ****         (++) Over Sampling Method
 108:Drivers/STM32H7xx_HAL_Driver/Src/stm32h7xx_hal_uart_ex.c ****         (++) One-Bit Sampling Method
 109:Drivers/STM32H7xx_HAL_Driver/Src/stm32h7xx_hal_uart_ex.c ****       (+) For the asynchronous mode, the following advanced features can be configured as well:
 110:Drivers/STM32H7xx_HAL_Driver/Src/stm32h7xx_hal_uart_ex.c ****         (++) TX and/or RX pin level inversion
 111:Drivers/STM32H7xx_HAL_Driver/Src/stm32h7xx_hal_uart_ex.c ****         (++) data logical level inversion
 112:Drivers/STM32H7xx_HAL_Driver/Src/stm32h7xx_hal_uart_ex.c ****         (++) RX and TX pins swap
 113:Drivers/STM32H7xx_HAL_Driver/Src/stm32h7xx_hal_uart_ex.c ****         (++) RX overrun detection disabling
 114:Drivers/STM32H7xx_HAL_Driver/Src/stm32h7xx_hal_uart_ex.c ****         (++) DMA disabling on RX error
 115:Drivers/STM32H7xx_HAL_Driver/Src/stm32h7xx_hal_uart_ex.c ****         (++) MSB first on communication line
 116:Drivers/STM32H7xx_HAL_Driver/Src/stm32h7xx_hal_uart_ex.c ****         (++) auto Baud rate detection
 117:Drivers/STM32H7xx_HAL_Driver/Src/stm32h7xx_hal_uart_ex.c ****     [..]
 118:Drivers/STM32H7xx_HAL_Driver/Src/stm32h7xx_hal_uart_ex.c ****     The HAL_RS485Ex_Init() API follows the UART RS485 mode configuration
 119:Drivers/STM32H7xx_HAL_Driver/Src/stm32h7xx_hal_uart_ex.c ****      procedures (details for the procedures are available in reference manual).
 120:Drivers/STM32H7xx_HAL_Driver/Src/stm32h7xx_hal_uart_ex.c **** 
 121:Drivers/STM32H7xx_HAL_Driver/Src/stm32h7xx_hal_uart_ex.c **** @endverbatim
 122:Drivers/STM32H7xx_HAL_Driver/Src/stm32h7xx_hal_uart_ex.c **** 
 123:Drivers/STM32H7xx_HAL_Driver/Src/stm32h7xx_hal_uart_ex.c ****   Depending on the frame length defined by the M1 and M0 bits (7-bit,
 124:Drivers/STM32H7xx_HAL_Driver/Src/stm32h7xx_hal_uart_ex.c ****   8-bit or 9-bit), the possible UART formats are listed in the
 125:Drivers/STM32H7xx_HAL_Driver/Src/stm32h7xx_hal_uart_ex.c ****   following table.
 126:Drivers/STM32H7xx_HAL_Driver/Src/stm32h7xx_hal_uart_ex.c **** 
 127:Drivers/STM32H7xx_HAL_Driver/Src/stm32h7xx_hal_uart_ex.c ****     Table 1. UART frame format.
 128:Drivers/STM32H7xx_HAL_Driver/Src/stm32h7xx_hal_uart_ex.c ****     +-----------------------------------------------------------------------+
 129:Drivers/STM32H7xx_HAL_Driver/Src/stm32h7xx_hal_uart_ex.c ****     |  M1 bit |  M0 bit |  PCE bit  |             UART frame                |
 130:Drivers/STM32H7xx_HAL_Driver/Src/stm32h7xx_hal_uart_ex.c ****     |---------|---------|-----------|---------------------------------------|
 131:Drivers/STM32H7xx_HAL_Driver/Src/stm32h7xx_hal_uart_ex.c ****     |    0    |    0    |    0      |    | SB |    8 bit data   | STB |     |
 132:Drivers/STM32H7xx_HAL_Driver/Src/stm32h7xx_hal_uart_ex.c ****     |---------|---------|-----------|---------------------------------------|
 133:Drivers/STM32H7xx_HAL_Driver/Src/stm32h7xx_hal_uart_ex.c ****     |    0    |    0    |    1      |    | SB | 7 bit data | PB | STB |     |
 134:Drivers/STM32H7xx_HAL_Driver/Src/stm32h7xx_hal_uart_ex.c ****     |---------|---------|-----------|---------------------------------------|
 135:Drivers/STM32H7xx_HAL_Driver/Src/stm32h7xx_hal_uart_ex.c ****     |    0    |    1    |    0      |    | SB |    9 bit data   | STB |     |
 136:Drivers/STM32H7xx_HAL_Driver/Src/stm32h7xx_hal_uart_ex.c ****     |---------|---------|-----------|---------------------------------------|
 137:Drivers/STM32H7xx_HAL_Driver/Src/stm32h7xx_hal_uart_ex.c ****     |    0    |    1    |    1      |    | SB | 8 bit data | PB | STB |     |
 138:Drivers/STM32H7xx_HAL_Driver/Src/stm32h7xx_hal_uart_ex.c ****     |---------|---------|-----------|---------------------------------------|
 139:Drivers/STM32H7xx_HAL_Driver/Src/stm32h7xx_hal_uart_ex.c ****     |    1    |    0    |    0      |    | SB |    7 bit data   | STB |     |
 140:Drivers/STM32H7xx_HAL_Driver/Src/stm32h7xx_hal_uart_ex.c ****     |---------|---------|-----------|---------------------------------------|
 141:Drivers/STM32H7xx_HAL_Driver/Src/stm32h7xx_hal_uart_ex.c ****     |    1    |    0    |    1      |    | SB | 6 bit data | PB | STB |     |
 142:Drivers/STM32H7xx_HAL_Driver/Src/stm32h7xx_hal_uart_ex.c ****     +-----------------------------------------------------------------------+
 143:Drivers/STM32H7xx_HAL_Driver/Src/stm32h7xx_hal_uart_ex.c **** 
 144:Drivers/STM32H7xx_HAL_Driver/Src/stm32h7xx_hal_uart_ex.c ****   * @{
 145:Drivers/STM32H7xx_HAL_Driver/Src/stm32h7xx_hal_uart_ex.c ****   */
ARM GAS  C:\Users\jisu8\AppData\Local\Temp\ccyzchVo.s 			page 4


 146:Drivers/STM32H7xx_HAL_Driver/Src/stm32h7xx_hal_uart_ex.c **** 
 147:Drivers/STM32H7xx_HAL_Driver/Src/stm32h7xx_hal_uart_ex.c **** /**
 148:Drivers/STM32H7xx_HAL_Driver/Src/stm32h7xx_hal_uart_ex.c ****   * @brief Initialize the RS485 Driver enable feature according to the specified
 149:Drivers/STM32H7xx_HAL_Driver/Src/stm32h7xx_hal_uart_ex.c ****   *         parameters in the UART_InitTypeDef and creates the associated handle.
 150:Drivers/STM32H7xx_HAL_Driver/Src/stm32h7xx_hal_uart_ex.c ****   * @param huart            UART handle.
 151:Drivers/STM32H7xx_HAL_Driver/Src/stm32h7xx_hal_uart_ex.c ****   * @param Polarity         Select the driver enable polarity.
 152:Drivers/STM32H7xx_HAL_Driver/Src/stm32h7xx_hal_uart_ex.c ****   *          This parameter can be one of the following values:
 153:Drivers/STM32H7xx_HAL_Driver/Src/stm32h7xx_hal_uart_ex.c ****   *          @arg @ref UART_DE_POLARITY_HIGH DE signal is active high
 154:Drivers/STM32H7xx_HAL_Driver/Src/stm32h7xx_hal_uart_ex.c ****   *          @arg @ref UART_DE_POLARITY_LOW  DE signal is active low
 155:Drivers/STM32H7xx_HAL_Driver/Src/stm32h7xx_hal_uart_ex.c ****   * @param AssertionTime    Driver Enable assertion time:
 156:Drivers/STM32H7xx_HAL_Driver/Src/stm32h7xx_hal_uart_ex.c ****   *       5-bit value defining the time between the activation of the DE (Driver Enable)
 157:Drivers/STM32H7xx_HAL_Driver/Src/stm32h7xx_hal_uart_ex.c ****   *       signal and the beginning of the start bit. It is expressed in sample time
 158:Drivers/STM32H7xx_HAL_Driver/Src/stm32h7xx_hal_uart_ex.c ****   *       units (1/8 or 1/16 bit time, depending on the oversampling rate)
 159:Drivers/STM32H7xx_HAL_Driver/Src/stm32h7xx_hal_uart_ex.c ****   * @param DeassertionTime  Driver Enable deassertion time:
 160:Drivers/STM32H7xx_HAL_Driver/Src/stm32h7xx_hal_uart_ex.c ****   *       5-bit value defining the time between the end of the last stop bit, in a
 161:Drivers/STM32H7xx_HAL_Driver/Src/stm32h7xx_hal_uart_ex.c ****   *       transmitted message, and the de-activation of the DE (Driver Enable) signal.
 162:Drivers/STM32H7xx_HAL_Driver/Src/stm32h7xx_hal_uart_ex.c ****   *       It is expressed in sample time units (1/8 or 1/16 bit time, depending on the
 163:Drivers/STM32H7xx_HAL_Driver/Src/stm32h7xx_hal_uart_ex.c ****   *       oversampling rate).
 164:Drivers/STM32H7xx_HAL_Driver/Src/stm32h7xx_hal_uart_ex.c ****   * @retval HAL status
 165:Drivers/STM32H7xx_HAL_Driver/Src/stm32h7xx_hal_uart_ex.c ****   */
 166:Drivers/STM32H7xx_HAL_Driver/Src/stm32h7xx_hal_uart_ex.c **** HAL_StatusTypeDef HAL_RS485Ex_Init(UART_HandleTypeDef *huart, uint32_t Polarity, uint32_t Assertion
 167:Drivers/STM32H7xx_HAL_Driver/Src/stm32h7xx_hal_uart_ex.c ****                                    uint32_t DeassertionTime)
 168:Drivers/STM32H7xx_HAL_Driver/Src/stm32h7xx_hal_uart_ex.c **** {
 169:Drivers/STM32H7xx_HAL_Driver/Src/stm32h7xx_hal_uart_ex.c ****   uint32_t temp;
 170:Drivers/STM32H7xx_HAL_Driver/Src/stm32h7xx_hal_uart_ex.c **** 
 171:Drivers/STM32H7xx_HAL_Driver/Src/stm32h7xx_hal_uart_ex.c ****   /* Check the UART handle allocation */
 172:Drivers/STM32H7xx_HAL_Driver/Src/stm32h7xx_hal_uart_ex.c ****   if (huart == NULL)
 173:Drivers/STM32H7xx_HAL_Driver/Src/stm32h7xx_hal_uart_ex.c ****   {
 174:Drivers/STM32H7xx_HAL_Driver/Src/stm32h7xx_hal_uart_ex.c ****     return HAL_ERROR;
 175:Drivers/STM32H7xx_HAL_Driver/Src/stm32h7xx_hal_uart_ex.c ****   }
 176:Drivers/STM32H7xx_HAL_Driver/Src/stm32h7xx_hal_uart_ex.c ****   /* Check the Driver Enable UART instance */
 177:Drivers/STM32H7xx_HAL_Driver/Src/stm32h7xx_hal_uart_ex.c ****   assert_param(IS_UART_DRIVER_ENABLE_INSTANCE(huart->Instance));
 178:Drivers/STM32H7xx_HAL_Driver/Src/stm32h7xx_hal_uart_ex.c **** 
 179:Drivers/STM32H7xx_HAL_Driver/Src/stm32h7xx_hal_uart_ex.c ****   /* Check the Driver Enable polarity */
 180:Drivers/STM32H7xx_HAL_Driver/Src/stm32h7xx_hal_uart_ex.c ****   assert_param(IS_UART_DE_POLARITY(Polarity));
 181:Drivers/STM32H7xx_HAL_Driver/Src/stm32h7xx_hal_uart_ex.c **** 
 182:Drivers/STM32H7xx_HAL_Driver/Src/stm32h7xx_hal_uart_ex.c ****   /* Check the Driver Enable assertion time */
 183:Drivers/STM32H7xx_HAL_Driver/Src/stm32h7xx_hal_uart_ex.c ****   assert_param(IS_UART_ASSERTIONTIME(AssertionTime));
 184:Drivers/STM32H7xx_HAL_Driver/Src/stm32h7xx_hal_uart_ex.c **** 
 185:Drivers/STM32H7xx_HAL_Driver/Src/stm32h7xx_hal_uart_ex.c ****   /* Check the Driver Enable deassertion time */
 186:Drivers/STM32H7xx_HAL_Driver/Src/stm32h7xx_hal_uart_ex.c ****   assert_param(IS_UART_DEASSERTIONTIME(DeassertionTime));
 187:Drivers/STM32H7xx_HAL_Driver/Src/stm32h7xx_hal_uart_ex.c **** 
 188:Drivers/STM32H7xx_HAL_Driver/Src/stm32h7xx_hal_uart_ex.c ****   if (huart->gState == HAL_UART_STATE_RESET)
 189:Drivers/STM32H7xx_HAL_Driver/Src/stm32h7xx_hal_uart_ex.c ****   {
 190:Drivers/STM32H7xx_HAL_Driver/Src/stm32h7xx_hal_uart_ex.c ****     /* Allocate lock resource and initialize it */
 191:Drivers/STM32H7xx_HAL_Driver/Src/stm32h7xx_hal_uart_ex.c ****     huart->Lock = HAL_UNLOCKED;
 192:Drivers/STM32H7xx_HAL_Driver/Src/stm32h7xx_hal_uart_ex.c **** 
 193:Drivers/STM32H7xx_HAL_Driver/Src/stm32h7xx_hal_uart_ex.c **** #if (USE_HAL_UART_REGISTER_CALLBACKS == 1)
 194:Drivers/STM32H7xx_HAL_Driver/Src/stm32h7xx_hal_uart_ex.c ****     UART_InitCallbacksToDefault(huart);
 195:Drivers/STM32H7xx_HAL_Driver/Src/stm32h7xx_hal_uart_ex.c **** 
 196:Drivers/STM32H7xx_HAL_Driver/Src/stm32h7xx_hal_uart_ex.c ****     if (huart->MspInitCallback == NULL)
 197:Drivers/STM32H7xx_HAL_Driver/Src/stm32h7xx_hal_uart_ex.c ****     {
 198:Drivers/STM32H7xx_HAL_Driver/Src/stm32h7xx_hal_uart_ex.c ****       huart->MspInitCallback = HAL_UART_MspInit;
 199:Drivers/STM32H7xx_HAL_Driver/Src/stm32h7xx_hal_uart_ex.c ****     }
 200:Drivers/STM32H7xx_HAL_Driver/Src/stm32h7xx_hal_uart_ex.c **** 
 201:Drivers/STM32H7xx_HAL_Driver/Src/stm32h7xx_hal_uart_ex.c ****     /* Init the low level hardware */
 202:Drivers/STM32H7xx_HAL_Driver/Src/stm32h7xx_hal_uart_ex.c ****     huart->MspInitCallback(huart);
ARM GAS  C:\Users\jisu8\AppData\Local\Temp\ccyzchVo.s 			page 5


 203:Drivers/STM32H7xx_HAL_Driver/Src/stm32h7xx_hal_uart_ex.c **** #else
 204:Drivers/STM32H7xx_HAL_Driver/Src/stm32h7xx_hal_uart_ex.c ****     /* Init the low level hardware : GPIO, CLOCK, CORTEX */
 205:Drivers/STM32H7xx_HAL_Driver/Src/stm32h7xx_hal_uart_ex.c ****     HAL_UART_MspInit(huart);
 206:Drivers/STM32H7xx_HAL_Driver/Src/stm32h7xx_hal_uart_ex.c **** #endif /* (USE_HAL_UART_REGISTER_CALLBACKS) */
 207:Drivers/STM32H7xx_HAL_Driver/Src/stm32h7xx_hal_uart_ex.c ****   }
 208:Drivers/STM32H7xx_HAL_Driver/Src/stm32h7xx_hal_uart_ex.c **** 
 209:Drivers/STM32H7xx_HAL_Driver/Src/stm32h7xx_hal_uart_ex.c ****   huart->gState = HAL_UART_STATE_BUSY;
 210:Drivers/STM32H7xx_HAL_Driver/Src/stm32h7xx_hal_uart_ex.c **** 
 211:Drivers/STM32H7xx_HAL_Driver/Src/stm32h7xx_hal_uart_ex.c ****   /* Disable the Peripheral */
 212:Drivers/STM32H7xx_HAL_Driver/Src/stm32h7xx_hal_uart_ex.c ****   __HAL_UART_DISABLE(huart);
 213:Drivers/STM32H7xx_HAL_Driver/Src/stm32h7xx_hal_uart_ex.c **** 
 214:Drivers/STM32H7xx_HAL_Driver/Src/stm32h7xx_hal_uart_ex.c ****   /* Set the UART Communication parameters */
 215:Drivers/STM32H7xx_HAL_Driver/Src/stm32h7xx_hal_uart_ex.c ****   if (UART_SetConfig(huart) == HAL_ERROR)
 216:Drivers/STM32H7xx_HAL_Driver/Src/stm32h7xx_hal_uart_ex.c ****   {
 217:Drivers/STM32H7xx_HAL_Driver/Src/stm32h7xx_hal_uart_ex.c ****     return HAL_ERROR;
 218:Drivers/STM32H7xx_HAL_Driver/Src/stm32h7xx_hal_uart_ex.c ****   }
 219:Drivers/STM32H7xx_HAL_Driver/Src/stm32h7xx_hal_uart_ex.c **** 
 220:Drivers/STM32H7xx_HAL_Driver/Src/stm32h7xx_hal_uart_ex.c ****   if (huart->AdvancedInit.AdvFeatureInit != UART_ADVFEATURE_NO_INIT)
 221:Drivers/STM32H7xx_HAL_Driver/Src/stm32h7xx_hal_uart_ex.c ****   {
 222:Drivers/STM32H7xx_HAL_Driver/Src/stm32h7xx_hal_uart_ex.c ****     UART_AdvFeatureConfig(huart);
 223:Drivers/STM32H7xx_HAL_Driver/Src/stm32h7xx_hal_uart_ex.c ****   }
 224:Drivers/STM32H7xx_HAL_Driver/Src/stm32h7xx_hal_uart_ex.c **** 
 225:Drivers/STM32H7xx_HAL_Driver/Src/stm32h7xx_hal_uart_ex.c ****   /* Enable the Driver Enable mode by setting the DEM bit in the CR3 register */
 226:Drivers/STM32H7xx_HAL_Driver/Src/stm32h7xx_hal_uart_ex.c ****   SET_BIT(huart->Instance->CR3, USART_CR3_DEM);
 227:Drivers/STM32H7xx_HAL_Driver/Src/stm32h7xx_hal_uart_ex.c **** 
 228:Drivers/STM32H7xx_HAL_Driver/Src/stm32h7xx_hal_uart_ex.c ****   /* Set the Driver Enable polarity */
 229:Drivers/STM32H7xx_HAL_Driver/Src/stm32h7xx_hal_uart_ex.c ****   MODIFY_REG(huart->Instance->CR3, USART_CR3_DEP, Polarity);
 230:Drivers/STM32H7xx_HAL_Driver/Src/stm32h7xx_hal_uart_ex.c **** 
 231:Drivers/STM32H7xx_HAL_Driver/Src/stm32h7xx_hal_uart_ex.c ****   /* Set the Driver Enable assertion and deassertion times */
 232:Drivers/STM32H7xx_HAL_Driver/Src/stm32h7xx_hal_uart_ex.c ****   temp = (AssertionTime << UART_CR1_DEAT_ADDRESS_LSB_POS);
 233:Drivers/STM32H7xx_HAL_Driver/Src/stm32h7xx_hal_uart_ex.c ****   temp |= (DeassertionTime << UART_CR1_DEDT_ADDRESS_LSB_POS);
 234:Drivers/STM32H7xx_HAL_Driver/Src/stm32h7xx_hal_uart_ex.c ****   MODIFY_REG(huart->Instance->CR1, (USART_CR1_DEDT | USART_CR1_DEAT), temp);
 235:Drivers/STM32H7xx_HAL_Driver/Src/stm32h7xx_hal_uart_ex.c **** 
 236:Drivers/STM32H7xx_HAL_Driver/Src/stm32h7xx_hal_uart_ex.c ****   /* Enable the Peripheral */
 237:Drivers/STM32H7xx_HAL_Driver/Src/stm32h7xx_hal_uart_ex.c ****   __HAL_UART_ENABLE(huart);
 238:Drivers/STM32H7xx_HAL_Driver/Src/stm32h7xx_hal_uart_ex.c **** 
 239:Drivers/STM32H7xx_HAL_Driver/Src/stm32h7xx_hal_uart_ex.c ****   /* TEACK and/or REACK to check before moving huart->gState and huart->RxState to Ready */
 240:Drivers/STM32H7xx_HAL_Driver/Src/stm32h7xx_hal_uart_ex.c ****   return (UART_CheckIdleState(huart));
 241:Drivers/STM32H7xx_HAL_Driver/Src/stm32h7xx_hal_uart_ex.c **** }
 242:Drivers/STM32H7xx_HAL_Driver/Src/stm32h7xx_hal_uart_ex.c **** 
 243:Drivers/STM32H7xx_HAL_Driver/Src/stm32h7xx_hal_uart_ex.c **** /**
 244:Drivers/STM32H7xx_HAL_Driver/Src/stm32h7xx_hal_uart_ex.c ****   * @}
 245:Drivers/STM32H7xx_HAL_Driver/Src/stm32h7xx_hal_uart_ex.c ****   */
 246:Drivers/STM32H7xx_HAL_Driver/Src/stm32h7xx_hal_uart_ex.c **** 
 247:Drivers/STM32H7xx_HAL_Driver/Src/stm32h7xx_hal_uart_ex.c **** /** @defgroup UARTEx_Exported_Functions_Group2 IO operation functions
 248:Drivers/STM32H7xx_HAL_Driver/Src/stm32h7xx_hal_uart_ex.c ****   *  @brief Extended functions
 249:Drivers/STM32H7xx_HAL_Driver/Src/stm32h7xx_hal_uart_ex.c ****   *
 250:Drivers/STM32H7xx_HAL_Driver/Src/stm32h7xx_hal_uart_ex.c **** @verbatim
 251:Drivers/STM32H7xx_HAL_Driver/Src/stm32h7xx_hal_uart_ex.c ****  ===============================================================================
 252:Drivers/STM32H7xx_HAL_Driver/Src/stm32h7xx_hal_uart_ex.c ****                       ##### IO operation functions #####
 253:Drivers/STM32H7xx_HAL_Driver/Src/stm32h7xx_hal_uart_ex.c ****  ===============================================================================
 254:Drivers/STM32H7xx_HAL_Driver/Src/stm32h7xx_hal_uart_ex.c ****     This subsection provides a set of Wakeup and FIFO mode related callback functions.
 255:Drivers/STM32H7xx_HAL_Driver/Src/stm32h7xx_hal_uart_ex.c **** 
 256:Drivers/STM32H7xx_HAL_Driver/Src/stm32h7xx_hal_uart_ex.c ****     (#) Wakeup from Stop mode Callback:
 257:Drivers/STM32H7xx_HAL_Driver/Src/stm32h7xx_hal_uart_ex.c ****         (+) HAL_UARTEx_WakeupCallback()
 258:Drivers/STM32H7xx_HAL_Driver/Src/stm32h7xx_hal_uart_ex.c **** 
 259:Drivers/STM32H7xx_HAL_Driver/Src/stm32h7xx_hal_uart_ex.c ****     (#) TX/RX Fifos Callbacks:
ARM GAS  C:\Users\jisu8\AppData\Local\Temp\ccyzchVo.s 			page 6


 260:Drivers/STM32H7xx_HAL_Driver/Src/stm32h7xx_hal_uart_ex.c ****         (+) HAL_UARTEx_RxFifoFullCallback()
 261:Drivers/STM32H7xx_HAL_Driver/Src/stm32h7xx_hal_uart_ex.c ****         (+) HAL_UARTEx_TxFifoEmptyCallback()
 262:Drivers/STM32H7xx_HAL_Driver/Src/stm32h7xx_hal_uart_ex.c **** 
 263:Drivers/STM32H7xx_HAL_Driver/Src/stm32h7xx_hal_uart_ex.c **** @endverbatim
 264:Drivers/STM32H7xx_HAL_Driver/Src/stm32h7xx_hal_uart_ex.c ****   * @{
 265:Drivers/STM32H7xx_HAL_Driver/Src/stm32h7xx_hal_uart_ex.c ****   */
 266:Drivers/STM32H7xx_HAL_Driver/Src/stm32h7xx_hal_uart_ex.c **** 
 267:Drivers/STM32H7xx_HAL_Driver/Src/stm32h7xx_hal_uart_ex.c **** /**
 268:Drivers/STM32H7xx_HAL_Driver/Src/stm32h7xx_hal_uart_ex.c ****   * @brief UART wakeup from Stop mode callback.
 269:Drivers/STM32H7xx_HAL_Driver/Src/stm32h7xx_hal_uart_ex.c ****   * @param huart UART handle.
 270:Drivers/STM32H7xx_HAL_Driver/Src/stm32h7xx_hal_uart_ex.c ****   * @retval None
 271:Drivers/STM32H7xx_HAL_Driver/Src/stm32h7xx_hal_uart_ex.c ****   */
 272:Drivers/STM32H7xx_HAL_Driver/Src/stm32h7xx_hal_uart_ex.c **** __weak void HAL_UARTEx_WakeupCallback(UART_HandleTypeDef *huart)
 273:Drivers/STM32H7xx_HAL_Driver/Src/stm32h7xx_hal_uart_ex.c **** {
 274:Drivers/STM32H7xx_HAL_Driver/Src/stm32h7xx_hal_uart_ex.c ****   /* Prevent unused argument(s) compilation warning */
 275:Drivers/STM32H7xx_HAL_Driver/Src/stm32h7xx_hal_uart_ex.c ****   UNUSED(huart);
 276:Drivers/STM32H7xx_HAL_Driver/Src/stm32h7xx_hal_uart_ex.c **** 
 277:Drivers/STM32H7xx_HAL_Driver/Src/stm32h7xx_hal_uart_ex.c ****   /* NOTE : This function should not be modified, when the callback is needed,
 278:Drivers/STM32H7xx_HAL_Driver/Src/stm32h7xx_hal_uart_ex.c ****             the HAL_UARTEx_WakeupCallback can be implemented in the user file.
 279:Drivers/STM32H7xx_HAL_Driver/Src/stm32h7xx_hal_uart_ex.c ****    */
 280:Drivers/STM32H7xx_HAL_Driver/Src/stm32h7xx_hal_uart_ex.c **** }
 281:Drivers/STM32H7xx_HAL_Driver/Src/stm32h7xx_hal_uart_ex.c **** 
 282:Drivers/STM32H7xx_HAL_Driver/Src/stm32h7xx_hal_uart_ex.c **** /**
 283:Drivers/STM32H7xx_HAL_Driver/Src/stm32h7xx_hal_uart_ex.c ****   * @brief  UART RX Fifo full callback.
 284:Drivers/STM32H7xx_HAL_Driver/Src/stm32h7xx_hal_uart_ex.c ****   * @param  huart UART handle.
 285:Drivers/STM32H7xx_HAL_Driver/Src/stm32h7xx_hal_uart_ex.c ****   * @retval None
 286:Drivers/STM32H7xx_HAL_Driver/Src/stm32h7xx_hal_uart_ex.c ****   */
 287:Drivers/STM32H7xx_HAL_Driver/Src/stm32h7xx_hal_uart_ex.c **** __weak void HAL_UARTEx_RxFifoFullCallback(UART_HandleTypeDef *huart)
 288:Drivers/STM32H7xx_HAL_Driver/Src/stm32h7xx_hal_uart_ex.c **** {
 289:Drivers/STM32H7xx_HAL_Driver/Src/stm32h7xx_hal_uart_ex.c ****   /* Prevent unused argument(s) compilation warning */
 290:Drivers/STM32H7xx_HAL_Driver/Src/stm32h7xx_hal_uart_ex.c ****   UNUSED(huart);
 291:Drivers/STM32H7xx_HAL_Driver/Src/stm32h7xx_hal_uart_ex.c **** 
 292:Drivers/STM32H7xx_HAL_Driver/Src/stm32h7xx_hal_uart_ex.c ****   /* NOTE : This function should not be modified, when the callback is needed,
 293:Drivers/STM32H7xx_HAL_Driver/Src/stm32h7xx_hal_uart_ex.c ****             the HAL_UARTEx_RxFifoFullCallback can be implemented in the user file.
 294:Drivers/STM32H7xx_HAL_Driver/Src/stm32h7xx_hal_uart_ex.c ****    */
 295:Drivers/STM32H7xx_HAL_Driver/Src/stm32h7xx_hal_uart_ex.c **** }
 296:Drivers/STM32H7xx_HAL_Driver/Src/stm32h7xx_hal_uart_ex.c **** 
 297:Drivers/STM32H7xx_HAL_Driver/Src/stm32h7xx_hal_uart_ex.c **** /**
 298:Drivers/STM32H7xx_HAL_Driver/Src/stm32h7xx_hal_uart_ex.c ****   * @brief  UART TX Fifo empty callback.
 299:Drivers/STM32H7xx_HAL_Driver/Src/stm32h7xx_hal_uart_ex.c ****   * @param  huart UART handle.
 300:Drivers/STM32H7xx_HAL_Driver/Src/stm32h7xx_hal_uart_ex.c ****   * @retval None
 301:Drivers/STM32H7xx_HAL_Driver/Src/stm32h7xx_hal_uart_ex.c ****   */
 302:Drivers/STM32H7xx_HAL_Driver/Src/stm32h7xx_hal_uart_ex.c **** __weak void HAL_UARTEx_TxFifoEmptyCallback(UART_HandleTypeDef *huart)
 303:Drivers/STM32H7xx_HAL_Driver/Src/stm32h7xx_hal_uart_ex.c **** {
 304:Drivers/STM32H7xx_HAL_Driver/Src/stm32h7xx_hal_uart_ex.c ****   /* Prevent unused argument(s) compilation warning */
 305:Drivers/STM32H7xx_HAL_Driver/Src/stm32h7xx_hal_uart_ex.c ****   UNUSED(huart);
 306:Drivers/STM32H7xx_HAL_Driver/Src/stm32h7xx_hal_uart_ex.c **** 
 307:Drivers/STM32H7xx_HAL_Driver/Src/stm32h7xx_hal_uart_ex.c ****   /* NOTE : This function should not be modified, when the callback is needed,
 308:Drivers/STM32H7xx_HAL_Driver/Src/stm32h7xx_hal_uart_ex.c ****             the HAL_UARTEx_TxFifoEmptyCallback can be implemented in the user file.
 309:Drivers/STM32H7xx_HAL_Driver/Src/stm32h7xx_hal_uart_ex.c ****    */
 310:Drivers/STM32H7xx_HAL_Driver/Src/stm32h7xx_hal_uart_ex.c **** }
 311:Drivers/STM32H7xx_HAL_Driver/Src/stm32h7xx_hal_uart_ex.c **** 
 312:Drivers/STM32H7xx_HAL_Driver/Src/stm32h7xx_hal_uart_ex.c **** /**
 313:Drivers/STM32H7xx_HAL_Driver/Src/stm32h7xx_hal_uart_ex.c ****   * @}
 314:Drivers/STM32H7xx_HAL_Driver/Src/stm32h7xx_hal_uart_ex.c ****   */
 315:Drivers/STM32H7xx_HAL_Driver/Src/stm32h7xx_hal_uart_ex.c **** 
 316:Drivers/STM32H7xx_HAL_Driver/Src/stm32h7xx_hal_uart_ex.c **** /** @defgroup UARTEx_Exported_Functions_Group3 Peripheral Control functions
ARM GAS  C:\Users\jisu8\AppData\Local\Temp\ccyzchVo.s 			page 7


 317:Drivers/STM32H7xx_HAL_Driver/Src/stm32h7xx_hal_uart_ex.c ****   * @brief    Extended Peripheral Control functions
 318:Drivers/STM32H7xx_HAL_Driver/Src/stm32h7xx_hal_uart_ex.c ****   *
 319:Drivers/STM32H7xx_HAL_Driver/Src/stm32h7xx_hal_uart_ex.c **** @verbatim
 320:Drivers/STM32H7xx_HAL_Driver/Src/stm32h7xx_hal_uart_ex.c ****  ===============================================================================
 321:Drivers/STM32H7xx_HAL_Driver/Src/stm32h7xx_hal_uart_ex.c ****                       ##### Peripheral Control functions #####
 322:Drivers/STM32H7xx_HAL_Driver/Src/stm32h7xx_hal_uart_ex.c ****  ===============================================================================
 323:Drivers/STM32H7xx_HAL_Driver/Src/stm32h7xx_hal_uart_ex.c ****     [..] This section provides the following functions:
 324:Drivers/STM32H7xx_HAL_Driver/Src/stm32h7xx_hal_uart_ex.c ****      (+) HAL_MultiProcessorEx_AddressLength_Set() API optionally sets the UART node address
 325:Drivers/STM32H7xx_HAL_Driver/Src/stm32h7xx_hal_uart_ex.c ****          detection length to more than 4 bits for multiprocessor address mark wake up.
 326:Drivers/STM32H7xx_HAL_Driver/Src/stm32h7xx_hal_uart_ex.c ****      (+) HAL_UARTEx_StopModeWakeUpSourceConfig() API defines the wake-up from stop mode
 327:Drivers/STM32H7xx_HAL_Driver/Src/stm32h7xx_hal_uart_ex.c ****          trigger: address match, Start Bit detection or RXNE bit status.
 328:Drivers/STM32H7xx_HAL_Driver/Src/stm32h7xx_hal_uart_ex.c ****      (+) HAL_UARTEx_EnableStopMode() API enables the UART to wake up the MCU from stop mode
 329:Drivers/STM32H7xx_HAL_Driver/Src/stm32h7xx_hal_uart_ex.c ****      (+) HAL_UARTEx_DisableStopMode() API disables the above functionality
 330:Drivers/STM32H7xx_HAL_Driver/Src/stm32h7xx_hal_uart_ex.c ****      (+) HAL_UARTEx_EnableFifoMode() API enables the FIFO mode
 331:Drivers/STM32H7xx_HAL_Driver/Src/stm32h7xx_hal_uart_ex.c ****      (+) HAL_UARTEx_DisableFifoMode() API disables the FIFO mode
 332:Drivers/STM32H7xx_HAL_Driver/Src/stm32h7xx_hal_uart_ex.c ****      (+) HAL_UARTEx_SetTxFifoThreshold() API sets the TX FIFO threshold
 333:Drivers/STM32H7xx_HAL_Driver/Src/stm32h7xx_hal_uart_ex.c ****      (+) HAL_UARTEx_SetRxFifoThreshold() API sets the RX FIFO threshold
 334:Drivers/STM32H7xx_HAL_Driver/Src/stm32h7xx_hal_uart_ex.c **** 
 335:Drivers/STM32H7xx_HAL_Driver/Src/stm32h7xx_hal_uart_ex.c ****     [..] This subsection also provides a set of additional functions providing enhanced reception
 336:Drivers/STM32H7xx_HAL_Driver/Src/stm32h7xx_hal_uart_ex.c ****     services to user. (For example, these functions allow application to handle use cases
 337:Drivers/STM32H7xx_HAL_Driver/Src/stm32h7xx_hal_uart_ex.c ****     where number of data to be received is unknown).
 338:Drivers/STM32H7xx_HAL_Driver/Src/stm32h7xx_hal_uart_ex.c **** 
 339:Drivers/STM32H7xx_HAL_Driver/Src/stm32h7xx_hal_uart_ex.c ****     (#) Compared to standard reception services which only consider number of received
 340:Drivers/STM32H7xx_HAL_Driver/Src/stm32h7xx_hal_uart_ex.c ****         data elements as reception completion criteria, these functions also consider additional ev
 341:Drivers/STM32H7xx_HAL_Driver/Src/stm32h7xx_hal_uart_ex.c ****         as triggers for updating reception status to caller :
 342:Drivers/STM32H7xx_HAL_Driver/Src/stm32h7xx_hal_uart_ex.c ****        (+) Detection of inactivity period (RX line has not been active for a given period).
 343:Drivers/STM32H7xx_HAL_Driver/Src/stm32h7xx_hal_uart_ex.c ****           (++) RX inactivity detected by IDLE event, i.e. RX line has been in idle state (normally 
 344:Drivers/STM32H7xx_HAL_Driver/Src/stm32h7xx_hal_uart_ex.c ****                for 1 frame time, after last received byte.
 345:Drivers/STM32H7xx_HAL_Driver/Src/stm32h7xx_hal_uart_ex.c ****           (++) RX inactivity detected by RTO, i.e. line has been in idle state
 346:Drivers/STM32H7xx_HAL_Driver/Src/stm32h7xx_hal_uart_ex.c ****                for a programmable time, after last received byte.
 347:Drivers/STM32H7xx_HAL_Driver/Src/stm32h7xx_hal_uart_ex.c ****        (+) Detection that a specific character has been received.
 348:Drivers/STM32H7xx_HAL_Driver/Src/stm32h7xx_hal_uart_ex.c **** 
 349:Drivers/STM32H7xx_HAL_Driver/Src/stm32h7xx_hal_uart_ex.c ****     (#) There are two mode of transfer:
 350:Drivers/STM32H7xx_HAL_Driver/Src/stm32h7xx_hal_uart_ex.c ****        (+) Blocking mode: The reception is performed in polling mode, until either expected number 
 351:Drivers/STM32H7xx_HAL_Driver/Src/stm32h7xx_hal_uart_ex.c ****            or till IDLE event occurs. Reception is handled only during function execution.
 352:Drivers/STM32H7xx_HAL_Driver/Src/stm32h7xx_hal_uart_ex.c ****            When function exits, no data reception could occur. HAL status and number of actually re
 353:Drivers/STM32H7xx_HAL_Driver/Src/stm32h7xx_hal_uart_ex.c ****            are returned by function after finishing transfer.
 354:Drivers/STM32H7xx_HAL_Driver/Src/stm32h7xx_hal_uart_ex.c ****        (+) Non-Blocking mode: The reception is performed using Interrupts or DMA.
 355:Drivers/STM32H7xx_HAL_Driver/Src/stm32h7xx_hal_uart_ex.c ****            These API's return the HAL status.
 356:Drivers/STM32H7xx_HAL_Driver/Src/stm32h7xx_hal_uart_ex.c ****            The end of the data processing will be indicated through the
 357:Drivers/STM32H7xx_HAL_Driver/Src/stm32h7xx_hal_uart_ex.c ****            dedicated UART IRQ when using Interrupt mode or the DMA IRQ when using DMA mode.
 358:Drivers/STM32H7xx_HAL_Driver/Src/stm32h7xx_hal_uart_ex.c ****            The HAL_UARTEx_RxEventCallback() user callback will be executed during Receive process
 359:Drivers/STM32H7xx_HAL_Driver/Src/stm32h7xx_hal_uart_ex.c ****            The HAL_UART_ErrorCallback()user callback will be executed when a reception error is det
 360:Drivers/STM32H7xx_HAL_Driver/Src/stm32h7xx_hal_uart_ex.c **** 
 361:Drivers/STM32H7xx_HAL_Driver/Src/stm32h7xx_hal_uart_ex.c ****     (#) Blocking mode API:
 362:Drivers/STM32H7xx_HAL_Driver/Src/stm32h7xx_hal_uart_ex.c ****         (+) HAL_UARTEx_ReceiveToIdle()
 363:Drivers/STM32H7xx_HAL_Driver/Src/stm32h7xx_hal_uart_ex.c **** 
 364:Drivers/STM32H7xx_HAL_Driver/Src/stm32h7xx_hal_uart_ex.c ****     (#) Non-Blocking mode API with Interrupt:
 365:Drivers/STM32H7xx_HAL_Driver/Src/stm32h7xx_hal_uart_ex.c ****         (+) HAL_UARTEx_ReceiveToIdle_IT()
 366:Drivers/STM32H7xx_HAL_Driver/Src/stm32h7xx_hal_uart_ex.c **** 
 367:Drivers/STM32H7xx_HAL_Driver/Src/stm32h7xx_hal_uart_ex.c ****     (#) Non-Blocking mode API with DMA:
 368:Drivers/STM32H7xx_HAL_Driver/Src/stm32h7xx_hal_uart_ex.c ****         (+) HAL_UARTEx_ReceiveToIdle_DMA()
 369:Drivers/STM32H7xx_HAL_Driver/Src/stm32h7xx_hal_uart_ex.c **** 
 370:Drivers/STM32H7xx_HAL_Driver/Src/stm32h7xx_hal_uart_ex.c **** @endverbatim
 371:Drivers/STM32H7xx_HAL_Driver/Src/stm32h7xx_hal_uart_ex.c ****   * @{
 372:Drivers/STM32H7xx_HAL_Driver/Src/stm32h7xx_hal_uart_ex.c ****   */
 373:Drivers/STM32H7xx_HAL_Driver/Src/stm32h7xx_hal_uart_ex.c **** 
ARM GAS  C:\Users\jisu8\AppData\Local\Temp\ccyzchVo.s 			page 8


 374:Drivers/STM32H7xx_HAL_Driver/Src/stm32h7xx_hal_uart_ex.c **** /**
 375:Drivers/STM32H7xx_HAL_Driver/Src/stm32h7xx_hal_uart_ex.c ****   * @brief By default in multiprocessor mode, when the wake up method is set
 376:Drivers/STM32H7xx_HAL_Driver/Src/stm32h7xx_hal_uart_ex.c ****   *        to address mark, the UART handles only 4-bit long addresses detection;
 377:Drivers/STM32H7xx_HAL_Driver/Src/stm32h7xx_hal_uart_ex.c ****   *        this API allows to enable longer addresses detection (6-, 7- or 8-bit
 378:Drivers/STM32H7xx_HAL_Driver/Src/stm32h7xx_hal_uart_ex.c ****   *        long).
 379:Drivers/STM32H7xx_HAL_Driver/Src/stm32h7xx_hal_uart_ex.c ****   * @note  Addresses detection lengths are: 6-bit address detection in 7-bit data mode,
 380:Drivers/STM32H7xx_HAL_Driver/Src/stm32h7xx_hal_uart_ex.c ****   *        7-bit address detection in 8-bit data mode, 8-bit address detection in 9-bit data mode.
 381:Drivers/STM32H7xx_HAL_Driver/Src/stm32h7xx_hal_uart_ex.c ****   * @param huart         UART handle.
 382:Drivers/STM32H7xx_HAL_Driver/Src/stm32h7xx_hal_uart_ex.c ****   * @param AddressLength This parameter can be one of the following values:
 383:Drivers/STM32H7xx_HAL_Driver/Src/stm32h7xx_hal_uart_ex.c ****   *          @arg @ref UART_ADDRESS_DETECT_4B 4-bit long address
 384:Drivers/STM32H7xx_HAL_Driver/Src/stm32h7xx_hal_uart_ex.c ****   *          @arg @ref UART_ADDRESS_DETECT_7B 6-, 7- or 8-bit long address
 385:Drivers/STM32H7xx_HAL_Driver/Src/stm32h7xx_hal_uart_ex.c ****   * @retval HAL status
 386:Drivers/STM32H7xx_HAL_Driver/Src/stm32h7xx_hal_uart_ex.c ****   */
 387:Drivers/STM32H7xx_HAL_Driver/Src/stm32h7xx_hal_uart_ex.c **** HAL_StatusTypeDef HAL_MultiProcessorEx_AddressLength_Set(UART_HandleTypeDef *huart, uint32_t Addres
 388:Drivers/STM32H7xx_HAL_Driver/Src/stm32h7xx_hal_uart_ex.c **** {
 389:Drivers/STM32H7xx_HAL_Driver/Src/stm32h7xx_hal_uart_ex.c ****   /* Check the UART handle allocation */
 390:Drivers/STM32H7xx_HAL_Driver/Src/stm32h7xx_hal_uart_ex.c ****   if (huart == NULL)
 391:Drivers/STM32H7xx_HAL_Driver/Src/stm32h7xx_hal_uart_ex.c ****   {
 392:Drivers/STM32H7xx_HAL_Driver/Src/stm32h7xx_hal_uart_ex.c ****     return HAL_ERROR;
 393:Drivers/STM32H7xx_HAL_Driver/Src/stm32h7xx_hal_uart_ex.c ****   }
 394:Drivers/STM32H7xx_HAL_Driver/Src/stm32h7xx_hal_uart_ex.c **** 
 395:Drivers/STM32H7xx_HAL_Driver/Src/stm32h7xx_hal_uart_ex.c ****   /* Check the address length parameter */
 396:Drivers/STM32H7xx_HAL_Driver/Src/stm32h7xx_hal_uart_ex.c ****   assert_param(IS_UART_ADDRESSLENGTH_DETECT(AddressLength));
 397:Drivers/STM32H7xx_HAL_Driver/Src/stm32h7xx_hal_uart_ex.c **** 
 398:Drivers/STM32H7xx_HAL_Driver/Src/stm32h7xx_hal_uart_ex.c ****   huart->gState = HAL_UART_STATE_BUSY;
 399:Drivers/STM32H7xx_HAL_Driver/Src/stm32h7xx_hal_uart_ex.c **** 
 400:Drivers/STM32H7xx_HAL_Driver/Src/stm32h7xx_hal_uart_ex.c ****   /* Disable the Peripheral */
 401:Drivers/STM32H7xx_HAL_Driver/Src/stm32h7xx_hal_uart_ex.c ****   __HAL_UART_DISABLE(huart);
 402:Drivers/STM32H7xx_HAL_Driver/Src/stm32h7xx_hal_uart_ex.c **** 
 403:Drivers/STM32H7xx_HAL_Driver/Src/stm32h7xx_hal_uart_ex.c ****   /* Set the address length */
 404:Drivers/STM32H7xx_HAL_Driver/Src/stm32h7xx_hal_uart_ex.c ****   MODIFY_REG(huart->Instance->CR2, USART_CR2_ADDM7, AddressLength);
 405:Drivers/STM32H7xx_HAL_Driver/Src/stm32h7xx_hal_uart_ex.c **** 
 406:Drivers/STM32H7xx_HAL_Driver/Src/stm32h7xx_hal_uart_ex.c ****   /* Enable the Peripheral */
 407:Drivers/STM32H7xx_HAL_Driver/Src/stm32h7xx_hal_uart_ex.c ****   __HAL_UART_ENABLE(huart);
 408:Drivers/STM32H7xx_HAL_Driver/Src/stm32h7xx_hal_uart_ex.c **** 
 409:Drivers/STM32H7xx_HAL_Driver/Src/stm32h7xx_hal_uart_ex.c ****   /* TEACK and/or REACK to check before moving huart->gState to Ready */
 410:Drivers/STM32H7xx_HAL_Driver/Src/stm32h7xx_hal_uart_ex.c ****   return (UART_CheckIdleState(huart));
 411:Drivers/STM32H7xx_HAL_Driver/Src/stm32h7xx_hal_uart_ex.c **** }
 412:Drivers/STM32H7xx_HAL_Driver/Src/stm32h7xx_hal_uart_ex.c **** 
 413:Drivers/STM32H7xx_HAL_Driver/Src/stm32h7xx_hal_uart_ex.c **** /**
 414:Drivers/STM32H7xx_HAL_Driver/Src/stm32h7xx_hal_uart_ex.c ****   * @brief Set Wakeup from Stop mode interrupt flag selection.
 415:Drivers/STM32H7xx_HAL_Driver/Src/stm32h7xx_hal_uart_ex.c ****   * @note It is the application responsibility to enable the interrupt used as
 416:Drivers/STM32H7xx_HAL_Driver/Src/stm32h7xx_hal_uart_ex.c ****   *       usart_wkup interrupt source before entering low-power mode.
 417:Drivers/STM32H7xx_HAL_Driver/Src/stm32h7xx_hal_uart_ex.c ****   * @param huart           UART handle.
 418:Drivers/STM32H7xx_HAL_Driver/Src/stm32h7xx_hal_uart_ex.c ****   * @param WakeUpSelection Address match, Start Bit detection or RXNE/RXFNE bit status.
 419:Drivers/STM32H7xx_HAL_Driver/Src/stm32h7xx_hal_uart_ex.c ****   *          This parameter can be one of the following values:
 420:Drivers/STM32H7xx_HAL_Driver/Src/stm32h7xx_hal_uart_ex.c ****   *          @arg @ref UART_WAKEUP_ON_ADDRESS
 421:Drivers/STM32H7xx_HAL_Driver/Src/stm32h7xx_hal_uart_ex.c ****   *          @arg @ref UART_WAKEUP_ON_STARTBIT
 422:Drivers/STM32H7xx_HAL_Driver/Src/stm32h7xx_hal_uart_ex.c ****   *          @arg @ref UART_WAKEUP_ON_READDATA_NONEMPTY
 423:Drivers/STM32H7xx_HAL_Driver/Src/stm32h7xx_hal_uart_ex.c ****   * @retval HAL status
 424:Drivers/STM32H7xx_HAL_Driver/Src/stm32h7xx_hal_uart_ex.c ****   */
 425:Drivers/STM32H7xx_HAL_Driver/Src/stm32h7xx_hal_uart_ex.c **** HAL_StatusTypeDef HAL_UARTEx_StopModeWakeUpSourceConfig(UART_HandleTypeDef *huart, UART_WakeUpTypeD
 426:Drivers/STM32H7xx_HAL_Driver/Src/stm32h7xx_hal_uart_ex.c **** {
 427:Drivers/STM32H7xx_HAL_Driver/Src/stm32h7xx_hal_uart_ex.c ****   HAL_StatusTypeDef status = HAL_OK;
 428:Drivers/STM32H7xx_HAL_Driver/Src/stm32h7xx_hal_uart_ex.c ****   uint32_t tickstart;
 429:Drivers/STM32H7xx_HAL_Driver/Src/stm32h7xx_hal_uart_ex.c **** 
 430:Drivers/STM32H7xx_HAL_Driver/Src/stm32h7xx_hal_uart_ex.c ****   /* check the wake-up from stop mode UART instance */
ARM GAS  C:\Users\jisu8\AppData\Local\Temp\ccyzchVo.s 			page 9


 431:Drivers/STM32H7xx_HAL_Driver/Src/stm32h7xx_hal_uart_ex.c ****   assert_param(IS_UART_WAKEUP_FROMSTOP_INSTANCE(huart->Instance));
 432:Drivers/STM32H7xx_HAL_Driver/Src/stm32h7xx_hal_uart_ex.c ****   /* check the wake-up selection parameter */
 433:Drivers/STM32H7xx_HAL_Driver/Src/stm32h7xx_hal_uart_ex.c ****   assert_param(IS_UART_WAKEUP_SELECTION(WakeUpSelection.WakeUpEvent));
 434:Drivers/STM32H7xx_HAL_Driver/Src/stm32h7xx_hal_uart_ex.c **** 
 435:Drivers/STM32H7xx_HAL_Driver/Src/stm32h7xx_hal_uart_ex.c ****   /* Process Locked */
 436:Drivers/STM32H7xx_HAL_Driver/Src/stm32h7xx_hal_uart_ex.c ****   __HAL_LOCK(huart);
 437:Drivers/STM32H7xx_HAL_Driver/Src/stm32h7xx_hal_uart_ex.c **** 
 438:Drivers/STM32H7xx_HAL_Driver/Src/stm32h7xx_hal_uart_ex.c ****   huart->gState = HAL_UART_STATE_BUSY;
 439:Drivers/STM32H7xx_HAL_Driver/Src/stm32h7xx_hal_uart_ex.c **** 
 440:Drivers/STM32H7xx_HAL_Driver/Src/stm32h7xx_hal_uart_ex.c ****   /* Disable the Peripheral */
 441:Drivers/STM32H7xx_HAL_Driver/Src/stm32h7xx_hal_uart_ex.c ****   __HAL_UART_DISABLE(huart);
 442:Drivers/STM32H7xx_HAL_Driver/Src/stm32h7xx_hal_uart_ex.c **** 
 443:Drivers/STM32H7xx_HAL_Driver/Src/stm32h7xx_hal_uart_ex.c ****   /* Set the wake-up selection scheme */
 444:Drivers/STM32H7xx_HAL_Driver/Src/stm32h7xx_hal_uart_ex.c ****   MODIFY_REG(huart->Instance->CR3, USART_CR3_WUS, WakeUpSelection.WakeUpEvent);
 445:Drivers/STM32H7xx_HAL_Driver/Src/stm32h7xx_hal_uart_ex.c **** 
 446:Drivers/STM32H7xx_HAL_Driver/Src/stm32h7xx_hal_uart_ex.c ****   if (WakeUpSelection.WakeUpEvent == UART_WAKEUP_ON_ADDRESS)
 447:Drivers/STM32H7xx_HAL_Driver/Src/stm32h7xx_hal_uart_ex.c ****   {
 448:Drivers/STM32H7xx_HAL_Driver/Src/stm32h7xx_hal_uart_ex.c ****     UARTEx_Wakeup_AddressConfig(huart, WakeUpSelection);
 449:Drivers/STM32H7xx_HAL_Driver/Src/stm32h7xx_hal_uart_ex.c ****   }
 450:Drivers/STM32H7xx_HAL_Driver/Src/stm32h7xx_hal_uart_ex.c **** 
 451:Drivers/STM32H7xx_HAL_Driver/Src/stm32h7xx_hal_uart_ex.c ****   /* Enable the Peripheral */
 452:Drivers/STM32H7xx_HAL_Driver/Src/stm32h7xx_hal_uart_ex.c ****   __HAL_UART_ENABLE(huart);
 453:Drivers/STM32H7xx_HAL_Driver/Src/stm32h7xx_hal_uart_ex.c **** 
 454:Drivers/STM32H7xx_HAL_Driver/Src/stm32h7xx_hal_uart_ex.c ****   /* Init tickstart for timeout management */
 455:Drivers/STM32H7xx_HAL_Driver/Src/stm32h7xx_hal_uart_ex.c ****   tickstart = HAL_GetTick();
 456:Drivers/STM32H7xx_HAL_Driver/Src/stm32h7xx_hal_uart_ex.c **** 
 457:Drivers/STM32H7xx_HAL_Driver/Src/stm32h7xx_hal_uart_ex.c ****   /* Wait until REACK flag is set */
 458:Drivers/STM32H7xx_HAL_Driver/Src/stm32h7xx_hal_uart_ex.c ****   if (UART_WaitOnFlagUntilTimeout(huart, USART_ISR_REACK, RESET, tickstart, HAL_UART_TIMEOUT_VALUE)
 459:Drivers/STM32H7xx_HAL_Driver/Src/stm32h7xx_hal_uart_ex.c ****   {
 460:Drivers/STM32H7xx_HAL_Driver/Src/stm32h7xx_hal_uart_ex.c ****     status = HAL_TIMEOUT;
 461:Drivers/STM32H7xx_HAL_Driver/Src/stm32h7xx_hal_uart_ex.c ****   }
 462:Drivers/STM32H7xx_HAL_Driver/Src/stm32h7xx_hal_uart_ex.c ****   else
 463:Drivers/STM32H7xx_HAL_Driver/Src/stm32h7xx_hal_uart_ex.c ****   {
 464:Drivers/STM32H7xx_HAL_Driver/Src/stm32h7xx_hal_uart_ex.c ****     /* Initialize the UART State */
 465:Drivers/STM32H7xx_HAL_Driver/Src/stm32h7xx_hal_uart_ex.c ****     huart->gState = HAL_UART_STATE_READY;
 466:Drivers/STM32H7xx_HAL_Driver/Src/stm32h7xx_hal_uart_ex.c ****   }
 467:Drivers/STM32H7xx_HAL_Driver/Src/stm32h7xx_hal_uart_ex.c **** 
 468:Drivers/STM32H7xx_HAL_Driver/Src/stm32h7xx_hal_uart_ex.c ****   /* Process Unlocked */
 469:Drivers/STM32H7xx_HAL_Driver/Src/stm32h7xx_hal_uart_ex.c ****   __HAL_UNLOCK(huart);
 470:Drivers/STM32H7xx_HAL_Driver/Src/stm32h7xx_hal_uart_ex.c **** 
 471:Drivers/STM32H7xx_HAL_Driver/Src/stm32h7xx_hal_uart_ex.c ****   return status;
 472:Drivers/STM32H7xx_HAL_Driver/Src/stm32h7xx_hal_uart_ex.c **** }
 473:Drivers/STM32H7xx_HAL_Driver/Src/stm32h7xx_hal_uart_ex.c **** 
 474:Drivers/STM32H7xx_HAL_Driver/Src/stm32h7xx_hal_uart_ex.c **** /**
 475:Drivers/STM32H7xx_HAL_Driver/Src/stm32h7xx_hal_uart_ex.c ****   * @brief Enable UART Stop Mode.
 476:Drivers/STM32H7xx_HAL_Driver/Src/stm32h7xx_hal_uart_ex.c ****   * @note The UART is able to wake up the MCU from Stop 1 mode as long as UART clock is HSI or LSE.
 477:Drivers/STM32H7xx_HAL_Driver/Src/stm32h7xx_hal_uart_ex.c ****   * @param huart UART handle.
 478:Drivers/STM32H7xx_HAL_Driver/Src/stm32h7xx_hal_uart_ex.c ****   * @retval HAL status
 479:Drivers/STM32H7xx_HAL_Driver/Src/stm32h7xx_hal_uart_ex.c ****   */
 480:Drivers/STM32H7xx_HAL_Driver/Src/stm32h7xx_hal_uart_ex.c **** HAL_StatusTypeDef HAL_UARTEx_EnableStopMode(UART_HandleTypeDef *huart)
 481:Drivers/STM32H7xx_HAL_Driver/Src/stm32h7xx_hal_uart_ex.c **** {
 482:Drivers/STM32H7xx_HAL_Driver/Src/stm32h7xx_hal_uart_ex.c ****   /* Process Locked */
 483:Drivers/STM32H7xx_HAL_Driver/Src/stm32h7xx_hal_uart_ex.c ****   __HAL_LOCK(huart);
 484:Drivers/STM32H7xx_HAL_Driver/Src/stm32h7xx_hal_uart_ex.c **** 
 485:Drivers/STM32H7xx_HAL_Driver/Src/stm32h7xx_hal_uart_ex.c ****   /* Set UESM bit */
 486:Drivers/STM32H7xx_HAL_Driver/Src/stm32h7xx_hal_uart_ex.c ****   SET_BIT(huart->Instance->CR1, USART_CR1_UESM);
 487:Drivers/STM32H7xx_HAL_Driver/Src/stm32h7xx_hal_uart_ex.c **** 
ARM GAS  C:\Users\jisu8\AppData\Local\Temp\ccyzchVo.s 			page 10


 488:Drivers/STM32H7xx_HAL_Driver/Src/stm32h7xx_hal_uart_ex.c ****   /* Process Unlocked */
 489:Drivers/STM32H7xx_HAL_Driver/Src/stm32h7xx_hal_uart_ex.c ****   __HAL_UNLOCK(huart);
 490:Drivers/STM32H7xx_HAL_Driver/Src/stm32h7xx_hal_uart_ex.c **** 
 491:Drivers/STM32H7xx_HAL_Driver/Src/stm32h7xx_hal_uart_ex.c ****   return HAL_OK;
 492:Drivers/STM32H7xx_HAL_Driver/Src/stm32h7xx_hal_uart_ex.c **** }
 493:Drivers/STM32H7xx_HAL_Driver/Src/stm32h7xx_hal_uart_ex.c **** 
 494:Drivers/STM32H7xx_HAL_Driver/Src/stm32h7xx_hal_uart_ex.c **** /**
 495:Drivers/STM32H7xx_HAL_Driver/Src/stm32h7xx_hal_uart_ex.c ****   * @brief Disable UART Stop Mode.
 496:Drivers/STM32H7xx_HAL_Driver/Src/stm32h7xx_hal_uart_ex.c ****   * @param huart UART handle.
 497:Drivers/STM32H7xx_HAL_Driver/Src/stm32h7xx_hal_uart_ex.c ****   * @retval HAL status
 498:Drivers/STM32H7xx_HAL_Driver/Src/stm32h7xx_hal_uart_ex.c ****   */
 499:Drivers/STM32H7xx_HAL_Driver/Src/stm32h7xx_hal_uart_ex.c **** HAL_StatusTypeDef HAL_UARTEx_DisableStopMode(UART_HandleTypeDef *huart)
 500:Drivers/STM32H7xx_HAL_Driver/Src/stm32h7xx_hal_uart_ex.c **** {
 501:Drivers/STM32H7xx_HAL_Driver/Src/stm32h7xx_hal_uart_ex.c ****   /* Process Locked */
 502:Drivers/STM32H7xx_HAL_Driver/Src/stm32h7xx_hal_uart_ex.c ****   __HAL_LOCK(huart);
 503:Drivers/STM32H7xx_HAL_Driver/Src/stm32h7xx_hal_uart_ex.c **** 
 504:Drivers/STM32H7xx_HAL_Driver/Src/stm32h7xx_hal_uart_ex.c ****   /* Clear UESM bit */
 505:Drivers/STM32H7xx_HAL_Driver/Src/stm32h7xx_hal_uart_ex.c ****   CLEAR_BIT(huart->Instance->CR1, USART_CR1_UESM);
 506:Drivers/STM32H7xx_HAL_Driver/Src/stm32h7xx_hal_uart_ex.c **** 
 507:Drivers/STM32H7xx_HAL_Driver/Src/stm32h7xx_hal_uart_ex.c ****   /* Process Unlocked */
 508:Drivers/STM32H7xx_HAL_Driver/Src/stm32h7xx_hal_uart_ex.c ****   __HAL_UNLOCK(huart);
 509:Drivers/STM32H7xx_HAL_Driver/Src/stm32h7xx_hal_uart_ex.c **** 
 510:Drivers/STM32H7xx_HAL_Driver/Src/stm32h7xx_hal_uart_ex.c ****   return HAL_OK;
 511:Drivers/STM32H7xx_HAL_Driver/Src/stm32h7xx_hal_uart_ex.c **** }
 512:Drivers/STM32H7xx_HAL_Driver/Src/stm32h7xx_hal_uart_ex.c **** 
 513:Drivers/STM32H7xx_HAL_Driver/Src/stm32h7xx_hal_uart_ex.c **** /**
 514:Drivers/STM32H7xx_HAL_Driver/Src/stm32h7xx_hal_uart_ex.c ****   * @brief  Enable the FIFO mode.
 515:Drivers/STM32H7xx_HAL_Driver/Src/stm32h7xx_hal_uart_ex.c ****   * @param huart      UART handle.
 516:Drivers/STM32H7xx_HAL_Driver/Src/stm32h7xx_hal_uart_ex.c ****   * @retval HAL status
 517:Drivers/STM32H7xx_HAL_Driver/Src/stm32h7xx_hal_uart_ex.c ****   */
 518:Drivers/STM32H7xx_HAL_Driver/Src/stm32h7xx_hal_uart_ex.c **** HAL_StatusTypeDef HAL_UARTEx_EnableFifoMode(UART_HandleTypeDef *huart)
 519:Drivers/STM32H7xx_HAL_Driver/Src/stm32h7xx_hal_uart_ex.c **** {
 520:Drivers/STM32H7xx_HAL_Driver/Src/stm32h7xx_hal_uart_ex.c ****   uint32_t tmpcr1;
 521:Drivers/STM32H7xx_HAL_Driver/Src/stm32h7xx_hal_uart_ex.c **** 
 522:Drivers/STM32H7xx_HAL_Driver/Src/stm32h7xx_hal_uart_ex.c ****   /* Check parameters */
 523:Drivers/STM32H7xx_HAL_Driver/Src/stm32h7xx_hal_uart_ex.c ****   assert_param(IS_UART_FIFO_INSTANCE(huart->Instance));
 524:Drivers/STM32H7xx_HAL_Driver/Src/stm32h7xx_hal_uart_ex.c **** 
 525:Drivers/STM32H7xx_HAL_Driver/Src/stm32h7xx_hal_uart_ex.c ****   /* Process Locked */
 526:Drivers/STM32H7xx_HAL_Driver/Src/stm32h7xx_hal_uart_ex.c ****   __HAL_LOCK(huart);
 527:Drivers/STM32H7xx_HAL_Driver/Src/stm32h7xx_hal_uart_ex.c **** 
 528:Drivers/STM32H7xx_HAL_Driver/Src/stm32h7xx_hal_uart_ex.c ****   huart->gState = HAL_UART_STATE_BUSY;
 529:Drivers/STM32H7xx_HAL_Driver/Src/stm32h7xx_hal_uart_ex.c **** 
 530:Drivers/STM32H7xx_HAL_Driver/Src/stm32h7xx_hal_uart_ex.c ****   /* Save actual UART configuration */
 531:Drivers/STM32H7xx_HAL_Driver/Src/stm32h7xx_hal_uart_ex.c ****   tmpcr1 = READ_REG(huart->Instance->CR1);
 532:Drivers/STM32H7xx_HAL_Driver/Src/stm32h7xx_hal_uart_ex.c **** 
 533:Drivers/STM32H7xx_HAL_Driver/Src/stm32h7xx_hal_uart_ex.c ****   /* Disable UART */
 534:Drivers/STM32H7xx_HAL_Driver/Src/stm32h7xx_hal_uart_ex.c ****   __HAL_UART_DISABLE(huart);
 535:Drivers/STM32H7xx_HAL_Driver/Src/stm32h7xx_hal_uart_ex.c **** 
 536:Drivers/STM32H7xx_HAL_Driver/Src/stm32h7xx_hal_uart_ex.c ****   /* Enable FIFO mode */
 537:Drivers/STM32H7xx_HAL_Driver/Src/stm32h7xx_hal_uart_ex.c ****   SET_BIT(tmpcr1, USART_CR1_FIFOEN);
 538:Drivers/STM32H7xx_HAL_Driver/Src/stm32h7xx_hal_uart_ex.c ****   huart->FifoMode = UART_FIFOMODE_ENABLE;
 539:Drivers/STM32H7xx_HAL_Driver/Src/stm32h7xx_hal_uart_ex.c **** 
 540:Drivers/STM32H7xx_HAL_Driver/Src/stm32h7xx_hal_uart_ex.c ****   /* Restore UART configuration */
 541:Drivers/STM32H7xx_HAL_Driver/Src/stm32h7xx_hal_uart_ex.c ****   WRITE_REG(huart->Instance->CR1, tmpcr1);
 542:Drivers/STM32H7xx_HAL_Driver/Src/stm32h7xx_hal_uart_ex.c **** 
 543:Drivers/STM32H7xx_HAL_Driver/Src/stm32h7xx_hal_uart_ex.c ****   /* Determine the number of data to process during RX/TX ISR execution */
 544:Drivers/STM32H7xx_HAL_Driver/Src/stm32h7xx_hal_uart_ex.c ****   UARTEx_SetNbDataToProcess(huart);
ARM GAS  C:\Users\jisu8\AppData\Local\Temp\ccyzchVo.s 			page 11


 545:Drivers/STM32H7xx_HAL_Driver/Src/stm32h7xx_hal_uart_ex.c **** 
 546:Drivers/STM32H7xx_HAL_Driver/Src/stm32h7xx_hal_uart_ex.c ****   huart->gState = HAL_UART_STATE_READY;
 547:Drivers/STM32H7xx_HAL_Driver/Src/stm32h7xx_hal_uart_ex.c **** 
 548:Drivers/STM32H7xx_HAL_Driver/Src/stm32h7xx_hal_uart_ex.c ****   /* Process Unlocked */
 549:Drivers/STM32H7xx_HAL_Driver/Src/stm32h7xx_hal_uart_ex.c ****   __HAL_UNLOCK(huart);
 550:Drivers/STM32H7xx_HAL_Driver/Src/stm32h7xx_hal_uart_ex.c **** 
 551:Drivers/STM32H7xx_HAL_Driver/Src/stm32h7xx_hal_uart_ex.c ****   return HAL_OK;
 552:Drivers/STM32H7xx_HAL_Driver/Src/stm32h7xx_hal_uart_ex.c **** }
 553:Drivers/STM32H7xx_HAL_Driver/Src/stm32h7xx_hal_uart_ex.c **** 
 554:Drivers/STM32H7xx_HAL_Driver/Src/stm32h7xx_hal_uart_ex.c **** /**
 555:Drivers/STM32H7xx_HAL_Driver/Src/stm32h7xx_hal_uart_ex.c ****   * @brief  Disable the FIFO mode.
 556:Drivers/STM32H7xx_HAL_Driver/Src/stm32h7xx_hal_uart_ex.c ****   * @param huart      UART handle.
 557:Drivers/STM32H7xx_HAL_Driver/Src/stm32h7xx_hal_uart_ex.c ****   * @retval HAL status
 558:Drivers/STM32H7xx_HAL_Driver/Src/stm32h7xx_hal_uart_ex.c ****   */
 559:Drivers/STM32H7xx_HAL_Driver/Src/stm32h7xx_hal_uart_ex.c **** HAL_StatusTypeDef HAL_UARTEx_DisableFifoMode(UART_HandleTypeDef *huart)
 560:Drivers/STM32H7xx_HAL_Driver/Src/stm32h7xx_hal_uart_ex.c **** {
 561:Drivers/STM32H7xx_HAL_Driver/Src/stm32h7xx_hal_uart_ex.c ****   uint32_t tmpcr1;
 562:Drivers/STM32H7xx_HAL_Driver/Src/stm32h7xx_hal_uart_ex.c **** 
 563:Drivers/STM32H7xx_HAL_Driver/Src/stm32h7xx_hal_uart_ex.c ****   /* Check parameters */
 564:Drivers/STM32H7xx_HAL_Driver/Src/stm32h7xx_hal_uart_ex.c ****   assert_param(IS_UART_FIFO_INSTANCE(huart->Instance));
 565:Drivers/STM32H7xx_HAL_Driver/Src/stm32h7xx_hal_uart_ex.c **** 
 566:Drivers/STM32H7xx_HAL_Driver/Src/stm32h7xx_hal_uart_ex.c ****   /* Process Locked */
 567:Drivers/STM32H7xx_HAL_Driver/Src/stm32h7xx_hal_uart_ex.c ****   __HAL_LOCK(huart);
 568:Drivers/STM32H7xx_HAL_Driver/Src/stm32h7xx_hal_uart_ex.c **** 
 569:Drivers/STM32H7xx_HAL_Driver/Src/stm32h7xx_hal_uart_ex.c ****   huart->gState = HAL_UART_STATE_BUSY;
 570:Drivers/STM32H7xx_HAL_Driver/Src/stm32h7xx_hal_uart_ex.c **** 
 571:Drivers/STM32H7xx_HAL_Driver/Src/stm32h7xx_hal_uart_ex.c ****   /* Save actual UART configuration */
 572:Drivers/STM32H7xx_HAL_Driver/Src/stm32h7xx_hal_uart_ex.c ****   tmpcr1 = READ_REG(huart->Instance->CR1);
 573:Drivers/STM32H7xx_HAL_Driver/Src/stm32h7xx_hal_uart_ex.c **** 
 574:Drivers/STM32H7xx_HAL_Driver/Src/stm32h7xx_hal_uart_ex.c ****   /* Disable UART */
 575:Drivers/STM32H7xx_HAL_Driver/Src/stm32h7xx_hal_uart_ex.c ****   __HAL_UART_DISABLE(huart);
 576:Drivers/STM32H7xx_HAL_Driver/Src/stm32h7xx_hal_uart_ex.c **** 
 577:Drivers/STM32H7xx_HAL_Driver/Src/stm32h7xx_hal_uart_ex.c ****   /* Enable FIFO mode */
 578:Drivers/STM32H7xx_HAL_Driver/Src/stm32h7xx_hal_uart_ex.c ****   CLEAR_BIT(tmpcr1, USART_CR1_FIFOEN);
 579:Drivers/STM32H7xx_HAL_Driver/Src/stm32h7xx_hal_uart_ex.c ****   huart->FifoMode = UART_FIFOMODE_DISABLE;
 580:Drivers/STM32H7xx_HAL_Driver/Src/stm32h7xx_hal_uart_ex.c **** 
 581:Drivers/STM32H7xx_HAL_Driver/Src/stm32h7xx_hal_uart_ex.c ****   /* Restore UART configuration */
 582:Drivers/STM32H7xx_HAL_Driver/Src/stm32h7xx_hal_uart_ex.c ****   WRITE_REG(huart->Instance->CR1, tmpcr1);
 583:Drivers/STM32H7xx_HAL_Driver/Src/stm32h7xx_hal_uart_ex.c **** 
 584:Drivers/STM32H7xx_HAL_Driver/Src/stm32h7xx_hal_uart_ex.c ****   huart->gState = HAL_UART_STATE_READY;
 585:Drivers/STM32H7xx_HAL_Driver/Src/stm32h7xx_hal_uart_ex.c **** 
 586:Drivers/STM32H7xx_HAL_Driver/Src/stm32h7xx_hal_uart_ex.c ****   /* Process Unlocked */
 587:Drivers/STM32H7xx_HAL_Driver/Src/stm32h7xx_hal_uart_ex.c ****   __HAL_UNLOCK(huart);
 588:Drivers/STM32H7xx_HAL_Driver/Src/stm32h7xx_hal_uart_ex.c **** 
 589:Drivers/STM32H7xx_HAL_Driver/Src/stm32h7xx_hal_uart_ex.c ****   return HAL_OK;
 590:Drivers/STM32H7xx_HAL_Driver/Src/stm32h7xx_hal_uart_ex.c **** }
 591:Drivers/STM32H7xx_HAL_Driver/Src/stm32h7xx_hal_uart_ex.c **** 
 592:Drivers/STM32H7xx_HAL_Driver/Src/stm32h7xx_hal_uart_ex.c **** /**
 593:Drivers/STM32H7xx_HAL_Driver/Src/stm32h7xx_hal_uart_ex.c ****   * @brief  Set the TXFIFO threshold.
 594:Drivers/STM32H7xx_HAL_Driver/Src/stm32h7xx_hal_uart_ex.c ****   * @param huart      UART handle.
 595:Drivers/STM32H7xx_HAL_Driver/Src/stm32h7xx_hal_uart_ex.c ****   * @param Threshold  TX FIFO threshold value
 596:Drivers/STM32H7xx_HAL_Driver/Src/stm32h7xx_hal_uart_ex.c ****   *          This parameter can be one of the following values:
 597:Drivers/STM32H7xx_HAL_Driver/Src/stm32h7xx_hal_uart_ex.c ****   *            @arg @ref UART_TXFIFO_THRESHOLD_1_8
 598:Drivers/STM32H7xx_HAL_Driver/Src/stm32h7xx_hal_uart_ex.c ****   *            @arg @ref UART_TXFIFO_THRESHOLD_1_4
 599:Drivers/STM32H7xx_HAL_Driver/Src/stm32h7xx_hal_uart_ex.c ****   *            @arg @ref UART_TXFIFO_THRESHOLD_1_2
 600:Drivers/STM32H7xx_HAL_Driver/Src/stm32h7xx_hal_uart_ex.c ****   *            @arg @ref UART_TXFIFO_THRESHOLD_3_4
 601:Drivers/STM32H7xx_HAL_Driver/Src/stm32h7xx_hal_uart_ex.c ****   *            @arg @ref UART_TXFIFO_THRESHOLD_7_8
ARM GAS  C:\Users\jisu8\AppData\Local\Temp\ccyzchVo.s 			page 12


 602:Drivers/STM32H7xx_HAL_Driver/Src/stm32h7xx_hal_uart_ex.c ****   *            @arg @ref UART_TXFIFO_THRESHOLD_8_8
 603:Drivers/STM32H7xx_HAL_Driver/Src/stm32h7xx_hal_uart_ex.c ****   * @retval HAL status
 604:Drivers/STM32H7xx_HAL_Driver/Src/stm32h7xx_hal_uart_ex.c ****   */
 605:Drivers/STM32H7xx_HAL_Driver/Src/stm32h7xx_hal_uart_ex.c **** HAL_StatusTypeDef HAL_UARTEx_SetTxFifoThreshold(UART_HandleTypeDef *huart, uint32_t Threshold)
 606:Drivers/STM32H7xx_HAL_Driver/Src/stm32h7xx_hal_uart_ex.c **** {
 607:Drivers/STM32H7xx_HAL_Driver/Src/stm32h7xx_hal_uart_ex.c ****   uint32_t tmpcr1;
 608:Drivers/STM32H7xx_HAL_Driver/Src/stm32h7xx_hal_uart_ex.c **** 
 609:Drivers/STM32H7xx_HAL_Driver/Src/stm32h7xx_hal_uart_ex.c ****   /* Check parameters */
 610:Drivers/STM32H7xx_HAL_Driver/Src/stm32h7xx_hal_uart_ex.c ****   assert_param(IS_UART_FIFO_INSTANCE(huart->Instance));
 611:Drivers/STM32H7xx_HAL_Driver/Src/stm32h7xx_hal_uart_ex.c ****   assert_param(IS_UART_TXFIFO_THRESHOLD(Threshold));
 612:Drivers/STM32H7xx_HAL_Driver/Src/stm32h7xx_hal_uart_ex.c **** 
 613:Drivers/STM32H7xx_HAL_Driver/Src/stm32h7xx_hal_uart_ex.c ****   /* Process Locked */
 614:Drivers/STM32H7xx_HAL_Driver/Src/stm32h7xx_hal_uart_ex.c ****   __HAL_LOCK(huart);
 615:Drivers/STM32H7xx_HAL_Driver/Src/stm32h7xx_hal_uart_ex.c **** 
 616:Drivers/STM32H7xx_HAL_Driver/Src/stm32h7xx_hal_uart_ex.c ****   huart->gState = HAL_UART_STATE_BUSY;
 617:Drivers/STM32H7xx_HAL_Driver/Src/stm32h7xx_hal_uart_ex.c **** 
 618:Drivers/STM32H7xx_HAL_Driver/Src/stm32h7xx_hal_uart_ex.c ****   /* Save actual UART configuration */
 619:Drivers/STM32H7xx_HAL_Driver/Src/stm32h7xx_hal_uart_ex.c ****   tmpcr1 = READ_REG(huart->Instance->CR1);
 620:Drivers/STM32H7xx_HAL_Driver/Src/stm32h7xx_hal_uart_ex.c **** 
 621:Drivers/STM32H7xx_HAL_Driver/Src/stm32h7xx_hal_uart_ex.c ****   /* Disable UART */
 622:Drivers/STM32H7xx_HAL_Driver/Src/stm32h7xx_hal_uart_ex.c ****   __HAL_UART_DISABLE(huart);
 623:Drivers/STM32H7xx_HAL_Driver/Src/stm32h7xx_hal_uart_ex.c **** 
 624:Drivers/STM32H7xx_HAL_Driver/Src/stm32h7xx_hal_uart_ex.c ****   /* Update TX threshold configuration */
 625:Drivers/STM32H7xx_HAL_Driver/Src/stm32h7xx_hal_uart_ex.c ****   MODIFY_REG(huart->Instance->CR3, USART_CR3_TXFTCFG, Threshold);
 626:Drivers/STM32H7xx_HAL_Driver/Src/stm32h7xx_hal_uart_ex.c **** 
 627:Drivers/STM32H7xx_HAL_Driver/Src/stm32h7xx_hal_uart_ex.c ****   /* Determine the number of data to process during RX/TX ISR execution */
 628:Drivers/STM32H7xx_HAL_Driver/Src/stm32h7xx_hal_uart_ex.c ****   UARTEx_SetNbDataToProcess(huart);
 629:Drivers/STM32H7xx_HAL_Driver/Src/stm32h7xx_hal_uart_ex.c **** 
 630:Drivers/STM32H7xx_HAL_Driver/Src/stm32h7xx_hal_uart_ex.c ****   /* Restore UART configuration */
 631:Drivers/STM32H7xx_HAL_Driver/Src/stm32h7xx_hal_uart_ex.c ****   WRITE_REG(huart->Instance->CR1, tmpcr1);
 632:Drivers/STM32H7xx_HAL_Driver/Src/stm32h7xx_hal_uart_ex.c **** 
 633:Drivers/STM32H7xx_HAL_Driver/Src/stm32h7xx_hal_uart_ex.c ****   huart->gState = HAL_UART_STATE_READY;
 634:Drivers/STM32H7xx_HAL_Driver/Src/stm32h7xx_hal_uart_ex.c **** 
 635:Drivers/STM32H7xx_HAL_Driver/Src/stm32h7xx_hal_uart_ex.c ****   /* Process Unlocked */
 636:Drivers/STM32H7xx_HAL_Driver/Src/stm32h7xx_hal_uart_ex.c ****   __HAL_UNLOCK(huart);
 637:Drivers/STM32H7xx_HAL_Driver/Src/stm32h7xx_hal_uart_ex.c **** 
 638:Drivers/STM32H7xx_HAL_Driver/Src/stm32h7xx_hal_uart_ex.c ****   return HAL_OK;
 639:Drivers/STM32H7xx_HAL_Driver/Src/stm32h7xx_hal_uart_ex.c **** }
 640:Drivers/STM32H7xx_HAL_Driver/Src/stm32h7xx_hal_uart_ex.c **** 
 641:Drivers/STM32H7xx_HAL_Driver/Src/stm32h7xx_hal_uart_ex.c **** /**
 642:Drivers/STM32H7xx_HAL_Driver/Src/stm32h7xx_hal_uart_ex.c ****   * @brief  Set the RXFIFO threshold.
 643:Drivers/STM32H7xx_HAL_Driver/Src/stm32h7xx_hal_uart_ex.c ****   * @param huart      UART handle.
 644:Drivers/STM32H7xx_HAL_Driver/Src/stm32h7xx_hal_uart_ex.c ****   * @param Threshold  RX FIFO threshold value
 645:Drivers/STM32H7xx_HAL_Driver/Src/stm32h7xx_hal_uart_ex.c ****   *          This parameter can be one of the following values:
 646:Drivers/STM32H7xx_HAL_Driver/Src/stm32h7xx_hal_uart_ex.c ****   *            @arg @ref UART_RXFIFO_THRESHOLD_1_8
 647:Drivers/STM32H7xx_HAL_Driver/Src/stm32h7xx_hal_uart_ex.c ****   *            @arg @ref UART_RXFIFO_THRESHOLD_1_4
 648:Drivers/STM32H7xx_HAL_Driver/Src/stm32h7xx_hal_uart_ex.c ****   *            @arg @ref UART_RXFIFO_THRESHOLD_1_2
 649:Drivers/STM32H7xx_HAL_Driver/Src/stm32h7xx_hal_uart_ex.c ****   *            @arg @ref UART_RXFIFO_THRESHOLD_3_4
 650:Drivers/STM32H7xx_HAL_Driver/Src/stm32h7xx_hal_uart_ex.c ****   *            @arg @ref UART_RXFIFO_THRESHOLD_7_8
 651:Drivers/STM32H7xx_HAL_Driver/Src/stm32h7xx_hal_uart_ex.c ****   *            @arg @ref UART_RXFIFO_THRESHOLD_8_8
 652:Drivers/STM32H7xx_HAL_Driver/Src/stm32h7xx_hal_uart_ex.c ****   * @retval HAL status
 653:Drivers/STM32H7xx_HAL_Driver/Src/stm32h7xx_hal_uart_ex.c ****   */
 654:Drivers/STM32H7xx_HAL_Driver/Src/stm32h7xx_hal_uart_ex.c **** HAL_StatusTypeDef HAL_UARTEx_SetRxFifoThreshold(UART_HandleTypeDef *huart, uint32_t Threshold)
 655:Drivers/STM32H7xx_HAL_Driver/Src/stm32h7xx_hal_uart_ex.c **** {
 656:Drivers/STM32H7xx_HAL_Driver/Src/stm32h7xx_hal_uart_ex.c ****   uint32_t tmpcr1;
 657:Drivers/STM32H7xx_HAL_Driver/Src/stm32h7xx_hal_uart_ex.c **** 
 658:Drivers/STM32H7xx_HAL_Driver/Src/stm32h7xx_hal_uart_ex.c ****   /* Check the parameters */
ARM GAS  C:\Users\jisu8\AppData\Local\Temp\ccyzchVo.s 			page 13


 659:Drivers/STM32H7xx_HAL_Driver/Src/stm32h7xx_hal_uart_ex.c ****   assert_param(IS_UART_FIFO_INSTANCE(huart->Instance));
 660:Drivers/STM32H7xx_HAL_Driver/Src/stm32h7xx_hal_uart_ex.c ****   assert_param(IS_UART_RXFIFO_THRESHOLD(Threshold));
 661:Drivers/STM32H7xx_HAL_Driver/Src/stm32h7xx_hal_uart_ex.c **** 
 662:Drivers/STM32H7xx_HAL_Driver/Src/stm32h7xx_hal_uart_ex.c ****   /* Process Locked */
 663:Drivers/STM32H7xx_HAL_Driver/Src/stm32h7xx_hal_uart_ex.c ****   __HAL_LOCK(huart);
 664:Drivers/STM32H7xx_HAL_Driver/Src/stm32h7xx_hal_uart_ex.c **** 
 665:Drivers/STM32H7xx_HAL_Driver/Src/stm32h7xx_hal_uart_ex.c ****   huart->gState = HAL_UART_STATE_BUSY;
 666:Drivers/STM32H7xx_HAL_Driver/Src/stm32h7xx_hal_uart_ex.c **** 
 667:Drivers/STM32H7xx_HAL_Driver/Src/stm32h7xx_hal_uart_ex.c ****   /* Save actual UART configuration */
 668:Drivers/STM32H7xx_HAL_Driver/Src/stm32h7xx_hal_uart_ex.c ****   tmpcr1 = READ_REG(huart->Instance->CR1);
 669:Drivers/STM32H7xx_HAL_Driver/Src/stm32h7xx_hal_uart_ex.c **** 
 670:Drivers/STM32H7xx_HAL_Driver/Src/stm32h7xx_hal_uart_ex.c ****   /* Disable UART */
 671:Drivers/STM32H7xx_HAL_Driver/Src/stm32h7xx_hal_uart_ex.c ****   __HAL_UART_DISABLE(huart);
 672:Drivers/STM32H7xx_HAL_Driver/Src/stm32h7xx_hal_uart_ex.c **** 
 673:Drivers/STM32H7xx_HAL_Driver/Src/stm32h7xx_hal_uart_ex.c ****   /* Update RX threshold configuration */
 674:Drivers/STM32H7xx_HAL_Driver/Src/stm32h7xx_hal_uart_ex.c ****   MODIFY_REG(huart->Instance->CR3, USART_CR3_RXFTCFG, Threshold);
 675:Drivers/STM32H7xx_HAL_Driver/Src/stm32h7xx_hal_uart_ex.c **** 
 676:Drivers/STM32H7xx_HAL_Driver/Src/stm32h7xx_hal_uart_ex.c ****   /* Determine the number of data to process during RX/TX ISR execution */
 677:Drivers/STM32H7xx_HAL_Driver/Src/stm32h7xx_hal_uart_ex.c ****   UARTEx_SetNbDataToProcess(huart);
 678:Drivers/STM32H7xx_HAL_Driver/Src/stm32h7xx_hal_uart_ex.c **** 
 679:Drivers/STM32H7xx_HAL_Driver/Src/stm32h7xx_hal_uart_ex.c ****   /* Restore UART configuration */
 680:Drivers/STM32H7xx_HAL_Driver/Src/stm32h7xx_hal_uart_ex.c ****   WRITE_REG(huart->Instance->CR1, tmpcr1);
 681:Drivers/STM32H7xx_HAL_Driver/Src/stm32h7xx_hal_uart_ex.c **** 
 682:Drivers/STM32H7xx_HAL_Driver/Src/stm32h7xx_hal_uart_ex.c ****   huart->gState = HAL_UART_STATE_READY;
 683:Drivers/STM32H7xx_HAL_Driver/Src/stm32h7xx_hal_uart_ex.c **** 
 684:Drivers/STM32H7xx_HAL_Driver/Src/stm32h7xx_hal_uart_ex.c ****   /* Process Unlocked */
 685:Drivers/STM32H7xx_HAL_Driver/Src/stm32h7xx_hal_uart_ex.c ****   __HAL_UNLOCK(huart);
 686:Drivers/STM32H7xx_HAL_Driver/Src/stm32h7xx_hal_uart_ex.c **** 
 687:Drivers/STM32H7xx_HAL_Driver/Src/stm32h7xx_hal_uart_ex.c ****   return HAL_OK;
 688:Drivers/STM32H7xx_HAL_Driver/Src/stm32h7xx_hal_uart_ex.c **** }
 689:Drivers/STM32H7xx_HAL_Driver/Src/stm32h7xx_hal_uart_ex.c **** 
 690:Drivers/STM32H7xx_HAL_Driver/Src/stm32h7xx_hal_uart_ex.c **** /**
 691:Drivers/STM32H7xx_HAL_Driver/Src/stm32h7xx_hal_uart_ex.c ****   * @brief Receive an amount of data in blocking mode till either the expected number of data
 692:Drivers/STM32H7xx_HAL_Driver/Src/stm32h7xx_hal_uart_ex.c ****   *        is received or an IDLE event occurs.
 693:Drivers/STM32H7xx_HAL_Driver/Src/stm32h7xx_hal_uart_ex.c ****   * @note  HAL_OK is returned if reception is completed (expected number of data has been received)
 694:Drivers/STM32H7xx_HAL_Driver/Src/stm32h7xx_hal_uart_ex.c ****   *        or if reception is stopped after IDLE event (less than the expected number of data has b
 695:Drivers/STM32H7xx_HAL_Driver/Src/stm32h7xx_hal_uart_ex.c ****   *        In this case, RxLen output parameter indicates number of data available in reception buf
 696:Drivers/STM32H7xx_HAL_Driver/Src/stm32h7xx_hal_uart_ex.c ****   * @note  When UART parity is not enabled (PCE = 0), and Word Length is configured to 9 bits (M1-M
 697:Drivers/STM32H7xx_HAL_Driver/Src/stm32h7xx_hal_uart_ex.c ****   *        the received data is handled as a set of uint16_t. In this case, Size must indicate the 
 698:Drivers/STM32H7xx_HAL_Driver/Src/stm32h7xx_hal_uart_ex.c ****   *        of uint16_t available through pData.
 699:Drivers/STM32H7xx_HAL_Driver/Src/stm32h7xx_hal_uart_ex.c ****   * @note When FIFO mode is enabled, the RXFNE flag is set as long as the RXFIFO
 700:Drivers/STM32H7xx_HAL_Driver/Src/stm32h7xx_hal_uart_ex.c ****   *       is not empty. Read operations from the RDR register are performed when
 701:Drivers/STM32H7xx_HAL_Driver/Src/stm32h7xx_hal_uart_ex.c ****   *       RXFNE flag is set. From hardware perspective, RXFNE flag and
 702:Drivers/STM32H7xx_HAL_Driver/Src/stm32h7xx_hal_uart_ex.c ****   *       RXNE are mapped on the same bit-field.
 703:Drivers/STM32H7xx_HAL_Driver/Src/stm32h7xx_hal_uart_ex.c ****   * @param huart   UART handle.
 704:Drivers/STM32H7xx_HAL_Driver/Src/stm32h7xx_hal_uart_ex.c ****   * @param pData   Pointer to data buffer (uint8_t or uint16_t data elements).
 705:Drivers/STM32H7xx_HAL_Driver/Src/stm32h7xx_hal_uart_ex.c ****   * @param Size    Amount of data elements (uint8_t or uint16_t) to be received.
 706:Drivers/STM32H7xx_HAL_Driver/Src/stm32h7xx_hal_uart_ex.c ****   * @param RxLen   Number of data elements finally received
 707:Drivers/STM32H7xx_HAL_Driver/Src/stm32h7xx_hal_uart_ex.c ****   *                (could be lower than Size, in case reception ends on IDLE event)
 708:Drivers/STM32H7xx_HAL_Driver/Src/stm32h7xx_hal_uart_ex.c ****   * @param Timeout Timeout duration expressed in ms (covers the whole reception sequence).
 709:Drivers/STM32H7xx_HAL_Driver/Src/stm32h7xx_hal_uart_ex.c ****   * @retval HAL status
 710:Drivers/STM32H7xx_HAL_Driver/Src/stm32h7xx_hal_uart_ex.c ****   */
 711:Drivers/STM32H7xx_HAL_Driver/Src/stm32h7xx_hal_uart_ex.c **** HAL_StatusTypeDef HAL_UARTEx_ReceiveToIdle(UART_HandleTypeDef *huart, uint8_t *pData, uint16_t Size
 712:Drivers/STM32H7xx_HAL_Driver/Src/stm32h7xx_hal_uart_ex.c ****                                            uint32_t Timeout)
 713:Drivers/STM32H7xx_HAL_Driver/Src/stm32h7xx_hal_uart_ex.c **** {
 714:Drivers/STM32H7xx_HAL_Driver/Src/stm32h7xx_hal_uart_ex.c ****   uint8_t  *pdata8bits;
 715:Drivers/STM32H7xx_HAL_Driver/Src/stm32h7xx_hal_uart_ex.c ****   uint16_t *pdata16bits;
ARM GAS  C:\Users\jisu8\AppData\Local\Temp\ccyzchVo.s 			page 14


 716:Drivers/STM32H7xx_HAL_Driver/Src/stm32h7xx_hal_uart_ex.c ****   uint16_t uhMask;
 717:Drivers/STM32H7xx_HAL_Driver/Src/stm32h7xx_hal_uart_ex.c ****   uint32_t tickstart;
 718:Drivers/STM32H7xx_HAL_Driver/Src/stm32h7xx_hal_uart_ex.c **** 
 719:Drivers/STM32H7xx_HAL_Driver/Src/stm32h7xx_hal_uart_ex.c ****   /* Check that a Rx process is not already ongoing */
 720:Drivers/STM32H7xx_HAL_Driver/Src/stm32h7xx_hal_uart_ex.c ****   if (huart->RxState == HAL_UART_STATE_READY)
 721:Drivers/STM32H7xx_HAL_Driver/Src/stm32h7xx_hal_uart_ex.c ****   {
 722:Drivers/STM32H7xx_HAL_Driver/Src/stm32h7xx_hal_uart_ex.c ****     if ((pData == NULL) || (Size == 0U))
 723:Drivers/STM32H7xx_HAL_Driver/Src/stm32h7xx_hal_uart_ex.c ****     {
 724:Drivers/STM32H7xx_HAL_Driver/Src/stm32h7xx_hal_uart_ex.c ****       return  HAL_ERROR;
 725:Drivers/STM32H7xx_HAL_Driver/Src/stm32h7xx_hal_uart_ex.c ****     }
 726:Drivers/STM32H7xx_HAL_Driver/Src/stm32h7xx_hal_uart_ex.c **** 
 727:Drivers/STM32H7xx_HAL_Driver/Src/stm32h7xx_hal_uart_ex.c ****     __HAL_LOCK(huart);
 728:Drivers/STM32H7xx_HAL_Driver/Src/stm32h7xx_hal_uart_ex.c **** 
 729:Drivers/STM32H7xx_HAL_Driver/Src/stm32h7xx_hal_uart_ex.c ****     huart->ErrorCode = HAL_UART_ERROR_NONE;
 730:Drivers/STM32H7xx_HAL_Driver/Src/stm32h7xx_hal_uart_ex.c ****     huart->RxState = HAL_UART_STATE_BUSY_RX;
 731:Drivers/STM32H7xx_HAL_Driver/Src/stm32h7xx_hal_uart_ex.c ****     huart->ReceptionType = HAL_UART_RECEPTION_TOIDLE;
 732:Drivers/STM32H7xx_HAL_Driver/Src/stm32h7xx_hal_uart_ex.c **** 
 733:Drivers/STM32H7xx_HAL_Driver/Src/stm32h7xx_hal_uart_ex.c ****     /* Init tickstart for timeout management */
 734:Drivers/STM32H7xx_HAL_Driver/Src/stm32h7xx_hal_uart_ex.c ****     tickstart = HAL_GetTick();
 735:Drivers/STM32H7xx_HAL_Driver/Src/stm32h7xx_hal_uart_ex.c **** 
 736:Drivers/STM32H7xx_HAL_Driver/Src/stm32h7xx_hal_uart_ex.c ****     huart->RxXferSize  = Size;
 737:Drivers/STM32H7xx_HAL_Driver/Src/stm32h7xx_hal_uart_ex.c ****     huart->RxXferCount = Size;
 738:Drivers/STM32H7xx_HAL_Driver/Src/stm32h7xx_hal_uart_ex.c **** 
 739:Drivers/STM32H7xx_HAL_Driver/Src/stm32h7xx_hal_uart_ex.c ****     /* Computation of UART mask to apply to RDR register */
 740:Drivers/STM32H7xx_HAL_Driver/Src/stm32h7xx_hal_uart_ex.c ****     UART_MASK_COMPUTATION(huart);
 741:Drivers/STM32H7xx_HAL_Driver/Src/stm32h7xx_hal_uart_ex.c ****     uhMask = huart->Mask;
 742:Drivers/STM32H7xx_HAL_Driver/Src/stm32h7xx_hal_uart_ex.c **** 
 743:Drivers/STM32H7xx_HAL_Driver/Src/stm32h7xx_hal_uart_ex.c ****     /* In case of 9bits/No Parity transfer, pRxData needs to be handled as a uint16_t pointer */
 744:Drivers/STM32H7xx_HAL_Driver/Src/stm32h7xx_hal_uart_ex.c ****     if ((huart->Init.WordLength == UART_WORDLENGTH_9B) && (huart->Init.Parity == UART_PARITY_NONE))
 745:Drivers/STM32H7xx_HAL_Driver/Src/stm32h7xx_hal_uart_ex.c ****     {
 746:Drivers/STM32H7xx_HAL_Driver/Src/stm32h7xx_hal_uart_ex.c ****       pdata8bits  = NULL;
 747:Drivers/STM32H7xx_HAL_Driver/Src/stm32h7xx_hal_uart_ex.c ****       pdata16bits = (uint16_t *) pData;
 748:Drivers/STM32H7xx_HAL_Driver/Src/stm32h7xx_hal_uart_ex.c ****     }
 749:Drivers/STM32H7xx_HAL_Driver/Src/stm32h7xx_hal_uart_ex.c ****     else
 750:Drivers/STM32H7xx_HAL_Driver/Src/stm32h7xx_hal_uart_ex.c ****     {
 751:Drivers/STM32H7xx_HAL_Driver/Src/stm32h7xx_hal_uart_ex.c ****       pdata8bits  = pData;
 752:Drivers/STM32H7xx_HAL_Driver/Src/stm32h7xx_hal_uart_ex.c ****       pdata16bits = NULL;
 753:Drivers/STM32H7xx_HAL_Driver/Src/stm32h7xx_hal_uart_ex.c ****     }
 754:Drivers/STM32H7xx_HAL_Driver/Src/stm32h7xx_hal_uart_ex.c **** 
 755:Drivers/STM32H7xx_HAL_Driver/Src/stm32h7xx_hal_uart_ex.c ****     __HAL_UNLOCK(huart);
 756:Drivers/STM32H7xx_HAL_Driver/Src/stm32h7xx_hal_uart_ex.c **** 
 757:Drivers/STM32H7xx_HAL_Driver/Src/stm32h7xx_hal_uart_ex.c ****     /* Initialize output number of received elements */
 758:Drivers/STM32H7xx_HAL_Driver/Src/stm32h7xx_hal_uart_ex.c ****     *RxLen = 0U;
 759:Drivers/STM32H7xx_HAL_Driver/Src/stm32h7xx_hal_uart_ex.c **** 
 760:Drivers/STM32H7xx_HAL_Driver/Src/stm32h7xx_hal_uart_ex.c ****     /* as long as data have to be received */
 761:Drivers/STM32H7xx_HAL_Driver/Src/stm32h7xx_hal_uart_ex.c ****     while (huart->RxXferCount > 0U)
 762:Drivers/STM32H7xx_HAL_Driver/Src/stm32h7xx_hal_uart_ex.c ****     {
 763:Drivers/STM32H7xx_HAL_Driver/Src/stm32h7xx_hal_uart_ex.c ****       /* Check if IDLE flag is set */
 764:Drivers/STM32H7xx_HAL_Driver/Src/stm32h7xx_hal_uart_ex.c ****       if (__HAL_UART_GET_FLAG(huart, UART_FLAG_IDLE))
 765:Drivers/STM32H7xx_HAL_Driver/Src/stm32h7xx_hal_uart_ex.c ****       {
 766:Drivers/STM32H7xx_HAL_Driver/Src/stm32h7xx_hal_uart_ex.c ****         /* Clear IDLE flag in ISR */
 767:Drivers/STM32H7xx_HAL_Driver/Src/stm32h7xx_hal_uart_ex.c ****         __HAL_UART_CLEAR_FLAG(huart, UART_CLEAR_IDLEF);
 768:Drivers/STM32H7xx_HAL_Driver/Src/stm32h7xx_hal_uart_ex.c **** 
 769:Drivers/STM32H7xx_HAL_Driver/Src/stm32h7xx_hal_uart_ex.c ****         /* If Set, but no data ever received, clear flag without exiting loop */
 770:Drivers/STM32H7xx_HAL_Driver/Src/stm32h7xx_hal_uart_ex.c ****         /* If Set, and data has already been received, this means Idle Event is valid : End recepti
 771:Drivers/STM32H7xx_HAL_Driver/Src/stm32h7xx_hal_uart_ex.c ****         if (*RxLen > 0U)
 772:Drivers/STM32H7xx_HAL_Driver/Src/stm32h7xx_hal_uart_ex.c ****         {
ARM GAS  C:\Users\jisu8\AppData\Local\Temp\ccyzchVo.s 			page 15


 773:Drivers/STM32H7xx_HAL_Driver/Src/stm32h7xx_hal_uart_ex.c ****           huart->RxState = HAL_UART_STATE_READY;
 774:Drivers/STM32H7xx_HAL_Driver/Src/stm32h7xx_hal_uart_ex.c **** 
 775:Drivers/STM32H7xx_HAL_Driver/Src/stm32h7xx_hal_uart_ex.c ****           return HAL_OK;
 776:Drivers/STM32H7xx_HAL_Driver/Src/stm32h7xx_hal_uart_ex.c ****         }
 777:Drivers/STM32H7xx_HAL_Driver/Src/stm32h7xx_hal_uart_ex.c ****       }
 778:Drivers/STM32H7xx_HAL_Driver/Src/stm32h7xx_hal_uart_ex.c **** 
 779:Drivers/STM32H7xx_HAL_Driver/Src/stm32h7xx_hal_uart_ex.c ****       /* Check if RXNE flag is set */
 780:Drivers/STM32H7xx_HAL_Driver/Src/stm32h7xx_hal_uart_ex.c ****       if (__HAL_UART_GET_FLAG(huart, UART_FLAG_RXNE))
 781:Drivers/STM32H7xx_HAL_Driver/Src/stm32h7xx_hal_uart_ex.c ****       {
 782:Drivers/STM32H7xx_HAL_Driver/Src/stm32h7xx_hal_uart_ex.c ****         if (pdata8bits == NULL)
 783:Drivers/STM32H7xx_HAL_Driver/Src/stm32h7xx_hal_uart_ex.c ****         {
 784:Drivers/STM32H7xx_HAL_Driver/Src/stm32h7xx_hal_uart_ex.c ****           *pdata16bits = (uint16_t)(huart->Instance->RDR & uhMask);
 785:Drivers/STM32H7xx_HAL_Driver/Src/stm32h7xx_hal_uart_ex.c ****           pdata16bits++;
 786:Drivers/STM32H7xx_HAL_Driver/Src/stm32h7xx_hal_uart_ex.c ****         }
 787:Drivers/STM32H7xx_HAL_Driver/Src/stm32h7xx_hal_uart_ex.c ****         else
 788:Drivers/STM32H7xx_HAL_Driver/Src/stm32h7xx_hal_uart_ex.c ****         {
 789:Drivers/STM32H7xx_HAL_Driver/Src/stm32h7xx_hal_uart_ex.c ****           *pdata8bits = (uint8_t)(huart->Instance->RDR & (uint8_t)uhMask);
 790:Drivers/STM32H7xx_HAL_Driver/Src/stm32h7xx_hal_uart_ex.c ****           pdata8bits++;
 791:Drivers/STM32H7xx_HAL_Driver/Src/stm32h7xx_hal_uart_ex.c ****         }
 792:Drivers/STM32H7xx_HAL_Driver/Src/stm32h7xx_hal_uart_ex.c ****         /* Increment number of received elements */
 793:Drivers/STM32H7xx_HAL_Driver/Src/stm32h7xx_hal_uart_ex.c ****         *RxLen += 1U;
 794:Drivers/STM32H7xx_HAL_Driver/Src/stm32h7xx_hal_uart_ex.c ****         huart->RxXferCount--;
 795:Drivers/STM32H7xx_HAL_Driver/Src/stm32h7xx_hal_uart_ex.c ****       }
 796:Drivers/STM32H7xx_HAL_Driver/Src/stm32h7xx_hal_uart_ex.c **** 
 797:Drivers/STM32H7xx_HAL_Driver/Src/stm32h7xx_hal_uart_ex.c ****       /* Check for the Timeout */
 798:Drivers/STM32H7xx_HAL_Driver/Src/stm32h7xx_hal_uart_ex.c ****       if (Timeout != HAL_MAX_DELAY)
 799:Drivers/STM32H7xx_HAL_Driver/Src/stm32h7xx_hal_uart_ex.c ****       {
 800:Drivers/STM32H7xx_HAL_Driver/Src/stm32h7xx_hal_uart_ex.c ****         if (((HAL_GetTick() - tickstart) > Timeout) || (Timeout == 0U))
 801:Drivers/STM32H7xx_HAL_Driver/Src/stm32h7xx_hal_uart_ex.c ****         {
 802:Drivers/STM32H7xx_HAL_Driver/Src/stm32h7xx_hal_uart_ex.c ****           huart->RxState = HAL_UART_STATE_READY;
 803:Drivers/STM32H7xx_HAL_Driver/Src/stm32h7xx_hal_uart_ex.c **** 
 804:Drivers/STM32H7xx_HAL_Driver/Src/stm32h7xx_hal_uart_ex.c ****           return HAL_TIMEOUT;
 805:Drivers/STM32H7xx_HAL_Driver/Src/stm32h7xx_hal_uart_ex.c ****         }
 806:Drivers/STM32H7xx_HAL_Driver/Src/stm32h7xx_hal_uart_ex.c ****       }
 807:Drivers/STM32H7xx_HAL_Driver/Src/stm32h7xx_hal_uart_ex.c ****     }
 808:Drivers/STM32H7xx_HAL_Driver/Src/stm32h7xx_hal_uart_ex.c **** 
 809:Drivers/STM32H7xx_HAL_Driver/Src/stm32h7xx_hal_uart_ex.c ****     /* Set number of received elements in output parameter : RxLen */
 810:Drivers/STM32H7xx_HAL_Driver/Src/stm32h7xx_hal_uart_ex.c ****     *RxLen = huart->RxXferSize - huart->RxXferCount;
 811:Drivers/STM32H7xx_HAL_Driver/Src/stm32h7xx_hal_uart_ex.c ****     /* At end of Rx process, restore huart->RxState to Ready */
 812:Drivers/STM32H7xx_HAL_Driver/Src/stm32h7xx_hal_uart_ex.c ****     huart->RxState = HAL_UART_STATE_READY;
 813:Drivers/STM32H7xx_HAL_Driver/Src/stm32h7xx_hal_uart_ex.c **** 
 814:Drivers/STM32H7xx_HAL_Driver/Src/stm32h7xx_hal_uart_ex.c ****     return HAL_OK;
 815:Drivers/STM32H7xx_HAL_Driver/Src/stm32h7xx_hal_uart_ex.c ****   }
 816:Drivers/STM32H7xx_HAL_Driver/Src/stm32h7xx_hal_uart_ex.c ****   else
 817:Drivers/STM32H7xx_HAL_Driver/Src/stm32h7xx_hal_uart_ex.c ****   {
 818:Drivers/STM32H7xx_HAL_Driver/Src/stm32h7xx_hal_uart_ex.c ****     return HAL_BUSY;
 819:Drivers/STM32H7xx_HAL_Driver/Src/stm32h7xx_hal_uart_ex.c ****   }
 820:Drivers/STM32H7xx_HAL_Driver/Src/stm32h7xx_hal_uart_ex.c **** }
 821:Drivers/STM32H7xx_HAL_Driver/Src/stm32h7xx_hal_uart_ex.c **** 
 822:Drivers/STM32H7xx_HAL_Driver/Src/stm32h7xx_hal_uart_ex.c **** /**
 823:Drivers/STM32H7xx_HAL_Driver/Src/stm32h7xx_hal_uart_ex.c ****   * @brief Receive an amount of data in interrupt mode till either the expected number of data
 824:Drivers/STM32H7xx_HAL_Driver/Src/stm32h7xx_hal_uart_ex.c ****   *        is received or an IDLE event occurs.
 825:Drivers/STM32H7xx_HAL_Driver/Src/stm32h7xx_hal_uart_ex.c ****   * @note  Reception is initiated by this function call. Further progress of reception is achieved 
 826:Drivers/STM32H7xx_HAL_Driver/Src/stm32h7xx_hal_uart_ex.c ****   *        to UART interrupts raised by RXNE and IDLE events. Callback is called at end of receptio
 827:Drivers/STM32H7xx_HAL_Driver/Src/stm32h7xx_hal_uart_ex.c ****   *        number of received data elements.
 828:Drivers/STM32H7xx_HAL_Driver/Src/stm32h7xx_hal_uart_ex.c ****   * @note  When UART parity is not enabled (PCE = 0), and Word Length is configured to 9 bits (M1-M
 829:Drivers/STM32H7xx_HAL_Driver/Src/stm32h7xx_hal_uart_ex.c ****   *        the received data is handled as a set of uint16_t. In this case, Size must indicate the 
ARM GAS  C:\Users\jisu8\AppData\Local\Temp\ccyzchVo.s 			page 16


 830:Drivers/STM32H7xx_HAL_Driver/Src/stm32h7xx_hal_uart_ex.c ****   *        of uint16_t available through pData.
 831:Drivers/STM32H7xx_HAL_Driver/Src/stm32h7xx_hal_uart_ex.c ****   * @param huart UART handle.
 832:Drivers/STM32H7xx_HAL_Driver/Src/stm32h7xx_hal_uart_ex.c ****   * @param pData Pointer to data buffer (uint8_t or uint16_t data elements).
 833:Drivers/STM32H7xx_HAL_Driver/Src/stm32h7xx_hal_uart_ex.c ****   * @param Size  Amount of data elements (uint8_t or uint16_t) to be received.
 834:Drivers/STM32H7xx_HAL_Driver/Src/stm32h7xx_hal_uart_ex.c ****   * @retval HAL status
 835:Drivers/STM32H7xx_HAL_Driver/Src/stm32h7xx_hal_uart_ex.c ****   */
 836:Drivers/STM32H7xx_HAL_Driver/Src/stm32h7xx_hal_uart_ex.c **** HAL_StatusTypeDef HAL_UARTEx_ReceiveToIdle_IT(UART_HandleTypeDef *huart, uint8_t *pData, uint16_t S
 837:Drivers/STM32H7xx_HAL_Driver/Src/stm32h7xx_hal_uart_ex.c **** {
 838:Drivers/STM32H7xx_HAL_Driver/Src/stm32h7xx_hal_uart_ex.c ****   HAL_StatusTypeDef status;
 839:Drivers/STM32H7xx_HAL_Driver/Src/stm32h7xx_hal_uart_ex.c **** 
 840:Drivers/STM32H7xx_HAL_Driver/Src/stm32h7xx_hal_uart_ex.c ****   /* Check that a Rx process is not already ongoing */
 841:Drivers/STM32H7xx_HAL_Driver/Src/stm32h7xx_hal_uart_ex.c ****   if (huart->RxState == HAL_UART_STATE_READY)
 842:Drivers/STM32H7xx_HAL_Driver/Src/stm32h7xx_hal_uart_ex.c ****   {
 843:Drivers/STM32H7xx_HAL_Driver/Src/stm32h7xx_hal_uart_ex.c ****     if ((pData == NULL) || (Size == 0U))
 844:Drivers/STM32H7xx_HAL_Driver/Src/stm32h7xx_hal_uart_ex.c ****     {
 845:Drivers/STM32H7xx_HAL_Driver/Src/stm32h7xx_hal_uart_ex.c ****       return HAL_ERROR;
 846:Drivers/STM32H7xx_HAL_Driver/Src/stm32h7xx_hal_uart_ex.c ****     }
 847:Drivers/STM32H7xx_HAL_Driver/Src/stm32h7xx_hal_uart_ex.c **** 
 848:Drivers/STM32H7xx_HAL_Driver/Src/stm32h7xx_hal_uart_ex.c ****     __HAL_LOCK(huart);
 849:Drivers/STM32H7xx_HAL_Driver/Src/stm32h7xx_hal_uart_ex.c **** 
 850:Drivers/STM32H7xx_HAL_Driver/Src/stm32h7xx_hal_uart_ex.c ****     /* Set Reception type to reception till IDLE Event*/
 851:Drivers/STM32H7xx_HAL_Driver/Src/stm32h7xx_hal_uart_ex.c ****     huart->ReceptionType = HAL_UART_RECEPTION_TOIDLE;
 852:Drivers/STM32H7xx_HAL_Driver/Src/stm32h7xx_hal_uart_ex.c **** 
 853:Drivers/STM32H7xx_HAL_Driver/Src/stm32h7xx_hal_uart_ex.c ****     status =  UART_Start_Receive_IT(huart, pData, Size);
 854:Drivers/STM32H7xx_HAL_Driver/Src/stm32h7xx_hal_uart_ex.c **** 
 855:Drivers/STM32H7xx_HAL_Driver/Src/stm32h7xx_hal_uart_ex.c ****     /* Check Rx process has been successfully started */
 856:Drivers/STM32H7xx_HAL_Driver/Src/stm32h7xx_hal_uart_ex.c ****     if (status == HAL_OK)
 857:Drivers/STM32H7xx_HAL_Driver/Src/stm32h7xx_hal_uart_ex.c ****     {
 858:Drivers/STM32H7xx_HAL_Driver/Src/stm32h7xx_hal_uart_ex.c ****       if (huart->ReceptionType == HAL_UART_RECEPTION_TOIDLE)
 859:Drivers/STM32H7xx_HAL_Driver/Src/stm32h7xx_hal_uart_ex.c ****       {
 860:Drivers/STM32H7xx_HAL_Driver/Src/stm32h7xx_hal_uart_ex.c ****         __HAL_UART_CLEAR_FLAG(huart, UART_CLEAR_IDLEF);
 861:Drivers/STM32H7xx_HAL_Driver/Src/stm32h7xx_hal_uart_ex.c ****         SET_BIT(huart->Instance->CR1, USART_CR1_IDLEIE);
 862:Drivers/STM32H7xx_HAL_Driver/Src/stm32h7xx_hal_uart_ex.c ****       }
 863:Drivers/STM32H7xx_HAL_Driver/Src/stm32h7xx_hal_uart_ex.c ****       else
 864:Drivers/STM32H7xx_HAL_Driver/Src/stm32h7xx_hal_uart_ex.c ****       {
 865:Drivers/STM32H7xx_HAL_Driver/Src/stm32h7xx_hal_uart_ex.c ****         /* In case of errors already pending when reception is started,
 866:Drivers/STM32H7xx_HAL_Driver/Src/stm32h7xx_hal_uart_ex.c ****            Interrupts may have already been raised and lead to reception abortion.
 867:Drivers/STM32H7xx_HAL_Driver/Src/stm32h7xx_hal_uart_ex.c ****            (Overrun error for instance).
 868:Drivers/STM32H7xx_HAL_Driver/Src/stm32h7xx_hal_uart_ex.c ****            In such case Reception Type has been reset to HAL_UART_RECEPTION_STANDARD. */
 869:Drivers/STM32H7xx_HAL_Driver/Src/stm32h7xx_hal_uart_ex.c ****         status = HAL_ERROR;
 870:Drivers/STM32H7xx_HAL_Driver/Src/stm32h7xx_hal_uart_ex.c ****       }
 871:Drivers/STM32H7xx_HAL_Driver/Src/stm32h7xx_hal_uart_ex.c ****     }
 872:Drivers/STM32H7xx_HAL_Driver/Src/stm32h7xx_hal_uart_ex.c **** 
 873:Drivers/STM32H7xx_HAL_Driver/Src/stm32h7xx_hal_uart_ex.c ****     return status;
 874:Drivers/STM32H7xx_HAL_Driver/Src/stm32h7xx_hal_uart_ex.c ****   }
 875:Drivers/STM32H7xx_HAL_Driver/Src/stm32h7xx_hal_uart_ex.c ****   else
 876:Drivers/STM32H7xx_HAL_Driver/Src/stm32h7xx_hal_uart_ex.c ****   {
 877:Drivers/STM32H7xx_HAL_Driver/Src/stm32h7xx_hal_uart_ex.c ****     return HAL_BUSY;
 878:Drivers/STM32H7xx_HAL_Driver/Src/stm32h7xx_hal_uart_ex.c ****   }
 879:Drivers/STM32H7xx_HAL_Driver/Src/stm32h7xx_hal_uart_ex.c **** }
 880:Drivers/STM32H7xx_HAL_Driver/Src/stm32h7xx_hal_uart_ex.c **** 
 881:Drivers/STM32H7xx_HAL_Driver/Src/stm32h7xx_hal_uart_ex.c **** /**
 882:Drivers/STM32H7xx_HAL_Driver/Src/stm32h7xx_hal_uart_ex.c ****   * @brief Receive an amount of data in DMA mode till either the expected number
 883:Drivers/STM32H7xx_HAL_Driver/Src/stm32h7xx_hal_uart_ex.c ****   *        of data is received or an IDLE event occurs.
 884:Drivers/STM32H7xx_HAL_Driver/Src/stm32h7xx_hal_uart_ex.c ****   * @note  Reception is initiated by this function call. Further progress of reception is achieved 
 885:Drivers/STM32H7xx_HAL_Driver/Src/stm32h7xx_hal_uart_ex.c ****   *        to DMA services, transferring automatically received data elements in user reception buf
 886:Drivers/STM32H7xx_HAL_Driver/Src/stm32h7xx_hal_uart_ex.c ****   *        calling registered callbacks at half/end of reception. UART IDLE events are also used to
ARM GAS  C:\Users\jisu8\AppData\Local\Temp\ccyzchVo.s 			page 17


 887:Drivers/STM32H7xx_HAL_Driver/Src/stm32h7xx_hal_uart_ex.c ****   *        reception phase as ended. In all cases, callback execution will indicate number of recei
 888:Drivers/STM32H7xx_HAL_Driver/Src/stm32h7xx_hal_uart_ex.c ****   * @note  When the UART parity is enabled (PCE = 1), the received data contain
 889:Drivers/STM32H7xx_HAL_Driver/Src/stm32h7xx_hal_uart_ex.c ****   *        the parity bit (MSB position).
 890:Drivers/STM32H7xx_HAL_Driver/Src/stm32h7xx_hal_uart_ex.c ****   * @note  When UART parity is not enabled (PCE = 0), and Word Length is configured to 9 bits (M1-M
 891:Drivers/STM32H7xx_HAL_Driver/Src/stm32h7xx_hal_uart_ex.c ****   *        the received data is handled as a set of uint16_t. In this case, Size must indicate the 
 892:Drivers/STM32H7xx_HAL_Driver/Src/stm32h7xx_hal_uart_ex.c ****   *        of uint16_t available through pData.
 893:Drivers/STM32H7xx_HAL_Driver/Src/stm32h7xx_hal_uart_ex.c ****   * @param huart UART handle.
 894:Drivers/STM32H7xx_HAL_Driver/Src/stm32h7xx_hal_uart_ex.c ****   * @param pData Pointer to data buffer (uint8_t or uint16_t data elements).
 895:Drivers/STM32H7xx_HAL_Driver/Src/stm32h7xx_hal_uart_ex.c ****   * @param Size  Amount of data elements (uint8_t or uint16_t) to be received.
 896:Drivers/STM32H7xx_HAL_Driver/Src/stm32h7xx_hal_uart_ex.c ****   * @retval HAL status
 897:Drivers/STM32H7xx_HAL_Driver/Src/stm32h7xx_hal_uart_ex.c ****   */
 898:Drivers/STM32H7xx_HAL_Driver/Src/stm32h7xx_hal_uart_ex.c **** HAL_StatusTypeDef HAL_UARTEx_ReceiveToIdle_DMA(UART_HandleTypeDef *huart, uint8_t *pData, uint16_t 
 899:Drivers/STM32H7xx_HAL_Driver/Src/stm32h7xx_hal_uart_ex.c **** {
 900:Drivers/STM32H7xx_HAL_Driver/Src/stm32h7xx_hal_uart_ex.c ****   HAL_StatusTypeDef status;
 901:Drivers/STM32H7xx_HAL_Driver/Src/stm32h7xx_hal_uart_ex.c **** 
 902:Drivers/STM32H7xx_HAL_Driver/Src/stm32h7xx_hal_uart_ex.c ****   /* Check that a Rx process is not already ongoing */
 903:Drivers/STM32H7xx_HAL_Driver/Src/stm32h7xx_hal_uart_ex.c ****   if (huart->RxState == HAL_UART_STATE_READY)
 904:Drivers/STM32H7xx_HAL_Driver/Src/stm32h7xx_hal_uart_ex.c ****   {
 905:Drivers/STM32H7xx_HAL_Driver/Src/stm32h7xx_hal_uart_ex.c ****     if ((pData == NULL) || (Size == 0U))
 906:Drivers/STM32H7xx_HAL_Driver/Src/stm32h7xx_hal_uart_ex.c ****     {
 907:Drivers/STM32H7xx_HAL_Driver/Src/stm32h7xx_hal_uart_ex.c ****       return HAL_ERROR;
 908:Drivers/STM32H7xx_HAL_Driver/Src/stm32h7xx_hal_uart_ex.c ****     }
 909:Drivers/STM32H7xx_HAL_Driver/Src/stm32h7xx_hal_uart_ex.c **** 
 910:Drivers/STM32H7xx_HAL_Driver/Src/stm32h7xx_hal_uart_ex.c ****     __HAL_LOCK(huart);
 911:Drivers/STM32H7xx_HAL_Driver/Src/stm32h7xx_hal_uart_ex.c **** 
 912:Drivers/STM32H7xx_HAL_Driver/Src/stm32h7xx_hal_uart_ex.c ****     /* Set Reception type to reception till IDLE Event*/
 913:Drivers/STM32H7xx_HAL_Driver/Src/stm32h7xx_hal_uart_ex.c ****     huart->ReceptionType = HAL_UART_RECEPTION_TOIDLE;
 914:Drivers/STM32H7xx_HAL_Driver/Src/stm32h7xx_hal_uart_ex.c **** 
 915:Drivers/STM32H7xx_HAL_Driver/Src/stm32h7xx_hal_uart_ex.c ****     status =  UART_Start_Receive_DMA(huart, pData, Size);
 916:Drivers/STM32H7xx_HAL_Driver/Src/stm32h7xx_hal_uart_ex.c **** 
 917:Drivers/STM32H7xx_HAL_Driver/Src/stm32h7xx_hal_uart_ex.c ****     /* Check Rx process has been successfully started */
 918:Drivers/STM32H7xx_HAL_Driver/Src/stm32h7xx_hal_uart_ex.c ****     if (status == HAL_OK)
 919:Drivers/STM32H7xx_HAL_Driver/Src/stm32h7xx_hal_uart_ex.c ****     {
 920:Drivers/STM32H7xx_HAL_Driver/Src/stm32h7xx_hal_uart_ex.c ****       if (huart->ReceptionType == HAL_UART_RECEPTION_TOIDLE)
 921:Drivers/STM32H7xx_HAL_Driver/Src/stm32h7xx_hal_uart_ex.c ****       {
 922:Drivers/STM32H7xx_HAL_Driver/Src/stm32h7xx_hal_uart_ex.c ****         __HAL_UART_CLEAR_FLAG(huart, UART_CLEAR_IDLEF);
 923:Drivers/STM32H7xx_HAL_Driver/Src/stm32h7xx_hal_uart_ex.c ****         SET_BIT(huart->Instance->CR1, USART_CR1_IDLEIE);
 924:Drivers/STM32H7xx_HAL_Driver/Src/stm32h7xx_hal_uart_ex.c ****       }
 925:Drivers/STM32H7xx_HAL_Driver/Src/stm32h7xx_hal_uart_ex.c ****       else
 926:Drivers/STM32H7xx_HAL_Driver/Src/stm32h7xx_hal_uart_ex.c ****       {
 927:Drivers/STM32H7xx_HAL_Driver/Src/stm32h7xx_hal_uart_ex.c ****         /* In case of errors already pending when reception is started,
 928:Drivers/STM32H7xx_HAL_Driver/Src/stm32h7xx_hal_uart_ex.c ****            Interrupts may have already been raised and lead to reception abortion.
 929:Drivers/STM32H7xx_HAL_Driver/Src/stm32h7xx_hal_uart_ex.c ****            (Overrun error for instance).
 930:Drivers/STM32H7xx_HAL_Driver/Src/stm32h7xx_hal_uart_ex.c ****            In such case Reception Type has been reset to HAL_UART_RECEPTION_STANDARD. */
 931:Drivers/STM32H7xx_HAL_Driver/Src/stm32h7xx_hal_uart_ex.c ****         status = HAL_ERROR;
 932:Drivers/STM32H7xx_HAL_Driver/Src/stm32h7xx_hal_uart_ex.c ****       }
 933:Drivers/STM32H7xx_HAL_Driver/Src/stm32h7xx_hal_uart_ex.c ****     }
 934:Drivers/STM32H7xx_HAL_Driver/Src/stm32h7xx_hal_uart_ex.c **** 
 935:Drivers/STM32H7xx_HAL_Driver/Src/stm32h7xx_hal_uart_ex.c ****     return status;
 936:Drivers/STM32H7xx_HAL_Driver/Src/stm32h7xx_hal_uart_ex.c ****   }
 937:Drivers/STM32H7xx_HAL_Driver/Src/stm32h7xx_hal_uart_ex.c ****   else
 938:Drivers/STM32H7xx_HAL_Driver/Src/stm32h7xx_hal_uart_ex.c ****   {
 939:Drivers/STM32H7xx_HAL_Driver/Src/stm32h7xx_hal_uart_ex.c ****     return HAL_BUSY;
 940:Drivers/STM32H7xx_HAL_Driver/Src/stm32h7xx_hal_uart_ex.c ****   }
 941:Drivers/STM32H7xx_HAL_Driver/Src/stm32h7xx_hal_uart_ex.c **** }
 942:Drivers/STM32H7xx_HAL_Driver/Src/stm32h7xx_hal_uart_ex.c **** 
 943:Drivers/STM32H7xx_HAL_Driver/Src/stm32h7xx_hal_uart_ex.c **** /**
ARM GAS  C:\Users\jisu8\AppData\Local\Temp\ccyzchVo.s 			page 18


 944:Drivers/STM32H7xx_HAL_Driver/Src/stm32h7xx_hal_uart_ex.c ****   * @}
 945:Drivers/STM32H7xx_HAL_Driver/Src/stm32h7xx_hal_uart_ex.c ****   */
 946:Drivers/STM32H7xx_HAL_Driver/Src/stm32h7xx_hal_uart_ex.c **** 
 947:Drivers/STM32H7xx_HAL_Driver/Src/stm32h7xx_hal_uart_ex.c **** /**
 948:Drivers/STM32H7xx_HAL_Driver/Src/stm32h7xx_hal_uart_ex.c ****   * @}
 949:Drivers/STM32H7xx_HAL_Driver/Src/stm32h7xx_hal_uart_ex.c ****   */
 950:Drivers/STM32H7xx_HAL_Driver/Src/stm32h7xx_hal_uart_ex.c **** 
 951:Drivers/STM32H7xx_HAL_Driver/Src/stm32h7xx_hal_uart_ex.c **** /** @addtogroup UARTEx_Private_Functions
 952:Drivers/STM32H7xx_HAL_Driver/Src/stm32h7xx_hal_uart_ex.c ****   * @{
 953:Drivers/STM32H7xx_HAL_Driver/Src/stm32h7xx_hal_uart_ex.c ****   */
 954:Drivers/STM32H7xx_HAL_Driver/Src/stm32h7xx_hal_uart_ex.c **** 
 955:Drivers/STM32H7xx_HAL_Driver/Src/stm32h7xx_hal_uart_ex.c **** /**
 956:Drivers/STM32H7xx_HAL_Driver/Src/stm32h7xx_hal_uart_ex.c ****   * @brief Initialize the UART wake-up from stop mode parameters when triggered by address detectio
 957:Drivers/STM32H7xx_HAL_Driver/Src/stm32h7xx_hal_uart_ex.c ****   * @param huart           UART handle.
 958:Drivers/STM32H7xx_HAL_Driver/Src/stm32h7xx_hal_uart_ex.c ****   * @param WakeUpSelection UART wake up from stop mode parameters.
 959:Drivers/STM32H7xx_HAL_Driver/Src/stm32h7xx_hal_uart_ex.c ****   * @retval None
 960:Drivers/STM32H7xx_HAL_Driver/Src/stm32h7xx_hal_uart_ex.c ****   */
 961:Drivers/STM32H7xx_HAL_Driver/Src/stm32h7xx_hal_uart_ex.c **** static void UARTEx_Wakeup_AddressConfig(UART_HandleTypeDef *huart, UART_WakeUpTypeDef WakeUpSelecti
 962:Drivers/STM32H7xx_HAL_Driver/Src/stm32h7xx_hal_uart_ex.c **** {
  28              		.loc 1 962 1 view -0
  29              		.cfi_startproc
  30              		@ args = 0, pretend = 0, frame = 8
  31              		@ frame_needed = 0, uses_anonymous_args = 0
  32              		@ link register save eliminated.
  33              		.loc 1 962 1 is_stmt 0 view .LVU1
  34 0000 82B0     		sub	sp, sp, #8
  35              	.LCFI0:
  36              		.cfi_def_cfa_offset 8
  37 0002 02AB     		add	r3, sp, #8
  38 0004 03E90600 		stmdb	r3, {r1, r2}
 963:Drivers/STM32H7xx_HAL_Driver/Src/stm32h7xx_hal_uart_ex.c ****   assert_param(IS_UART_ADDRESSLENGTH_DETECT(WakeUpSelection.AddressLength));
  39              		.loc 1 963 3 is_stmt 1 view .LVU2
 964:Drivers/STM32H7xx_HAL_Driver/Src/stm32h7xx_hal_uart_ex.c **** 
 965:Drivers/STM32H7xx_HAL_Driver/Src/stm32h7xx_hal_uart_ex.c ****   /* Set the USART address length */
 966:Drivers/STM32H7xx_HAL_Driver/Src/stm32h7xx_hal_uart_ex.c ****   MODIFY_REG(huart->Instance->CR2, USART_CR2_ADDM7, WakeUpSelection.AddressLength);
  40              		.loc 1 966 3 view .LVU3
  41 0008 0268     		ldr	r2, [r0]
  42 000a 5368     		ldr	r3, [r2, #4]
  43 000c 23F01003 		bic	r3, r3, #16
  44 0010 BDF80410 		ldrh	r1, [sp, #4]
  45 0014 0B43     		orrs	r3, r3, r1
  46 0016 5360     		str	r3, [r2, #4]
 967:Drivers/STM32H7xx_HAL_Driver/Src/stm32h7xx_hal_uart_ex.c **** 
 968:Drivers/STM32H7xx_HAL_Driver/Src/stm32h7xx_hal_uart_ex.c ****   /* Set the USART address node */
 969:Drivers/STM32H7xx_HAL_Driver/Src/stm32h7xx_hal_uart_ex.c ****   MODIFY_REG(huart->Instance->CR2, USART_CR2_ADD, ((uint32_t)WakeUpSelection.Address << UART_CR2_AD
  47              		.loc 1 969 3 view .LVU4
  48 0018 0268     		ldr	r2, [r0]
  49 001a 5368     		ldr	r3, [r2, #4]
  50 001c 23F07F43 		bic	r3, r3, #-16777216
  51 0020 9DF80610 		ldrb	r1, [sp, #6]	@ zero_extendqisi2
  52 0024 43EA0163 		orr	r3, r3, r1, lsl #24
  53 0028 5360     		str	r3, [r2, #4]
 970:Drivers/STM32H7xx_HAL_Driver/Src/stm32h7xx_hal_uart_ex.c **** }
  54              		.loc 1 970 1 is_stmt 0 view .LVU5
  55 002a 02B0     		add	sp, sp, #8
  56              	.LCFI1:
  57              		.cfi_def_cfa_offset 0
ARM GAS  C:\Users\jisu8\AppData\Local\Temp\ccyzchVo.s 			page 19


  58              		@ sp needed
  59 002c 7047     		bx	lr
  60              		.cfi_endproc
  61              	.LFE346:
  63              		.section	.text.UARTEx_SetNbDataToProcess,"ax",%progbits
  64              		.align	1
  65              		.syntax unified
  66              		.thumb
  67              		.thumb_func
  69              	UARTEx_SetNbDataToProcess:
  70              	.LVL1:
  71              	.LFB347:
 971:Drivers/STM32H7xx_HAL_Driver/Src/stm32h7xx_hal_uart_ex.c **** 
 972:Drivers/STM32H7xx_HAL_Driver/Src/stm32h7xx_hal_uart_ex.c **** /**
 973:Drivers/STM32H7xx_HAL_Driver/Src/stm32h7xx_hal_uart_ex.c ****   * @brief Calculate the number of data to process in RX/TX ISR.
 974:Drivers/STM32H7xx_HAL_Driver/Src/stm32h7xx_hal_uart_ex.c ****   * @note The RX FIFO depth and the TX FIFO depth is extracted from
 975:Drivers/STM32H7xx_HAL_Driver/Src/stm32h7xx_hal_uart_ex.c ****   *       the UART configuration registers.
 976:Drivers/STM32H7xx_HAL_Driver/Src/stm32h7xx_hal_uart_ex.c ****   * @param huart UART handle.
 977:Drivers/STM32H7xx_HAL_Driver/Src/stm32h7xx_hal_uart_ex.c ****   * @retval None
 978:Drivers/STM32H7xx_HAL_Driver/Src/stm32h7xx_hal_uart_ex.c ****   */
 979:Drivers/STM32H7xx_HAL_Driver/Src/stm32h7xx_hal_uart_ex.c **** static void UARTEx_SetNbDataToProcess(UART_HandleTypeDef *huart)
 980:Drivers/STM32H7xx_HAL_Driver/Src/stm32h7xx_hal_uart_ex.c **** {
  72              		.loc 1 980 1 is_stmt 1 view -0
  73              		.cfi_startproc
  74              		@ args = 0, pretend = 0, frame = 0
  75              		@ frame_needed = 0, uses_anonymous_args = 0
  76              		@ link register save eliminated.
 981:Drivers/STM32H7xx_HAL_Driver/Src/stm32h7xx_hal_uart_ex.c ****   uint8_t rx_fifo_depth;
  77              		.loc 1 981 3 view .LVU7
 982:Drivers/STM32H7xx_HAL_Driver/Src/stm32h7xx_hal_uart_ex.c ****   uint8_t tx_fifo_depth;
  78              		.loc 1 982 3 view .LVU8
 983:Drivers/STM32H7xx_HAL_Driver/Src/stm32h7xx_hal_uart_ex.c ****   uint8_t rx_fifo_threshold;
  79              		.loc 1 983 3 view .LVU9
 984:Drivers/STM32H7xx_HAL_Driver/Src/stm32h7xx_hal_uart_ex.c ****   uint8_t tx_fifo_threshold;
  80              		.loc 1 984 3 view .LVU10
 985:Drivers/STM32H7xx_HAL_Driver/Src/stm32h7xx_hal_uart_ex.c ****   static const uint8_t numerator[] = {1U, 1U, 1U, 3U, 7U, 1U, 0U, 0U};
  81              		.loc 1 985 3 view .LVU11
 986:Drivers/STM32H7xx_HAL_Driver/Src/stm32h7xx_hal_uart_ex.c ****   static const uint8_t denominator[] = {8U, 4U, 2U, 4U, 8U, 1U, 1U, 1U};
  82              		.loc 1 986 3 view .LVU12
 987:Drivers/STM32H7xx_HAL_Driver/Src/stm32h7xx_hal_uart_ex.c **** 
 988:Drivers/STM32H7xx_HAL_Driver/Src/stm32h7xx_hal_uart_ex.c ****   if (huart->FifoMode == UART_FIFOMODE_DISABLE)
  83              		.loc 1 988 3 view .LVU13
  84              		.loc 1 988 12 is_stmt 0 view .LVU14
  85 0000 436E     		ldr	r3, [r0, #100]
  86              		.loc 1 988 6 view .LVU15
  87 0002 2BB9     		cbnz	r3, .L4
 989:Drivers/STM32H7xx_HAL_Driver/Src/stm32h7xx_hal_uart_ex.c ****   {
 990:Drivers/STM32H7xx_HAL_Driver/Src/stm32h7xx_hal_uart_ex.c ****     huart->NbTxDataToProcess = 1U;
  88              		.loc 1 990 5 is_stmt 1 view .LVU16
  89              		.loc 1 990 30 is_stmt 0 view .LVU17
  90 0004 0123     		movs	r3, #1
  91 0006 A0F86A30 		strh	r3, [r0, #106]	@ movhi
 991:Drivers/STM32H7xx_HAL_Driver/Src/stm32h7xx_hal_uart_ex.c ****     huart->NbRxDataToProcess = 1U;
  92              		.loc 1 991 5 is_stmt 1 view .LVU18
  93              		.loc 1 991 30 is_stmt 0 view .LVU19
  94 000a A0F86830 		strh	r3, [r0, #104]	@ movhi
  95 000e 7047     		bx	lr
ARM GAS  C:\Users\jisu8\AppData\Local\Temp\ccyzchVo.s 			page 20


  96              	.L4:
 980:Drivers/STM32H7xx_HAL_Driver/Src/stm32h7xx_hal_uart_ex.c ****   uint8_t rx_fifo_depth;
  97              		.loc 1 980 1 view .LVU20
  98 0010 30B4     		push	{r4, r5}
  99              	.LCFI2:
 100              		.cfi_def_cfa_offset 8
 101              		.cfi_offset 4, -8
 102              		.cfi_offset 5, -4
 992:Drivers/STM32H7xx_HAL_Driver/Src/stm32h7xx_hal_uart_ex.c ****   }
 993:Drivers/STM32H7xx_HAL_Driver/Src/stm32h7xx_hal_uart_ex.c ****   else
 994:Drivers/STM32H7xx_HAL_Driver/Src/stm32h7xx_hal_uart_ex.c ****   {
 995:Drivers/STM32H7xx_HAL_Driver/Src/stm32h7xx_hal_uart_ex.c ****     rx_fifo_depth = RX_FIFO_DEPTH;
 103              		.loc 1 995 5 is_stmt 1 view .LVU21
 104              	.LVL2:
 996:Drivers/STM32H7xx_HAL_Driver/Src/stm32h7xx_hal_uart_ex.c ****     tx_fifo_depth = TX_FIFO_DEPTH;
 105              		.loc 1 996 5 view .LVU22
 997:Drivers/STM32H7xx_HAL_Driver/Src/stm32h7xx_hal_uart_ex.c ****     rx_fifo_threshold = (uint8_t)(READ_BIT(huart->Instance->CR3, USART_CR3_RXFTCFG) >> USART_CR3_RX
 106              		.loc 1 997 5 view .LVU23
 107              		.loc 1 997 35 is_stmt 0 view .LVU24
 108 0012 0368     		ldr	r3, [r0]
 109 0014 9A68     		ldr	r2, [r3, #8]
 110              		.loc 1 997 23 view .LVU25
 111 0016 C2F34262 		ubfx	r2, r2, #25, #3
 112              	.LVL3:
 998:Drivers/STM32H7xx_HAL_Driver/Src/stm32h7xx_hal_uart_ex.c ****     tx_fifo_threshold = (uint8_t)(READ_BIT(huart->Instance->CR3, USART_CR3_TXFTCFG) >> USART_CR3_TX
 113              		.loc 1 998 5 is_stmt 1 view .LVU26
 114              		.loc 1 998 35 is_stmt 0 view .LVU27
 115 001a 9968     		ldr	r1, [r3, #8]
 116              		.loc 1 998 23 view .LVU28
 117 001c 490F     		lsrs	r1, r1, #29
 118              	.LVL4:
 999:Drivers/STM32H7xx_HAL_Driver/Src/stm32h7xx_hal_uart_ex.c ****     huart->NbTxDataToProcess = ((uint16_t)tx_fifo_depth * numerator[tx_fifo_threshold]) /
 119              		.loc 1 999 5 is_stmt 1 view .LVU29
 120              		.loc 1 999 68 is_stmt 0 view .LVU30
 121 001e 094D     		ldr	r5, .L9
 122 0020 6B5C     		ldrb	r3, [r5, r1]	@ zero_extendqisi2
 123              		.loc 1 999 57 view .LVU31
 124 0022 1B01     		lsls	r3, r3, #4
1000:Drivers/STM32H7xx_HAL_Driver/Src/stm32h7xx_hal_uart_ex.c ****                                (uint16_t)denominator[tx_fifo_threshold];
 125              		.loc 1 1000 53 view .LVU32
 126 0024 084C     		ldr	r4, .L9+4
 127 0026 615C     		ldrb	r1, [r4, r1]	@ zero_extendqisi2
 128              	.LVL5:
 999:Drivers/STM32H7xx_HAL_Driver/Src/stm32h7xx_hal_uart_ex.c ****     huart->NbTxDataToProcess = ((uint16_t)tx_fifo_depth * numerator[tx_fifo_threshold]) /
 129              		.loc 1 999 89 view .LVU33
 130 0028 93FBF1F3 		sdiv	r3, r3, r1
 999:Drivers/STM32H7xx_HAL_Driver/Src/stm32h7xx_hal_uart_ex.c ****     huart->NbTxDataToProcess = ((uint16_t)tx_fifo_depth * numerator[tx_fifo_threshold]) /
 131              		.loc 1 999 30 view .LVU34
 132 002c A0F86A30 		strh	r3, [r0, #106]	@ movhi
1001:Drivers/STM32H7xx_HAL_Driver/Src/stm32h7xx_hal_uart_ex.c ****     huart->NbRxDataToProcess = ((uint16_t)rx_fifo_depth * numerator[rx_fifo_threshold]) /
 133              		.loc 1 1001 5 is_stmt 1 view .LVU35
 134              		.loc 1 1001 68 is_stmt 0 view .LVU36
 135 0030 AB5C     		ldrb	r3, [r5, r2]	@ zero_extendqisi2
 136              		.loc 1 1001 57 view .LVU37
 137 0032 1B01     		lsls	r3, r3, #4
1002:Drivers/STM32H7xx_HAL_Driver/Src/stm32h7xx_hal_uart_ex.c ****                                (uint16_t)denominator[rx_fifo_threshold];
 138              		.loc 1 1002 53 view .LVU38
ARM GAS  C:\Users\jisu8\AppData\Local\Temp\ccyzchVo.s 			page 21


 139 0034 A25C     		ldrb	r2, [r4, r2]	@ zero_extendqisi2
 140              	.LVL6:
1001:Drivers/STM32H7xx_HAL_Driver/Src/stm32h7xx_hal_uart_ex.c ****     huart->NbRxDataToProcess = ((uint16_t)rx_fifo_depth * numerator[rx_fifo_threshold]) /
 141              		.loc 1 1001 89 view .LVU39
 142 0036 93FBF2F3 		sdiv	r3, r3, r2
1001:Drivers/STM32H7xx_HAL_Driver/Src/stm32h7xx_hal_uart_ex.c ****     huart->NbRxDataToProcess = ((uint16_t)rx_fifo_depth * numerator[rx_fifo_threshold]) /
 143              		.loc 1 1001 30 view .LVU40
 144 003a A0F86830 		strh	r3, [r0, #104]	@ movhi
1003:Drivers/STM32H7xx_HAL_Driver/Src/stm32h7xx_hal_uart_ex.c ****   }
1004:Drivers/STM32H7xx_HAL_Driver/Src/stm32h7xx_hal_uart_ex.c **** }
 145              		.loc 1 1004 1 view .LVU41
 146 003e 30BC     		pop	{r4, r5}
 147              	.LCFI3:
 148              		.cfi_restore 5
 149              		.cfi_restore 4
 150              		.cfi_def_cfa_offset 0
 151 0040 7047     		bx	lr
 152              	.L10:
 153 0042 00BF     		.align	2
 154              	.L9:
 155 0044 00000000 		.word	.LANCHOR0
 156 0048 00000000 		.word	.LANCHOR1
 157              		.cfi_endproc
 158              	.LFE347:
 160              		.section	.text.HAL_RS485Ex_Init,"ax",%progbits
 161              		.align	1
 162              		.global	HAL_RS485Ex_Init
 163              		.syntax unified
 164              		.thumb
 165              		.thumb_func
 167              	HAL_RS485Ex_Init:
 168              	.LVL7:
 169              	.LFB331:
 168:Drivers/STM32H7xx_HAL_Driver/Src/stm32h7xx_hal_uart_ex.c ****   uint32_t temp;
 170              		.loc 1 168 1 is_stmt 1 view -0
 171              		.cfi_startproc
 172              		@ args = 0, pretend = 0, frame = 0
 173              		@ frame_needed = 0, uses_anonymous_args = 0
 169:Drivers/STM32H7xx_HAL_Driver/Src/stm32h7xx_hal_uart_ex.c **** 
 174              		.loc 1 169 3 view .LVU43
 172:Drivers/STM32H7xx_HAL_Driver/Src/stm32h7xx_hal_uart_ex.c ****   {
 175              		.loc 1 172 3 view .LVU44
 172:Drivers/STM32H7xx_HAL_Driver/Src/stm32h7xx_hal_uart_ex.c ****   {
 176              		.loc 1 172 6 is_stmt 0 view .LVU45
 177 0000 0028     		cmp	r0, #0
 178 0002 47D0     		beq	.L16
 168:Drivers/STM32H7xx_HAL_Driver/Src/stm32h7xx_hal_uart_ex.c ****   uint32_t temp;
 179              		.loc 1 168 1 view .LVU46
 180 0004 F8B5     		push	{r3, r4, r5, r6, r7, lr}
 181              	.LCFI4:
 182              		.cfi_def_cfa_offset 24
 183              		.cfi_offset 3, -24
 184              		.cfi_offset 4, -20
 185              		.cfi_offset 5, -16
 186              		.cfi_offset 6, -12
 187              		.cfi_offset 7, -8
 188              		.cfi_offset 14, -4
ARM GAS  C:\Users\jisu8\AppData\Local\Temp\ccyzchVo.s 			page 22


 189 0006 0F46     		mov	r7, r1
 190 0008 1646     		mov	r6, r2
 191 000a 1D46     		mov	r5, r3
 192 000c 0446     		mov	r4, r0
 177:Drivers/STM32H7xx_HAL_Driver/Src/stm32h7xx_hal_uart_ex.c **** 
 193              		.loc 1 177 3 is_stmt 1 view .LVU47
 180:Drivers/STM32H7xx_HAL_Driver/Src/stm32h7xx_hal_uart_ex.c **** 
 194              		.loc 1 180 3 view .LVU48
 183:Drivers/STM32H7xx_HAL_Driver/Src/stm32h7xx_hal_uart_ex.c **** 
 195              		.loc 1 183 3 view .LVU49
 186:Drivers/STM32H7xx_HAL_Driver/Src/stm32h7xx_hal_uart_ex.c **** 
 196              		.loc 1 186 3 view .LVU50
 188:Drivers/STM32H7xx_HAL_Driver/Src/stm32h7xx_hal_uart_ex.c ****   {
 197              		.loc 1 188 3 view .LVU51
 188:Drivers/STM32H7xx_HAL_Driver/Src/stm32h7xx_hal_uart_ex.c ****   {
 198              		.loc 1 188 12 is_stmt 0 view .LVU52
 199 000e D0F88430 		ldr	r3, [r0, #132]
 200              	.LVL8:
 188:Drivers/STM32H7xx_HAL_Driver/Src/stm32h7xx_hal_uart_ex.c ****   {
 201              		.loc 1 188 6 view .LVU53
 202 0012 5BB3     		cbz	r3, .L21
 203              	.LVL9:
 204              	.L13:
 209:Drivers/STM32H7xx_HAL_Driver/Src/stm32h7xx_hal_uart_ex.c **** 
 205              		.loc 1 209 3 is_stmt 1 view .LVU54
 209:Drivers/STM32H7xx_HAL_Driver/Src/stm32h7xx_hal_uart_ex.c **** 
 206              		.loc 1 209 17 is_stmt 0 view .LVU55
 207 0014 2423     		movs	r3, #36
 208 0016 C4F88430 		str	r3, [r4, #132]
 212:Drivers/STM32H7xx_HAL_Driver/Src/stm32h7xx_hal_uart_ex.c **** 
 209              		.loc 1 212 3 is_stmt 1 view .LVU56
 210 001a 2268     		ldr	r2, [r4]
 211 001c 1368     		ldr	r3, [r2]
 212 001e 23F00103 		bic	r3, r3, #1
 213 0022 1360     		str	r3, [r2]
 215:Drivers/STM32H7xx_HAL_Driver/Src/stm32h7xx_hal_uart_ex.c ****   {
 214              		.loc 1 215 3 view .LVU57
 215:Drivers/STM32H7xx_HAL_Driver/Src/stm32h7xx_hal_uart_ex.c ****   {
 215              		.loc 1 215 7 is_stmt 0 view .LVU58
 216 0024 2046     		mov	r0, r4
 217 0026 FFF7FEFF 		bl	UART_SetConfig
 218              	.LVL10:
 215:Drivers/STM32H7xx_HAL_Driver/Src/stm32h7xx_hal_uart_ex.c ****   {
 219              		.loc 1 215 6 view .LVU59
 220 002a 0128     		cmp	r0, #1
 221 002c 1DD0     		beq	.L12
 220:Drivers/STM32H7xx_HAL_Driver/Src/stm32h7xx_hal_uart_ex.c ****   {
 222              		.loc 1 220 3 is_stmt 1 view .LVU60
 220:Drivers/STM32H7xx_HAL_Driver/Src/stm32h7xx_hal_uart_ex.c ****   {
 223              		.loc 1 220 26 is_stmt 0 view .LVU61
 224 002e A36A     		ldr	r3, [r4, #40]
 220:Drivers/STM32H7xx_HAL_Driver/Src/stm32h7xx_hal_uart_ex.c ****   {
 225              		.loc 1 220 6 view .LVU62
 226 0030 63BB     		cbnz	r3, .L22
 227              	.L15:
 226:Drivers/STM32H7xx_HAL_Driver/Src/stm32h7xx_hal_uart_ex.c **** 
 228              		.loc 1 226 3 is_stmt 1 view .LVU63
ARM GAS  C:\Users\jisu8\AppData\Local\Temp\ccyzchVo.s 			page 23


 229 0032 2268     		ldr	r2, [r4]
 230 0034 9368     		ldr	r3, [r2, #8]
 231 0036 43F48043 		orr	r3, r3, #16384
 232 003a 9360     		str	r3, [r2, #8]
 229:Drivers/STM32H7xx_HAL_Driver/Src/stm32h7xx_hal_uart_ex.c **** 
 233              		.loc 1 229 3 view .LVU64
 234 003c 2268     		ldr	r2, [r4]
 235 003e 9368     		ldr	r3, [r2, #8]
 236 0040 23F40043 		bic	r3, r3, #32768
 237 0044 3B43     		orrs	r3, r3, r7
 238 0046 9360     		str	r3, [r2, #8]
 232:Drivers/STM32H7xx_HAL_Driver/Src/stm32h7xx_hal_uart_ex.c ****   temp |= (DeassertionTime << UART_CR1_DEDT_ADDRESS_LSB_POS);
 239              		.loc 1 232 3 view .LVU65
 240              	.LVL11:
 233:Drivers/STM32H7xx_HAL_Driver/Src/stm32h7xx_hal_uart_ex.c ****   MODIFY_REG(huart->Instance->CR1, (USART_CR1_DEDT | USART_CR1_DEAT), temp);
 241              		.loc 1 233 3 view .LVU66
 233:Drivers/STM32H7xx_HAL_Driver/Src/stm32h7xx_hal_uart_ex.c ****   MODIFY_REG(huart->Instance->CR1, (USART_CR1_DEDT | USART_CR1_DEAT), temp);
 242              		.loc 1 233 28 is_stmt 0 view .LVU67
 243 0048 2D04     		lsls	r5, r5, #16
 244              	.LVL12:
 233:Drivers/STM32H7xx_HAL_Driver/Src/stm32h7xx_hal_uart_ex.c ****   MODIFY_REG(huart->Instance->CR1, (USART_CR1_DEDT | USART_CR1_DEAT), temp);
 245              		.loc 1 233 8 view .LVU68
 246 004a 45EA4655 		orr	r5, r5, r6, lsl #21
 247              	.LVL13:
 234:Drivers/STM32H7xx_HAL_Driver/Src/stm32h7xx_hal_uart_ex.c **** 
 248              		.loc 1 234 3 is_stmt 1 view .LVU69
 249 004e 2268     		ldr	r2, [r4]
 250 0050 1168     		ldr	r1, [r2]
 251 0052 114B     		ldr	r3, .L24
 252 0054 0B40     		ands	r3, r3, r1
 253 0056 1D43     		orrs	r5, r5, r3
 254              	.LVL14:
 234:Drivers/STM32H7xx_HAL_Driver/Src/stm32h7xx_hal_uart_ex.c **** 
 255              		.loc 1 234 3 is_stmt 0 view .LVU70
 256 0058 1560     		str	r5, [r2]
 237:Drivers/STM32H7xx_HAL_Driver/Src/stm32h7xx_hal_uart_ex.c **** 
 257              		.loc 1 237 3 is_stmt 1 view .LVU71
 258 005a 2268     		ldr	r2, [r4]
 259 005c 1368     		ldr	r3, [r2]
 260 005e 43F00103 		orr	r3, r3, #1
 261 0062 1360     		str	r3, [r2]
 240:Drivers/STM32H7xx_HAL_Driver/Src/stm32h7xx_hal_uart_ex.c **** }
 262              		.loc 1 240 3 view .LVU72
 240:Drivers/STM32H7xx_HAL_Driver/Src/stm32h7xx_hal_uart_ex.c **** }
 263              		.loc 1 240 11 is_stmt 0 view .LVU73
 264 0064 2046     		mov	r0, r4
 265 0066 FFF7FEFF 		bl	UART_CheckIdleState
 266              	.LVL15:
 267              	.L12:
 241:Drivers/STM32H7xx_HAL_Driver/Src/stm32h7xx_hal_uart_ex.c **** 
 268              		.loc 1 241 1 view .LVU74
 269 006a F8BD     		pop	{r3, r4, r5, r6, r7, pc}
 270              	.LVL16:
 271              	.L21:
 191:Drivers/STM32H7xx_HAL_Driver/Src/stm32h7xx_hal_uart_ex.c **** 
 272              		.loc 1 191 5 is_stmt 1 view .LVU75
 191:Drivers/STM32H7xx_HAL_Driver/Src/stm32h7xx_hal_uart_ex.c **** 
ARM GAS  C:\Users\jisu8\AppData\Local\Temp\ccyzchVo.s 			page 24


 273              		.loc 1 191 17 is_stmt 0 view .LVU76
 274 006c 80F88030 		strb	r3, [r0, #128]
 194:Drivers/STM32H7xx_HAL_Driver/Src/stm32h7xx_hal_uart_ex.c **** 
 275              		.loc 1 194 5 is_stmt 1 view .LVU77
 276 0070 FFF7FEFF 		bl	UART_InitCallbacksToDefault
 277              	.LVL17:
 196:Drivers/STM32H7xx_HAL_Driver/Src/stm32h7xx_hal_uart_ex.c ****     {
 278              		.loc 1 196 5 view .LVU78
 196:Drivers/STM32H7xx_HAL_Driver/Src/stm32h7xx_hal_uart_ex.c ****     {
 279              		.loc 1 196 14 is_stmt 0 view .LVU79
 280 0074 D4F8C030 		ldr	r3, [r4, #192]
 196:Drivers/STM32H7xx_HAL_Driver/Src/stm32h7xx_hal_uart_ex.c ****     {
 281              		.loc 1 196 8 view .LVU80
 282 0078 23B1     		cbz	r3, .L23
 283              	.L14:
 202:Drivers/STM32H7xx_HAL_Driver/Src/stm32h7xx_hal_uart_ex.c **** #else
 284              		.loc 1 202 5 is_stmt 1 view .LVU81
 202:Drivers/STM32H7xx_HAL_Driver/Src/stm32h7xx_hal_uart_ex.c **** #else
 285              		.loc 1 202 10 is_stmt 0 view .LVU82
 286 007a D4F8C030 		ldr	r3, [r4, #192]
 202:Drivers/STM32H7xx_HAL_Driver/Src/stm32h7xx_hal_uart_ex.c **** #else
 287              		.loc 1 202 5 view .LVU83
 288 007e 2046     		mov	r0, r4
 289 0080 9847     		blx	r3
 290              	.LVL18:
 291 0082 C7E7     		b	.L13
 292              	.L23:
 198:Drivers/STM32H7xx_HAL_Driver/Src/stm32h7xx_hal_uart_ex.c ****     }
 293              		.loc 1 198 7 is_stmt 1 view .LVU84
 198:Drivers/STM32H7xx_HAL_Driver/Src/stm32h7xx_hal_uart_ex.c ****     }
 294              		.loc 1 198 30 is_stmt 0 view .LVU85
 295 0084 054B     		ldr	r3, .L24+4
 296 0086 C4F8C030 		str	r3, [r4, #192]
 297 008a F6E7     		b	.L14
 298              	.L22:
 222:Drivers/STM32H7xx_HAL_Driver/Src/stm32h7xx_hal_uart_ex.c ****   }
 299              		.loc 1 222 5 is_stmt 1 view .LVU86
 300 008c 2046     		mov	r0, r4
 301 008e FFF7FEFF 		bl	UART_AdvFeatureConfig
 302              	.LVL19:
 303 0092 CEE7     		b	.L15
 304              	.LVL20:
 305              	.L16:
 306              	.LCFI5:
 307              		.cfi_def_cfa_offset 0
 308              		.cfi_restore 3
 309              		.cfi_restore 4
 310              		.cfi_restore 5
 311              		.cfi_restore 6
 312              		.cfi_restore 7
 313              		.cfi_restore 14
 174:Drivers/STM32H7xx_HAL_Driver/Src/stm32h7xx_hal_uart_ex.c ****   }
 314              		.loc 1 174 12 is_stmt 0 view .LVU87
 315 0094 0120     		movs	r0, #1
 316              	.LVL21:
 241:Drivers/STM32H7xx_HAL_Driver/Src/stm32h7xx_hal_uart_ex.c **** 
 317              		.loc 1 241 1 view .LVU88
ARM GAS  C:\Users\jisu8\AppData\Local\Temp\ccyzchVo.s 			page 25


 318 0096 7047     		bx	lr
 319              	.L25:
 320              		.align	2
 321              	.L24:
 322 0098 FFFF00FC 		.word	-67043329
 323 009c 00000000 		.word	HAL_UART_MspInit
 324              		.cfi_endproc
 325              	.LFE331:
 327              		.section	.text.HAL_UARTEx_WakeupCallback,"ax",%progbits
 328              		.align	1
 329              		.weak	HAL_UARTEx_WakeupCallback
 330              		.syntax unified
 331              		.thumb
 332              		.thumb_func
 334              	HAL_UARTEx_WakeupCallback:
 335              	.LVL22:
 336              	.LFB332:
 273:Drivers/STM32H7xx_HAL_Driver/Src/stm32h7xx_hal_uart_ex.c ****   /* Prevent unused argument(s) compilation warning */
 337              		.loc 1 273 1 is_stmt 1 view -0
 338              		.cfi_startproc
 339              		@ args = 0, pretend = 0, frame = 0
 340              		@ frame_needed = 0, uses_anonymous_args = 0
 341              		@ link register save eliminated.
 275:Drivers/STM32H7xx_HAL_Driver/Src/stm32h7xx_hal_uart_ex.c **** 
 342              		.loc 1 275 3 view .LVU90
 280:Drivers/STM32H7xx_HAL_Driver/Src/stm32h7xx_hal_uart_ex.c **** 
 343              		.loc 1 280 1 is_stmt 0 view .LVU91
 344 0000 7047     		bx	lr
 345              		.cfi_endproc
 346              	.LFE332:
 348              		.section	.text.HAL_UARTEx_RxFifoFullCallback,"ax",%progbits
 349              		.align	1
 350              		.weak	HAL_UARTEx_RxFifoFullCallback
 351              		.syntax unified
 352              		.thumb
 353              		.thumb_func
 355              	HAL_UARTEx_RxFifoFullCallback:
 356              	.LVL23:
 357              	.LFB333:
 288:Drivers/STM32H7xx_HAL_Driver/Src/stm32h7xx_hal_uart_ex.c ****   /* Prevent unused argument(s) compilation warning */
 358              		.loc 1 288 1 is_stmt 1 view -0
 359              		.cfi_startproc
 360              		@ args = 0, pretend = 0, frame = 0
 361              		@ frame_needed = 0, uses_anonymous_args = 0
 362              		@ link register save eliminated.
 290:Drivers/STM32H7xx_HAL_Driver/Src/stm32h7xx_hal_uart_ex.c **** 
 363              		.loc 1 290 3 view .LVU93
 295:Drivers/STM32H7xx_HAL_Driver/Src/stm32h7xx_hal_uart_ex.c **** 
 364              		.loc 1 295 1 is_stmt 0 view .LVU94
 365 0000 7047     		bx	lr
 366              		.cfi_endproc
 367              	.LFE333:
 369              		.section	.text.HAL_UARTEx_TxFifoEmptyCallback,"ax",%progbits
 370              		.align	1
 371              		.weak	HAL_UARTEx_TxFifoEmptyCallback
 372              		.syntax unified
 373              		.thumb
ARM GAS  C:\Users\jisu8\AppData\Local\Temp\ccyzchVo.s 			page 26


 374              		.thumb_func
 376              	HAL_UARTEx_TxFifoEmptyCallback:
 377              	.LVL24:
 378              	.LFB334:
 303:Drivers/STM32H7xx_HAL_Driver/Src/stm32h7xx_hal_uart_ex.c ****   /* Prevent unused argument(s) compilation warning */
 379              		.loc 1 303 1 is_stmt 1 view -0
 380              		.cfi_startproc
 381              		@ args = 0, pretend = 0, frame = 0
 382              		@ frame_needed = 0, uses_anonymous_args = 0
 383              		@ link register save eliminated.
 305:Drivers/STM32H7xx_HAL_Driver/Src/stm32h7xx_hal_uart_ex.c **** 
 384              		.loc 1 305 3 view .LVU96
 310:Drivers/STM32H7xx_HAL_Driver/Src/stm32h7xx_hal_uart_ex.c **** 
 385              		.loc 1 310 1 is_stmt 0 view .LVU97
 386 0000 7047     		bx	lr
 387              		.cfi_endproc
 388              	.LFE334:
 390              		.section	.text.HAL_MultiProcessorEx_AddressLength_Set,"ax",%progbits
 391              		.align	1
 392              		.global	HAL_MultiProcessorEx_AddressLength_Set
 393              		.syntax unified
 394              		.thumb
 395              		.thumb_func
 397              	HAL_MultiProcessorEx_AddressLength_Set:
 398              	.LVL25:
 399              	.LFB335:
 388:Drivers/STM32H7xx_HAL_Driver/Src/stm32h7xx_hal_uart_ex.c ****   /* Check the UART handle allocation */
 400              		.loc 1 388 1 is_stmt 1 view -0
 401              		.cfi_startproc
 402              		@ args = 0, pretend = 0, frame = 0
 403              		@ frame_needed = 0, uses_anonymous_args = 0
 390:Drivers/STM32H7xx_HAL_Driver/Src/stm32h7xx_hal_uart_ex.c ****   {
 404              		.loc 1 390 3 view .LVU99
 390:Drivers/STM32H7xx_HAL_Driver/Src/stm32h7xx_hal_uart_ex.c ****   {
 405              		.loc 1 390 6 is_stmt 0 view .LVU100
 406 0000 C0B1     		cbz	r0, .L31
 388:Drivers/STM32H7xx_HAL_Driver/Src/stm32h7xx_hal_uart_ex.c ****   /* Check the UART handle allocation */
 407              		.loc 1 388 1 view .LVU101
 408 0002 08B5     		push	{r3, lr}
 409              	.LCFI6:
 410              		.cfi_def_cfa_offset 8
 411              		.cfi_offset 3, -8
 412              		.cfi_offset 14, -4
 413 0004 0346     		mov	r3, r0
 396:Drivers/STM32H7xx_HAL_Driver/Src/stm32h7xx_hal_uart_ex.c **** 
 414              		.loc 1 396 3 is_stmt 1 view .LVU102
 398:Drivers/STM32H7xx_HAL_Driver/Src/stm32h7xx_hal_uart_ex.c **** 
 415              		.loc 1 398 3 view .LVU103
 398:Drivers/STM32H7xx_HAL_Driver/Src/stm32h7xx_hal_uart_ex.c **** 
 416              		.loc 1 398 17 is_stmt 0 view .LVU104
 417 0006 2422     		movs	r2, #36
 418 0008 C0F88420 		str	r2, [r0, #132]
 401:Drivers/STM32H7xx_HAL_Driver/Src/stm32h7xx_hal_uart_ex.c **** 
 419              		.loc 1 401 3 is_stmt 1 view .LVU105
 420 000c 0068     		ldr	r0, [r0]
 421              	.LVL26:
 401:Drivers/STM32H7xx_HAL_Driver/Src/stm32h7xx_hal_uart_ex.c **** 
ARM GAS  C:\Users\jisu8\AppData\Local\Temp\ccyzchVo.s 			page 27


 422              		.loc 1 401 3 is_stmt 0 view .LVU106
 423 000e 0268     		ldr	r2, [r0]
 424 0010 22F00102 		bic	r2, r2, #1
 425 0014 0260     		str	r2, [r0]
 404:Drivers/STM32H7xx_HAL_Driver/Src/stm32h7xx_hal_uart_ex.c **** 
 426              		.loc 1 404 3 is_stmt 1 view .LVU107
 427 0016 1868     		ldr	r0, [r3]
 428 0018 4268     		ldr	r2, [r0, #4]
 429 001a 22F01002 		bic	r2, r2, #16
 430 001e 1143     		orrs	r1, r1, r2
 431              	.LVL27:
 404:Drivers/STM32H7xx_HAL_Driver/Src/stm32h7xx_hal_uart_ex.c **** 
 432              		.loc 1 404 3 is_stmt 0 view .LVU108
 433 0020 4160     		str	r1, [r0, #4]
 407:Drivers/STM32H7xx_HAL_Driver/Src/stm32h7xx_hal_uart_ex.c **** 
 434              		.loc 1 407 3 is_stmt 1 view .LVU109
 435 0022 1968     		ldr	r1, [r3]
 436 0024 0A68     		ldr	r2, [r1]
 437 0026 42F00102 		orr	r2, r2, #1
 438 002a 0A60     		str	r2, [r1]
 410:Drivers/STM32H7xx_HAL_Driver/Src/stm32h7xx_hal_uart_ex.c **** }
 439              		.loc 1 410 3 view .LVU110
 410:Drivers/STM32H7xx_HAL_Driver/Src/stm32h7xx_hal_uart_ex.c **** }
 440              		.loc 1 410 11 is_stmt 0 view .LVU111
 441 002c 1846     		mov	r0, r3
 442 002e FFF7FEFF 		bl	UART_CheckIdleState
 443              	.LVL28:
 411:Drivers/STM32H7xx_HAL_Driver/Src/stm32h7xx_hal_uart_ex.c **** 
 444              		.loc 1 411 1 view .LVU112
 445 0032 08BD     		pop	{r3, pc}
 446              	.LVL29:
 447              	.L31:
 448              	.LCFI7:
 449              		.cfi_def_cfa_offset 0
 450              		.cfi_restore 3
 451              		.cfi_restore 14
 392:Drivers/STM32H7xx_HAL_Driver/Src/stm32h7xx_hal_uart_ex.c ****   }
 452              		.loc 1 392 12 view .LVU113
 453 0034 0120     		movs	r0, #1
 454              	.LVL30:
 411:Drivers/STM32H7xx_HAL_Driver/Src/stm32h7xx_hal_uart_ex.c **** 
 455              		.loc 1 411 1 view .LVU114
 456 0036 7047     		bx	lr
 457              		.cfi_endproc
 458              	.LFE335:
 460              		.section	.text.HAL_UARTEx_StopModeWakeUpSourceConfig,"ax",%progbits
 461              		.align	1
 462              		.global	HAL_UARTEx_StopModeWakeUpSourceConfig
 463              		.syntax unified
 464              		.thumb
 465              		.thumb_func
 467              	HAL_UARTEx_StopModeWakeUpSourceConfig:
 468              	.LVL31:
 469              	.LFB336:
 426:Drivers/STM32H7xx_HAL_Driver/Src/stm32h7xx_hal_uart_ex.c ****   HAL_StatusTypeDef status = HAL_OK;
 470              		.loc 1 426 1 is_stmt 1 view -0
 471              		.cfi_startproc
ARM GAS  C:\Users\jisu8\AppData\Local\Temp\ccyzchVo.s 			page 28


 472              		@ args = 0, pretend = 0, frame = 8
 473              		@ frame_needed = 0, uses_anonymous_args = 0
 426:Drivers/STM32H7xx_HAL_Driver/Src/stm32h7xx_hal_uart_ex.c ****   HAL_StatusTypeDef status = HAL_OK;
 474              		.loc 1 426 1 is_stmt 0 view .LVU116
 475 0000 10B5     		push	{r4, lr}
 476              	.LCFI8:
 477              		.cfi_def_cfa_offset 8
 478              		.cfi_offset 4, -8
 479              		.cfi_offset 14, -4
 480 0002 84B0     		sub	sp, sp, #16
 481              	.LCFI9:
 482              		.cfi_def_cfa_offset 24
 483 0004 04AB     		add	r3, sp, #16
 484 0006 03E90600 		stmdb	r3, {r1, r2}
 427:Drivers/STM32H7xx_HAL_Driver/Src/stm32h7xx_hal_uart_ex.c ****   uint32_t tickstart;
 485              		.loc 1 427 3 is_stmt 1 view .LVU117
 486              	.LVL32:
 428:Drivers/STM32H7xx_HAL_Driver/Src/stm32h7xx_hal_uart_ex.c **** 
 487              		.loc 1 428 3 view .LVU118
 431:Drivers/STM32H7xx_HAL_Driver/Src/stm32h7xx_hal_uart_ex.c ****   /* check the wake-up selection parameter */
 488              		.loc 1 431 3 view .LVU119
 433:Drivers/STM32H7xx_HAL_Driver/Src/stm32h7xx_hal_uart_ex.c **** 
 489              		.loc 1 433 3 view .LVU120
 436:Drivers/STM32H7xx_HAL_Driver/Src/stm32h7xx_hal_uart_ex.c **** 
 490              		.loc 1 436 3 view .LVU121
 436:Drivers/STM32H7xx_HAL_Driver/Src/stm32h7xx_hal_uart_ex.c **** 
 491              		.loc 1 436 3 view .LVU122
 492 000a 90F88030 		ldrb	r3, [r0, #128]	@ zero_extendqisi2
 493 000e 012B     		cmp	r3, #1
 494 0010 35D0     		beq	.L40
 495 0012 0446     		mov	r4, r0
 436:Drivers/STM32H7xx_HAL_Driver/Src/stm32h7xx_hal_uart_ex.c **** 
 496              		.loc 1 436 3 discriminator 2 view .LVU123
 497 0014 0123     		movs	r3, #1
 498 0016 80F88030 		strb	r3, [r0, #128]
 436:Drivers/STM32H7xx_HAL_Driver/Src/stm32h7xx_hal_uart_ex.c **** 
 499              		.loc 1 436 3 discriminator 2 view .LVU124
 438:Drivers/STM32H7xx_HAL_Driver/Src/stm32h7xx_hal_uart_ex.c **** 
 500              		.loc 1 438 3 discriminator 2 view .LVU125
 438:Drivers/STM32H7xx_HAL_Driver/Src/stm32h7xx_hal_uart_ex.c **** 
 501              		.loc 1 438 17 is_stmt 0 discriminator 2 view .LVU126
 502 001a 2423     		movs	r3, #36
 503 001c C0F88430 		str	r3, [r0, #132]
 441:Drivers/STM32H7xx_HAL_Driver/Src/stm32h7xx_hal_uart_ex.c **** 
 504              		.loc 1 441 3 is_stmt 1 discriminator 2 view .LVU127
 505 0020 0268     		ldr	r2, [r0]
 506 0022 1368     		ldr	r3, [r2]
 507 0024 23F00103 		bic	r3, r3, #1
 508 0028 1360     		str	r3, [r2]
 444:Drivers/STM32H7xx_HAL_Driver/Src/stm32h7xx_hal_uart_ex.c **** 
 509              		.loc 1 444 3 discriminator 2 view .LVU128
 510 002a 0168     		ldr	r1, [r0]
 511 002c 8B68     		ldr	r3, [r1, #8]
 512 002e 23F44013 		bic	r3, r3, #3145728
 513 0032 029A     		ldr	r2, [sp, #8]
 514 0034 1343     		orrs	r3, r3, r2
 515 0036 8B60     		str	r3, [r1, #8]
ARM GAS  C:\Users\jisu8\AppData\Local\Temp\ccyzchVo.s 			page 29


 446:Drivers/STM32H7xx_HAL_Driver/Src/stm32h7xx_hal_uart_ex.c ****   {
 516              		.loc 1 446 3 discriminator 2 view .LVU129
 446:Drivers/STM32H7xx_HAL_Driver/Src/stm32h7xx_hal_uart_ex.c ****   {
 517              		.loc 1 446 6 is_stmt 0 discriminator 2 view .LVU130
 518 0038 AAB1     		cbz	r2, .L43
 519              	.LVL33:
 520              	.L38:
 452:Drivers/STM32H7xx_HAL_Driver/Src/stm32h7xx_hal_uart_ex.c **** 
 521              		.loc 1 452 3 is_stmt 1 view .LVU131
 522 003a 2268     		ldr	r2, [r4]
 523 003c 1368     		ldr	r3, [r2]
 524 003e 43F00103 		orr	r3, r3, #1
 525 0042 1360     		str	r3, [r2]
 455:Drivers/STM32H7xx_HAL_Driver/Src/stm32h7xx_hal_uart_ex.c **** 
 526              		.loc 1 455 3 view .LVU132
 455:Drivers/STM32H7xx_HAL_Driver/Src/stm32h7xx_hal_uart_ex.c **** 
 527              		.loc 1 455 15 is_stmt 0 view .LVU133
 528 0044 FFF7FEFF 		bl	HAL_GetTick
 529              	.LVL34:
 530 0048 0346     		mov	r3, r0
 531              	.LVL35:
 458:Drivers/STM32H7xx_HAL_Driver/Src/stm32h7xx_hal_uart_ex.c ****   {
 532              		.loc 1 458 3 is_stmt 1 view .LVU134
 458:Drivers/STM32H7xx_HAL_Driver/Src/stm32h7xx_hal_uart_ex.c ****   {
 533              		.loc 1 458 7 is_stmt 0 view .LVU135
 534 004a 6FF07E42 		mvn	r2, #-33554432
 535 004e 0092     		str	r2, [sp]
 536 0050 0022     		movs	r2, #0
 537 0052 4FF48001 		mov	r1, #4194304
 538 0056 2046     		mov	r0, r4
 539              	.LVL36:
 458:Drivers/STM32H7xx_HAL_Driver/Src/stm32h7xx_hal_uart_ex.c ****   {
 540              		.loc 1 458 7 view .LVU136
 541 0058 FFF7FEFF 		bl	UART_WaitOnFlagUntilTimeout
 542              	.LVL37:
 458:Drivers/STM32H7xx_HAL_Driver/Src/stm32h7xx_hal_uart_ex.c ****   {
 543              		.loc 1 458 6 view .LVU137
 544 005c 48B9     		cbnz	r0, .L41
 465:Drivers/STM32H7xx_HAL_Driver/Src/stm32h7xx_hal_uart_ex.c ****   }
 545              		.loc 1 465 5 is_stmt 1 view .LVU138
 465:Drivers/STM32H7xx_HAL_Driver/Src/stm32h7xx_hal_uart_ex.c ****   }
 546              		.loc 1 465 19 is_stmt 0 view .LVU139
 547 005e 2023     		movs	r3, #32
 548 0060 C4F88430 		str	r3, [r4, #132]
 549 0064 06E0     		b	.L39
 550              	.LVL38:
 551              	.L43:
 448:Drivers/STM32H7xx_HAL_Driver/Src/stm32h7xx_hal_uart_ex.c ****   }
 552              		.loc 1 448 5 is_stmt 1 view .LVU140
 553 0066 04AB     		add	r3, sp, #16
 554 0068 13E90600 		ldmdb	r3, {r1, r2}
 555 006c FFF7FEFF 		bl	UARTEx_Wakeup_AddressConfig
 556              	.LVL39:
 448:Drivers/STM32H7xx_HAL_Driver/Src/stm32h7xx_hal_uart_ex.c ****   }
 557              		.loc 1 448 5 is_stmt 0 view .LVU141
 558 0070 E3E7     		b	.L38
 559              	.L41:
ARM GAS  C:\Users\jisu8\AppData\Local\Temp\ccyzchVo.s 			page 30


 460:Drivers/STM32H7xx_HAL_Driver/Src/stm32h7xx_hal_uart_ex.c ****   }
 560              		.loc 1 460 12 view .LVU142
 561 0072 0320     		movs	r0, #3
 562              	.L39:
 563              	.LVL40:
 469:Drivers/STM32H7xx_HAL_Driver/Src/stm32h7xx_hal_uart_ex.c **** 
 564              		.loc 1 469 3 is_stmt 1 view .LVU143
 469:Drivers/STM32H7xx_HAL_Driver/Src/stm32h7xx_hal_uart_ex.c **** 
 565              		.loc 1 469 3 view .LVU144
 566 0074 0023     		movs	r3, #0
 567 0076 84F88030 		strb	r3, [r4, #128]
 469:Drivers/STM32H7xx_HAL_Driver/Src/stm32h7xx_hal_uart_ex.c **** 
 568              		.loc 1 469 3 view .LVU145
 471:Drivers/STM32H7xx_HAL_Driver/Src/stm32h7xx_hal_uart_ex.c **** }
 569              		.loc 1 471 3 view .LVU146
 570              	.LVL41:
 571              	.L37:
 472:Drivers/STM32H7xx_HAL_Driver/Src/stm32h7xx_hal_uart_ex.c **** 
 572              		.loc 1 472 1 is_stmt 0 view .LVU147
 573 007a 04B0     		add	sp, sp, #16
 574              	.LCFI10:
 575              		.cfi_remember_state
 576              		.cfi_def_cfa_offset 8
 577              		@ sp needed
 578 007c 10BD     		pop	{r4, pc}
 579              	.LVL42:
 580              	.L40:
 581              	.LCFI11:
 582              		.cfi_restore_state
 436:Drivers/STM32H7xx_HAL_Driver/Src/stm32h7xx_hal_uart_ex.c **** 
 583              		.loc 1 436 3 view .LVU148
 584 007e 0220     		movs	r0, #2
 585              	.LVL43:
 436:Drivers/STM32H7xx_HAL_Driver/Src/stm32h7xx_hal_uart_ex.c **** 
 586              		.loc 1 436 3 view .LVU149
 587 0080 FBE7     		b	.L37
 588              		.cfi_endproc
 589              	.LFE336:
 591              		.section	.text.HAL_UARTEx_EnableStopMode,"ax",%progbits
 592              		.align	1
 593              		.global	HAL_UARTEx_EnableStopMode
 594              		.syntax unified
 595              		.thumb
 596              		.thumb_func
 598              	HAL_UARTEx_EnableStopMode:
 599              	.LVL44:
 600              	.LFB337:
 481:Drivers/STM32H7xx_HAL_Driver/Src/stm32h7xx_hal_uart_ex.c ****   /* Process Locked */
 601              		.loc 1 481 1 is_stmt 1 view -0
 602              		.cfi_startproc
 603              		@ args = 0, pretend = 0, frame = 0
 604              		@ frame_needed = 0, uses_anonymous_args = 0
 605              		@ link register save eliminated.
 483:Drivers/STM32H7xx_HAL_Driver/Src/stm32h7xx_hal_uart_ex.c **** 
 606              		.loc 1 483 3 view .LVU151
 483:Drivers/STM32H7xx_HAL_Driver/Src/stm32h7xx_hal_uart_ex.c **** 
 607              		.loc 1 483 3 view .LVU152
ARM GAS  C:\Users\jisu8\AppData\Local\Temp\ccyzchVo.s 			page 31


 608 0000 90F88030 		ldrb	r3, [r0, #128]	@ zero_extendqisi2
 609 0004 012B     		cmp	r3, #1
 610 0006 0CD0     		beq	.L46
 483:Drivers/STM32H7xx_HAL_Driver/Src/stm32h7xx_hal_uart_ex.c **** 
 611              		.loc 1 483 3 discriminator 2 view .LVU153
 612 0008 0123     		movs	r3, #1
 613 000a 80F88030 		strb	r3, [r0, #128]
 483:Drivers/STM32H7xx_HAL_Driver/Src/stm32h7xx_hal_uart_ex.c **** 
 614              		.loc 1 483 3 discriminator 2 view .LVU154
 486:Drivers/STM32H7xx_HAL_Driver/Src/stm32h7xx_hal_uart_ex.c **** 
 615              		.loc 1 486 3 discriminator 2 view .LVU155
 616 000e 0268     		ldr	r2, [r0]
 617 0010 1368     		ldr	r3, [r2]
 618 0012 43F00203 		orr	r3, r3, #2
 619 0016 1360     		str	r3, [r2]
 489:Drivers/STM32H7xx_HAL_Driver/Src/stm32h7xx_hal_uart_ex.c **** 
 620              		.loc 1 489 3 discriminator 2 view .LVU156
 489:Drivers/STM32H7xx_HAL_Driver/Src/stm32h7xx_hal_uart_ex.c **** 
 621              		.loc 1 489 3 discriminator 2 view .LVU157
 622 0018 0023     		movs	r3, #0
 623 001a 80F88030 		strb	r3, [r0, #128]
 489:Drivers/STM32H7xx_HAL_Driver/Src/stm32h7xx_hal_uart_ex.c **** 
 624              		.loc 1 489 3 discriminator 2 view .LVU158
 491:Drivers/STM32H7xx_HAL_Driver/Src/stm32h7xx_hal_uart_ex.c **** }
 625              		.loc 1 491 3 discriminator 2 view .LVU159
 491:Drivers/STM32H7xx_HAL_Driver/Src/stm32h7xx_hal_uart_ex.c **** }
 626              		.loc 1 491 10 is_stmt 0 discriminator 2 view .LVU160
 627 001e 1846     		mov	r0, r3
 628              	.LVL45:
 491:Drivers/STM32H7xx_HAL_Driver/Src/stm32h7xx_hal_uart_ex.c **** }
 629              		.loc 1 491 10 discriminator 2 view .LVU161
 630 0020 7047     		bx	lr
 631              	.LVL46:
 632              	.L46:
 483:Drivers/STM32H7xx_HAL_Driver/Src/stm32h7xx_hal_uart_ex.c **** 
 633              		.loc 1 483 3 view .LVU162
 634 0022 0220     		movs	r0, #2
 635              	.LVL47:
 492:Drivers/STM32H7xx_HAL_Driver/Src/stm32h7xx_hal_uart_ex.c **** 
 636              		.loc 1 492 1 view .LVU163
 637 0024 7047     		bx	lr
 638              		.cfi_endproc
 639              	.LFE337:
 641              		.section	.text.HAL_UARTEx_DisableStopMode,"ax",%progbits
 642              		.align	1
 643              		.global	HAL_UARTEx_DisableStopMode
 644              		.syntax unified
 645              		.thumb
 646              		.thumb_func
 648              	HAL_UARTEx_DisableStopMode:
 649              	.LVL48:
 650              	.LFB338:
 500:Drivers/STM32H7xx_HAL_Driver/Src/stm32h7xx_hal_uart_ex.c ****   /* Process Locked */
 651              		.loc 1 500 1 is_stmt 1 view -0
 652              		.cfi_startproc
 653              		@ args = 0, pretend = 0, frame = 0
 654              		@ frame_needed = 0, uses_anonymous_args = 0
ARM GAS  C:\Users\jisu8\AppData\Local\Temp\ccyzchVo.s 			page 32


 655              		@ link register save eliminated.
 502:Drivers/STM32H7xx_HAL_Driver/Src/stm32h7xx_hal_uart_ex.c **** 
 656              		.loc 1 502 3 view .LVU165
 502:Drivers/STM32H7xx_HAL_Driver/Src/stm32h7xx_hal_uart_ex.c **** 
 657              		.loc 1 502 3 view .LVU166
 658 0000 90F88030 		ldrb	r3, [r0, #128]	@ zero_extendqisi2
 659 0004 012B     		cmp	r3, #1
 660 0006 0CD0     		beq	.L49
 502:Drivers/STM32H7xx_HAL_Driver/Src/stm32h7xx_hal_uart_ex.c **** 
 661              		.loc 1 502 3 discriminator 2 view .LVU167
 662 0008 0123     		movs	r3, #1
 663 000a 80F88030 		strb	r3, [r0, #128]
 502:Drivers/STM32H7xx_HAL_Driver/Src/stm32h7xx_hal_uart_ex.c **** 
 664              		.loc 1 502 3 discriminator 2 view .LVU168
 505:Drivers/STM32H7xx_HAL_Driver/Src/stm32h7xx_hal_uart_ex.c **** 
 665              		.loc 1 505 3 discriminator 2 view .LVU169
 666 000e 0268     		ldr	r2, [r0]
 667 0010 1368     		ldr	r3, [r2]
 668 0012 23F00203 		bic	r3, r3, #2
 669 0016 1360     		str	r3, [r2]
 508:Drivers/STM32H7xx_HAL_Driver/Src/stm32h7xx_hal_uart_ex.c **** 
 670              		.loc 1 508 3 discriminator 2 view .LVU170
 508:Drivers/STM32H7xx_HAL_Driver/Src/stm32h7xx_hal_uart_ex.c **** 
 671              		.loc 1 508 3 discriminator 2 view .LVU171
 672 0018 0023     		movs	r3, #0
 673 001a 80F88030 		strb	r3, [r0, #128]
 508:Drivers/STM32H7xx_HAL_Driver/Src/stm32h7xx_hal_uart_ex.c **** 
 674              		.loc 1 508 3 discriminator 2 view .LVU172
 510:Drivers/STM32H7xx_HAL_Driver/Src/stm32h7xx_hal_uart_ex.c **** }
 675              		.loc 1 510 3 discriminator 2 view .LVU173
 510:Drivers/STM32H7xx_HAL_Driver/Src/stm32h7xx_hal_uart_ex.c **** }
 676              		.loc 1 510 10 is_stmt 0 discriminator 2 view .LVU174
 677 001e 1846     		mov	r0, r3
 678              	.LVL49:
 510:Drivers/STM32H7xx_HAL_Driver/Src/stm32h7xx_hal_uart_ex.c **** }
 679              		.loc 1 510 10 discriminator 2 view .LVU175
 680 0020 7047     		bx	lr
 681              	.LVL50:
 682              	.L49:
 502:Drivers/STM32H7xx_HAL_Driver/Src/stm32h7xx_hal_uart_ex.c **** 
 683              		.loc 1 502 3 view .LVU176
 684 0022 0220     		movs	r0, #2
 685              	.LVL51:
 511:Drivers/STM32H7xx_HAL_Driver/Src/stm32h7xx_hal_uart_ex.c **** 
 686              		.loc 1 511 1 view .LVU177
 687 0024 7047     		bx	lr
 688              		.cfi_endproc
 689              	.LFE338:
 691              		.section	.text.HAL_UARTEx_EnableFifoMode,"ax",%progbits
 692              		.align	1
 693              		.global	HAL_UARTEx_EnableFifoMode
 694              		.syntax unified
 695              		.thumb
 696              		.thumb_func
 698              	HAL_UARTEx_EnableFifoMode:
 699              	.LVL52:
 700              	.LFB339:
ARM GAS  C:\Users\jisu8\AppData\Local\Temp\ccyzchVo.s 			page 33


 519:Drivers/STM32H7xx_HAL_Driver/Src/stm32h7xx_hal_uart_ex.c ****   uint32_t tmpcr1;
 701              		.loc 1 519 1 is_stmt 1 view -0
 702              		.cfi_startproc
 703              		@ args = 0, pretend = 0, frame = 0
 704              		@ frame_needed = 0, uses_anonymous_args = 0
 520:Drivers/STM32H7xx_HAL_Driver/Src/stm32h7xx_hal_uart_ex.c **** 
 705              		.loc 1 520 3 view .LVU179
 523:Drivers/STM32H7xx_HAL_Driver/Src/stm32h7xx_hal_uart_ex.c **** 
 706              		.loc 1 523 3 view .LVU180
 526:Drivers/STM32H7xx_HAL_Driver/Src/stm32h7xx_hal_uart_ex.c **** 
 707              		.loc 1 526 3 view .LVU181
 526:Drivers/STM32H7xx_HAL_Driver/Src/stm32h7xx_hal_uart_ex.c **** 
 708              		.loc 1 526 3 view .LVU182
 709 0000 90F88030 		ldrb	r3, [r0, #128]	@ zero_extendqisi2
 710 0004 012B     		cmp	r3, #1
 711 0006 1DD0     		beq	.L52
 519:Drivers/STM32H7xx_HAL_Driver/Src/stm32h7xx_hal_uart_ex.c ****   uint32_t tmpcr1;
 712              		.loc 1 519 1 is_stmt 0 discriminator 2 view .LVU183
 713 0008 10B5     		push	{r4, lr}
 714              	.LCFI12:
 715              		.cfi_def_cfa_offset 8
 716              		.cfi_offset 4, -8
 717              		.cfi_offset 14, -4
 718 000a 0446     		mov	r4, r0
 526:Drivers/STM32H7xx_HAL_Driver/Src/stm32h7xx_hal_uart_ex.c **** 
 719              		.loc 1 526 3 is_stmt 1 discriminator 2 view .LVU184
 720 000c 0123     		movs	r3, #1
 721 000e 80F88030 		strb	r3, [r0, #128]
 526:Drivers/STM32H7xx_HAL_Driver/Src/stm32h7xx_hal_uart_ex.c **** 
 722              		.loc 1 526 3 discriminator 2 view .LVU185
 528:Drivers/STM32H7xx_HAL_Driver/Src/stm32h7xx_hal_uart_ex.c **** 
 723              		.loc 1 528 3 discriminator 2 view .LVU186
 528:Drivers/STM32H7xx_HAL_Driver/Src/stm32h7xx_hal_uart_ex.c **** 
 724              		.loc 1 528 17 is_stmt 0 discriminator 2 view .LVU187
 725 0012 2423     		movs	r3, #36
 726 0014 C0F88430 		str	r3, [r0, #132]
 531:Drivers/STM32H7xx_HAL_Driver/Src/stm32h7xx_hal_uart_ex.c **** 
 727              		.loc 1 531 3 is_stmt 1 discriminator 2 view .LVU188
 531:Drivers/STM32H7xx_HAL_Driver/Src/stm32h7xx_hal_uart_ex.c **** 
 728              		.loc 1 531 12 is_stmt 0 discriminator 2 view .LVU189
 729 0018 0268     		ldr	r2, [r0]
 531:Drivers/STM32H7xx_HAL_Driver/Src/stm32h7xx_hal_uart_ex.c **** 
 730              		.loc 1 531 10 discriminator 2 view .LVU190
 731 001a 1368     		ldr	r3, [r2]
 732              	.LVL53:
 534:Drivers/STM32H7xx_HAL_Driver/Src/stm32h7xx_hal_uart_ex.c **** 
 733              		.loc 1 534 3 is_stmt 1 discriminator 2 view .LVU191
 734 001c 1168     		ldr	r1, [r2]
 735 001e 21F00101 		bic	r1, r1, #1
 736 0022 1160     		str	r1, [r2]
 537:Drivers/STM32H7xx_HAL_Driver/Src/stm32h7xx_hal_uart_ex.c ****   huart->FifoMode = UART_FIFOMODE_ENABLE;
 737              		.loc 1 537 3 discriminator 2 view .LVU192
 738 0024 43F00053 		orr	r3, r3, #536870912
 739              	.LVL54:
 538:Drivers/STM32H7xx_HAL_Driver/Src/stm32h7xx_hal_uart_ex.c **** 
 740              		.loc 1 538 3 discriminator 2 view .LVU193
 538:Drivers/STM32H7xx_HAL_Driver/Src/stm32h7xx_hal_uart_ex.c **** 
ARM GAS  C:\Users\jisu8\AppData\Local\Temp\ccyzchVo.s 			page 34


 741              		.loc 1 538 19 is_stmt 0 discriminator 2 view .LVU194
 742 0028 4FF00052 		mov	r2, #536870912
 743 002c 4266     		str	r2, [r0, #100]
 541:Drivers/STM32H7xx_HAL_Driver/Src/stm32h7xx_hal_uart_ex.c **** 
 744              		.loc 1 541 3 is_stmt 1 discriminator 2 view .LVU195
 745 002e 0268     		ldr	r2, [r0]
 746 0030 1360     		str	r3, [r2]
 544:Drivers/STM32H7xx_HAL_Driver/Src/stm32h7xx_hal_uart_ex.c **** 
 747              		.loc 1 544 3 discriminator 2 view .LVU196
 748 0032 FFF7FEFF 		bl	UARTEx_SetNbDataToProcess
 749              	.LVL55:
 546:Drivers/STM32H7xx_HAL_Driver/Src/stm32h7xx_hal_uart_ex.c **** 
 750              		.loc 1 546 3 discriminator 2 view .LVU197
 546:Drivers/STM32H7xx_HAL_Driver/Src/stm32h7xx_hal_uart_ex.c **** 
 751              		.loc 1 546 17 is_stmt 0 discriminator 2 view .LVU198
 752 0036 2023     		movs	r3, #32
 753 0038 C4F88430 		str	r3, [r4, #132]
 549:Drivers/STM32H7xx_HAL_Driver/Src/stm32h7xx_hal_uart_ex.c **** 
 754              		.loc 1 549 3 is_stmt 1 discriminator 2 view .LVU199
 549:Drivers/STM32H7xx_HAL_Driver/Src/stm32h7xx_hal_uart_ex.c **** 
 755              		.loc 1 549 3 discriminator 2 view .LVU200
 756 003c 0020     		movs	r0, #0
 757 003e 84F88000 		strb	r0, [r4, #128]
 549:Drivers/STM32H7xx_HAL_Driver/Src/stm32h7xx_hal_uart_ex.c **** 
 758              		.loc 1 549 3 discriminator 2 view .LVU201
 551:Drivers/STM32H7xx_HAL_Driver/Src/stm32h7xx_hal_uart_ex.c **** }
 759              		.loc 1 551 3 discriminator 2 view .LVU202
 552:Drivers/STM32H7xx_HAL_Driver/Src/stm32h7xx_hal_uart_ex.c **** 
 760              		.loc 1 552 1 is_stmt 0 discriminator 2 view .LVU203
 761 0042 10BD     		pop	{r4, pc}
 762              	.LVL56:
 763              	.L52:
 764              	.LCFI13:
 765              		.cfi_def_cfa_offset 0
 766              		.cfi_restore 4
 767              		.cfi_restore 14
 526:Drivers/STM32H7xx_HAL_Driver/Src/stm32h7xx_hal_uart_ex.c **** 
 768              		.loc 1 526 3 view .LVU204
 769 0044 0220     		movs	r0, #2
 770              	.LVL57:
 552:Drivers/STM32H7xx_HAL_Driver/Src/stm32h7xx_hal_uart_ex.c **** 
 771              		.loc 1 552 1 view .LVU205
 772 0046 7047     		bx	lr
 773              		.cfi_endproc
 774              	.LFE339:
 776              		.section	.text.HAL_UARTEx_DisableFifoMode,"ax",%progbits
 777              		.align	1
 778              		.global	HAL_UARTEx_DisableFifoMode
 779              		.syntax unified
 780              		.thumb
 781              		.thumb_func
 783              	HAL_UARTEx_DisableFifoMode:
 784              	.LVL58:
 785              	.LFB340:
 560:Drivers/STM32H7xx_HAL_Driver/Src/stm32h7xx_hal_uart_ex.c ****   uint32_t tmpcr1;
 786              		.loc 1 560 1 is_stmt 1 view -0
 787              		.cfi_startproc
ARM GAS  C:\Users\jisu8\AppData\Local\Temp\ccyzchVo.s 			page 35


 788              		@ args = 0, pretend = 0, frame = 0
 789              		@ frame_needed = 0, uses_anonymous_args = 0
 790              		@ link register save eliminated.
 561:Drivers/STM32H7xx_HAL_Driver/Src/stm32h7xx_hal_uart_ex.c **** 
 791              		.loc 1 561 3 view .LVU207
 564:Drivers/STM32H7xx_HAL_Driver/Src/stm32h7xx_hal_uart_ex.c **** 
 792              		.loc 1 564 3 view .LVU208
 567:Drivers/STM32H7xx_HAL_Driver/Src/stm32h7xx_hal_uart_ex.c **** 
 793              		.loc 1 567 3 view .LVU209
 567:Drivers/STM32H7xx_HAL_Driver/Src/stm32h7xx_hal_uart_ex.c **** 
 794              		.loc 1 567 3 view .LVU210
 795 0000 90F88030 		ldrb	r3, [r0, #128]	@ zero_extendqisi2
 796 0004 012B     		cmp	r3, #1
 797 0006 18D0     		beq	.L59
 567:Drivers/STM32H7xx_HAL_Driver/Src/stm32h7xx_hal_uart_ex.c **** 
 798              		.loc 1 567 3 discriminator 2 view .LVU211
 799 0008 0123     		movs	r3, #1
 800 000a 80F88030 		strb	r3, [r0, #128]
 567:Drivers/STM32H7xx_HAL_Driver/Src/stm32h7xx_hal_uart_ex.c **** 
 801              		.loc 1 567 3 discriminator 2 view .LVU212
 569:Drivers/STM32H7xx_HAL_Driver/Src/stm32h7xx_hal_uart_ex.c **** 
 802              		.loc 1 569 3 discriminator 2 view .LVU213
 569:Drivers/STM32H7xx_HAL_Driver/Src/stm32h7xx_hal_uart_ex.c **** 
 803              		.loc 1 569 17 is_stmt 0 discriminator 2 view .LVU214
 804 000e 2423     		movs	r3, #36
 805 0010 C0F88430 		str	r3, [r0, #132]
 572:Drivers/STM32H7xx_HAL_Driver/Src/stm32h7xx_hal_uart_ex.c **** 
 806              		.loc 1 572 3 is_stmt 1 discriminator 2 view .LVU215
 572:Drivers/STM32H7xx_HAL_Driver/Src/stm32h7xx_hal_uart_ex.c **** 
 807              		.loc 1 572 12 is_stmt 0 discriminator 2 view .LVU216
 808 0014 0368     		ldr	r3, [r0]
 572:Drivers/STM32H7xx_HAL_Driver/Src/stm32h7xx_hal_uart_ex.c **** 
 809              		.loc 1 572 10 discriminator 2 view .LVU217
 810 0016 1A68     		ldr	r2, [r3]
 811              	.LVL59:
 575:Drivers/STM32H7xx_HAL_Driver/Src/stm32h7xx_hal_uart_ex.c **** 
 812              		.loc 1 575 3 is_stmt 1 discriminator 2 view .LVU218
 813 0018 1968     		ldr	r1, [r3]
 814 001a 21F00101 		bic	r1, r1, #1
 815 001e 1960     		str	r1, [r3]
 578:Drivers/STM32H7xx_HAL_Driver/Src/stm32h7xx_hal_uart_ex.c ****   huart->FifoMode = UART_FIFOMODE_DISABLE;
 816              		.loc 1 578 3 discriminator 2 view .LVU219
 817 0020 22F00052 		bic	r2, r2, #536870912
 818              	.LVL60:
 579:Drivers/STM32H7xx_HAL_Driver/Src/stm32h7xx_hal_uart_ex.c **** 
 819              		.loc 1 579 3 discriminator 2 view .LVU220
 579:Drivers/STM32H7xx_HAL_Driver/Src/stm32h7xx_hal_uart_ex.c **** 
 820              		.loc 1 579 19 is_stmt 0 discriminator 2 view .LVU221
 821 0024 0023     		movs	r3, #0
 822 0026 4366     		str	r3, [r0, #100]
 582:Drivers/STM32H7xx_HAL_Driver/Src/stm32h7xx_hal_uart_ex.c **** 
 823              		.loc 1 582 3 is_stmt 1 discriminator 2 view .LVU222
 824 0028 0168     		ldr	r1, [r0]
 825 002a 0A60     		str	r2, [r1]
 584:Drivers/STM32H7xx_HAL_Driver/Src/stm32h7xx_hal_uart_ex.c **** 
 826              		.loc 1 584 3 discriminator 2 view .LVU223
 584:Drivers/STM32H7xx_HAL_Driver/Src/stm32h7xx_hal_uart_ex.c **** 
ARM GAS  C:\Users\jisu8\AppData\Local\Temp\ccyzchVo.s 			page 36


 827              		.loc 1 584 17 is_stmt 0 discriminator 2 view .LVU224
 828 002c 2022     		movs	r2, #32
 829              	.LVL61:
 584:Drivers/STM32H7xx_HAL_Driver/Src/stm32h7xx_hal_uart_ex.c **** 
 830              		.loc 1 584 17 discriminator 2 view .LVU225
 831 002e C0F88420 		str	r2, [r0, #132]
 832              	.LVL62:
 587:Drivers/STM32H7xx_HAL_Driver/Src/stm32h7xx_hal_uart_ex.c **** 
 833              		.loc 1 587 3 is_stmt 1 discriminator 2 view .LVU226
 587:Drivers/STM32H7xx_HAL_Driver/Src/stm32h7xx_hal_uart_ex.c **** 
 834              		.loc 1 587 3 discriminator 2 view .LVU227
 835 0032 80F88030 		strb	r3, [r0, #128]
 587:Drivers/STM32H7xx_HAL_Driver/Src/stm32h7xx_hal_uart_ex.c **** 
 836              		.loc 1 587 3 discriminator 2 view .LVU228
 589:Drivers/STM32H7xx_HAL_Driver/Src/stm32h7xx_hal_uart_ex.c **** }
 837              		.loc 1 589 3 discriminator 2 view .LVU229
 589:Drivers/STM32H7xx_HAL_Driver/Src/stm32h7xx_hal_uart_ex.c **** }
 838              		.loc 1 589 10 is_stmt 0 discriminator 2 view .LVU230
 839 0036 1846     		mov	r0, r3
 840              	.LVL63:
 589:Drivers/STM32H7xx_HAL_Driver/Src/stm32h7xx_hal_uart_ex.c **** }
 841              		.loc 1 589 10 discriminator 2 view .LVU231
 842 0038 7047     		bx	lr
 843              	.LVL64:
 844              	.L59:
 567:Drivers/STM32H7xx_HAL_Driver/Src/stm32h7xx_hal_uart_ex.c **** 
 845              		.loc 1 567 3 view .LVU232
 846 003a 0220     		movs	r0, #2
 847              	.LVL65:
 590:Drivers/STM32H7xx_HAL_Driver/Src/stm32h7xx_hal_uart_ex.c **** 
 848              		.loc 1 590 1 view .LVU233
 849 003c 7047     		bx	lr
 850              		.cfi_endproc
 851              	.LFE340:
 853              		.section	.text.HAL_UARTEx_SetTxFifoThreshold,"ax",%progbits
 854              		.align	1
 855              		.global	HAL_UARTEx_SetTxFifoThreshold
 856              		.syntax unified
 857              		.thumb
 858              		.thumb_func
 860              	HAL_UARTEx_SetTxFifoThreshold:
 861              	.LVL66:
 862              	.LFB341:
 606:Drivers/STM32H7xx_HAL_Driver/Src/stm32h7xx_hal_uart_ex.c ****   uint32_t tmpcr1;
 863              		.loc 1 606 1 is_stmt 1 view -0
 864              		.cfi_startproc
 865              		@ args = 0, pretend = 0, frame = 0
 866              		@ frame_needed = 0, uses_anonymous_args = 0
 606:Drivers/STM32H7xx_HAL_Driver/Src/stm32h7xx_hal_uart_ex.c ****   uint32_t tmpcr1;
 867              		.loc 1 606 1 is_stmt 0 view .LVU235
 868 0000 38B5     		push	{r3, r4, r5, lr}
 869              	.LCFI14:
 870              		.cfi_def_cfa_offset 16
 871              		.cfi_offset 3, -16
 872              		.cfi_offset 4, -12
 873              		.cfi_offset 5, -8
 874              		.cfi_offset 14, -4
ARM GAS  C:\Users\jisu8\AppData\Local\Temp\ccyzchVo.s 			page 37


 607:Drivers/STM32H7xx_HAL_Driver/Src/stm32h7xx_hal_uart_ex.c **** 
 875              		.loc 1 607 3 is_stmt 1 view .LVU236
 610:Drivers/STM32H7xx_HAL_Driver/Src/stm32h7xx_hal_uart_ex.c ****   assert_param(IS_UART_TXFIFO_THRESHOLD(Threshold));
 876              		.loc 1 610 3 view .LVU237
 611:Drivers/STM32H7xx_HAL_Driver/Src/stm32h7xx_hal_uart_ex.c **** 
 877              		.loc 1 611 3 view .LVU238
 614:Drivers/STM32H7xx_HAL_Driver/Src/stm32h7xx_hal_uart_ex.c **** 
 878              		.loc 1 614 3 view .LVU239
 614:Drivers/STM32H7xx_HAL_Driver/Src/stm32h7xx_hal_uart_ex.c **** 
 879              		.loc 1 614 3 view .LVU240
 880 0002 90F88030 		ldrb	r3, [r0, #128]	@ zero_extendqisi2
 881 0006 012B     		cmp	r3, #1
 882 0008 1DD0     		beq	.L62
 883 000a 0446     		mov	r4, r0
 614:Drivers/STM32H7xx_HAL_Driver/Src/stm32h7xx_hal_uart_ex.c **** 
 884              		.loc 1 614 3 discriminator 2 view .LVU241
 885 000c 0123     		movs	r3, #1
 886 000e 80F88030 		strb	r3, [r0, #128]
 614:Drivers/STM32H7xx_HAL_Driver/Src/stm32h7xx_hal_uart_ex.c **** 
 887              		.loc 1 614 3 discriminator 2 view .LVU242
 616:Drivers/STM32H7xx_HAL_Driver/Src/stm32h7xx_hal_uart_ex.c **** 
 888              		.loc 1 616 3 discriminator 2 view .LVU243
 616:Drivers/STM32H7xx_HAL_Driver/Src/stm32h7xx_hal_uart_ex.c **** 
 889              		.loc 1 616 17 is_stmt 0 discriminator 2 view .LVU244
 890 0012 2423     		movs	r3, #36
 891 0014 C0F88430 		str	r3, [r0, #132]
 619:Drivers/STM32H7xx_HAL_Driver/Src/stm32h7xx_hal_uart_ex.c **** 
 892              		.loc 1 619 3 is_stmt 1 discriminator 2 view .LVU245
 619:Drivers/STM32H7xx_HAL_Driver/Src/stm32h7xx_hal_uart_ex.c **** 
 893              		.loc 1 619 12 is_stmt 0 discriminator 2 view .LVU246
 894 0018 0368     		ldr	r3, [r0]
 619:Drivers/STM32H7xx_HAL_Driver/Src/stm32h7xx_hal_uart_ex.c **** 
 895              		.loc 1 619 10 discriminator 2 view .LVU247
 896 001a 1D68     		ldr	r5, [r3]
 897              	.LVL67:
 622:Drivers/STM32H7xx_HAL_Driver/Src/stm32h7xx_hal_uart_ex.c **** 
 898              		.loc 1 622 3 is_stmt 1 discriminator 2 view .LVU248
 899 001c 1A68     		ldr	r2, [r3]
 900 001e 22F00102 		bic	r2, r2, #1
 901 0022 1A60     		str	r2, [r3]
 625:Drivers/STM32H7xx_HAL_Driver/Src/stm32h7xx_hal_uart_ex.c **** 
 902              		.loc 1 625 3 discriminator 2 view .LVU249
 903 0024 0268     		ldr	r2, [r0]
 904 0026 9368     		ldr	r3, [r2, #8]
 905 0028 23F06043 		bic	r3, r3, #-536870912
 906 002c 1943     		orrs	r1, r1, r3
 907              	.LVL68:
 625:Drivers/STM32H7xx_HAL_Driver/Src/stm32h7xx_hal_uart_ex.c **** 
 908              		.loc 1 625 3 is_stmt 0 discriminator 2 view .LVU250
 909 002e 9160     		str	r1, [r2, #8]
 628:Drivers/STM32H7xx_HAL_Driver/Src/stm32h7xx_hal_uart_ex.c **** 
 910              		.loc 1 628 3 is_stmt 1 discriminator 2 view .LVU251
 911 0030 FFF7FEFF 		bl	UARTEx_SetNbDataToProcess
 912              	.LVL69:
 631:Drivers/STM32H7xx_HAL_Driver/Src/stm32h7xx_hal_uart_ex.c **** 
 913              		.loc 1 631 3 discriminator 2 view .LVU252
 914 0034 2368     		ldr	r3, [r4]
ARM GAS  C:\Users\jisu8\AppData\Local\Temp\ccyzchVo.s 			page 38


 915 0036 1D60     		str	r5, [r3]
 633:Drivers/STM32H7xx_HAL_Driver/Src/stm32h7xx_hal_uart_ex.c **** 
 916              		.loc 1 633 3 discriminator 2 view .LVU253
 633:Drivers/STM32H7xx_HAL_Driver/Src/stm32h7xx_hal_uart_ex.c **** 
 917              		.loc 1 633 17 is_stmt 0 discriminator 2 view .LVU254
 918 0038 2023     		movs	r3, #32
 919 003a C4F88430 		str	r3, [r4, #132]
 636:Drivers/STM32H7xx_HAL_Driver/Src/stm32h7xx_hal_uart_ex.c **** 
 920              		.loc 1 636 3 is_stmt 1 discriminator 2 view .LVU255
 636:Drivers/STM32H7xx_HAL_Driver/Src/stm32h7xx_hal_uart_ex.c **** 
 921              		.loc 1 636 3 discriminator 2 view .LVU256
 922 003e 0020     		movs	r0, #0
 923 0040 84F88000 		strb	r0, [r4, #128]
 636:Drivers/STM32H7xx_HAL_Driver/Src/stm32h7xx_hal_uart_ex.c **** 
 924              		.loc 1 636 3 discriminator 2 view .LVU257
 638:Drivers/STM32H7xx_HAL_Driver/Src/stm32h7xx_hal_uart_ex.c **** }
 925              		.loc 1 638 3 discriminator 2 view .LVU258
 926              	.LVL70:
 927              	.L61:
 639:Drivers/STM32H7xx_HAL_Driver/Src/stm32h7xx_hal_uart_ex.c **** 
 928              		.loc 1 639 1 is_stmt 0 view .LVU259
 929 0044 38BD     		pop	{r3, r4, r5, pc}
 930              	.LVL71:
 931              	.L62:
 614:Drivers/STM32H7xx_HAL_Driver/Src/stm32h7xx_hal_uart_ex.c **** 
 932              		.loc 1 614 3 view .LVU260
 933 0046 0220     		movs	r0, #2
 934              	.LVL72:
 614:Drivers/STM32H7xx_HAL_Driver/Src/stm32h7xx_hal_uart_ex.c **** 
 935              		.loc 1 614 3 view .LVU261
 936 0048 FCE7     		b	.L61
 937              		.cfi_endproc
 938              	.LFE341:
 940              		.section	.text.HAL_UARTEx_SetRxFifoThreshold,"ax",%progbits
 941              		.align	1
 942              		.global	HAL_UARTEx_SetRxFifoThreshold
 943              		.syntax unified
 944              		.thumb
 945              		.thumb_func
 947              	HAL_UARTEx_SetRxFifoThreshold:
 948              	.LVL73:
 949              	.LFB342:
 655:Drivers/STM32H7xx_HAL_Driver/Src/stm32h7xx_hal_uart_ex.c ****   uint32_t tmpcr1;
 950              		.loc 1 655 1 is_stmt 1 view -0
 951              		.cfi_startproc
 952              		@ args = 0, pretend = 0, frame = 0
 953              		@ frame_needed = 0, uses_anonymous_args = 0
 655:Drivers/STM32H7xx_HAL_Driver/Src/stm32h7xx_hal_uart_ex.c ****   uint32_t tmpcr1;
 954              		.loc 1 655 1 is_stmt 0 view .LVU263
 955 0000 38B5     		push	{r3, r4, r5, lr}
 956              	.LCFI15:
 957              		.cfi_def_cfa_offset 16
 958              		.cfi_offset 3, -16
 959              		.cfi_offset 4, -12
 960              		.cfi_offset 5, -8
 961              		.cfi_offset 14, -4
 656:Drivers/STM32H7xx_HAL_Driver/Src/stm32h7xx_hal_uart_ex.c **** 
ARM GAS  C:\Users\jisu8\AppData\Local\Temp\ccyzchVo.s 			page 39


 962              		.loc 1 656 3 is_stmt 1 view .LVU264
 659:Drivers/STM32H7xx_HAL_Driver/Src/stm32h7xx_hal_uart_ex.c ****   assert_param(IS_UART_RXFIFO_THRESHOLD(Threshold));
 963              		.loc 1 659 3 view .LVU265
 660:Drivers/STM32H7xx_HAL_Driver/Src/stm32h7xx_hal_uart_ex.c **** 
 964              		.loc 1 660 3 view .LVU266
 663:Drivers/STM32H7xx_HAL_Driver/Src/stm32h7xx_hal_uart_ex.c **** 
 965              		.loc 1 663 3 view .LVU267
 663:Drivers/STM32H7xx_HAL_Driver/Src/stm32h7xx_hal_uart_ex.c **** 
 966              		.loc 1 663 3 view .LVU268
 967 0002 90F88030 		ldrb	r3, [r0, #128]	@ zero_extendqisi2
 968 0006 012B     		cmp	r3, #1
 969 0008 1DD0     		beq	.L66
 970 000a 0446     		mov	r4, r0
 663:Drivers/STM32H7xx_HAL_Driver/Src/stm32h7xx_hal_uart_ex.c **** 
 971              		.loc 1 663 3 discriminator 2 view .LVU269
 972 000c 0123     		movs	r3, #1
 973 000e 80F88030 		strb	r3, [r0, #128]
 663:Drivers/STM32H7xx_HAL_Driver/Src/stm32h7xx_hal_uart_ex.c **** 
 974              		.loc 1 663 3 discriminator 2 view .LVU270
 665:Drivers/STM32H7xx_HAL_Driver/Src/stm32h7xx_hal_uart_ex.c **** 
 975              		.loc 1 665 3 discriminator 2 view .LVU271
 665:Drivers/STM32H7xx_HAL_Driver/Src/stm32h7xx_hal_uart_ex.c **** 
 976              		.loc 1 665 17 is_stmt 0 discriminator 2 view .LVU272
 977 0012 2423     		movs	r3, #36
 978 0014 C0F88430 		str	r3, [r0, #132]
 668:Drivers/STM32H7xx_HAL_Driver/Src/stm32h7xx_hal_uart_ex.c **** 
 979              		.loc 1 668 3 is_stmt 1 discriminator 2 view .LVU273
 668:Drivers/STM32H7xx_HAL_Driver/Src/stm32h7xx_hal_uart_ex.c **** 
 980              		.loc 1 668 12 is_stmt 0 discriminator 2 view .LVU274
 981 0018 0368     		ldr	r3, [r0]
 668:Drivers/STM32H7xx_HAL_Driver/Src/stm32h7xx_hal_uart_ex.c **** 
 982              		.loc 1 668 10 discriminator 2 view .LVU275
 983 001a 1D68     		ldr	r5, [r3]
 984              	.LVL74:
 671:Drivers/STM32H7xx_HAL_Driver/Src/stm32h7xx_hal_uart_ex.c **** 
 985              		.loc 1 671 3 is_stmt 1 discriminator 2 view .LVU276
 986 001c 1A68     		ldr	r2, [r3]
 987 001e 22F00102 		bic	r2, r2, #1
 988 0022 1A60     		str	r2, [r3]
 674:Drivers/STM32H7xx_HAL_Driver/Src/stm32h7xx_hal_uart_ex.c **** 
 989              		.loc 1 674 3 discriminator 2 view .LVU277
 990 0024 0268     		ldr	r2, [r0]
 991 0026 9368     		ldr	r3, [r2, #8]
 992 0028 23F06063 		bic	r3, r3, #234881024
 993 002c 1943     		orrs	r1, r1, r3
 994              	.LVL75:
 674:Drivers/STM32H7xx_HAL_Driver/Src/stm32h7xx_hal_uart_ex.c **** 
 995              		.loc 1 674 3 is_stmt 0 discriminator 2 view .LVU278
 996 002e 9160     		str	r1, [r2, #8]
 677:Drivers/STM32H7xx_HAL_Driver/Src/stm32h7xx_hal_uart_ex.c **** 
 997              		.loc 1 677 3 is_stmt 1 discriminator 2 view .LVU279
 998 0030 FFF7FEFF 		bl	UARTEx_SetNbDataToProcess
 999              	.LVL76:
 680:Drivers/STM32H7xx_HAL_Driver/Src/stm32h7xx_hal_uart_ex.c **** 
 1000              		.loc 1 680 3 discriminator 2 view .LVU280
 1001 0034 2368     		ldr	r3, [r4]
 1002 0036 1D60     		str	r5, [r3]
ARM GAS  C:\Users\jisu8\AppData\Local\Temp\ccyzchVo.s 			page 40


 682:Drivers/STM32H7xx_HAL_Driver/Src/stm32h7xx_hal_uart_ex.c **** 
 1003              		.loc 1 682 3 discriminator 2 view .LVU281
 682:Drivers/STM32H7xx_HAL_Driver/Src/stm32h7xx_hal_uart_ex.c **** 
 1004              		.loc 1 682 17 is_stmt 0 discriminator 2 view .LVU282
 1005 0038 2023     		movs	r3, #32
 1006 003a C4F88430 		str	r3, [r4, #132]
 685:Drivers/STM32H7xx_HAL_Driver/Src/stm32h7xx_hal_uart_ex.c **** 
 1007              		.loc 1 685 3 is_stmt 1 discriminator 2 view .LVU283
 685:Drivers/STM32H7xx_HAL_Driver/Src/stm32h7xx_hal_uart_ex.c **** 
 1008              		.loc 1 685 3 discriminator 2 view .LVU284
 1009 003e 0020     		movs	r0, #0
 1010 0040 84F88000 		strb	r0, [r4, #128]
 685:Drivers/STM32H7xx_HAL_Driver/Src/stm32h7xx_hal_uart_ex.c **** 
 1011              		.loc 1 685 3 discriminator 2 view .LVU285
 687:Drivers/STM32H7xx_HAL_Driver/Src/stm32h7xx_hal_uart_ex.c **** }
 1012              		.loc 1 687 3 discriminator 2 view .LVU286
 1013              	.LVL77:
 1014              	.L65:
 688:Drivers/STM32H7xx_HAL_Driver/Src/stm32h7xx_hal_uart_ex.c **** 
 1015              		.loc 1 688 1 is_stmt 0 view .LVU287
 1016 0044 38BD     		pop	{r3, r4, r5, pc}
 1017              	.LVL78:
 1018              	.L66:
 663:Drivers/STM32H7xx_HAL_Driver/Src/stm32h7xx_hal_uart_ex.c **** 
 1019              		.loc 1 663 3 view .LVU288
 1020 0046 0220     		movs	r0, #2
 1021              	.LVL79:
 663:Drivers/STM32H7xx_HAL_Driver/Src/stm32h7xx_hal_uart_ex.c **** 
 1022              		.loc 1 663 3 view .LVU289
 1023 0048 FCE7     		b	.L65
 1024              		.cfi_endproc
 1025              	.LFE342:
 1027              		.section	.text.HAL_UARTEx_ReceiveToIdle,"ax",%progbits
 1028              		.align	1
 1029              		.global	HAL_UARTEx_ReceiveToIdle
 1030              		.syntax unified
 1031              		.thumb
 1032              		.thumb_func
 1034              	HAL_UARTEx_ReceiveToIdle:
 1035              	.LVL80:
 1036              	.LFB343:
 713:Drivers/STM32H7xx_HAL_Driver/Src/stm32h7xx_hal_uart_ex.c ****   uint8_t  *pdata8bits;
 1037              		.loc 1 713 1 is_stmt 1 view -0
 1038              		.cfi_startproc
 1039              		@ args = 4, pretend = 0, frame = 0
 1040              		@ frame_needed = 0, uses_anonymous_args = 0
 713:Drivers/STM32H7xx_HAL_Driver/Src/stm32h7xx_hal_uart_ex.c ****   uint8_t  *pdata8bits;
 1041              		.loc 1 713 1 is_stmt 0 view .LVU291
 1042 0000 2DE9F047 		push	{r4, r5, r6, r7, r8, r9, r10, lr}
 1043              	.LCFI16:
 1044              		.cfi_def_cfa_offset 32
 1045              		.cfi_offset 4, -32
 1046              		.cfi_offset 5, -28
 1047              		.cfi_offset 6, -24
 1048              		.cfi_offset 7, -20
 1049              		.cfi_offset 8, -16
 1050              		.cfi_offset 9, -12
ARM GAS  C:\Users\jisu8\AppData\Local\Temp\ccyzchVo.s 			page 41


 1051              		.cfi_offset 10, -8
 1052              		.cfi_offset 14, -4
 1053 0004 1D46     		mov	r5, r3
 1054 0006 089E     		ldr	r6, [sp, #32]
 714:Drivers/STM32H7xx_HAL_Driver/Src/stm32h7xx_hal_uart_ex.c ****   uint16_t *pdata16bits;
 1055              		.loc 1 714 3 is_stmt 1 view .LVU292
 715:Drivers/STM32H7xx_HAL_Driver/Src/stm32h7xx_hal_uart_ex.c ****   uint16_t uhMask;
 1056              		.loc 1 715 3 view .LVU293
 716:Drivers/STM32H7xx_HAL_Driver/Src/stm32h7xx_hal_uart_ex.c ****   uint32_t tickstart;
 1057              		.loc 1 716 3 view .LVU294
 717:Drivers/STM32H7xx_HAL_Driver/Src/stm32h7xx_hal_uart_ex.c **** 
 1058              		.loc 1 717 3 view .LVU295
 720:Drivers/STM32H7xx_HAL_Driver/Src/stm32h7xx_hal_uart_ex.c ****   {
 1059              		.loc 1 720 3 view .LVU296
 720:Drivers/STM32H7xx_HAL_Driver/Src/stm32h7xx_hal_uart_ex.c ****   {
 1060              		.loc 1 720 12 is_stmt 0 view .LVU297
 1061 0008 D0F88830 		ldr	r3, [r0, #136]
 1062              	.LVL81:
 720:Drivers/STM32H7xx_HAL_Driver/Src/stm32h7xx_hal_uart_ex.c ****   {
 1063              		.loc 1 720 6 view .LVU298
 1064 000c 202B     		cmp	r3, #32
 1065 000e 40F0A880 		bne	.L86
 1066 0012 0446     		mov	r4, r0
 1067 0014 0F46     		mov	r7, r1
 1068 0016 9146     		mov	r9, r2
 722:Drivers/STM32H7xx_HAL_Driver/Src/stm32h7xx_hal_uart_ex.c ****     {
 1069              		.loc 1 722 5 is_stmt 1 view .LVU299
 722:Drivers/STM32H7xx_HAL_Driver/Src/stm32h7xx_hal_uart_ex.c ****     {
 1070              		.loc 1 722 8 is_stmt 0 view .LVU300
 1071 0018 002A     		cmp	r2, #0
 1072 001a 18BF     		it	ne
 1073 001c 0029     		cmpne	r1, #0
 1074 001e 00F0A380 		beq	.L87
 727:Drivers/STM32H7xx_HAL_Driver/Src/stm32h7xx_hal_uart_ex.c **** 
 1075              		.loc 1 727 5 is_stmt 1 view .LVU301
 727:Drivers/STM32H7xx_HAL_Driver/Src/stm32h7xx_hal_uart_ex.c **** 
 1076              		.loc 1 727 5 view .LVU302
 1077 0022 90F88030 		ldrb	r3, [r0, #128]	@ zero_extendqisi2
 1078 0026 012B     		cmp	r3, #1
 1079 0028 00F0A080 		beq	.L88
 727:Drivers/STM32H7xx_HAL_Driver/Src/stm32h7xx_hal_uart_ex.c **** 
 1080              		.loc 1 727 5 discriminator 2 view .LVU303
 1081 002c 0123     		movs	r3, #1
 1082 002e 80F88030 		strb	r3, [r0, #128]
 727:Drivers/STM32H7xx_HAL_Driver/Src/stm32h7xx_hal_uart_ex.c **** 
 1083              		.loc 1 727 5 discriminator 2 view .LVU304
 729:Drivers/STM32H7xx_HAL_Driver/Src/stm32h7xx_hal_uart_ex.c ****     huart->RxState = HAL_UART_STATE_BUSY_RX;
 1084              		.loc 1 729 5 discriminator 2 view .LVU305
 729:Drivers/STM32H7xx_HAL_Driver/Src/stm32h7xx_hal_uart_ex.c ****     huart->RxState = HAL_UART_STATE_BUSY_RX;
 1085              		.loc 1 729 22 is_stmt 0 discriminator 2 view .LVU306
 1086 0032 0022     		movs	r2, #0
 1087              	.LVL82:
 729:Drivers/STM32H7xx_HAL_Driver/Src/stm32h7xx_hal_uart_ex.c ****     huart->RxState = HAL_UART_STATE_BUSY_RX;
 1088              		.loc 1 729 22 discriminator 2 view .LVU307
 1089 0034 C0F88C20 		str	r2, [r0, #140]
 730:Drivers/STM32H7xx_HAL_Driver/Src/stm32h7xx_hal_uart_ex.c ****     huart->ReceptionType = HAL_UART_RECEPTION_TOIDLE;
 1090              		.loc 1 730 5 is_stmt 1 discriminator 2 view .LVU308
ARM GAS  C:\Users\jisu8\AppData\Local\Temp\ccyzchVo.s 			page 42


 730:Drivers/STM32H7xx_HAL_Driver/Src/stm32h7xx_hal_uart_ex.c ****     huart->ReceptionType = HAL_UART_RECEPTION_TOIDLE;
 1091              		.loc 1 730 20 is_stmt 0 discriminator 2 view .LVU309
 1092 0038 2222     		movs	r2, #34
 1093 003a C0F88820 		str	r2, [r0, #136]
 731:Drivers/STM32H7xx_HAL_Driver/Src/stm32h7xx_hal_uart_ex.c **** 
 1094              		.loc 1 731 5 is_stmt 1 discriminator 2 view .LVU310
 731:Drivers/STM32H7xx_HAL_Driver/Src/stm32h7xx_hal_uart_ex.c **** 
 1095              		.loc 1 731 26 is_stmt 0 discriminator 2 view .LVU311
 1096 003e C366     		str	r3, [r0, #108]
 734:Drivers/STM32H7xx_HAL_Driver/Src/stm32h7xx_hal_uart_ex.c **** 
 1097              		.loc 1 734 5 is_stmt 1 discriminator 2 view .LVU312
 734:Drivers/STM32H7xx_HAL_Driver/Src/stm32h7xx_hal_uart_ex.c **** 
 1098              		.loc 1 734 17 is_stmt 0 discriminator 2 view .LVU313
 1099 0040 FFF7FEFF 		bl	HAL_GetTick
 1100              	.LVL83:
 734:Drivers/STM32H7xx_HAL_Driver/Src/stm32h7xx_hal_uart_ex.c **** 
 1101              		.loc 1 734 17 discriminator 2 view .LVU314
 1102 0044 8046     		mov	r8, r0
 1103              	.LVL84:
 736:Drivers/STM32H7xx_HAL_Driver/Src/stm32h7xx_hal_uart_ex.c ****     huart->RxXferCount = Size;
 1104              		.loc 1 736 5 is_stmt 1 discriminator 2 view .LVU315
 736:Drivers/STM32H7xx_HAL_Driver/Src/stm32h7xx_hal_uart_ex.c ****     huart->RxXferCount = Size;
 1105              		.loc 1 736 24 is_stmt 0 discriminator 2 view .LVU316
 1106 0046 A4F85C90 		strh	r9, [r4, #92]	@ movhi
 737:Drivers/STM32H7xx_HAL_Driver/Src/stm32h7xx_hal_uart_ex.c **** 
 1107              		.loc 1 737 5 is_stmt 1 discriminator 2 view .LVU317
 737:Drivers/STM32H7xx_HAL_Driver/Src/stm32h7xx_hal_uart_ex.c **** 
 1108              		.loc 1 737 24 is_stmt 0 discriminator 2 view .LVU318
 1109 004a A4F85E90 		strh	r9, [r4, #94]	@ movhi
 740:Drivers/STM32H7xx_HAL_Driver/Src/stm32h7xx_hal_uart_ex.c ****     uhMask = huart->Mask;
 1110              		.loc 1 740 5 is_stmt 1 discriminator 2 view .LVU319
 740:Drivers/STM32H7xx_HAL_Driver/Src/stm32h7xx_hal_uart_ex.c ****     uhMask = huart->Mask;
 1111              		.loc 1 740 5 discriminator 2 view .LVU320
 1112 004e A368     		ldr	r3, [r4, #8]
 1113 0050 B3F5805F 		cmp	r3, #4096
 1114 0054 06D0     		beq	.L92
 740:Drivers/STM32H7xx_HAL_Driver/Src/stm32h7xx_hal_uart_ex.c ****     uhMask = huart->Mask;
 1115              		.loc 1 740 5 discriminator 2 view .LVU321
 1116 0056 A3B9     		cbnz	r3, .L73
 740:Drivers/STM32H7xx_HAL_Driver/Src/stm32h7xx_hal_uart_ex.c ****     uhMask = huart->Mask;
 1117              		.loc 1 740 5 discriminator 5 view .LVU322
 1118 0058 2269     		ldr	r2, [r4, #16]
 1119 005a 72B9     		cbnz	r2, .L74
 740:Drivers/STM32H7xx_HAL_Driver/Src/stm32h7xx_hal_uart_ex.c ****     uhMask = huart->Mask;
 1120              		.loc 1 740 5 discriminator 7 view .LVU323
 1121 005c FF22     		movs	r2, #255
 1122 005e A4F86020 		strh	r2, [r4, #96]	@ movhi
 1123 0062 14E0     		b	.L72
 1124              	.L92:
 740:Drivers/STM32H7xx_HAL_Driver/Src/stm32h7xx_hal_uart_ex.c ****     uhMask = huart->Mask;
 1125              		.loc 1 740 5 discriminator 1 view .LVU324
 1126 0064 2269     		ldr	r2, [r4, #16]
 1127 0066 22B9     		cbnz	r2, .L71
 740:Drivers/STM32H7xx_HAL_Driver/Src/stm32h7xx_hal_uart_ex.c ****     uhMask = huart->Mask;
 1128              		.loc 1 740 5 discriminator 3 view .LVU325
 1129 0068 40F2FF12 		movw	r2, #511
 1130 006c A4F86020 		strh	r2, [r4, #96]	@ movhi
ARM GAS  C:\Users\jisu8\AppData\Local\Temp\ccyzchVo.s 			page 43


 1131 0070 0DE0     		b	.L72
 1132              	.L71:
 740:Drivers/STM32H7xx_HAL_Driver/Src/stm32h7xx_hal_uart_ex.c ****     uhMask = huart->Mask;
 1133              		.loc 1 740 5 discriminator 4 view .LVU326
 1134 0072 FF22     		movs	r2, #255
 1135 0074 A4F86020 		strh	r2, [r4, #96]	@ movhi
 1136 0078 09E0     		b	.L72
 1137              	.L74:
 740:Drivers/STM32H7xx_HAL_Driver/Src/stm32h7xx_hal_uart_ex.c ****     uhMask = huart->Mask;
 1138              		.loc 1 740 5 discriminator 8 view .LVU327
 1139 007a 7F22     		movs	r2, #127
 1140 007c A4F86020 		strh	r2, [r4, #96]	@ movhi
 1141 0080 05E0     		b	.L72
 1142              	.L73:
 740:Drivers/STM32H7xx_HAL_Driver/Src/stm32h7xx_hal_uart_ex.c ****     uhMask = huart->Mask;
 1143              		.loc 1 740 5 discriminator 6 view .LVU328
 1144 0082 B3F1805F 		cmp	r3, #268435456
 1145 0086 0ED0     		beq	.L93
 740:Drivers/STM32H7xx_HAL_Driver/Src/stm32h7xx_hal_uart_ex.c ****     uhMask = huart->Mask;
 1146              		.loc 1 740 5 discriminator 10 view .LVU329
 1147 0088 0022     		movs	r2, #0
 1148 008a A4F86020 		strh	r2, [r4, #96]	@ movhi
 1149              	.L72:
 740:Drivers/STM32H7xx_HAL_Driver/Src/stm32h7xx_hal_uart_ex.c ****     uhMask = huart->Mask;
 1150              		.loc 1 740 5 discriminator 13 view .LVU330
 741:Drivers/STM32H7xx_HAL_Driver/Src/stm32h7xx_hal_uart_ex.c **** 
 1151              		.loc 1 741 5 discriminator 13 view .LVU331
 741:Drivers/STM32H7xx_HAL_Driver/Src/stm32h7xx_hal_uart_ex.c **** 
 1152              		.loc 1 741 12 is_stmt 0 discriminator 13 view .LVU332
 1153 008e B4F86090 		ldrh	r9, [r4, #96]
 1154              	.LVL85:
 744:Drivers/STM32H7xx_HAL_Driver/Src/stm32h7xx_hal_uart_ex.c ****     {
 1155              		.loc 1 744 5 is_stmt 1 discriminator 13 view .LVU333
 744:Drivers/STM32H7xx_HAL_Driver/Src/stm32h7xx_hal_uart_ex.c ****     {
 1156              		.loc 1 744 8 is_stmt 0 discriminator 13 view .LVU334
 1157 0092 B3F5805F 		cmp	r3, #4096
 1158 0096 10D0     		beq	.L94
 752:Drivers/STM32H7xx_HAL_Driver/Src/stm32h7xx_hal_uart_ex.c ****     }
 1159              		.loc 1 752 19 view .LVU335
 1160 0098 4FF0000A 		mov	r10, #0
 1161              	.LVL86:
 1162              	.L77:
 755:Drivers/STM32H7xx_HAL_Driver/Src/stm32h7xx_hal_uart_ex.c **** 
 1163              		.loc 1 755 5 is_stmt 1 view .LVU336
 755:Drivers/STM32H7xx_HAL_Driver/Src/stm32h7xx_hal_uart_ex.c **** 
 1164              		.loc 1 755 5 view .LVU337
 1165 009c 0023     		movs	r3, #0
 1166 009e 84F88030 		strb	r3, [r4, #128]
 755:Drivers/STM32H7xx_HAL_Driver/Src/stm32h7xx_hal_uart_ex.c **** 
 1167              		.loc 1 755 5 view .LVU338
 758:Drivers/STM32H7xx_HAL_Driver/Src/stm32h7xx_hal_uart_ex.c **** 
 1168              		.loc 1 758 5 view .LVU339
 758:Drivers/STM32H7xx_HAL_Driver/Src/stm32h7xx_hal_uart_ex.c **** 
 1169              		.loc 1 758 12 is_stmt 0 view .LVU340
 1170 00a2 2B80     		strh	r3, [r5]	@ movhi
 761:Drivers/STM32H7xx_HAL_Driver/Src/stm32h7xx_hal_uart_ex.c ****     {
 1171              		.loc 1 761 5 is_stmt 1 view .LVU341
ARM GAS  C:\Users\jisu8\AppData\Local\Temp\ccyzchVo.s 			page 44


 761:Drivers/STM32H7xx_HAL_Driver/Src/stm32h7xx_hal_uart_ex.c ****     {
 1172              		.loc 1 761 11 is_stmt 0 view .LVU342
 1173 00a4 28E0     		b	.L78
 1174              	.LVL87:
 1175              	.L93:
 740:Drivers/STM32H7xx_HAL_Driver/Src/stm32h7xx_hal_uart_ex.c ****     uhMask = huart->Mask;
 1176              		.loc 1 740 5 is_stmt 1 discriminator 9 view .LVU343
 1177 00a6 2269     		ldr	r2, [r4, #16]
 1178 00a8 1AB9     		cbnz	r2, .L76
 740:Drivers/STM32H7xx_HAL_Driver/Src/stm32h7xx_hal_uart_ex.c ****     uhMask = huart->Mask;
 1179              		.loc 1 740 5 discriminator 11 view .LVU344
 1180 00aa 7F22     		movs	r2, #127
 1181 00ac A4F86020 		strh	r2, [r4, #96]	@ movhi
 1182 00b0 EDE7     		b	.L72
 1183              	.L76:
 740:Drivers/STM32H7xx_HAL_Driver/Src/stm32h7xx_hal_uart_ex.c ****     uhMask = huart->Mask;
 1184              		.loc 1 740 5 discriminator 12 view .LVU345
 1185 00b2 3F22     		movs	r2, #63
 1186 00b4 A4F86020 		strh	r2, [r4, #96]	@ movhi
 1187 00b8 E9E7     		b	.L72
 1188              	.LVL88:
 1189              	.L94:
 744:Drivers/STM32H7xx_HAL_Driver/Src/stm32h7xx_hal_uart_ex.c ****     {
 1190              		.loc 1 744 71 is_stmt 0 discriminator 1 view .LVU346
 1191 00ba 2369     		ldr	r3, [r4, #16]
 744:Drivers/STM32H7xx_HAL_Driver/Src/stm32h7xx_hal_uart_ex.c ****     {
 1192              		.loc 1 744 56 discriminator 1 view .LVU347
 1193 00bc 13B1     		cbz	r3, .L90
 752:Drivers/STM32H7xx_HAL_Driver/Src/stm32h7xx_hal_uart_ex.c ****     }
 1194              		.loc 1 752 19 view .LVU348
 1195 00be 4FF0000A 		mov	r10, #0
 1196 00c2 EBE7     		b	.L77
 1197              	.L90:
 747:Drivers/STM32H7xx_HAL_Driver/Src/stm32h7xx_hal_uart_ex.c ****     }
 1198              		.loc 1 747 19 view .LVU349
 1199 00c4 BA46     		mov	r10, r7
 746:Drivers/STM32H7xx_HAL_Driver/Src/stm32h7xx_hal_uart_ex.c ****       pdata16bits = (uint16_t *) pData;
 1200              		.loc 1 746 19 view .LVU350
 1201 00c6 0027     		movs	r7, #0
 1202              	.LVL89:
 746:Drivers/STM32H7xx_HAL_Driver/Src/stm32h7xx_hal_uart_ex.c ****       pdata16bits = (uint16_t *) pData;
 1203              		.loc 1 746 19 view .LVU351
 1204 00c8 E8E7     		b	.L77
 1205              	.LVL90:
 1206              	.L97:
 773:Drivers/STM32H7xx_HAL_Driver/Src/stm32h7xx_hal_uart_ex.c **** 
 1207              		.loc 1 773 11 is_stmt 1 view .LVU352
 773:Drivers/STM32H7xx_HAL_Driver/Src/stm32h7xx_hal_uart_ex.c **** 
 1208              		.loc 1 773 26 is_stmt 0 view .LVU353
 1209 00ca 2023     		movs	r3, #32
 1210 00cc C4F88830 		str	r3, [r4, #136]
 775:Drivers/STM32H7xx_HAL_Driver/Src/stm32h7xx_hal_uart_ex.c ****         }
 1211              		.loc 1 775 11 is_stmt 1 view .LVU354
 775:Drivers/STM32H7xx_HAL_Driver/Src/stm32h7xx_hal_uart_ex.c ****         }
 1212              		.loc 1 775 18 is_stmt 0 view .LVU355
 1213 00d0 0020     		movs	r0, #0
 1214 00d2 47E0     		b	.L69
ARM GAS  C:\Users\jisu8\AppData\Local\Temp\ccyzchVo.s 			page 45


 1215              	.L98:
 784:Drivers/STM32H7xx_HAL_Driver/Src/stm32h7xx_hal_uart_ex.c ****           pdata16bits++;
 1216              		.loc 1 784 11 is_stmt 1 view .LVU356
 784:Drivers/STM32H7xx_HAL_Driver/Src/stm32h7xx_hal_uart_ex.c ****           pdata16bits++;
 1217              		.loc 1 784 52 is_stmt 0 view .LVU357
 1218 00d4 5B6A     		ldr	r3, [r3, #36]
 784:Drivers/STM32H7xx_HAL_Driver/Src/stm32h7xx_hal_uart_ex.c ****           pdata16bits++;
 1219              		.loc 1 784 26 view .LVU358
 1220 00d6 09EA0303 		and	r3, r9, r3
 784:Drivers/STM32H7xx_HAL_Driver/Src/stm32h7xx_hal_uart_ex.c ****           pdata16bits++;
 1221              		.loc 1 784 24 view .LVU359
 1222 00da 2AF8023B 		strh	r3, [r10], #2	@ movhi
 1223              	.LVL91:
 785:Drivers/STM32H7xx_HAL_Driver/Src/stm32h7xx_hal_uart_ex.c ****         }
 1224              		.loc 1 785 11 is_stmt 1 view .LVU360
 1225              	.L82:
 793:Drivers/STM32H7xx_HAL_Driver/Src/stm32h7xx_hal_uart_ex.c ****         huart->RxXferCount--;
 1226              		.loc 1 793 9 view .LVU361
 793:Drivers/STM32H7xx_HAL_Driver/Src/stm32h7xx_hal_uart_ex.c ****         huart->RxXferCount--;
 1227              		.loc 1 793 16 is_stmt 0 view .LVU362
 1228 00de 2B88     		ldrh	r3, [r5]
 1229 00e0 0133     		adds	r3, r3, #1
 1230 00e2 2B80     		strh	r3, [r5]	@ movhi
 794:Drivers/STM32H7xx_HAL_Driver/Src/stm32h7xx_hal_uart_ex.c ****       }
 1231              		.loc 1 794 9 is_stmt 1 view .LVU363
 794:Drivers/STM32H7xx_HAL_Driver/Src/stm32h7xx_hal_uart_ex.c ****       }
 1232              		.loc 1 794 14 is_stmt 0 view .LVU364
 1233 00e4 B4F85E30 		ldrh	r3, [r4, #94]
 1234 00e8 9BB2     		uxth	r3, r3
 794:Drivers/STM32H7xx_HAL_Driver/Src/stm32h7xx_hal_uart_ex.c ****       }
 1235              		.loc 1 794 27 view .LVU365
 1236 00ea 013B     		subs	r3, r3, #1
 1237 00ec 9BB2     		uxth	r3, r3
 1238 00ee A4F85E30 		strh	r3, [r4, #94]	@ movhi
 1239              	.L80:
 798:Drivers/STM32H7xx_HAL_Driver/Src/stm32h7xx_hal_uart_ex.c ****       {
 1240              		.loc 1 798 7 is_stmt 1 view .LVU366
 798:Drivers/STM32H7xx_HAL_Driver/Src/stm32h7xx_hal_uart_ex.c ****       {
 1241              		.loc 1 798 10 is_stmt 0 view .LVU367
 1242 00f2 B6F1FF3F 		cmp	r6, #-1
 1243 00f6 1BD1     		bne	.L95
 1244              	.L78:
 761:Drivers/STM32H7xx_HAL_Driver/Src/stm32h7xx_hal_uart_ex.c ****     {
 1245              		.loc 1 761 11 is_stmt 1 view .LVU368
 761:Drivers/STM32H7xx_HAL_Driver/Src/stm32h7xx_hal_uart_ex.c ****     {
 1246              		.loc 1 761 17 is_stmt 0 view .LVU369
 1247 00f8 B4F85E20 		ldrh	r2, [r4, #94]
 1248 00fc 92B2     		uxth	r2, r2
 761:Drivers/STM32H7xx_HAL_Driver/Src/stm32h7xx_hal_uart_ex.c ****     {
 1249              		.loc 1 761 11 view .LVU370
 1250 00fe 22B3     		cbz	r2, .L96
 764:Drivers/STM32H7xx_HAL_Driver/Src/stm32h7xx_hal_uart_ex.c ****       {
 1251              		.loc 1 764 7 is_stmt 1 view .LVU371
 764:Drivers/STM32H7xx_HAL_Driver/Src/stm32h7xx_hal_uart_ex.c ****       {
 1252              		.loc 1 764 11 is_stmt 0 view .LVU372
 1253 0100 2368     		ldr	r3, [r4]
 1254 0102 DA69     		ldr	r2, [r3, #28]
ARM GAS  C:\Users\jisu8\AppData\Local\Temp\ccyzchVo.s 			page 46


 764:Drivers/STM32H7xx_HAL_Driver/Src/stm32h7xx_hal_uart_ex.c ****       {
 1255              		.loc 1 764 10 view .LVU373
 1256 0104 12F0100F 		tst	r2, #16
 1257 0108 04D0     		beq	.L79
 767:Drivers/STM32H7xx_HAL_Driver/Src/stm32h7xx_hal_uart_ex.c **** 
 1258              		.loc 1 767 9 is_stmt 1 view .LVU374
 1259 010a 1022     		movs	r2, #16
 1260 010c 1A62     		str	r2, [r3, #32]
 771:Drivers/STM32H7xx_HAL_Driver/Src/stm32h7xx_hal_uart_ex.c ****         {
 1261              		.loc 1 771 9 view .LVU375
 771:Drivers/STM32H7xx_HAL_Driver/Src/stm32h7xx_hal_uart_ex.c ****         {
 1262              		.loc 1 771 13 is_stmt 0 view .LVU376
 1263 010e 2B88     		ldrh	r3, [r5]
 771:Drivers/STM32H7xx_HAL_Driver/Src/stm32h7xx_hal_uart_ex.c ****         {
 1264              		.loc 1 771 12 view .LVU377
 1265 0110 002B     		cmp	r3, #0
 1266 0112 DAD1     		bne	.L97
 1267              	.L79:
 780:Drivers/STM32H7xx_HAL_Driver/Src/stm32h7xx_hal_uart_ex.c ****       {
 1268              		.loc 1 780 7 is_stmt 1 view .LVU378
 780:Drivers/STM32H7xx_HAL_Driver/Src/stm32h7xx_hal_uart_ex.c ****       {
 1269              		.loc 1 780 11 is_stmt 0 view .LVU379
 1270 0114 2368     		ldr	r3, [r4]
 1271 0116 DA69     		ldr	r2, [r3, #28]
 780:Drivers/STM32H7xx_HAL_Driver/Src/stm32h7xx_hal_uart_ex.c ****       {
 1272              		.loc 1 780 10 view .LVU380
 1273 0118 12F0200F 		tst	r2, #32
 1274 011c E9D0     		beq	.L80
 782:Drivers/STM32H7xx_HAL_Driver/Src/stm32h7xx_hal_uart_ex.c ****         {
 1275              		.loc 1 782 9 is_stmt 1 view .LVU381
 782:Drivers/STM32H7xx_HAL_Driver/Src/stm32h7xx_hal_uart_ex.c ****         {
 1276              		.loc 1 782 12 is_stmt 0 view .LVU382
 1277 011e 002F     		cmp	r7, #0
 1278 0120 D8D0     		beq	.L98
 789:Drivers/STM32H7xx_HAL_Driver/Src/stm32h7xx_hal_uart_ex.c ****           pdata8bits++;
 1279              		.loc 1 789 11 is_stmt 1 view .LVU383
 789:Drivers/STM32H7xx_HAL_Driver/Src/stm32h7xx_hal_uart_ex.c ****           pdata8bits++;
 1280              		.loc 1 789 50 is_stmt 0 view .LVU384
 1281 0122 5A6A     		ldr	r2, [r3, #36]
 789:Drivers/STM32H7xx_HAL_Driver/Src/stm32h7xx_hal_uart_ex.c ****           pdata8bits++;
 1282              		.loc 1 789 58 view .LVU385
 1283 0124 5FFA89F3 		uxtb	r3, r9
 789:Drivers/STM32H7xx_HAL_Driver/Src/stm32h7xx_hal_uart_ex.c ****           pdata8bits++;
 1284              		.loc 1 789 25 view .LVU386
 1285 0128 1340     		ands	r3, r3, r2
 789:Drivers/STM32H7xx_HAL_Driver/Src/stm32h7xx_hal_uart_ex.c ****           pdata8bits++;
 1286              		.loc 1 789 23 view .LVU387
 1287 012a 07F8013B 		strb	r3, [r7], #1
 1288              	.LVL92:
 790:Drivers/STM32H7xx_HAL_Driver/Src/stm32h7xx_hal_uart_ex.c ****         }
 1289              		.loc 1 790 11 is_stmt 1 view .LVU388
 790:Drivers/STM32H7xx_HAL_Driver/Src/stm32h7xx_hal_uart_ex.c ****         }
 1290              		.loc 1 790 11 is_stmt 0 view .LVU389
 1291 012e D6E7     		b	.L82
 1292              	.L95:
 800:Drivers/STM32H7xx_HAL_Driver/Src/stm32h7xx_hal_uart_ex.c ****         {
 1293              		.loc 1 800 9 is_stmt 1 view .LVU390
ARM GAS  C:\Users\jisu8\AppData\Local\Temp\ccyzchVo.s 			page 47


 800:Drivers/STM32H7xx_HAL_Driver/Src/stm32h7xx_hal_uart_ex.c ****         {
 1294              		.loc 1 800 15 is_stmt 0 view .LVU391
 1295 0130 FFF7FEFF 		bl	HAL_GetTick
 1296              	.LVL93:
 800:Drivers/STM32H7xx_HAL_Driver/Src/stm32h7xx_hal_uart_ex.c ****         {
 1297              		.loc 1 800 29 view .LVU392
 1298 0134 A0EB0800 		sub	r0, r0, r8
 800:Drivers/STM32H7xx_HAL_Driver/Src/stm32h7xx_hal_uart_ex.c ****         {
 1299              		.loc 1 800 12 view .LVU393
 1300 0138 B042     		cmp	r0, r6
 1301 013a 01D8     		bhi	.L84
 800:Drivers/STM32H7xx_HAL_Driver/Src/stm32h7xx_hal_uart_ex.c ****         {
 1302              		.loc 1 800 53 discriminator 1 view .LVU394
 1303 013c 002E     		cmp	r6, #0
 1304 013e DBD1     		bne	.L78
 1305              	.L84:
 802:Drivers/STM32H7xx_HAL_Driver/Src/stm32h7xx_hal_uart_ex.c **** 
 1306              		.loc 1 802 11 is_stmt 1 view .LVU395
 802:Drivers/STM32H7xx_HAL_Driver/Src/stm32h7xx_hal_uart_ex.c **** 
 1307              		.loc 1 802 26 is_stmt 0 view .LVU396
 1308 0140 2023     		movs	r3, #32
 1309 0142 C4F88830 		str	r3, [r4, #136]
 804:Drivers/STM32H7xx_HAL_Driver/Src/stm32h7xx_hal_uart_ex.c ****         }
 1310              		.loc 1 804 11 is_stmt 1 view .LVU397
 804:Drivers/STM32H7xx_HAL_Driver/Src/stm32h7xx_hal_uart_ex.c ****         }
 1311              		.loc 1 804 18 is_stmt 0 view .LVU398
 1312 0146 0320     		movs	r0, #3
 1313 0148 0CE0     		b	.L69
 1314              	.L96:
 810:Drivers/STM32H7xx_HAL_Driver/Src/stm32h7xx_hal_uart_ex.c ****     /* At end of Rx process, restore huart->RxState to Ready */
 1315              		.loc 1 810 5 is_stmt 1 view .LVU399
 810:Drivers/STM32H7xx_HAL_Driver/Src/stm32h7xx_hal_uart_ex.c ****     /* At end of Rx process, restore huart->RxState to Ready */
 1316              		.loc 1 810 19 is_stmt 0 view .LVU400
 1317 014a B4F85C30 		ldrh	r3, [r4, #92]
 810:Drivers/STM32H7xx_HAL_Driver/Src/stm32h7xx_hal_uart_ex.c ****     /* At end of Rx process, restore huart->RxState to Ready */
 1318              		.loc 1 810 39 view .LVU401
 1319 014e B4F85E20 		ldrh	r2, [r4, #94]
 1320 0152 92B2     		uxth	r2, r2
 810:Drivers/STM32H7xx_HAL_Driver/Src/stm32h7xx_hal_uart_ex.c ****     /* At end of Rx process, restore huart->RxState to Ready */
 1321              		.loc 1 810 32 view .LVU402
 1322 0154 9B1A     		subs	r3, r3, r2
 810:Drivers/STM32H7xx_HAL_Driver/Src/stm32h7xx_hal_uart_ex.c ****     /* At end of Rx process, restore huart->RxState to Ready */
 1323              		.loc 1 810 12 view .LVU403
 1324 0156 2B80     		strh	r3, [r5]	@ movhi
 812:Drivers/STM32H7xx_HAL_Driver/Src/stm32h7xx_hal_uart_ex.c **** 
 1325              		.loc 1 812 5 is_stmt 1 view .LVU404
 812:Drivers/STM32H7xx_HAL_Driver/Src/stm32h7xx_hal_uart_ex.c **** 
 1326              		.loc 1 812 20 is_stmt 0 view .LVU405
 1327 0158 2023     		movs	r3, #32
 1328 015a C4F88830 		str	r3, [r4, #136]
 814:Drivers/STM32H7xx_HAL_Driver/Src/stm32h7xx_hal_uart_ex.c ****   }
 1329              		.loc 1 814 5 is_stmt 1 view .LVU406
 814:Drivers/STM32H7xx_HAL_Driver/Src/stm32h7xx_hal_uart_ex.c ****   }
 1330              		.loc 1 814 12 is_stmt 0 view .LVU407
 1331 015e 0020     		movs	r0, #0
 1332 0160 00E0     		b	.L69
 1333              	.LVL94:
ARM GAS  C:\Users\jisu8\AppData\Local\Temp\ccyzchVo.s 			page 48


 1334              	.L86:
 818:Drivers/STM32H7xx_HAL_Driver/Src/stm32h7xx_hal_uart_ex.c ****   }
 1335              		.loc 1 818 12 view .LVU408
 1336 0162 0220     		movs	r0, #2
 1337              	.LVL95:
 1338              	.L69:
 820:Drivers/STM32H7xx_HAL_Driver/Src/stm32h7xx_hal_uart_ex.c **** 
 1339              		.loc 1 820 1 view .LVU409
 1340 0164 BDE8F087 		pop	{r4, r5, r6, r7, r8, r9, r10, pc}
 1341              	.LVL96:
 1342              	.L87:
 724:Drivers/STM32H7xx_HAL_Driver/Src/stm32h7xx_hal_uart_ex.c ****     }
 1343              		.loc 1 724 15 view .LVU410
 1344 0168 0120     		movs	r0, #1
 1345              	.LVL97:
 724:Drivers/STM32H7xx_HAL_Driver/Src/stm32h7xx_hal_uart_ex.c ****     }
 1346              		.loc 1 724 15 view .LVU411
 1347 016a FBE7     		b	.L69
 1348              	.LVL98:
 1349              	.L88:
 727:Drivers/STM32H7xx_HAL_Driver/Src/stm32h7xx_hal_uart_ex.c **** 
 1350              		.loc 1 727 5 view .LVU412
 1351 016c 0220     		movs	r0, #2
 1352              	.LVL99:
 727:Drivers/STM32H7xx_HAL_Driver/Src/stm32h7xx_hal_uart_ex.c **** 
 1353              		.loc 1 727 5 view .LVU413
 1354 016e F9E7     		b	.L69
 1355              		.cfi_endproc
 1356              	.LFE343:
 1358              		.section	.text.HAL_UARTEx_ReceiveToIdle_IT,"ax",%progbits
 1359              		.align	1
 1360              		.global	HAL_UARTEx_ReceiveToIdle_IT
 1361              		.syntax unified
 1362              		.thumb
 1363              		.thumb_func
 1365              	HAL_UARTEx_ReceiveToIdle_IT:
 1366              	.LVL100:
 1367              	.LFB344:
 837:Drivers/STM32H7xx_HAL_Driver/Src/stm32h7xx_hal_uart_ex.c ****   HAL_StatusTypeDef status;
 1368              		.loc 1 837 1 is_stmt 1 view -0
 1369              		.cfi_startproc
 1370              		@ args = 0, pretend = 0, frame = 0
 1371              		@ frame_needed = 0, uses_anonymous_args = 0
 838:Drivers/STM32H7xx_HAL_Driver/Src/stm32h7xx_hal_uart_ex.c **** 
 1372              		.loc 1 838 3 view .LVU415
 841:Drivers/STM32H7xx_HAL_Driver/Src/stm32h7xx_hal_uart_ex.c ****   {
 1373              		.loc 1 841 3 view .LVU416
 841:Drivers/STM32H7xx_HAL_Driver/Src/stm32h7xx_hal_uart_ex.c ****   {
 1374              		.loc 1 841 12 is_stmt 0 view .LVU417
 1375 0000 D0F88830 		ldr	r3, [r0, #136]
 841:Drivers/STM32H7xx_HAL_Driver/Src/stm32h7xx_hal_uart_ex.c ****   {
 1376              		.loc 1 841 6 view .LVU418
 1377 0004 202B     		cmp	r3, #32
 1378 0006 1ED1     		bne	.L102
 837:Drivers/STM32H7xx_HAL_Driver/Src/stm32h7xx_hal_uart_ex.c ****   HAL_StatusTypeDef status;
 1379              		.loc 1 837 1 view .LVU419
 1380 0008 10B5     		push	{r4, lr}
ARM GAS  C:\Users\jisu8\AppData\Local\Temp\ccyzchVo.s 			page 49


 1381              	.LCFI17:
 1382              		.cfi_def_cfa_offset 8
 1383              		.cfi_offset 4, -8
 1384              		.cfi_offset 14, -4
 1385 000a 0446     		mov	r4, r0
 843:Drivers/STM32H7xx_HAL_Driver/Src/stm32h7xx_hal_uart_ex.c ****     {
 1386              		.loc 1 843 5 is_stmt 1 view .LVU420
 843:Drivers/STM32H7xx_HAL_Driver/Src/stm32h7xx_hal_uart_ex.c ****     {
 1387              		.loc 1 843 8 is_stmt 0 view .LVU421
 1388 000c 002A     		cmp	r2, #0
 1389 000e 18BF     		it	ne
 1390 0010 0029     		cmpne	r1, #0
 1391 0012 1AD0     		beq	.L103
 848:Drivers/STM32H7xx_HAL_Driver/Src/stm32h7xx_hal_uart_ex.c **** 
 1392              		.loc 1 848 5 is_stmt 1 view .LVU422
 848:Drivers/STM32H7xx_HAL_Driver/Src/stm32h7xx_hal_uart_ex.c **** 
 1393              		.loc 1 848 5 view .LVU423
 1394 0014 90F88030 		ldrb	r3, [r0, #128]	@ zero_extendqisi2
 1395 0018 012B     		cmp	r3, #1
 1396 001a 18D0     		beq	.L104
 848:Drivers/STM32H7xx_HAL_Driver/Src/stm32h7xx_hal_uart_ex.c **** 
 1397              		.loc 1 848 5 discriminator 2 view .LVU424
 1398 001c 0123     		movs	r3, #1
 1399 001e 80F88030 		strb	r3, [r0, #128]
 848:Drivers/STM32H7xx_HAL_Driver/Src/stm32h7xx_hal_uart_ex.c **** 
 1400              		.loc 1 848 5 discriminator 2 view .LVU425
 851:Drivers/STM32H7xx_HAL_Driver/Src/stm32h7xx_hal_uart_ex.c **** 
 1401              		.loc 1 851 5 discriminator 2 view .LVU426
 851:Drivers/STM32H7xx_HAL_Driver/Src/stm32h7xx_hal_uart_ex.c **** 
 1402              		.loc 1 851 26 is_stmt 0 discriminator 2 view .LVU427
 1403 0022 C366     		str	r3, [r0, #108]
 853:Drivers/STM32H7xx_HAL_Driver/Src/stm32h7xx_hal_uart_ex.c **** 
 1404              		.loc 1 853 5 is_stmt 1 discriminator 2 view .LVU428
 853:Drivers/STM32H7xx_HAL_Driver/Src/stm32h7xx_hal_uart_ex.c **** 
 1405              		.loc 1 853 15 is_stmt 0 discriminator 2 view .LVU429
 1406 0024 FFF7FEFF 		bl	UART_Start_Receive_IT
 1407              	.LVL101:
 856:Drivers/STM32H7xx_HAL_Driver/Src/stm32h7xx_hal_uart_ex.c ****     {
 1408              		.loc 1 856 5 is_stmt 1 discriminator 2 view .LVU430
 856:Drivers/STM32H7xx_HAL_Driver/Src/stm32h7xx_hal_uart_ex.c ****     {
 1409              		.loc 1 856 8 is_stmt 0 discriminator 2 view .LVU431
 1410 0028 80B9     		cbnz	r0, .L100
 858:Drivers/STM32H7xx_HAL_Driver/Src/stm32h7xx_hal_uart_ex.c ****       {
 1411              		.loc 1 858 7 is_stmt 1 view .LVU432
 858:Drivers/STM32H7xx_HAL_Driver/Src/stm32h7xx_hal_uart_ex.c ****       {
 1412              		.loc 1 858 16 is_stmt 0 view .LVU433
 1413 002a E36E     		ldr	r3, [r4, #108]
 858:Drivers/STM32H7xx_HAL_Driver/Src/stm32h7xx_hal_uart_ex.c ****       {
 1414              		.loc 1 858 10 view .LVU434
 1415 002c 012B     		cmp	r3, #1
 1416 002e 01D0     		beq	.L110
 869:Drivers/STM32H7xx_HAL_Driver/Src/stm32h7xx_hal_uart_ex.c ****       }
 1417              		.loc 1 869 16 view .LVU435
 1418 0030 0120     		movs	r0, #1
 1419              	.LVL102:
 873:Drivers/STM32H7xx_HAL_Driver/Src/stm32h7xx_hal_uart_ex.c ****   }
 1420              		.loc 1 873 5 is_stmt 1 view .LVU436
ARM GAS  C:\Users\jisu8\AppData\Local\Temp\ccyzchVo.s 			page 50


 873:Drivers/STM32H7xx_HAL_Driver/Src/stm32h7xx_hal_uart_ex.c ****   }
 1421              		.loc 1 873 12 is_stmt 0 view .LVU437
 1422 0032 0BE0     		b	.L100
 1423              	.LVL103:
 1424              	.L110:
 860:Drivers/STM32H7xx_HAL_Driver/Src/stm32h7xx_hal_uart_ex.c ****         SET_BIT(huart->Instance->CR1, USART_CR1_IDLEIE);
 1425              		.loc 1 860 9 is_stmt 1 view .LVU438
 1426 0034 2368     		ldr	r3, [r4]
 1427 0036 1022     		movs	r2, #16
 1428 0038 1A62     		str	r2, [r3, #32]
 861:Drivers/STM32H7xx_HAL_Driver/Src/stm32h7xx_hal_uart_ex.c ****       }
 1429              		.loc 1 861 9 view .LVU439
 1430 003a 2268     		ldr	r2, [r4]
 1431 003c 1368     		ldr	r3, [r2]
 1432 003e 43F01003 		orr	r3, r3, #16
 1433 0042 1360     		str	r3, [r2]
 1434 0044 02E0     		b	.L100
 1435              	.LVL104:
 1436              	.L102:
 1437              	.LCFI18:
 1438              		.cfi_def_cfa_offset 0
 1439              		.cfi_restore 4
 1440              		.cfi_restore 14
 877:Drivers/STM32H7xx_HAL_Driver/Src/stm32h7xx_hal_uart_ex.c ****   }
 1441              		.loc 1 877 12 is_stmt 0 view .LVU440
 1442 0046 0220     		movs	r0, #2
 1443              	.LVL105:
 879:Drivers/STM32H7xx_HAL_Driver/Src/stm32h7xx_hal_uart_ex.c **** 
 1444              		.loc 1 879 1 view .LVU441
 1445 0048 7047     		bx	lr
 1446              	.LVL106:
 1447              	.L103:
 1448              	.LCFI19:
 1449              		.cfi_def_cfa_offset 8
 1450              		.cfi_offset 4, -8
 1451              		.cfi_offset 14, -4
 845:Drivers/STM32H7xx_HAL_Driver/Src/stm32h7xx_hal_uart_ex.c ****     }
 1452              		.loc 1 845 14 view .LVU442
 1453 004a 0120     		movs	r0, #1
 1454              	.LVL107:
 1455              	.L100:
 879:Drivers/STM32H7xx_HAL_Driver/Src/stm32h7xx_hal_uart_ex.c **** 
 1456              		.loc 1 879 1 view .LVU443
 1457 004c 10BD     		pop	{r4, pc}
 1458              	.LVL108:
 1459              	.L104:
 848:Drivers/STM32H7xx_HAL_Driver/Src/stm32h7xx_hal_uart_ex.c **** 
 1460              		.loc 1 848 5 view .LVU444
 1461 004e 0220     		movs	r0, #2
 1462              	.LVL109:
 848:Drivers/STM32H7xx_HAL_Driver/Src/stm32h7xx_hal_uart_ex.c **** 
 1463              		.loc 1 848 5 view .LVU445
 1464 0050 FCE7     		b	.L100
 1465              		.cfi_endproc
 1466              	.LFE344:
 1468              		.section	.text.HAL_UARTEx_ReceiveToIdle_DMA,"ax",%progbits
 1469              		.align	1
ARM GAS  C:\Users\jisu8\AppData\Local\Temp\ccyzchVo.s 			page 51


 1470              		.global	HAL_UARTEx_ReceiveToIdle_DMA
 1471              		.syntax unified
 1472              		.thumb
 1473              		.thumb_func
 1475              	HAL_UARTEx_ReceiveToIdle_DMA:
 1476              	.LVL110:
 1477              	.LFB345:
 899:Drivers/STM32H7xx_HAL_Driver/Src/stm32h7xx_hal_uart_ex.c ****   HAL_StatusTypeDef status;
 1478              		.loc 1 899 1 is_stmt 1 view -0
 1479              		.cfi_startproc
 1480              		@ args = 0, pretend = 0, frame = 0
 1481              		@ frame_needed = 0, uses_anonymous_args = 0
 900:Drivers/STM32H7xx_HAL_Driver/Src/stm32h7xx_hal_uart_ex.c **** 
 1482              		.loc 1 900 3 view .LVU447
 903:Drivers/STM32H7xx_HAL_Driver/Src/stm32h7xx_hal_uart_ex.c ****   {
 1483              		.loc 1 903 3 view .LVU448
 903:Drivers/STM32H7xx_HAL_Driver/Src/stm32h7xx_hal_uart_ex.c ****   {
 1484              		.loc 1 903 12 is_stmt 0 view .LVU449
 1485 0000 D0F88830 		ldr	r3, [r0, #136]
 903:Drivers/STM32H7xx_HAL_Driver/Src/stm32h7xx_hal_uart_ex.c ****   {
 1486              		.loc 1 903 6 view .LVU450
 1487 0004 202B     		cmp	r3, #32
 1488 0006 1ED1     		bne	.L114
 899:Drivers/STM32H7xx_HAL_Driver/Src/stm32h7xx_hal_uart_ex.c ****   HAL_StatusTypeDef status;
 1489              		.loc 1 899 1 view .LVU451
 1490 0008 10B5     		push	{r4, lr}
 1491              	.LCFI20:
 1492              		.cfi_def_cfa_offset 8
 1493              		.cfi_offset 4, -8
 1494              		.cfi_offset 14, -4
 1495 000a 0446     		mov	r4, r0
 905:Drivers/STM32H7xx_HAL_Driver/Src/stm32h7xx_hal_uart_ex.c ****     {
 1496              		.loc 1 905 5 is_stmt 1 view .LVU452
 905:Drivers/STM32H7xx_HAL_Driver/Src/stm32h7xx_hal_uart_ex.c ****     {
 1497              		.loc 1 905 8 is_stmt 0 view .LVU453
 1498 000c 002A     		cmp	r2, #0
 1499 000e 18BF     		it	ne
 1500 0010 0029     		cmpne	r1, #0
 1501 0012 1AD0     		beq	.L115
 910:Drivers/STM32H7xx_HAL_Driver/Src/stm32h7xx_hal_uart_ex.c **** 
 1502              		.loc 1 910 5 is_stmt 1 view .LVU454
 910:Drivers/STM32H7xx_HAL_Driver/Src/stm32h7xx_hal_uart_ex.c **** 
 1503              		.loc 1 910 5 view .LVU455
 1504 0014 90F88030 		ldrb	r3, [r0, #128]	@ zero_extendqisi2
 1505 0018 012B     		cmp	r3, #1
 1506 001a 18D0     		beq	.L116
 910:Drivers/STM32H7xx_HAL_Driver/Src/stm32h7xx_hal_uart_ex.c **** 
 1507              		.loc 1 910 5 discriminator 2 view .LVU456
 1508 001c 0123     		movs	r3, #1
 1509 001e 80F88030 		strb	r3, [r0, #128]
 910:Drivers/STM32H7xx_HAL_Driver/Src/stm32h7xx_hal_uart_ex.c **** 
 1510              		.loc 1 910 5 discriminator 2 view .LVU457
 913:Drivers/STM32H7xx_HAL_Driver/Src/stm32h7xx_hal_uart_ex.c **** 
 1511              		.loc 1 913 5 discriminator 2 view .LVU458
 913:Drivers/STM32H7xx_HAL_Driver/Src/stm32h7xx_hal_uart_ex.c **** 
 1512              		.loc 1 913 26 is_stmt 0 discriminator 2 view .LVU459
 1513 0022 C366     		str	r3, [r0, #108]
ARM GAS  C:\Users\jisu8\AppData\Local\Temp\ccyzchVo.s 			page 52


 915:Drivers/STM32H7xx_HAL_Driver/Src/stm32h7xx_hal_uart_ex.c **** 
 1514              		.loc 1 915 5 is_stmt 1 discriminator 2 view .LVU460
 915:Drivers/STM32H7xx_HAL_Driver/Src/stm32h7xx_hal_uart_ex.c **** 
 1515              		.loc 1 915 15 is_stmt 0 discriminator 2 view .LVU461
 1516 0024 FFF7FEFF 		bl	UART_Start_Receive_DMA
 1517              	.LVL111:
 918:Drivers/STM32H7xx_HAL_Driver/Src/stm32h7xx_hal_uart_ex.c ****     {
 1518              		.loc 1 918 5 is_stmt 1 discriminator 2 view .LVU462
 918:Drivers/STM32H7xx_HAL_Driver/Src/stm32h7xx_hal_uart_ex.c ****     {
 1519              		.loc 1 918 8 is_stmt 0 discriminator 2 view .LVU463
 1520 0028 80B9     		cbnz	r0, .L112
 920:Drivers/STM32H7xx_HAL_Driver/Src/stm32h7xx_hal_uart_ex.c ****       {
 1521              		.loc 1 920 7 is_stmt 1 view .LVU464
 920:Drivers/STM32H7xx_HAL_Driver/Src/stm32h7xx_hal_uart_ex.c ****       {
 1522              		.loc 1 920 16 is_stmt 0 view .LVU465
 1523 002a E36E     		ldr	r3, [r4, #108]
 920:Drivers/STM32H7xx_HAL_Driver/Src/stm32h7xx_hal_uart_ex.c ****       {
 1524              		.loc 1 920 10 view .LVU466
 1525 002c 012B     		cmp	r3, #1
 1526 002e 01D0     		beq	.L122
 931:Drivers/STM32H7xx_HAL_Driver/Src/stm32h7xx_hal_uart_ex.c ****       }
 1527              		.loc 1 931 16 view .LVU467
 1528 0030 0120     		movs	r0, #1
 1529              	.LVL112:
 935:Drivers/STM32H7xx_HAL_Driver/Src/stm32h7xx_hal_uart_ex.c ****   }
 1530              		.loc 1 935 5 is_stmt 1 view .LVU468
 935:Drivers/STM32H7xx_HAL_Driver/Src/stm32h7xx_hal_uart_ex.c ****   }
 1531              		.loc 1 935 12 is_stmt 0 view .LVU469
 1532 0032 0BE0     		b	.L112
 1533              	.LVL113:
 1534              	.L122:
 922:Drivers/STM32H7xx_HAL_Driver/Src/stm32h7xx_hal_uart_ex.c ****         SET_BIT(huart->Instance->CR1, USART_CR1_IDLEIE);
 1535              		.loc 1 922 9 is_stmt 1 view .LVU470
 1536 0034 2368     		ldr	r3, [r4]
 1537 0036 1022     		movs	r2, #16
 1538 0038 1A62     		str	r2, [r3, #32]
 923:Drivers/STM32H7xx_HAL_Driver/Src/stm32h7xx_hal_uart_ex.c ****       }
 1539              		.loc 1 923 9 view .LVU471
 1540 003a 2268     		ldr	r2, [r4]
 1541 003c 1368     		ldr	r3, [r2]
 1542 003e 43F01003 		orr	r3, r3, #16
 1543 0042 1360     		str	r3, [r2]
 1544 0044 02E0     		b	.L112
 1545              	.LVL114:
 1546              	.L114:
 1547              	.LCFI21:
 1548              		.cfi_def_cfa_offset 0
 1549              		.cfi_restore 4
 1550              		.cfi_restore 14
 939:Drivers/STM32H7xx_HAL_Driver/Src/stm32h7xx_hal_uart_ex.c ****   }
 1551              		.loc 1 939 12 is_stmt 0 view .LVU472
 1552 0046 0220     		movs	r0, #2
 1553              	.LVL115:
 941:Drivers/STM32H7xx_HAL_Driver/Src/stm32h7xx_hal_uart_ex.c **** 
 1554              		.loc 1 941 1 view .LVU473
 1555 0048 7047     		bx	lr
 1556              	.LVL116:
ARM GAS  C:\Users\jisu8\AppData\Local\Temp\ccyzchVo.s 			page 53


 1557              	.L115:
 1558              	.LCFI22:
 1559              		.cfi_def_cfa_offset 8
 1560              		.cfi_offset 4, -8
 1561              		.cfi_offset 14, -4
 907:Drivers/STM32H7xx_HAL_Driver/Src/stm32h7xx_hal_uart_ex.c ****     }
 1562              		.loc 1 907 14 view .LVU474
 1563 004a 0120     		movs	r0, #1
 1564              	.LVL117:
 1565              	.L112:
 941:Drivers/STM32H7xx_HAL_Driver/Src/stm32h7xx_hal_uart_ex.c **** 
 1566              		.loc 1 941 1 view .LVU475
 1567 004c 10BD     		pop	{r4, pc}
 1568              	.LVL118:
 1569              	.L116:
 910:Drivers/STM32H7xx_HAL_Driver/Src/stm32h7xx_hal_uart_ex.c **** 
 1570              		.loc 1 910 5 view .LVU476
 1571 004e 0220     		movs	r0, #2
 1572              	.LVL119:
 910:Drivers/STM32H7xx_HAL_Driver/Src/stm32h7xx_hal_uart_ex.c **** 
 1573              		.loc 1 910 5 view .LVU477
 1574 0050 FCE7     		b	.L112
 1575              		.cfi_endproc
 1576              	.LFE345:
 1578              		.section	.rodata.denominator.0,"a"
 1579              		.align	2
 1580              		.set	.LANCHOR1,. + 0
 1583              	denominator.0:
 1584 0000 08040204 		.ascii	"\010\004\002\004\010\001\001\001"
 1584      08010101 
 1585              		.section	.rodata.numerator.1,"a"
 1586              		.align	2
 1587              		.set	.LANCHOR0,. + 0
 1590              	numerator.1:
 1591 0000 01010103 		.ascii	"\001\001\001\003\007\001\000\000"
 1591      07010000 
 1592              		.text
 1593              	.Letext0:
 1594              		.file 2 "d:\\3.tools\\arm_gcc_toolchain\\arm-none-eabi\\include\\machine\\_default_types.h"
 1595              		.file 3 "d:\\3.tools\\arm_gcc_toolchain\\arm-none-eabi\\include\\sys\\_stdint.h"
 1596              		.file 4 "Drivers/CMSIS/Device/ST/STM32H7xx/Include/stm32h743xx.h"
 1597              		.file 5 "Drivers/CMSIS/Device/ST/STM32H7xx/Include/stm32h7xx.h"
 1598              		.file 6 "Drivers/STM32H7xx_HAL_Driver/Inc/stm32h7xx_hal_def.h"
 1599              		.file 7 "Drivers/STM32H7xx_HAL_Driver/Inc/stm32h7xx_hal_dma.h"
 1600              		.file 8 "Drivers/STM32H7xx_HAL_Driver/Inc/stm32h7xx_hal_uart.h"
 1601              		.file 9 "Drivers/STM32H7xx_HAL_Driver/Inc/stm32h7xx_hal_uart_ex.h"
 1602              		.file 10 "Drivers/STM32H7xx_HAL_Driver/Inc/stm32h7xx_hal.h"
ARM GAS  C:\Users\jisu8\AppData\Local\Temp\ccyzchVo.s 			page 54


DEFINED SYMBOLS
                            *ABS*:00000000 stm32h7xx_hal_uart_ex.c
C:\Users\jisu8\AppData\Local\Temp\ccyzchVo.s:19     .text.UARTEx_Wakeup_AddressConfig:00000000 $t
C:\Users\jisu8\AppData\Local\Temp\ccyzchVo.s:24     .text.UARTEx_Wakeup_AddressConfig:00000000 UARTEx_Wakeup_AddressConfig
C:\Users\jisu8\AppData\Local\Temp\ccyzchVo.s:64     .text.UARTEx_SetNbDataToProcess:00000000 $t
C:\Users\jisu8\AppData\Local\Temp\ccyzchVo.s:69     .text.UARTEx_SetNbDataToProcess:00000000 UARTEx_SetNbDataToProcess
C:\Users\jisu8\AppData\Local\Temp\ccyzchVo.s:155    .text.UARTEx_SetNbDataToProcess:00000044 $d
C:\Users\jisu8\AppData\Local\Temp\ccyzchVo.s:161    .text.HAL_RS485Ex_Init:00000000 $t
C:\Users\jisu8\AppData\Local\Temp\ccyzchVo.s:167    .text.HAL_RS485Ex_Init:00000000 HAL_RS485Ex_Init
C:\Users\jisu8\AppData\Local\Temp\ccyzchVo.s:322    .text.HAL_RS485Ex_Init:00000098 $d
C:\Users\jisu8\AppData\Local\Temp\ccyzchVo.s:328    .text.HAL_UARTEx_WakeupCallback:00000000 $t
C:\Users\jisu8\AppData\Local\Temp\ccyzchVo.s:334    .text.HAL_UARTEx_WakeupCallback:00000000 HAL_UARTEx_WakeupCallback
C:\Users\jisu8\AppData\Local\Temp\ccyzchVo.s:349    .text.HAL_UARTEx_RxFifoFullCallback:00000000 $t
C:\Users\jisu8\AppData\Local\Temp\ccyzchVo.s:355    .text.HAL_UARTEx_RxFifoFullCallback:00000000 HAL_UARTEx_RxFifoFullCallback
C:\Users\jisu8\AppData\Local\Temp\ccyzchVo.s:370    .text.HAL_UARTEx_TxFifoEmptyCallback:00000000 $t
C:\Users\jisu8\AppData\Local\Temp\ccyzchVo.s:376    .text.HAL_UARTEx_TxFifoEmptyCallback:00000000 HAL_UARTEx_TxFifoEmptyCallback
C:\Users\jisu8\AppData\Local\Temp\ccyzchVo.s:391    .text.HAL_MultiProcessorEx_AddressLength_Set:00000000 $t
C:\Users\jisu8\AppData\Local\Temp\ccyzchVo.s:397    .text.HAL_MultiProcessorEx_AddressLength_Set:00000000 HAL_MultiProcessorEx_AddressLength_Set
C:\Users\jisu8\AppData\Local\Temp\ccyzchVo.s:461    .text.HAL_UARTEx_StopModeWakeUpSourceConfig:00000000 $t
C:\Users\jisu8\AppData\Local\Temp\ccyzchVo.s:467    .text.HAL_UARTEx_StopModeWakeUpSourceConfig:00000000 HAL_UARTEx_StopModeWakeUpSourceConfig
C:\Users\jisu8\AppData\Local\Temp\ccyzchVo.s:592    .text.HAL_UARTEx_EnableStopMode:00000000 $t
C:\Users\jisu8\AppData\Local\Temp\ccyzchVo.s:598    .text.HAL_UARTEx_EnableStopMode:00000000 HAL_UARTEx_EnableStopMode
C:\Users\jisu8\AppData\Local\Temp\ccyzchVo.s:642    .text.HAL_UARTEx_DisableStopMode:00000000 $t
C:\Users\jisu8\AppData\Local\Temp\ccyzchVo.s:648    .text.HAL_UARTEx_DisableStopMode:00000000 HAL_UARTEx_DisableStopMode
C:\Users\jisu8\AppData\Local\Temp\ccyzchVo.s:692    .text.HAL_UARTEx_EnableFifoMode:00000000 $t
C:\Users\jisu8\AppData\Local\Temp\ccyzchVo.s:698    .text.HAL_UARTEx_EnableFifoMode:00000000 HAL_UARTEx_EnableFifoMode
C:\Users\jisu8\AppData\Local\Temp\ccyzchVo.s:777    .text.HAL_UARTEx_DisableFifoMode:00000000 $t
C:\Users\jisu8\AppData\Local\Temp\ccyzchVo.s:783    .text.HAL_UARTEx_DisableFifoMode:00000000 HAL_UARTEx_DisableFifoMode
C:\Users\jisu8\AppData\Local\Temp\ccyzchVo.s:854    .text.HAL_UARTEx_SetTxFifoThreshold:00000000 $t
C:\Users\jisu8\AppData\Local\Temp\ccyzchVo.s:860    .text.HAL_UARTEx_SetTxFifoThreshold:00000000 HAL_UARTEx_SetTxFifoThreshold
C:\Users\jisu8\AppData\Local\Temp\ccyzchVo.s:941    .text.HAL_UARTEx_SetRxFifoThreshold:00000000 $t
C:\Users\jisu8\AppData\Local\Temp\ccyzchVo.s:947    .text.HAL_UARTEx_SetRxFifoThreshold:00000000 HAL_UARTEx_SetRxFifoThreshold
C:\Users\jisu8\AppData\Local\Temp\ccyzchVo.s:1028   .text.HAL_UARTEx_ReceiveToIdle:00000000 $t
C:\Users\jisu8\AppData\Local\Temp\ccyzchVo.s:1034   .text.HAL_UARTEx_ReceiveToIdle:00000000 HAL_UARTEx_ReceiveToIdle
C:\Users\jisu8\AppData\Local\Temp\ccyzchVo.s:1359   .text.HAL_UARTEx_ReceiveToIdle_IT:00000000 $t
C:\Users\jisu8\AppData\Local\Temp\ccyzchVo.s:1365   .text.HAL_UARTEx_ReceiveToIdle_IT:00000000 HAL_UARTEx_ReceiveToIdle_IT
C:\Users\jisu8\AppData\Local\Temp\ccyzchVo.s:1469   .text.HAL_UARTEx_ReceiveToIdle_DMA:00000000 $t
C:\Users\jisu8\AppData\Local\Temp\ccyzchVo.s:1475   .text.HAL_UARTEx_ReceiveToIdle_DMA:00000000 HAL_UARTEx_ReceiveToIdle_DMA
C:\Users\jisu8\AppData\Local\Temp\ccyzchVo.s:1579   .rodata.denominator.0:00000000 $d
C:\Users\jisu8\AppData\Local\Temp\ccyzchVo.s:1583   .rodata.denominator.0:00000000 denominator.0
C:\Users\jisu8\AppData\Local\Temp\ccyzchVo.s:1586   .rodata.numerator.1:00000000 $d
C:\Users\jisu8\AppData\Local\Temp\ccyzchVo.s:1590   .rodata.numerator.1:00000000 numerator.1

UNDEFINED SYMBOLS
UART_SetConfig
UART_CheckIdleState
UART_InitCallbacksToDefault
UART_AdvFeatureConfig
HAL_UART_MspInit
HAL_GetTick
UART_WaitOnFlagUntilTimeout
UART_Start_Receive_IT
UART_Start_Receive_DMA
