ARM GAS  /var/folders/d0/cymppscj10lcmm48h781wrc80000gn/T//ccIjALm5.s 			page 1


   1              		.cpu cortex-m7
   2              		.arch armv7e-m
   3              		.fpu fpv5-d16
   4              		.eabi_attribute 28, 1
   5              		.eabi_attribute 20, 1
   6              		.eabi_attribute 21, 1
   7              		.eabi_attribute 23, 3
   8              		.eabi_attribute 24, 1
   9              		.eabi_attribute 25, 1
  10              		.eabi_attribute 26, 1
  11              		.eabi_attribute 30, 6
  12              		.eabi_attribute 34, 1
  13              		.eabi_attribute 18, 4
  14              		.file	"stm32h7xx_hal_tim_ex.c"
  15              		.text
  16              	.Ltext0:
  17              		.cfi_sections	.debug_frame
  18              		.section	.text.HAL_TIMEx_HallSensor_Init,"ax",%progbits
  19              		.align	1
  20              		.global	HAL_TIMEx_HallSensor_Init
  21              		.syntax unified
  22              		.thumb
  23              		.thumb_func
  25              	HAL_TIMEx_HallSensor_Init:
  26              	.LFB333:
  27              		.file 1 "Drivers/STM32H7xx_HAL_Driver/Src/stm32h7xx_hal_tim_ex.c"
   1:Drivers/STM32H7xx_HAL_Driver/Src/stm32h7xx_hal_tim_ex.c **** /**
   2:Drivers/STM32H7xx_HAL_Driver/Src/stm32h7xx_hal_tim_ex.c ****   ******************************************************************************
   3:Drivers/STM32H7xx_HAL_Driver/Src/stm32h7xx_hal_tim_ex.c ****   * @file    stm32h7xx_hal_tim_ex.c
   4:Drivers/STM32H7xx_HAL_Driver/Src/stm32h7xx_hal_tim_ex.c ****   * @author  MCD Application Team
   5:Drivers/STM32H7xx_HAL_Driver/Src/stm32h7xx_hal_tim_ex.c ****   * @brief   TIM HAL module driver.
   6:Drivers/STM32H7xx_HAL_Driver/Src/stm32h7xx_hal_tim_ex.c ****   *          This file provides firmware functions to manage the following
   7:Drivers/STM32H7xx_HAL_Driver/Src/stm32h7xx_hal_tim_ex.c ****   *          functionalities of the Timer Extended peripheral:
   8:Drivers/STM32H7xx_HAL_Driver/Src/stm32h7xx_hal_tim_ex.c ****   *           + Time Hall Sensor Interface Initialization
   9:Drivers/STM32H7xx_HAL_Driver/Src/stm32h7xx_hal_tim_ex.c ****   *           + Time Hall Sensor Interface Start
  10:Drivers/STM32H7xx_HAL_Driver/Src/stm32h7xx_hal_tim_ex.c ****   *           + Time Complementary signal break and dead time configuration
  11:Drivers/STM32H7xx_HAL_Driver/Src/stm32h7xx_hal_tim_ex.c ****   *           + Time Master and Slave synchronization configuration
  12:Drivers/STM32H7xx_HAL_Driver/Src/stm32h7xx_hal_tim_ex.c ****   *           + Time Output Compare/PWM Channel Configuration (for channels 5 and 6)
  13:Drivers/STM32H7xx_HAL_Driver/Src/stm32h7xx_hal_tim_ex.c ****   *           + Timer remapping capabilities configuration
  14:Drivers/STM32H7xx_HAL_Driver/Src/stm32h7xx_hal_tim_ex.c ****   ******************************************************************************
  15:Drivers/STM32H7xx_HAL_Driver/Src/stm32h7xx_hal_tim_ex.c ****   * @attention
  16:Drivers/STM32H7xx_HAL_Driver/Src/stm32h7xx_hal_tim_ex.c ****   *
  17:Drivers/STM32H7xx_HAL_Driver/Src/stm32h7xx_hal_tim_ex.c ****   * Copyright (c) 2017 STMicroelectronics.
  18:Drivers/STM32H7xx_HAL_Driver/Src/stm32h7xx_hal_tim_ex.c ****   * All rights reserved.
  19:Drivers/STM32H7xx_HAL_Driver/Src/stm32h7xx_hal_tim_ex.c ****   *
  20:Drivers/STM32H7xx_HAL_Driver/Src/stm32h7xx_hal_tim_ex.c ****   * This software is licensed under terms that can be found in the LICENSE file
  21:Drivers/STM32H7xx_HAL_Driver/Src/stm32h7xx_hal_tim_ex.c ****   * in the root directory of this software component.
  22:Drivers/STM32H7xx_HAL_Driver/Src/stm32h7xx_hal_tim_ex.c ****   * If no LICENSE file comes with this software, it is provided AS-IS.
  23:Drivers/STM32H7xx_HAL_Driver/Src/stm32h7xx_hal_tim_ex.c ****   *
  24:Drivers/STM32H7xx_HAL_Driver/Src/stm32h7xx_hal_tim_ex.c ****   ******************************************************************************
  25:Drivers/STM32H7xx_HAL_Driver/Src/stm32h7xx_hal_tim_ex.c ****   @verbatim
  26:Drivers/STM32H7xx_HAL_Driver/Src/stm32h7xx_hal_tim_ex.c ****   ==============================================================================
  27:Drivers/STM32H7xx_HAL_Driver/Src/stm32h7xx_hal_tim_ex.c ****                       ##### TIMER Extended features #####
  28:Drivers/STM32H7xx_HAL_Driver/Src/stm32h7xx_hal_tim_ex.c ****   ==============================================================================
  29:Drivers/STM32H7xx_HAL_Driver/Src/stm32h7xx_hal_tim_ex.c ****   [..]
  30:Drivers/STM32H7xx_HAL_Driver/Src/stm32h7xx_hal_tim_ex.c ****     The Timer Extended features include:
  31:Drivers/STM32H7xx_HAL_Driver/Src/stm32h7xx_hal_tim_ex.c ****     (#) Complementary outputs with programmable dead-time for :
ARM GAS  /var/folders/d0/cymppscj10lcmm48h781wrc80000gn/T//ccIjALm5.s 			page 2


  32:Drivers/STM32H7xx_HAL_Driver/Src/stm32h7xx_hal_tim_ex.c ****         (++) Output Compare
  33:Drivers/STM32H7xx_HAL_Driver/Src/stm32h7xx_hal_tim_ex.c ****         (++) PWM generation (Edge and Center-aligned Mode)
  34:Drivers/STM32H7xx_HAL_Driver/Src/stm32h7xx_hal_tim_ex.c ****         (++) One-pulse mode output
  35:Drivers/STM32H7xx_HAL_Driver/Src/stm32h7xx_hal_tim_ex.c ****     (#) Synchronization circuit to control the timer with external signals and to
  36:Drivers/STM32H7xx_HAL_Driver/Src/stm32h7xx_hal_tim_ex.c ****         interconnect several timers together.
  37:Drivers/STM32H7xx_HAL_Driver/Src/stm32h7xx_hal_tim_ex.c ****     (#) Break input to put the timer output signals in reset state or in a known state.
  38:Drivers/STM32H7xx_HAL_Driver/Src/stm32h7xx_hal_tim_ex.c ****     (#) Supports incremental (quadrature) encoder and hall-sensor circuitry for
  39:Drivers/STM32H7xx_HAL_Driver/Src/stm32h7xx_hal_tim_ex.c ****         positioning purposes
  40:Drivers/STM32H7xx_HAL_Driver/Src/stm32h7xx_hal_tim_ex.c **** 
  41:Drivers/STM32H7xx_HAL_Driver/Src/stm32h7xx_hal_tim_ex.c ****             ##### How to use this driver #####
  42:Drivers/STM32H7xx_HAL_Driver/Src/stm32h7xx_hal_tim_ex.c ****   ==============================================================================
  43:Drivers/STM32H7xx_HAL_Driver/Src/stm32h7xx_hal_tim_ex.c ****     [..]
  44:Drivers/STM32H7xx_HAL_Driver/Src/stm32h7xx_hal_tim_ex.c ****      (#) Initialize the TIM low level resources by implementing the following functions
  45:Drivers/STM32H7xx_HAL_Driver/Src/stm32h7xx_hal_tim_ex.c ****          depending on the selected feature:
  46:Drivers/STM32H7xx_HAL_Driver/Src/stm32h7xx_hal_tim_ex.c ****            (++) Hall Sensor output : HAL_TIMEx_HallSensor_MspInit()
  47:Drivers/STM32H7xx_HAL_Driver/Src/stm32h7xx_hal_tim_ex.c **** 
  48:Drivers/STM32H7xx_HAL_Driver/Src/stm32h7xx_hal_tim_ex.c ****      (#) Initialize the TIM low level resources :
  49:Drivers/STM32H7xx_HAL_Driver/Src/stm32h7xx_hal_tim_ex.c ****         (##) Enable the TIM interface clock using __HAL_RCC_TIMx_CLK_ENABLE();
  50:Drivers/STM32H7xx_HAL_Driver/Src/stm32h7xx_hal_tim_ex.c ****         (##) TIM pins configuration
  51:Drivers/STM32H7xx_HAL_Driver/Src/stm32h7xx_hal_tim_ex.c ****             (+++) Enable the clock for the TIM GPIOs using the following function:
  52:Drivers/STM32H7xx_HAL_Driver/Src/stm32h7xx_hal_tim_ex.c ****               __HAL_RCC_GPIOx_CLK_ENABLE();
  53:Drivers/STM32H7xx_HAL_Driver/Src/stm32h7xx_hal_tim_ex.c ****             (+++) Configure these TIM pins in Alternate function mode using HAL_GPIO_Init();
  54:Drivers/STM32H7xx_HAL_Driver/Src/stm32h7xx_hal_tim_ex.c **** 
  55:Drivers/STM32H7xx_HAL_Driver/Src/stm32h7xx_hal_tim_ex.c ****      (#) The external Clock can be configured, if needed (the default clock is the
  56:Drivers/STM32H7xx_HAL_Driver/Src/stm32h7xx_hal_tim_ex.c ****          internal clock from the APBx), using the following function:
  57:Drivers/STM32H7xx_HAL_Driver/Src/stm32h7xx_hal_tim_ex.c ****          HAL_TIM_ConfigClockSource, the clock configuration should be done before
  58:Drivers/STM32H7xx_HAL_Driver/Src/stm32h7xx_hal_tim_ex.c ****          any start function.
  59:Drivers/STM32H7xx_HAL_Driver/Src/stm32h7xx_hal_tim_ex.c **** 
  60:Drivers/STM32H7xx_HAL_Driver/Src/stm32h7xx_hal_tim_ex.c ****      (#) Configure the TIM in the desired functioning mode using one of the
  61:Drivers/STM32H7xx_HAL_Driver/Src/stm32h7xx_hal_tim_ex.c ****          initialization function of this driver:
  62:Drivers/STM32H7xx_HAL_Driver/Src/stm32h7xx_hal_tim_ex.c ****           (++) HAL_TIMEx_HallSensor_Init() and HAL_TIMEx_ConfigCommutEvent(): to use the
  63:Drivers/STM32H7xx_HAL_Driver/Src/stm32h7xx_hal_tim_ex.c ****                Timer Hall Sensor Interface and the commutation event with the corresponding
  64:Drivers/STM32H7xx_HAL_Driver/Src/stm32h7xx_hal_tim_ex.c ****                Interrupt and DMA request if needed (Note that One Timer is used to interface
  65:Drivers/STM32H7xx_HAL_Driver/Src/stm32h7xx_hal_tim_ex.c ****                with the Hall sensor Interface and another Timer should be used to use
  66:Drivers/STM32H7xx_HAL_Driver/Src/stm32h7xx_hal_tim_ex.c ****                the commutation event).
  67:Drivers/STM32H7xx_HAL_Driver/Src/stm32h7xx_hal_tim_ex.c **** 
  68:Drivers/STM32H7xx_HAL_Driver/Src/stm32h7xx_hal_tim_ex.c ****      (#) Activate the TIM peripheral using one of the start functions:
  69:Drivers/STM32H7xx_HAL_Driver/Src/stm32h7xx_hal_tim_ex.c ****            (++) Complementary Output Compare : HAL_TIMEx_OCN_Start(), HAL_TIMEx_OCN_Start_DMA(),
  70:Drivers/STM32H7xx_HAL_Driver/Src/stm32h7xx_hal_tim_ex.c ****                 HAL_TIMEx_OCN_Start_IT()
  71:Drivers/STM32H7xx_HAL_Driver/Src/stm32h7xx_hal_tim_ex.c ****            (++) Complementary PWM generation : HAL_TIMEx_PWMN_Start(), HAL_TIMEx_PWMN_Start_DMA(),
  72:Drivers/STM32H7xx_HAL_Driver/Src/stm32h7xx_hal_tim_ex.c ****                 HAL_TIMEx_PWMN_Start_IT()
  73:Drivers/STM32H7xx_HAL_Driver/Src/stm32h7xx_hal_tim_ex.c ****            (++) Complementary One-pulse mode output : HAL_TIMEx_OnePulseN_Start(), HAL_TIMEx_OnePul
  74:Drivers/STM32H7xx_HAL_Driver/Src/stm32h7xx_hal_tim_ex.c ****            (++) Hall Sensor output : HAL_TIMEx_HallSensor_Start(), HAL_TIMEx_HallSensor_Start_DMA()
  75:Drivers/STM32H7xx_HAL_Driver/Src/stm32h7xx_hal_tim_ex.c ****                 HAL_TIMEx_HallSensor_Start_IT().
  76:Drivers/STM32H7xx_HAL_Driver/Src/stm32h7xx_hal_tim_ex.c **** 
  77:Drivers/STM32H7xx_HAL_Driver/Src/stm32h7xx_hal_tim_ex.c ****   @endverbatim
  78:Drivers/STM32H7xx_HAL_Driver/Src/stm32h7xx_hal_tim_ex.c ****   ******************************************************************************
  79:Drivers/STM32H7xx_HAL_Driver/Src/stm32h7xx_hal_tim_ex.c ****   */
  80:Drivers/STM32H7xx_HAL_Driver/Src/stm32h7xx_hal_tim_ex.c **** 
  81:Drivers/STM32H7xx_HAL_Driver/Src/stm32h7xx_hal_tim_ex.c **** /* Includes ------------------------------------------------------------------*/
  82:Drivers/STM32H7xx_HAL_Driver/Src/stm32h7xx_hal_tim_ex.c **** #include "stm32h7xx_hal.h"
  83:Drivers/STM32H7xx_HAL_Driver/Src/stm32h7xx_hal_tim_ex.c **** 
  84:Drivers/STM32H7xx_HAL_Driver/Src/stm32h7xx_hal_tim_ex.c **** /** @addtogroup STM32H7xx_HAL_Driver
  85:Drivers/STM32H7xx_HAL_Driver/Src/stm32h7xx_hal_tim_ex.c ****   * @{
  86:Drivers/STM32H7xx_HAL_Driver/Src/stm32h7xx_hal_tim_ex.c ****   */
  87:Drivers/STM32H7xx_HAL_Driver/Src/stm32h7xx_hal_tim_ex.c **** 
  88:Drivers/STM32H7xx_HAL_Driver/Src/stm32h7xx_hal_tim_ex.c **** /** @defgroup TIMEx TIMEx
ARM GAS  /var/folders/d0/cymppscj10lcmm48h781wrc80000gn/T//ccIjALm5.s 			page 3


  89:Drivers/STM32H7xx_HAL_Driver/Src/stm32h7xx_hal_tim_ex.c ****   * @brief TIM Extended HAL module driver
  90:Drivers/STM32H7xx_HAL_Driver/Src/stm32h7xx_hal_tim_ex.c ****   * @{
  91:Drivers/STM32H7xx_HAL_Driver/Src/stm32h7xx_hal_tim_ex.c ****   */
  92:Drivers/STM32H7xx_HAL_Driver/Src/stm32h7xx_hal_tim_ex.c **** 
  93:Drivers/STM32H7xx_HAL_Driver/Src/stm32h7xx_hal_tim_ex.c **** #ifdef HAL_TIM_MODULE_ENABLED
  94:Drivers/STM32H7xx_HAL_Driver/Src/stm32h7xx_hal_tim_ex.c **** 
  95:Drivers/STM32H7xx_HAL_Driver/Src/stm32h7xx_hal_tim_ex.c **** /* Private typedef -----------------------------------------------------------*/
  96:Drivers/STM32H7xx_HAL_Driver/Src/stm32h7xx_hal_tim_ex.c **** /* Private define ------------------------------------------------------------*/
  97:Drivers/STM32H7xx_HAL_Driver/Src/stm32h7xx_hal_tim_ex.c **** #if defined(TIM_BDTR_BKBID)
  98:Drivers/STM32H7xx_HAL_Driver/Src/stm32h7xx_hal_tim_ex.c **** /* Private constants ---------------------------------------------------------*/
  99:Drivers/STM32H7xx_HAL_Driver/Src/stm32h7xx_hal_tim_ex.c **** /** @defgroup TIMEx_Private_Constants TIM Extended Private Constants
 100:Drivers/STM32H7xx_HAL_Driver/Src/stm32h7xx_hal_tim_ex.c ****   * @{
 101:Drivers/STM32H7xx_HAL_Driver/Src/stm32h7xx_hal_tim_ex.c ****   */
 102:Drivers/STM32H7xx_HAL_Driver/Src/stm32h7xx_hal_tim_ex.c **** /* Timeout for break input rearm */
 103:Drivers/STM32H7xx_HAL_Driver/Src/stm32h7xx_hal_tim_ex.c **** #define TIM_BREAKINPUT_REARM_TIMEOUT    5UL /* 5 milliseconds */
 104:Drivers/STM32H7xx_HAL_Driver/Src/stm32h7xx_hal_tim_ex.c **** /**
 105:Drivers/STM32H7xx_HAL_Driver/Src/stm32h7xx_hal_tim_ex.c ****   * @}
 106:Drivers/STM32H7xx_HAL_Driver/Src/stm32h7xx_hal_tim_ex.c ****   */
 107:Drivers/STM32H7xx_HAL_Driver/Src/stm32h7xx_hal_tim_ex.c **** /* End of private constants --------------------------------------------------*/
 108:Drivers/STM32H7xx_HAL_Driver/Src/stm32h7xx_hal_tim_ex.c **** 
 109:Drivers/STM32H7xx_HAL_Driver/Src/stm32h7xx_hal_tim_ex.c **** #endif /* TIM_BDTR_BKBID */
 110:Drivers/STM32H7xx_HAL_Driver/Src/stm32h7xx_hal_tim_ex.c **** /* Private macros ------------------------------------------------------------*/
 111:Drivers/STM32H7xx_HAL_Driver/Src/stm32h7xx_hal_tim_ex.c **** /* Private variables ---------------------------------------------------------*/
 112:Drivers/STM32H7xx_HAL_Driver/Src/stm32h7xx_hal_tim_ex.c **** /* Private function prototypes -----------------------------------------------*/
 113:Drivers/STM32H7xx_HAL_Driver/Src/stm32h7xx_hal_tim_ex.c **** static void TIM_DMADelayPulseNCplt(DMA_HandleTypeDef *hdma);
 114:Drivers/STM32H7xx_HAL_Driver/Src/stm32h7xx_hal_tim_ex.c **** static void TIM_DMAErrorCCxN(DMA_HandleTypeDef *hdma);
 115:Drivers/STM32H7xx_HAL_Driver/Src/stm32h7xx_hal_tim_ex.c **** static void TIM_CCxNChannelCmd(TIM_TypeDef *TIMx, uint32_t Channel, uint32_t ChannelNState);
 116:Drivers/STM32H7xx_HAL_Driver/Src/stm32h7xx_hal_tim_ex.c **** 
 117:Drivers/STM32H7xx_HAL_Driver/Src/stm32h7xx_hal_tim_ex.c **** /* Exported functions --------------------------------------------------------*/
 118:Drivers/STM32H7xx_HAL_Driver/Src/stm32h7xx_hal_tim_ex.c **** /** @defgroup TIMEx_Exported_Functions TIM Extended Exported Functions
 119:Drivers/STM32H7xx_HAL_Driver/Src/stm32h7xx_hal_tim_ex.c ****   * @{
 120:Drivers/STM32H7xx_HAL_Driver/Src/stm32h7xx_hal_tim_ex.c ****   */
 121:Drivers/STM32H7xx_HAL_Driver/Src/stm32h7xx_hal_tim_ex.c **** 
 122:Drivers/STM32H7xx_HAL_Driver/Src/stm32h7xx_hal_tim_ex.c **** /** @defgroup TIMEx_Exported_Functions_Group1 Extended Timer Hall Sensor functions
 123:Drivers/STM32H7xx_HAL_Driver/Src/stm32h7xx_hal_tim_ex.c ****   * @brief    Timer Hall Sensor functions
 124:Drivers/STM32H7xx_HAL_Driver/Src/stm32h7xx_hal_tim_ex.c ****   *
 125:Drivers/STM32H7xx_HAL_Driver/Src/stm32h7xx_hal_tim_ex.c **** @verbatim
 126:Drivers/STM32H7xx_HAL_Driver/Src/stm32h7xx_hal_tim_ex.c ****   ==============================================================================
 127:Drivers/STM32H7xx_HAL_Driver/Src/stm32h7xx_hal_tim_ex.c ****                       ##### Timer Hall Sensor functions #####
 128:Drivers/STM32H7xx_HAL_Driver/Src/stm32h7xx_hal_tim_ex.c ****   ==============================================================================
 129:Drivers/STM32H7xx_HAL_Driver/Src/stm32h7xx_hal_tim_ex.c ****   [..]
 130:Drivers/STM32H7xx_HAL_Driver/Src/stm32h7xx_hal_tim_ex.c ****     This section provides functions allowing to:
 131:Drivers/STM32H7xx_HAL_Driver/Src/stm32h7xx_hal_tim_ex.c ****     (+) Initialize and configure TIM HAL Sensor.
 132:Drivers/STM32H7xx_HAL_Driver/Src/stm32h7xx_hal_tim_ex.c ****     (+) De-initialize TIM HAL Sensor.
 133:Drivers/STM32H7xx_HAL_Driver/Src/stm32h7xx_hal_tim_ex.c ****     (+) Start the Hall Sensor Interface.
 134:Drivers/STM32H7xx_HAL_Driver/Src/stm32h7xx_hal_tim_ex.c ****     (+) Stop the Hall Sensor Interface.
 135:Drivers/STM32H7xx_HAL_Driver/Src/stm32h7xx_hal_tim_ex.c ****     (+) Start the Hall Sensor Interface and enable interrupts.
 136:Drivers/STM32H7xx_HAL_Driver/Src/stm32h7xx_hal_tim_ex.c ****     (+) Stop the Hall Sensor Interface and disable interrupts.
 137:Drivers/STM32H7xx_HAL_Driver/Src/stm32h7xx_hal_tim_ex.c ****     (+) Start the Hall Sensor Interface and enable DMA transfers.
 138:Drivers/STM32H7xx_HAL_Driver/Src/stm32h7xx_hal_tim_ex.c ****     (+) Stop the Hall Sensor Interface and disable DMA transfers.
 139:Drivers/STM32H7xx_HAL_Driver/Src/stm32h7xx_hal_tim_ex.c **** 
 140:Drivers/STM32H7xx_HAL_Driver/Src/stm32h7xx_hal_tim_ex.c **** @endverbatim
 141:Drivers/STM32H7xx_HAL_Driver/Src/stm32h7xx_hal_tim_ex.c ****   * @{
 142:Drivers/STM32H7xx_HAL_Driver/Src/stm32h7xx_hal_tim_ex.c ****   */
 143:Drivers/STM32H7xx_HAL_Driver/Src/stm32h7xx_hal_tim_ex.c **** /**
 144:Drivers/STM32H7xx_HAL_Driver/Src/stm32h7xx_hal_tim_ex.c ****   * @brief  Initializes the TIM Hall Sensor Interface and initialize the associated handle.
 145:Drivers/STM32H7xx_HAL_Driver/Src/stm32h7xx_hal_tim_ex.c ****   * @note   When the timer instance is initialized in Hall Sensor Interface mode,
ARM GAS  /var/folders/d0/cymppscj10lcmm48h781wrc80000gn/T//ccIjALm5.s 			page 4


 146:Drivers/STM32H7xx_HAL_Driver/Src/stm32h7xx_hal_tim_ex.c ****   *         timer channels 1 and channel 2 are reserved and cannot be used for
 147:Drivers/STM32H7xx_HAL_Driver/Src/stm32h7xx_hal_tim_ex.c ****   *         other purpose.
 148:Drivers/STM32H7xx_HAL_Driver/Src/stm32h7xx_hal_tim_ex.c ****   * @param  htim TIM Hall Sensor Interface handle
 149:Drivers/STM32H7xx_HAL_Driver/Src/stm32h7xx_hal_tim_ex.c ****   * @param  sConfig TIM Hall Sensor configuration structure
 150:Drivers/STM32H7xx_HAL_Driver/Src/stm32h7xx_hal_tim_ex.c ****   * @retval HAL status
 151:Drivers/STM32H7xx_HAL_Driver/Src/stm32h7xx_hal_tim_ex.c ****   */
 152:Drivers/STM32H7xx_HAL_Driver/Src/stm32h7xx_hal_tim_ex.c **** HAL_StatusTypeDef HAL_TIMEx_HallSensor_Init(TIM_HandleTypeDef *htim, TIM_HallSensor_InitTypeDef *sC
 153:Drivers/STM32H7xx_HAL_Driver/Src/stm32h7xx_hal_tim_ex.c **** {
  28              		.loc 1 153 1
  29              		.cfi_startproc
  30              		@ args = 0, pretend = 0, frame = 40
  31              		@ frame_needed = 1, uses_anonymous_args = 0
  32 0000 80B5     		push	{r7, lr}
  33              	.LCFI0:
  34              		.cfi_def_cfa_offset 8
  35              		.cfi_offset 7, -8
  36              		.cfi_offset 14, -4
  37 0002 8AB0     		sub	sp, sp, #40
  38              	.LCFI1:
  39              		.cfi_def_cfa_offset 48
  40 0004 00AF     		add	r7, sp, #0
  41              	.LCFI2:
  42              		.cfi_def_cfa_register 7
  43 0006 7860     		str	r0, [r7, #4]
  44 0008 3960     		str	r1, [r7]
 154:Drivers/STM32H7xx_HAL_Driver/Src/stm32h7xx_hal_tim_ex.c ****   TIM_OC_InitTypeDef OC_Config;
 155:Drivers/STM32H7xx_HAL_Driver/Src/stm32h7xx_hal_tim_ex.c **** 
 156:Drivers/STM32H7xx_HAL_Driver/Src/stm32h7xx_hal_tim_ex.c ****   /* Check the TIM handle allocation */
 157:Drivers/STM32H7xx_HAL_Driver/Src/stm32h7xx_hal_tim_ex.c ****   if (htim == NULL)
  45              		.loc 1 157 6
  46 000a 7B68     		ldr	r3, [r7, #4]
  47 000c 002B     		cmp	r3, #0
  48 000e 01D1     		bne	.L2
 158:Drivers/STM32H7xx_HAL_Driver/Src/stm32h7xx_hal_tim_ex.c ****   {
 159:Drivers/STM32H7xx_HAL_Driver/Src/stm32h7xx_hal_tim_ex.c ****     return HAL_ERROR;
  49              		.loc 1 159 12
  50 0010 0123     		movs	r3, #1
  51 0012 A5E0     		b	.L6
  52              	.L2:
 160:Drivers/STM32H7xx_HAL_Driver/Src/stm32h7xx_hal_tim_ex.c ****   }
 161:Drivers/STM32H7xx_HAL_Driver/Src/stm32h7xx_hal_tim_ex.c **** 
 162:Drivers/STM32H7xx_HAL_Driver/Src/stm32h7xx_hal_tim_ex.c ****   /* Check the parameters */
 163:Drivers/STM32H7xx_HAL_Driver/Src/stm32h7xx_hal_tim_ex.c ****   assert_param(IS_TIM_HALL_SENSOR_INTERFACE_INSTANCE(htim->Instance));
 164:Drivers/STM32H7xx_HAL_Driver/Src/stm32h7xx_hal_tim_ex.c ****   assert_param(IS_TIM_COUNTER_MODE(htim->Init.CounterMode));
 165:Drivers/STM32H7xx_HAL_Driver/Src/stm32h7xx_hal_tim_ex.c ****   assert_param(IS_TIM_CLOCKDIVISION_DIV(htim->Init.ClockDivision));
 166:Drivers/STM32H7xx_HAL_Driver/Src/stm32h7xx_hal_tim_ex.c ****   assert_param(IS_TIM_AUTORELOAD_PRELOAD(htim->Init.AutoReloadPreload));
 167:Drivers/STM32H7xx_HAL_Driver/Src/stm32h7xx_hal_tim_ex.c ****   assert_param(IS_TIM_IC_POLARITY(sConfig->IC1Polarity));
 168:Drivers/STM32H7xx_HAL_Driver/Src/stm32h7xx_hal_tim_ex.c ****   assert_param(IS_TIM_IC_PRESCALER(sConfig->IC1Prescaler));
 169:Drivers/STM32H7xx_HAL_Driver/Src/stm32h7xx_hal_tim_ex.c ****   assert_param(IS_TIM_IC_FILTER(sConfig->IC1Filter));
 170:Drivers/STM32H7xx_HAL_Driver/Src/stm32h7xx_hal_tim_ex.c **** 
 171:Drivers/STM32H7xx_HAL_Driver/Src/stm32h7xx_hal_tim_ex.c ****   if (htim->State == HAL_TIM_STATE_RESET)
  53              		.loc 1 171 11
  54 0014 7B68     		ldr	r3, [r7, #4]
  55 0016 93F83D30 		ldrb	r3, [r3, #61]
  56 001a DBB2     		uxtb	r3, r3
  57              		.loc 1 171 6
  58 001c 002B     		cmp	r3, #0
ARM GAS  /var/folders/d0/cymppscj10lcmm48h781wrc80000gn/T//ccIjALm5.s 			page 5


  59 001e 11D1     		bne	.L4
 172:Drivers/STM32H7xx_HAL_Driver/Src/stm32h7xx_hal_tim_ex.c ****   {
 173:Drivers/STM32H7xx_HAL_Driver/Src/stm32h7xx_hal_tim_ex.c ****     /* Allocate lock resource and initialize it */
 174:Drivers/STM32H7xx_HAL_Driver/Src/stm32h7xx_hal_tim_ex.c ****     htim->Lock = HAL_UNLOCKED;
  60              		.loc 1 174 16
  61 0020 7B68     		ldr	r3, [r7, #4]
  62 0022 0022     		movs	r2, #0
  63 0024 83F83C20 		strb	r2, [r3, #60]
 175:Drivers/STM32H7xx_HAL_Driver/Src/stm32h7xx_hal_tim_ex.c **** 
 176:Drivers/STM32H7xx_HAL_Driver/Src/stm32h7xx_hal_tim_ex.c **** #if (USE_HAL_TIM_REGISTER_CALLBACKS == 1)
 177:Drivers/STM32H7xx_HAL_Driver/Src/stm32h7xx_hal_tim_ex.c ****     /* Reset interrupt callbacks to legacy week callbacks */
 178:Drivers/STM32H7xx_HAL_Driver/Src/stm32h7xx_hal_tim_ex.c ****     TIM_ResetCallback(htim);
  64              		.loc 1 178 5
  65 0028 7868     		ldr	r0, [r7, #4]
  66 002a FFF7FEFF 		bl	TIM_ResetCallback
 179:Drivers/STM32H7xx_HAL_Driver/Src/stm32h7xx_hal_tim_ex.c **** 
 180:Drivers/STM32H7xx_HAL_Driver/Src/stm32h7xx_hal_tim_ex.c ****     if (htim->HallSensor_MspInitCallback == NULL)
  67              		.loc 1 180 13
  68 002e 7B68     		ldr	r3, [r7, #4]
  69 0030 DB6F     		ldr	r3, [r3, #124]
  70              		.loc 1 180 8
  71 0032 002B     		cmp	r3, #0
  72 0034 02D1     		bne	.L5
 181:Drivers/STM32H7xx_HAL_Driver/Src/stm32h7xx_hal_tim_ex.c ****     {
 182:Drivers/STM32H7xx_HAL_Driver/Src/stm32h7xx_hal_tim_ex.c ****       htim->HallSensor_MspInitCallback = HAL_TIMEx_HallSensor_MspInit;
  73              		.loc 1 182 40
  74 0036 7B68     		ldr	r3, [r7, #4]
  75 0038 4B4A     		ldr	r2, .L7
  76 003a DA67     		str	r2, [r3, #124]
  77              	.L5:
 183:Drivers/STM32H7xx_HAL_Driver/Src/stm32h7xx_hal_tim_ex.c ****     }
 184:Drivers/STM32H7xx_HAL_Driver/Src/stm32h7xx_hal_tim_ex.c ****     /* Init the low level hardware : GPIO, CLOCK, NVIC */
 185:Drivers/STM32H7xx_HAL_Driver/Src/stm32h7xx_hal_tim_ex.c ****     htim->HallSensor_MspInitCallback(htim);
  78              		.loc 1 185 9
  79 003c 7B68     		ldr	r3, [r7, #4]
  80 003e DB6F     		ldr	r3, [r3, #124]
  81              		.loc 1 185 5
  82 0040 7868     		ldr	r0, [r7, #4]
  83 0042 9847     		blx	r3
  84              	.LVL0:
  85              	.L4:
 186:Drivers/STM32H7xx_HAL_Driver/Src/stm32h7xx_hal_tim_ex.c **** #else
 187:Drivers/STM32H7xx_HAL_Driver/Src/stm32h7xx_hal_tim_ex.c ****     /* Init the low level hardware : GPIO, CLOCK, NVIC and DMA */
 188:Drivers/STM32H7xx_HAL_Driver/Src/stm32h7xx_hal_tim_ex.c ****     HAL_TIMEx_HallSensor_MspInit(htim);
 189:Drivers/STM32H7xx_HAL_Driver/Src/stm32h7xx_hal_tim_ex.c **** #endif /* USE_HAL_TIM_REGISTER_CALLBACKS */
 190:Drivers/STM32H7xx_HAL_Driver/Src/stm32h7xx_hal_tim_ex.c ****   }
 191:Drivers/STM32H7xx_HAL_Driver/Src/stm32h7xx_hal_tim_ex.c **** 
 192:Drivers/STM32H7xx_HAL_Driver/Src/stm32h7xx_hal_tim_ex.c ****   /* Set the TIM state */
 193:Drivers/STM32H7xx_HAL_Driver/Src/stm32h7xx_hal_tim_ex.c ****   htim->State = HAL_TIM_STATE_BUSY;
  86              		.loc 1 193 15
  87 0044 7B68     		ldr	r3, [r7, #4]
  88 0046 0222     		movs	r2, #2
  89 0048 83F83D20 		strb	r2, [r3, #61]
 194:Drivers/STM32H7xx_HAL_Driver/Src/stm32h7xx_hal_tim_ex.c **** 
 195:Drivers/STM32H7xx_HAL_Driver/Src/stm32h7xx_hal_tim_ex.c ****   /* Configure the Time base in the Encoder Mode */
 196:Drivers/STM32H7xx_HAL_Driver/Src/stm32h7xx_hal_tim_ex.c ****   TIM_Base_SetConfig(htim->Instance, &htim->Init);
  90              		.loc 1 196 3
ARM GAS  /var/folders/d0/cymppscj10lcmm48h781wrc80000gn/T//ccIjALm5.s 			page 6


  91 004c 7B68     		ldr	r3, [r7, #4]
  92 004e 1A68     		ldr	r2, [r3]
  93 0050 7B68     		ldr	r3, [r7, #4]
  94 0052 0433     		adds	r3, r3, #4
  95 0054 1946     		mov	r1, r3
  96 0056 1046     		mov	r0, r2
  97 0058 FFF7FEFF 		bl	TIM_Base_SetConfig
 197:Drivers/STM32H7xx_HAL_Driver/Src/stm32h7xx_hal_tim_ex.c **** 
 198:Drivers/STM32H7xx_HAL_Driver/Src/stm32h7xx_hal_tim_ex.c ****   /* Configure the Channel 1 as Input Channel to interface with the three Outputs of the  Hall sens
 199:Drivers/STM32H7xx_HAL_Driver/Src/stm32h7xx_hal_tim_ex.c ****   TIM_TI1_SetConfig(htim->Instance, sConfig->IC1Polarity, TIM_ICSELECTION_TRC, sConfig->IC1Filter);
  98              		.loc 1 199 3
  99 005c 7B68     		ldr	r3, [r7, #4]
 100 005e 1868     		ldr	r0, [r3]
 101 0060 3B68     		ldr	r3, [r7]
 102 0062 1968     		ldr	r1, [r3]
 103 0064 3B68     		ldr	r3, [r7]
 104 0066 9B68     		ldr	r3, [r3, #8]
 105 0068 0322     		movs	r2, #3
 106 006a FFF7FEFF 		bl	TIM_TI1_SetConfig
 200:Drivers/STM32H7xx_HAL_Driver/Src/stm32h7xx_hal_tim_ex.c **** 
 201:Drivers/STM32H7xx_HAL_Driver/Src/stm32h7xx_hal_tim_ex.c ****   /* Reset the IC1PSC Bits */
 202:Drivers/STM32H7xx_HAL_Driver/Src/stm32h7xx_hal_tim_ex.c ****   htim->Instance->CCMR1 &= ~TIM_CCMR1_IC1PSC;
 107              		.loc 1 202 7
 108 006e 7B68     		ldr	r3, [r7, #4]
 109 0070 1B68     		ldr	r3, [r3]
 110              		.loc 1 202 25
 111 0072 9A69     		ldr	r2, [r3, #24]
 112              		.loc 1 202 7
 113 0074 7B68     		ldr	r3, [r7, #4]
 114 0076 1B68     		ldr	r3, [r3]
 115              		.loc 1 202 25
 116 0078 22F00C02 		bic	r2, r2, #12
 117 007c 9A61     		str	r2, [r3, #24]
 203:Drivers/STM32H7xx_HAL_Driver/Src/stm32h7xx_hal_tim_ex.c ****   /* Set the IC1PSC value */
 204:Drivers/STM32H7xx_HAL_Driver/Src/stm32h7xx_hal_tim_ex.c ****   htim->Instance->CCMR1 |= sConfig->IC1Prescaler;
 118              		.loc 1 204 7
 119 007e 7B68     		ldr	r3, [r7, #4]
 120 0080 1B68     		ldr	r3, [r3]
 121              		.loc 1 204 25
 122 0082 9969     		ldr	r1, [r3, #24]
 123              		.loc 1 204 35
 124 0084 3B68     		ldr	r3, [r7]
 125 0086 5A68     		ldr	r2, [r3, #4]
 126              		.loc 1 204 7
 127 0088 7B68     		ldr	r3, [r7, #4]
 128 008a 1B68     		ldr	r3, [r3]
 129              		.loc 1 204 25
 130 008c 0A43     		orrs	r2, r2, r1
 131 008e 9A61     		str	r2, [r3, #24]
 205:Drivers/STM32H7xx_HAL_Driver/Src/stm32h7xx_hal_tim_ex.c **** 
 206:Drivers/STM32H7xx_HAL_Driver/Src/stm32h7xx_hal_tim_ex.c ****   /* Enable the Hall sensor interface (XOR function of the three inputs) */
 207:Drivers/STM32H7xx_HAL_Driver/Src/stm32h7xx_hal_tim_ex.c ****   htim->Instance->CR2 |= TIM_CR2_TI1S;
 132              		.loc 1 207 7
 133 0090 7B68     		ldr	r3, [r7, #4]
 134 0092 1B68     		ldr	r3, [r3]
 135              		.loc 1 207 23
 136 0094 5A68     		ldr	r2, [r3, #4]
ARM GAS  /var/folders/d0/cymppscj10lcmm48h781wrc80000gn/T//ccIjALm5.s 			page 7


 137              		.loc 1 207 7
 138 0096 7B68     		ldr	r3, [r7, #4]
 139 0098 1B68     		ldr	r3, [r3]
 140              		.loc 1 207 23
 141 009a 42F08002 		orr	r2, r2, #128
 142 009e 5A60     		str	r2, [r3, #4]
 208:Drivers/STM32H7xx_HAL_Driver/Src/stm32h7xx_hal_tim_ex.c **** 
 209:Drivers/STM32H7xx_HAL_Driver/Src/stm32h7xx_hal_tim_ex.c ****   /* Select the TIM_TS_TI1F_ED signal as Input trigger for the TIM */
 210:Drivers/STM32H7xx_HAL_Driver/Src/stm32h7xx_hal_tim_ex.c ****   htim->Instance->SMCR &= ~TIM_SMCR_TS;
 143              		.loc 1 210 7
 144 00a0 7B68     		ldr	r3, [r7, #4]
 145 00a2 1B68     		ldr	r3, [r3]
 146              		.loc 1 210 24
 147 00a4 9968     		ldr	r1, [r3, #8]
 148              		.loc 1 210 7
 149 00a6 7B68     		ldr	r3, [r7, #4]
 150 00a8 1A68     		ldr	r2, [r3]
 151              		.loc 1 210 24
 152 00aa 304B     		ldr	r3, .L7+4
 153 00ac 0B40     		ands	r3, r3, r1
 154 00ae 9360     		str	r3, [r2, #8]
 211:Drivers/STM32H7xx_HAL_Driver/Src/stm32h7xx_hal_tim_ex.c ****   htim->Instance->SMCR |= TIM_TS_TI1F_ED;
 155              		.loc 1 211 7
 156 00b0 7B68     		ldr	r3, [r7, #4]
 157 00b2 1B68     		ldr	r3, [r3]
 158              		.loc 1 211 24
 159 00b4 9A68     		ldr	r2, [r3, #8]
 160              		.loc 1 211 7
 161 00b6 7B68     		ldr	r3, [r7, #4]
 162 00b8 1B68     		ldr	r3, [r3]
 163              		.loc 1 211 24
 164 00ba 42F04002 		orr	r2, r2, #64
 165 00be 9A60     		str	r2, [r3, #8]
 212:Drivers/STM32H7xx_HAL_Driver/Src/stm32h7xx_hal_tim_ex.c **** 
 213:Drivers/STM32H7xx_HAL_Driver/Src/stm32h7xx_hal_tim_ex.c ****   /* Use the TIM_TS_TI1F_ED signal to reset the TIM counter each edge detection */
 214:Drivers/STM32H7xx_HAL_Driver/Src/stm32h7xx_hal_tim_ex.c ****   htim->Instance->SMCR &= ~TIM_SMCR_SMS;
 166              		.loc 1 214 7
 167 00c0 7B68     		ldr	r3, [r7, #4]
 168 00c2 1B68     		ldr	r3, [r3]
 169              		.loc 1 214 24
 170 00c4 9968     		ldr	r1, [r3, #8]
 171              		.loc 1 214 7
 172 00c6 7B68     		ldr	r3, [r7, #4]
 173 00c8 1A68     		ldr	r2, [r3]
 174              		.loc 1 214 24
 175 00ca 294B     		ldr	r3, .L7+8
 176 00cc 0B40     		ands	r3, r3, r1
 177 00ce 9360     		str	r3, [r2, #8]
 215:Drivers/STM32H7xx_HAL_Driver/Src/stm32h7xx_hal_tim_ex.c ****   htim->Instance->SMCR |= TIM_SLAVEMODE_RESET;
 178              		.loc 1 215 7
 179 00d0 7B68     		ldr	r3, [r7, #4]
 180 00d2 1B68     		ldr	r3, [r3]
 181              		.loc 1 215 24
 182 00d4 9A68     		ldr	r2, [r3, #8]
 183              		.loc 1 215 7
 184 00d6 7B68     		ldr	r3, [r7, #4]
 185 00d8 1B68     		ldr	r3, [r3]
ARM GAS  /var/folders/d0/cymppscj10lcmm48h781wrc80000gn/T//ccIjALm5.s 			page 8


 186              		.loc 1 215 24
 187 00da 42F00402 		orr	r2, r2, #4
 188 00de 9A60     		str	r2, [r3, #8]
 216:Drivers/STM32H7xx_HAL_Driver/Src/stm32h7xx_hal_tim_ex.c **** 
 217:Drivers/STM32H7xx_HAL_Driver/Src/stm32h7xx_hal_tim_ex.c ****   /* Program channel 2 in PWM 2 mode with the desired Commutation_Delay*/
 218:Drivers/STM32H7xx_HAL_Driver/Src/stm32h7xx_hal_tim_ex.c ****   OC_Config.OCFastMode = TIM_OCFAST_DISABLE;
 189              		.loc 1 218 24
 190 00e0 0023     		movs	r3, #0
 191 00e2 FB61     		str	r3, [r7, #28]
 219:Drivers/STM32H7xx_HAL_Driver/Src/stm32h7xx_hal_tim_ex.c ****   OC_Config.OCIdleState = TIM_OCIDLESTATE_RESET;
 192              		.loc 1 219 25
 193 00e4 0023     		movs	r3, #0
 194 00e6 3B62     		str	r3, [r7, #32]
 220:Drivers/STM32H7xx_HAL_Driver/Src/stm32h7xx_hal_tim_ex.c ****   OC_Config.OCMode = TIM_OCMODE_PWM2;
 195              		.loc 1 220 20
 196 00e8 7023     		movs	r3, #112
 197 00ea FB60     		str	r3, [r7, #12]
 221:Drivers/STM32H7xx_HAL_Driver/Src/stm32h7xx_hal_tim_ex.c ****   OC_Config.OCNIdleState = TIM_OCNIDLESTATE_RESET;
 198              		.loc 1 221 26
 199 00ec 0023     		movs	r3, #0
 200 00ee 7B62     		str	r3, [r7, #36]
 222:Drivers/STM32H7xx_HAL_Driver/Src/stm32h7xx_hal_tim_ex.c ****   OC_Config.OCNPolarity = TIM_OCNPOLARITY_HIGH;
 201              		.loc 1 222 25
 202 00f0 0023     		movs	r3, #0
 203 00f2 BB61     		str	r3, [r7, #24]
 223:Drivers/STM32H7xx_HAL_Driver/Src/stm32h7xx_hal_tim_ex.c ****   OC_Config.OCPolarity = TIM_OCPOLARITY_HIGH;
 204              		.loc 1 223 24
 205 00f4 0023     		movs	r3, #0
 206 00f6 7B61     		str	r3, [r7, #20]
 224:Drivers/STM32H7xx_HAL_Driver/Src/stm32h7xx_hal_tim_ex.c ****   OC_Config.Pulse = sConfig->Commutation_Delay;
 207              		.loc 1 224 28
 208 00f8 3B68     		ldr	r3, [r7]
 209 00fa DB68     		ldr	r3, [r3, #12]
 210              		.loc 1 224 19
 211 00fc 3B61     		str	r3, [r7, #16]
 225:Drivers/STM32H7xx_HAL_Driver/Src/stm32h7xx_hal_tim_ex.c **** 
 226:Drivers/STM32H7xx_HAL_Driver/Src/stm32h7xx_hal_tim_ex.c ****   TIM_OC2_SetConfig(htim->Instance, &OC_Config);
 212              		.loc 1 226 3
 213 00fe 7B68     		ldr	r3, [r7, #4]
 214 0100 1B68     		ldr	r3, [r3]
 215 0102 07F10C02 		add	r2, r7, #12
 216 0106 1146     		mov	r1, r2
 217 0108 1846     		mov	r0, r3
 218 010a FFF7FEFF 		bl	TIM_OC2_SetConfig
 227:Drivers/STM32H7xx_HAL_Driver/Src/stm32h7xx_hal_tim_ex.c **** 
 228:Drivers/STM32H7xx_HAL_Driver/Src/stm32h7xx_hal_tim_ex.c ****   /* Select OC2REF as trigger output on TRGO: write the MMS bits in the TIMx_CR2
 229:Drivers/STM32H7xx_HAL_Driver/Src/stm32h7xx_hal_tim_ex.c ****     register to 101 */
 230:Drivers/STM32H7xx_HAL_Driver/Src/stm32h7xx_hal_tim_ex.c ****   htim->Instance->CR2 &= ~TIM_CR2_MMS;
 219              		.loc 1 230 7
 220 010e 7B68     		ldr	r3, [r7, #4]
 221 0110 1B68     		ldr	r3, [r3]
 222              		.loc 1 230 23
 223 0112 5A68     		ldr	r2, [r3, #4]
 224              		.loc 1 230 7
 225 0114 7B68     		ldr	r3, [r7, #4]
 226 0116 1B68     		ldr	r3, [r3]
 227              		.loc 1 230 23
ARM GAS  /var/folders/d0/cymppscj10lcmm48h781wrc80000gn/T//ccIjALm5.s 			page 9


 228 0118 22F07002 		bic	r2, r2, #112
 229 011c 5A60     		str	r2, [r3, #4]
 231:Drivers/STM32H7xx_HAL_Driver/Src/stm32h7xx_hal_tim_ex.c ****   htim->Instance->CR2 |= TIM_TRGO_OC2REF;
 230              		.loc 1 231 7
 231 011e 7B68     		ldr	r3, [r7, #4]
 232 0120 1B68     		ldr	r3, [r3]
 233              		.loc 1 231 23
 234 0122 5A68     		ldr	r2, [r3, #4]
 235              		.loc 1 231 7
 236 0124 7B68     		ldr	r3, [r7, #4]
 237 0126 1B68     		ldr	r3, [r3]
 238              		.loc 1 231 23
 239 0128 42F05002 		orr	r2, r2, #80
 240 012c 5A60     		str	r2, [r3, #4]
 232:Drivers/STM32H7xx_HAL_Driver/Src/stm32h7xx_hal_tim_ex.c **** 
 233:Drivers/STM32H7xx_HAL_Driver/Src/stm32h7xx_hal_tim_ex.c ****   /* Initialize the DMA burst operation state */
 234:Drivers/STM32H7xx_HAL_Driver/Src/stm32h7xx_hal_tim_ex.c ****   htim->DMABurstState = HAL_DMA_BURST_STATE_READY;
 241              		.loc 1 234 23
 242 012e 7B68     		ldr	r3, [r7, #4]
 243 0130 0122     		movs	r2, #1
 244 0132 83F84820 		strb	r2, [r3, #72]
 235:Drivers/STM32H7xx_HAL_Driver/Src/stm32h7xx_hal_tim_ex.c **** 
 236:Drivers/STM32H7xx_HAL_Driver/Src/stm32h7xx_hal_tim_ex.c ****   /* Initialize the TIM channels state */
 237:Drivers/STM32H7xx_HAL_Driver/Src/stm32h7xx_hal_tim_ex.c ****   TIM_CHANNEL_STATE_SET(htim, TIM_CHANNEL_1, HAL_TIM_CHANNEL_STATE_READY);
 245              		.loc 1 237 3
 246 0136 7B68     		ldr	r3, [r7, #4]
 247 0138 0122     		movs	r2, #1
 248 013a 83F83E20 		strb	r2, [r3, #62]
 238:Drivers/STM32H7xx_HAL_Driver/Src/stm32h7xx_hal_tim_ex.c ****   TIM_CHANNEL_STATE_SET(htim, TIM_CHANNEL_2, HAL_TIM_CHANNEL_STATE_READY);
 249              		.loc 1 238 3
 250 013e 7B68     		ldr	r3, [r7, #4]
 251 0140 0122     		movs	r2, #1
 252 0142 83F83F20 		strb	r2, [r3, #63]
 239:Drivers/STM32H7xx_HAL_Driver/Src/stm32h7xx_hal_tim_ex.c ****   TIM_CHANNEL_N_STATE_SET(htim, TIM_CHANNEL_1, HAL_TIM_CHANNEL_STATE_READY);
 253              		.loc 1 239 3
 254 0146 7B68     		ldr	r3, [r7, #4]
 255 0148 0122     		movs	r2, #1
 256 014a 83F84420 		strb	r2, [r3, #68]
 240:Drivers/STM32H7xx_HAL_Driver/Src/stm32h7xx_hal_tim_ex.c ****   TIM_CHANNEL_N_STATE_SET(htim, TIM_CHANNEL_2, HAL_TIM_CHANNEL_STATE_READY);
 257              		.loc 1 240 3
 258 014e 7B68     		ldr	r3, [r7, #4]
 259 0150 0122     		movs	r2, #1
 260 0152 83F84520 		strb	r2, [r3, #69]
 241:Drivers/STM32H7xx_HAL_Driver/Src/stm32h7xx_hal_tim_ex.c **** 
 242:Drivers/STM32H7xx_HAL_Driver/Src/stm32h7xx_hal_tim_ex.c ****   /* Initialize the TIM state*/
 243:Drivers/STM32H7xx_HAL_Driver/Src/stm32h7xx_hal_tim_ex.c ****   htim->State = HAL_TIM_STATE_READY;
 261              		.loc 1 243 15
 262 0156 7B68     		ldr	r3, [r7, #4]
 263 0158 0122     		movs	r2, #1
 264 015a 83F83D20 		strb	r2, [r3, #61]
 244:Drivers/STM32H7xx_HAL_Driver/Src/stm32h7xx_hal_tim_ex.c **** 
 245:Drivers/STM32H7xx_HAL_Driver/Src/stm32h7xx_hal_tim_ex.c ****   return HAL_OK;
 265              		.loc 1 245 10
 266 015e 0023     		movs	r3, #0
 267              	.L6:
 246:Drivers/STM32H7xx_HAL_Driver/Src/stm32h7xx_hal_tim_ex.c **** }
 268              		.loc 1 246 1 discriminator 1
ARM GAS  /var/folders/d0/cymppscj10lcmm48h781wrc80000gn/T//ccIjALm5.s 			page 10


 269 0160 1846     		mov	r0, r3
 270 0162 2837     		adds	r7, r7, #40
 271              	.LCFI3:
 272              		.cfi_def_cfa_offset 8
 273 0164 BD46     		mov	sp, r7
 274              	.LCFI4:
 275              		.cfi_def_cfa_register 13
 276              		@ sp needed
 277 0166 80BD     		pop	{r7, pc}
 278              	.L8:
 279              		.align	2
 280              	.L7:
 281 0168 00000000 		.word	HAL_TIMEx_HallSensor_MspInit
 282 016c 8FFFCFFF 		.word	-3145841
 283 0170 F8FFFEFF 		.word	-65544
 284              		.cfi_endproc
 285              	.LFE333:
 287              		.section	.text.HAL_TIMEx_HallSensor_DeInit,"ax",%progbits
 288              		.align	1
 289              		.global	HAL_TIMEx_HallSensor_DeInit
 290              		.syntax unified
 291              		.thumb
 292              		.thumb_func
 294              	HAL_TIMEx_HallSensor_DeInit:
 295              	.LFB334:
 247:Drivers/STM32H7xx_HAL_Driver/Src/stm32h7xx_hal_tim_ex.c **** 
 248:Drivers/STM32H7xx_HAL_Driver/Src/stm32h7xx_hal_tim_ex.c **** /**
 249:Drivers/STM32H7xx_HAL_Driver/Src/stm32h7xx_hal_tim_ex.c ****   * @brief  DeInitializes the TIM Hall Sensor interface
 250:Drivers/STM32H7xx_HAL_Driver/Src/stm32h7xx_hal_tim_ex.c ****   * @param  htim TIM Hall Sensor Interface handle
 251:Drivers/STM32H7xx_HAL_Driver/Src/stm32h7xx_hal_tim_ex.c ****   * @retval HAL status
 252:Drivers/STM32H7xx_HAL_Driver/Src/stm32h7xx_hal_tim_ex.c ****   */
 253:Drivers/STM32H7xx_HAL_Driver/Src/stm32h7xx_hal_tim_ex.c **** HAL_StatusTypeDef HAL_TIMEx_HallSensor_DeInit(TIM_HandleTypeDef *htim)
 254:Drivers/STM32H7xx_HAL_Driver/Src/stm32h7xx_hal_tim_ex.c **** {
 296              		.loc 1 254 1
 297              		.cfi_startproc
 298              		@ args = 0, pretend = 0, frame = 8
 299              		@ frame_needed = 1, uses_anonymous_args = 0
 300 0000 80B5     		push	{r7, lr}
 301              	.LCFI5:
 302              		.cfi_def_cfa_offset 8
 303              		.cfi_offset 7, -8
 304              		.cfi_offset 14, -4
 305 0002 82B0     		sub	sp, sp, #8
 306              	.LCFI6:
 307              		.cfi_def_cfa_offset 16
 308 0004 00AF     		add	r7, sp, #0
 309              	.LCFI7:
 310              		.cfi_def_cfa_register 7
 311 0006 7860     		str	r0, [r7, #4]
 255:Drivers/STM32H7xx_HAL_Driver/Src/stm32h7xx_hal_tim_ex.c ****   /* Check the parameters */
 256:Drivers/STM32H7xx_HAL_Driver/Src/stm32h7xx_hal_tim_ex.c ****   assert_param(IS_TIM_INSTANCE(htim->Instance));
 257:Drivers/STM32H7xx_HAL_Driver/Src/stm32h7xx_hal_tim_ex.c **** 
 258:Drivers/STM32H7xx_HAL_Driver/Src/stm32h7xx_hal_tim_ex.c ****   htim->State = HAL_TIM_STATE_BUSY;
 312              		.loc 1 258 15
 313 0008 7B68     		ldr	r3, [r7, #4]
 314 000a 0222     		movs	r2, #2
 315 000c 83F83D20 		strb	r2, [r3, #61]
ARM GAS  /var/folders/d0/cymppscj10lcmm48h781wrc80000gn/T//ccIjALm5.s 			page 11


 259:Drivers/STM32H7xx_HAL_Driver/Src/stm32h7xx_hal_tim_ex.c **** 
 260:Drivers/STM32H7xx_HAL_Driver/Src/stm32h7xx_hal_tim_ex.c ****   /* Disable the TIM Peripheral Clock */
 261:Drivers/STM32H7xx_HAL_Driver/Src/stm32h7xx_hal_tim_ex.c ****   __HAL_TIM_DISABLE(htim);
 316              		.loc 1 261 3
 317 0010 7B68     		ldr	r3, [r7, #4]
 318 0012 1B68     		ldr	r3, [r3]
 319 0014 1A6A     		ldr	r2, [r3, #32]
 320 0016 41F21113 		movw	r3, #4369
 321 001a 1340     		ands	r3, r3, r2
 322 001c 002B     		cmp	r3, #0
 323 001e 0FD1     		bne	.L10
 324              		.loc 1 261 3 is_stmt 0 discriminator 1
 325 0020 7B68     		ldr	r3, [r7, #4]
 326 0022 1B68     		ldr	r3, [r3]
 327 0024 1A6A     		ldr	r2, [r3, #32]
 328 0026 40F24443 		movw	r3, #1092
 329 002a 1340     		ands	r3, r3, r2
 330 002c 002B     		cmp	r3, #0
 331 002e 07D1     		bne	.L10
 332              		.loc 1 261 3 discriminator 2
 333 0030 7B68     		ldr	r3, [r7, #4]
 334 0032 1B68     		ldr	r3, [r3]
 335 0034 1A68     		ldr	r2, [r3]
 336 0036 7B68     		ldr	r3, [r7, #4]
 337 0038 1B68     		ldr	r3, [r3]
 338 003a 22F00102 		bic	r2, r2, #1
 339 003e 1A60     		str	r2, [r3]
 340              	.L10:
 262:Drivers/STM32H7xx_HAL_Driver/Src/stm32h7xx_hal_tim_ex.c **** 
 263:Drivers/STM32H7xx_HAL_Driver/Src/stm32h7xx_hal_tim_ex.c **** #if (USE_HAL_TIM_REGISTER_CALLBACKS == 1)
 264:Drivers/STM32H7xx_HAL_Driver/Src/stm32h7xx_hal_tim_ex.c ****   if (htim->HallSensor_MspDeInitCallback == NULL)
 341              		.loc 1 264 11 is_stmt 1
 342 0040 7B68     		ldr	r3, [r7, #4]
 343 0042 D3F88030 		ldr	r3, [r3, #128]
 344              		.loc 1 264 6
 345 0046 002B     		cmp	r3, #0
 346 0048 03D1     		bne	.L11
 265:Drivers/STM32H7xx_HAL_Driver/Src/stm32h7xx_hal_tim_ex.c ****   {
 266:Drivers/STM32H7xx_HAL_Driver/Src/stm32h7xx_hal_tim_ex.c ****     htim->HallSensor_MspDeInitCallback = HAL_TIMEx_HallSensor_MspDeInit;
 347              		.loc 1 266 40
 348 004a 7B68     		ldr	r3, [r7, #4]
 349 004c 144A     		ldr	r2, .L13
 350 004e C3F88020 		str	r2, [r3, #128]
 351              	.L11:
 267:Drivers/STM32H7xx_HAL_Driver/Src/stm32h7xx_hal_tim_ex.c ****   }
 268:Drivers/STM32H7xx_HAL_Driver/Src/stm32h7xx_hal_tim_ex.c ****   /* DeInit the low level hardware */
 269:Drivers/STM32H7xx_HAL_Driver/Src/stm32h7xx_hal_tim_ex.c ****   htim->HallSensor_MspDeInitCallback(htim);
 352              		.loc 1 269 7
 353 0052 7B68     		ldr	r3, [r7, #4]
 354 0054 D3F88030 		ldr	r3, [r3, #128]
 355              		.loc 1 269 3
 356 0058 7868     		ldr	r0, [r7, #4]
 357 005a 9847     		blx	r3
 358              	.LVL1:
 270:Drivers/STM32H7xx_HAL_Driver/Src/stm32h7xx_hal_tim_ex.c **** #else
 271:Drivers/STM32H7xx_HAL_Driver/Src/stm32h7xx_hal_tim_ex.c ****   /* DeInit the low level hardware: GPIO, CLOCK, NVIC */
 272:Drivers/STM32H7xx_HAL_Driver/Src/stm32h7xx_hal_tim_ex.c ****   HAL_TIMEx_HallSensor_MspDeInit(htim);
ARM GAS  /var/folders/d0/cymppscj10lcmm48h781wrc80000gn/T//ccIjALm5.s 			page 12


 273:Drivers/STM32H7xx_HAL_Driver/Src/stm32h7xx_hal_tim_ex.c **** #endif /* USE_HAL_TIM_REGISTER_CALLBACKS */
 274:Drivers/STM32H7xx_HAL_Driver/Src/stm32h7xx_hal_tim_ex.c **** 
 275:Drivers/STM32H7xx_HAL_Driver/Src/stm32h7xx_hal_tim_ex.c ****   /* Change the DMA burst operation state */
 276:Drivers/STM32H7xx_HAL_Driver/Src/stm32h7xx_hal_tim_ex.c ****   htim->DMABurstState = HAL_DMA_BURST_STATE_RESET;
 359              		.loc 1 276 23
 360 005c 7B68     		ldr	r3, [r7, #4]
 361 005e 0022     		movs	r2, #0
 362 0060 83F84820 		strb	r2, [r3, #72]
 277:Drivers/STM32H7xx_HAL_Driver/Src/stm32h7xx_hal_tim_ex.c **** 
 278:Drivers/STM32H7xx_HAL_Driver/Src/stm32h7xx_hal_tim_ex.c ****   /* Change the TIM channels state */
 279:Drivers/STM32H7xx_HAL_Driver/Src/stm32h7xx_hal_tim_ex.c ****   TIM_CHANNEL_STATE_SET(htim, TIM_CHANNEL_1, HAL_TIM_CHANNEL_STATE_RESET);
 363              		.loc 1 279 3
 364 0064 7B68     		ldr	r3, [r7, #4]
 365 0066 0022     		movs	r2, #0
 366 0068 83F83E20 		strb	r2, [r3, #62]
 280:Drivers/STM32H7xx_HAL_Driver/Src/stm32h7xx_hal_tim_ex.c ****   TIM_CHANNEL_STATE_SET(htim, TIM_CHANNEL_2, HAL_TIM_CHANNEL_STATE_RESET);
 367              		.loc 1 280 3
 368 006c 7B68     		ldr	r3, [r7, #4]
 369 006e 0022     		movs	r2, #0
 370 0070 83F83F20 		strb	r2, [r3, #63]
 281:Drivers/STM32H7xx_HAL_Driver/Src/stm32h7xx_hal_tim_ex.c ****   TIM_CHANNEL_N_STATE_SET(htim, TIM_CHANNEL_1, HAL_TIM_CHANNEL_STATE_RESET);
 371              		.loc 1 281 3
 372 0074 7B68     		ldr	r3, [r7, #4]
 373 0076 0022     		movs	r2, #0
 374 0078 83F84420 		strb	r2, [r3, #68]
 282:Drivers/STM32H7xx_HAL_Driver/Src/stm32h7xx_hal_tim_ex.c ****   TIM_CHANNEL_N_STATE_SET(htim, TIM_CHANNEL_2, HAL_TIM_CHANNEL_STATE_RESET);
 375              		.loc 1 282 3
 376 007c 7B68     		ldr	r3, [r7, #4]
 377 007e 0022     		movs	r2, #0
 378 0080 83F84520 		strb	r2, [r3, #69]
 283:Drivers/STM32H7xx_HAL_Driver/Src/stm32h7xx_hal_tim_ex.c **** 
 284:Drivers/STM32H7xx_HAL_Driver/Src/stm32h7xx_hal_tim_ex.c ****   /* Change TIM state */
 285:Drivers/STM32H7xx_HAL_Driver/Src/stm32h7xx_hal_tim_ex.c ****   htim->State = HAL_TIM_STATE_RESET;
 379              		.loc 1 285 15
 380 0084 7B68     		ldr	r3, [r7, #4]
 381 0086 0022     		movs	r2, #0
 382 0088 83F83D20 		strb	r2, [r3, #61]
 286:Drivers/STM32H7xx_HAL_Driver/Src/stm32h7xx_hal_tim_ex.c **** 
 287:Drivers/STM32H7xx_HAL_Driver/Src/stm32h7xx_hal_tim_ex.c ****   /* Release Lock */
 288:Drivers/STM32H7xx_HAL_Driver/Src/stm32h7xx_hal_tim_ex.c ****   __HAL_UNLOCK(htim);
 383              		.loc 1 288 3
 384 008c 7B68     		ldr	r3, [r7, #4]
 385 008e 0022     		movs	r2, #0
 386 0090 83F83C20 		strb	r2, [r3, #60]
 289:Drivers/STM32H7xx_HAL_Driver/Src/stm32h7xx_hal_tim_ex.c **** 
 290:Drivers/STM32H7xx_HAL_Driver/Src/stm32h7xx_hal_tim_ex.c ****   return HAL_OK;
 387              		.loc 1 290 10
 388 0094 0023     		movs	r3, #0
 291:Drivers/STM32H7xx_HAL_Driver/Src/stm32h7xx_hal_tim_ex.c **** }
 389              		.loc 1 291 1
 390 0096 1846     		mov	r0, r3
 391 0098 0837     		adds	r7, r7, #8
 392              	.LCFI8:
 393              		.cfi_def_cfa_offset 8
 394 009a BD46     		mov	sp, r7
 395              	.LCFI9:
 396              		.cfi_def_cfa_register 13
ARM GAS  /var/folders/d0/cymppscj10lcmm48h781wrc80000gn/T//ccIjALm5.s 			page 13


 397              		@ sp needed
 398 009c 80BD     		pop	{r7, pc}
 399              	.L14:
 400 009e 00BF     		.align	2
 401              	.L13:
 402 00a0 00000000 		.word	HAL_TIMEx_HallSensor_MspDeInit
 403              		.cfi_endproc
 404              	.LFE334:
 406              		.section	.text.HAL_TIMEx_HallSensor_MspInit,"ax",%progbits
 407              		.align	1
 408              		.weak	HAL_TIMEx_HallSensor_MspInit
 409              		.syntax unified
 410              		.thumb
 411              		.thumb_func
 413              	HAL_TIMEx_HallSensor_MspInit:
 414              	.LFB335:
 292:Drivers/STM32H7xx_HAL_Driver/Src/stm32h7xx_hal_tim_ex.c **** 
 293:Drivers/STM32H7xx_HAL_Driver/Src/stm32h7xx_hal_tim_ex.c **** /**
 294:Drivers/STM32H7xx_HAL_Driver/Src/stm32h7xx_hal_tim_ex.c ****   * @brief  Initializes the TIM Hall Sensor MSP.
 295:Drivers/STM32H7xx_HAL_Driver/Src/stm32h7xx_hal_tim_ex.c ****   * @param  htim TIM Hall Sensor Interface handle
 296:Drivers/STM32H7xx_HAL_Driver/Src/stm32h7xx_hal_tim_ex.c ****   * @retval None
 297:Drivers/STM32H7xx_HAL_Driver/Src/stm32h7xx_hal_tim_ex.c ****   */
 298:Drivers/STM32H7xx_HAL_Driver/Src/stm32h7xx_hal_tim_ex.c **** __weak void HAL_TIMEx_HallSensor_MspInit(TIM_HandleTypeDef *htim)
 299:Drivers/STM32H7xx_HAL_Driver/Src/stm32h7xx_hal_tim_ex.c **** {
 415              		.loc 1 299 1
 416              		.cfi_startproc
 417              		@ args = 0, pretend = 0, frame = 8
 418              		@ frame_needed = 1, uses_anonymous_args = 0
 419              		@ link register save eliminated.
 420 0000 80B4     		push	{r7}
 421              	.LCFI10:
 422              		.cfi_def_cfa_offset 4
 423              		.cfi_offset 7, -4
 424 0002 83B0     		sub	sp, sp, #12
 425              	.LCFI11:
 426              		.cfi_def_cfa_offset 16
 427 0004 00AF     		add	r7, sp, #0
 428              	.LCFI12:
 429              		.cfi_def_cfa_register 7
 430 0006 7860     		str	r0, [r7, #4]
 300:Drivers/STM32H7xx_HAL_Driver/Src/stm32h7xx_hal_tim_ex.c ****   /* Prevent unused argument(s) compilation warning */
 301:Drivers/STM32H7xx_HAL_Driver/Src/stm32h7xx_hal_tim_ex.c ****   UNUSED(htim);
 302:Drivers/STM32H7xx_HAL_Driver/Src/stm32h7xx_hal_tim_ex.c **** 
 303:Drivers/STM32H7xx_HAL_Driver/Src/stm32h7xx_hal_tim_ex.c ****   /* NOTE : This function should not be modified, when the callback is needed,
 304:Drivers/STM32H7xx_HAL_Driver/Src/stm32h7xx_hal_tim_ex.c ****             the HAL_TIMEx_HallSensor_MspInit could be implemented in the user file
 305:Drivers/STM32H7xx_HAL_Driver/Src/stm32h7xx_hal_tim_ex.c ****    */
 306:Drivers/STM32H7xx_HAL_Driver/Src/stm32h7xx_hal_tim_ex.c **** }
 431              		.loc 1 306 1
 432 0008 00BF     		nop
 433 000a 0C37     		adds	r7, r7, #12
 434              	.LCFI13:
 435              		.cfi_def_cfa_offset 4
 436 000c BD46     		mov	sp, r7
 437              	.LCFI14:
 438              		.cfi_def_cfa_register 13
 439              		@ sp needed
 440 000e 5DF8047B 		ldr	r7, [sp], #4
ARM GAS  /var/folders/d0/cymppscj10lcmm48h781wrc80000gn/T//ccIjALm5.s 			page 14


 441              	.LCFI15:
 442              		.cfi_restore 7
 443              		.cfi_def_cfa_offset 0
 444 0012 7047     		bx	lr
 445              		.cfi_endproc
 446              	.LFE335:
 448              		.section	.text.HAL_TIMEx_HallSensor_MspDeInit,"ax",%progbits
 449              		.align	1
 450              		.weak	HAL_TIMEx_HallSensor_MspDeInit
 451              		.syntax unified
 452              		.thumb
 453              		.thumb_func
 455              	HAL_TIMEx_HallSensor_MspDeInit:
 456              	.LFB336:
 307:Drivers/STM32H7xx_HAL_Driver/Src/stm32h7xx_hal_tim_ex.c **** 
 308:Drivers/STM32H7xx_HAL_Driver/Src/stm32h7xx_hal_tim_ex.c **** /**
 309:Drivers/STM32H7xx_HAL_Driver/Src/stm32h7xx_hal_tim_ex.c ****   * @brief  DeInitializes TIM Hall Sensor MSP.
 310:Drivers/STM32H7xx_HAL_Driver/Src/stm32h7xx_hal_tim_ex.c ****   * @param  htim TIM Hall Sensor Interface handle
 311:Drivers/STM32H7xx_HAL_Driver/Src/stm32h7xx_hal_tim_ex.c ****   * @retval None
 312:Drivers/STM32H7xx_HAL_Driver/Src/stm32h7xx_hal_tim_ex.c ****   */
 313:Drivers/STM32H7xx_HAL_Driver/Src/stm32h7xx_hal_tim_ex.c **** __weak void HAL_TIMEx_HallSensor_MspDeInit(TIM_HandleTypeDef *htim)
 314:Drivers/STM32H7xx_HAL_Driver/Src/stm32h7xx_hal_tim_ex.c **** {
 457              		.loc 1 314 1
 458              		.cfi_startproc
 459              		@ args = 0, pretend = 0, frame = 8
 460              		@ frame_needed = 1, uses_anonymous_args = 0
 461              		@ link register save eliminated.
 462 0000 80B4     		push	{r7}
 463              	.LCFI16:
 464              		.cfi_def_cfa_offset 4
 465              		.cfi_offset 7, -4
 466 0002 83B0     		sub	sp, sp, #12
 467              	.LCFI17:
 468              		.cfi_def_cfa_offset 16
 469 0004 00AF     		add	r7, sp, #0
 470              	.LCFI18:
 471              		.cfi_def_cfa_register 7
 472 0006 7860     		str	r0, [r7, #4]
 315:Drivers/STM32H7xx_HAL_Driver/Src/stm32h7xx_hal_tim_ex.c ****   /* Prevent unused argument(s) compilation warning */
 316:Drivers/STM32H7xx_HAL_Driver/Src/stm32h7xx_hal_tim_ex.c ****   UNUSED(htim);
 317:Drivers/STM32H7xx_HAL_Driver/Src/stm32h7xx_hal_tim_ex.c **** 
 318:Drivers/STM32H7xx_HAL_Driver/Src/stm32h7xx_hal_tim_ex.c ****   /* NOTE : This function should not be modified, when the callback is needed,
 319:Drivers/STM32H7xx_HAL_Driver/Src/stm32h7xx_hal_tim_ex.c ****             the HAL_TIMEx_HallSensor_MspDeInit could be implemented in the user file
 320:Drivers/STM32H7xx_HAL_Driver/Src/stm32h7xx_hal_tim_ex.c ****    */
 321:Drivers/STM32H7xx_HAL_Driver/Src/stm32h7xx_hal_tim_ex.c **** }
 473              		.loc 1 321 1
 474 0008 00BF     		nop
 475 000a 0C37     		adds	r7, r7, #12
 476              	.LCFI19:
 477              		.cfi_def_cfa_offset 4
 478 000c BD46     		mov	sp, r7
 479              	.LCFI20:
 480              		.cfi_def_cfa_register 13
 481              		@ sp needed
 482 000e 5DF8047B 		ldr	r7, [sp], #4
 483              	.LCFI21:
 484              		.cfi_restore 7
ARM GAS  /var/folders/d0/cymppscj10lcmm48h781wrc80000gn/T//ccIjALm5.s 			page 15


 485              		.cfi_def_cfa_offset 0
 486 0012 7047     		bx	lr
 487              		.cfi_endproc
 488              	.LFE336:
 490              		.section	.text.HAL_TIMEx_HallSensor_Start,"ax",%progbits
 491              		.align	1
 492              		.global	HAL_TIMEx_HallSensor_Start
 493              		.syntax unified
 494              		.thumb
 495              		.thumb_func
 497              	HAL_TIMEx_HallSensor_Start:
 498              	.LFB337:
 322:Drivers/STM32H7xx_HAL_Driver/Src/stm32h7xx_hal_tim_ex.c **** 
 323:Drivers/STM32H7xx_HAL_Driver/Src/stm32h7xx_hal_tim_ex.c **** /**
 324:Drivers/STM32H7xx_HAL_Driver/Src/stm32h7xx_hal_tim_ex.c ****   * @brief  Starts the TIM Hall Sensor Interface.
 325:Drivers/STM32H7xx_HAL_Driver/Src/stm32h7xx_hal_tim_ex.c ****   * @param  htim TIM Hall Sensor Interface handle
 326:Drivers/STM32H7xx_HAL_Driver/Src/stm32h7xx_hal_tim_ex.c ****   * @retval HAL status
 327:Drivers/STM32H7xx_HAL_Driver/Src/stm32h7xx_hal_tim_ex.c ****   */
 328:Drivers/STM32H7xx_HAL_Driver/Src/stm32h7xx_hal_tim_ex.c **** HAL_StatusTypeDef HAL_TIMEx_HallSensor_Start(TIM_HandleTypeDef *htim)
 329:Drivers/STM32H7xx_HAL_Driver/Src/stm32h7xx_hal_tim_ex.c **** {
 499              		.loc 1 329 1
 500              		.cfi_startproc
 501              		@ args = 0, pretend = 0, frame = 16
 502              		@ frame_needed = 1, uses_anonymous_args = 0
 503 0000 80B5     		push	{r7, lr}
 504              	.LCFI22:
 505              		.cfi_def_cfa_offset 8
 506              		.cfi_offset 7, -8
 507              		.cfi_offset 14, -4
 508 0002 84B0     		sub	sp, sp, #16
 509              	.LCFI23:
 510              		.cfi_def_cfa_offset 24
 511 0004 00AF     		add	r7, sp, #0
 512              	.LCFI24:
 513              		.cfi_def_cfa_register 7
 514 0006 7860     		str	r0, [r7, #4]
 330:Drivers/STM32H7xx_HAL_Driver/Src/stm32h7xx_hal_tim_ex.c ****   uint32_t tmpsmcr;
 331:Drivers/STM32H7xx_HAL_Driver/Src/stm32h7xx_hal_tim_ex.c ****   HAL_TIM_ChannelStateTypeDef channel_1_state = TIM_CHANNEL_STATE_GET(htim, TIM_CHANNEL_1);
 515              		.loc 1 331 31
 516 0008 7B68     		ldr	r3, [r7, #4]
 517 000a 93F83E30 		ldrb	r3, [r3, #62]
 518 000e FB73     		strb	r3, [r7, #15]
 332:Drivers/STM32H7xx_HAL_Driver/Src/stm32h7xx_hal_tim_ex.c ****   HAL_TIM_ChannelStateTypeDef channel_2_state = TIM_CHANNEL_STATE_GET(htim, TIM_CHANNEL_2);
 519              		.loc 1 332 31
 520 0010 7B68     		ldr	r3, [r7, #4]
 521 0012 93F83F30 		ldrb	r3, [r3, #63]
 522 0016 BB73     		strb	r3, [r7, #14]
 333:Drivers/STM32H7xx_HAL_Driver/Src/stm32h7xx_hal_tim_ex.c ****   HAL_TIM_ChannelStateTypeDef complementary_channel_1_state = TIM_CHANNEL_N_STATE_GET(htim, TIM_CHA
 523              		.loc 1 333 31
 524 0018 7B68     		ldr	r3, [r7, #4]
 525 001a 93F84430 		ldrb	r3, [r3, #68]
 526 001e 7B73     		strb	r3, [r7, #13]
 334:Drivers/STM32H7xx_HAL_Driver/Src/stm32h7xx_hal_tim_ex.c ****   HAL_TIM_ChannelStateTypeDef complementary_channel_2_state = TIM_CHANNEL_N_STATE_GET(htim, TIM_CHA
 527              		.loc 1 334 31
 528 0020 7B68     		ldr	r3, [r7, #4]
 529 0022 93F84530 		ldrb	r3, [r3, #69]
 530 0026 3B73     		strb	r3, [r7, #12]
ARM GAS  /var/folders/d0/cymppscj10lcmm48h781wrc80000gn/T//ccIjALm5.s 			page 16


 335:Drivers/STM32H7xx_HAL_Driver/Src/stm32h7xx_hal_tim_ex.c **** 
 336:Drivers/STM32H7xx_HAL_Driver/Src/stm32h7xx_hal_tim_ex.c ****   /* Check the parameters */
 337:Drivers/STM32H7xx_HAL_Driver/Src/stm32h7xx_hal_tim_ex.c ****   assert_param(IS_TIM_HALL_SENSOR_INTERFACE_INSTANCE(htim->Instance));
 338:Drivers/STM32H7xx_HAL_Driver/Src/stm32h7xx_hal_tim_ex.c **** 
 339:Drivers/STM32H7xx_HAL_Driver/Src/stm32h7xx_hal_tim_ex.c ****   /* Check the TIM channels state */
 340:Drivers/STM32H7xx_HAL_Driver/Src/stm32h7xx_hal_tim_ex.c ****   if ((channel_1_state != HAL_TIM_CHANNEL_STATE_READY)
 531              		.loc 1 340 6
 532 0028 FB7B     		ldrb	r3, [r7, #15]	@ zero_extendqisi2
 533 002a 012B     		cmp	r3, #1
 534 002c 08D1     		bne	.L18
 341:Drivers/STM32H7xx_HAL_Driver/Src/stm32h7xx_hal_tim_ex.c ****       || (channel_2_state != HAL_TIM_CHANNEL_STATE_READY)
 535              		.loc 1 341 7
 536 002e BB7B     		ldrb	r3, [r7, #14]	@ zero_extendqisi2
 537 0030 012B     		cmp	r3, #1
 538 0032 05D1     		bne	.L18
 342:Drivers/STM32H7xx_HAL_Driver/Src/stm32h7xx_hal_tim_ex.c ****       || (complementary_channel_1_state != HAL_TIM_CHANNEL_STATE_READY)
 539              		.loc 1 342 7
 540 0034 7B7B     		ldrb	r3, [r7, #13]	@ zero_extendqisi2
 541 0036 012B     		cmp	r3, #1
 542 0038 02D1     		bne	.L18
 343:Drivers/STM32H7xx_HAL_Driver/Src/stm32h7xx_hal_tim_ex.c ****       || (complementary_channel_2_state != HAL_TIM_CHANNEL_STATE_READY))
 543              		.loc 1 343 7
 544 003a 3B7B     		ldrb	r3, [r7, #12]	@ zero_extendqisi2
 545 003c 012B     		cmp	r3, #1
 546 003e 01D0     		beq	.L19
 547              	.L18:
 344:Drivers/STM32H7xx_HAL_Driver/Src/stm32h7xx_hal_tim_ex.c ****   {
 345:Drivers/STM32H7xx_HAL_Driver/Src/stm32h7xx_hal_tim_ex.c ****     return HAL_ERROR;
 548              		.loc 1 345 12
 549 0040 0123     		movs	r3, #1
 550 0042 5FE0     		b	.L20
 551              	.L19:
 346:Drivers/STM32H7xx_HAL_Driver/Src/stm32h7xx_hal_tim_ex.c ****   }
 347:Drivers/STM32H7xx_HAL_Driver/Src/stm32h7xx_hal_tim_ex.c **** 
 348:Drivers/STM32H7xx_HAL_Driver/Src/stm32h7xx_hal_tim_ex.c ****   /* Set the TIM channels state */
 349:Drivers/STM32H7xx_HAL_Driver/Src/stm32h7xx_hal_tim_ex.c ****   TIM_CHANNEL_STATE_SET(htim, TIM_CHANNEL_1, HAL_TIM_CHANNEL_STATE_BUSY);
 552              		.loc 1 349 3
 553 0044 7B68     		ldr	r3, [r7, #4]
 554 0046 0222     		movs	r2, #2
 555 0048 83F83E20 		strb	r2, [r3, #62]
 350:Drivers/STM32H7xx_HAL_Driver/Src/stm32h7xx_hal_tim_ex.c ****   TIM_CHANNEL_STATE_SET(htim, TIM_CHANNEL_2, HAL_TIM_CHANNEL_STATE_BUSY);
 556              		.loc 1 350 3
 557 004c 7B68     		ldr	r3, [r7, #4]
 558 004e 0222     		movs	r2, #2
 559 0050 83F83F20 		strb	r2, [r3, #63]
 351:Drivers/STM32H7xx_HAL_Driver/Src/stm32h7xx_hal_tim_ex.c ****   TIM_CHANNEL_N_STATE_SET(htim, TIM_CHANNEL_1, HAL_TIM_CHANNEL_STATE_BUSY);
 560              		.loc 1 351 3
 561 0054 7B68     		ldr	r3, [r7, #4]
 562 0056 0222     		movs	r2, #2
 563 0058 83F84420 		strb	r2, [r3, #68]
 352:Drivers/STM32H7xx_HAL_Driver/Src/stm32h7xx_hal_tim_ex.c ****   TIM_CHANNEL_N_STATE_SET(htim, TIM_CHANNEL_2, HAL_TIM_CHANNEL_STATE_BUSY);
 564              		.loc 1 352 3
 565 005c 7B68     		ldr	r3, [r7, #4]
 566 005e 0222     		movs	r2, #2
 567 0060 83F84520 		strb	r2, [r3, #69]
 353:Drivers/STM32H7xx_HAL_Driver/Src/stm32h7xx_hal_tim_ex.c **** 
 354:Drivers/STM32H7xx_HAL_Driver/Src/stm32h7xx_hal_tim_ex.c ****   /* Enable the Input Capture channel 1
ARM GAS  /var/folders/d0/cymppscj10lcmm48h781wrc80000gn/T//ccIjALm5.s 			page 17


 355:Drivers/STM32H7xx_HAL_Driver/Src/stm32h7xx_hal_tim_ex.c ****   (in the Hall Sensor Interface the three possible channels that can be used are TIM_CHANNEL_1,
 356:Drivers/STM32H7xx_HAL_Driver/Src/stm32h7xx_hal_tim_ex.c ****   TIM_CHANNEL_2 and TIM_CHANNEL_3) */
 357:Drivers/STM32H7xx_HAL_Driver/Src/stm32h7xx_hal_tim_ex.c ****   TIM_CCxChannelCmd(htim->Instance, TIM_CHANNEL_1, TIM_CCx_ENABLE);
 568              		.loc 1 357 3
 569 0064 7B68     		ldr	r3, [r7, #4]
 570 0066 1B68     		ldr	r3, [r3]
 571 0068 0122     		movs	r2, #1
 572 006a 0021     		movs	r1, #0
 573 006c 1846     		mov	r0, r3
 574 006e FFF7FEFF 		bl	TIM_CCxChannelCmd
 358:Drivers/STM32H7xx_HAL_Driver/Src/stm32h7xx_hal_tim_ex.c **** 
 359:Drivers/STM32H7xx_HAL_Driver/Src/stm32h7xx_hal_tim_ex.c ****   /* Enable the Peripheral, except in trigger mode where enable is automatically done with trigger 
 360:Drivers/STM32H7xx_HAL_Driver/Src/stm32h7xx_hal_tim_ex.c ****   if (IS_TIM_SLAVE_INSTANCE(htim->Instance))
 575              		.loc 1 360 7
 576 0072 7B68     		ldr	r3, [r7, #4]
 577 0074 1B68     		ldr	r3, [r3]
 578              		.loc 1 360 6
 579 0076 254A     		ldr	r2, .L26
 580 0078 9342     		cmp	r3, r2
 581 007a 22D0     		beq	.L21
 582              		.loc 1 360 7 discriminator 1
 583 007c 7B68     		ldr	r3, [r7, #4]
 584 007e 1B68     		ldr	r3, [r3]
 585 0080 B3F1804F 		cmp	r3, #1073741824
 586 0084 1DD0     		beq	.L21
 587              		.loc 1 360 7 is_stmt 0 discriminator 2
 588 0086 7B68     		ldr	r3, [r7, #4]
 589 0088 1B68     		ldr	r3, [r3]
 590 008a 214A     		ldr	r2, .L26+4
 591 008c 9342     		cmp	r3, r2
 592 008e 18D0     		beq	.L21
 593              		.loc 1 360 7 discriminator 3
 594 0090 7B68     		ldr	r3, [r7, #4]
 595 0092 1B68     		ldr	r3, [r3]
 596 0094 1F4A     		ldr	r2, .L26+8
 597 0096 9342     		cmp	r3, r2
 598 0098 13D0     		beq	.L21
 599              		.loc 1 360 7 discriminator 4
 600 009a 7B68     		ldr	r3, [r7, #4]
 601 009c 1B68     		ldr	r3, [r3]
 602 009e 1E4A     		ldr	r2, .L26+12
 603 00a0 9342     		cmp	r3, r2
 604 00a2 0ED0     		beq	.L21
 605              		.loc 1 360 7 discriminator 5
 606 00a4 7B68     		ldr	r3, [r7, #4]
 607 00a6 1B68     		ldr	r3, [r3]
 608 00a8 1C4A     		ldr	r2, .L26+16
 609 00aa 9342     		cmp	r3, r2
 610 00ac 09D0     		beq	.L21
 611              		.loc 1 360 7 discriminator 6
 612 00ae 7B68     		ldr	r3, [r7, #4]
 613 00b0 1B68     		ldr	r3, [r3]
 614 00b2 1B4A     		ldr	r2, .L26+20
 615 00b4 9342     		cmp	r3, r2
 616 00b6 04D0     		beq	.L21
 617              		.loc 1 360 7 discriminator 7
 618 00b8 7B68     		ldr	r3, [r7, #4]
ARM GAS  /var/folders/d0/cymppscj10lcmm48h781wrc80000gn/T//ccIjALm5.s 			page 18


 619 00ba 1B68     		ldr	r3, [r3]
 620 00bc 194A     		ldr	r2, .L26+24
 621 00be 9342     		cmp	r3, r2
 622 00c0 15D1     		bne	.L22
 623              	.L21:
 361:Drivers/STM32H7xx_HAL_Driver/Src/stm32h7xx_hal_tim_ex.c ****   {
 362:Drivers/STM32H7xx_HAL_Driver/Src/stm32h7xx_hal_tim_ex.c ****     tmpsmcr = htim->Instance->SMCR & TIM_SMCR_SMS;
 624              		.loc 1 362 19 is_stmt 1
 625 00c2 7B68     		ldr	r3, [r7, #4]
 626 00c4 1B68     		ldr	r3, [r3]
 627              		.loc 1 362 29
 628 00c6 9A68     		ldr	r2, [r3, #8]
 629              		.loc 1 362 13
 630 00c8 174B     		ldr	r3, .L26+28
 631 00ca 1340     		ands	r3, r3, r2
 632 00cc BB60     		str	r3, [r7, #8]
 363:Drivers/STM32H7xx_HAL_Driver/Src/stm32h7xx_hal_tim_ex.c ****     if (!IS_TIM_SLAVEMODE_TRIGGER_ENABLED(tmpsmcr))
 633              		.loc 1 363 8
 634 00ce BB68     		ldr	r3, [r7, #8]
 635 00d0 062B     		cmp	r3, #6
 636 00d2 15D0     		beq	.L25
 637              		.loc 1 363 9 discriminator 1
 638 00d4 BB68     		ldr	r3, [r7, #8]
 639 00d6 B3F5803F 		cmp	r3, #65536
 640 00da 11D0     		beq	.L25
 364:Drivers/STM32H7xx_HAL_Driver/Src/stm32h7xx_hal_tim_ex.c ****     {
 365:Drivers/STM32H7xx_HAL_Driver/Src/stm32h7xx_hal_tim_ex.c ****       __HAL_TIM_ENABLE(htim);
 641              		.loc 1 365 7
 642 00dc 7B68     		ldr	r3, [r7, #4]
 643 00de 1B68     		ldr	r3, [r3]
 644 00e0 1A68     		ldr	r2, [r3]
 645 00e2 7B68     		ldr	r3, [r7, #4]
 646 00e4 1B68     		ldr	r3, [r3]
 647 00e6 42F00102 		orr	r2, r2, #1
 648 00ea 1A60     		str	r2, [r3]
 363:Drivers/STM32H7xx_HAL_Driver/Src/stm32h7xx_hal_tim_ex.c ****     if (!IS_TIM_SLAVEMODE_TRIGGER_ENABLED(tmpsmcr))
 649              		.loc 1 363 8
 650 00ec 08E0     		b	.L25
 651              	.L22:
 366:Drivers/STM32H7xx_HAL_Driver/Src/stm32h7xx_hal_tim_ex.c ****     }
 367:Drivers/STM32H7xx_HAL_Driver/Src/stm32h7xx_hal_tim_ex.c ****   }
 368:Drivers/STM32H7xx_HAL_Driver/Src/stm32h7xx_hal_tim_ex.c ****   else
 369:Drivers/STM32H7xx_HAL_Driver/Src/stm32h7xx_hal_tim_ex.c ****   {
 370:Drivers/STM32H7xx_HAL_Driver/Src/stm32h7xx_hal_tim_ex.c ****     __HAL_TIM_ENABLE(htim);
 652              		.loc 1 370 5
 653 00ee 7B68     		ldr	r3, [r7, #4]
 654 00f0 1B68     		ldr	r3, [r3]
 655 00f2 1A68     		ldr	r2, [r3]
 656 00f4 7B68     		ldr	r3, [r7, #4]
 657 00f6 1B68     		ldr	r3, [r3]
 658 00f8 42F00102 		orr	r2, r2, #1
 659 00fc 1A60     		str	r2, [r3]
 660 00fe 00E0     		b	.L24
 661              	.L25:
 363:Drivers/STM32H7xx_HAL_Driver/Src/stm32h7xx_hal_tim_ex.c ****     {
 662              		.loc 1 363 8
 663 0100 00BF     		nop
ARM GAS  /var/folders/d0/cymppscj10lcmm48h781wrc80000gn/T//ccIjALm5.s 			page 19


 664              	.L24:
 371:Drivers/STM32H7xx_HAL_Driver/Src/stm32h7xx_hal_tim_ex.c ****   }
 372:Drivers/STM32H7xx_HAL_Driver/Src/stm32h7xx_hal_tim_ex.c **** 
 373:Drivers/STM32H7xx_HAL_Driver/Src/stm32h7xx_hal_tim_ex.c ****   /* Return function status */
 374:Drivers/STM32H7xx_HAL_Driver/Src/stm32h7xx_hal_tim_ex.c ****   return HAL_OK;
 665              		.loc 1 374 10
 666 0102 0023     		movs	r3, #0
 667              	.L20:
 375:Drivers/STM32H7xx_HAL_Driver/Src/stm32h7xx_hal_tim_ex.c **** }
 668              		.loc 1 375 1
 669 0104 1846     		mov	r0, r3
 670 0106 1037     		adds	r7, r7, #16
 671              	.LCFI25:
 672              		.cfi_def_cfa_offset 8
 673 0108 BD46     		mov	sp, r7
 674              	.LCFI26:
 675              		.cfi_def_cfa_register 13
 676              		@ sp needed
 677 010a 80BD     		pop	{r7, pc}
 678              	.L27:
 679              		.align	2
 680              	.L26:
 681 010c 00000140 		.word	1073807360
 682 0110 00040040 		.word	1073742848
 683 0114 00080040 		.word	1073743872
 684 0118 000C0040 		.word	1073744896
 685 011c 00040140 		.word	1073808384
 686 0120 00180040 		.word	1073747968
 687 0124 00400140 		.word	1073823744
 688 0128 07000100 		.word	65543
 689              		.cfi_endproc
 690              	.LFE337:
 692              		.section	.text.HAL_TIMEx_HallSensor_Stop,"ax",%progbits
 693              		.align	1
 694              		.global	HAL_TIMEx_HallSensor_Stop
 695              		.syntax unified
 696              		.thumb
 697              		.thumb_func
 699              	HAL_TIMEx_HallSensor_Stop:
 700              	.LFB338:
 376:Drivers/STM32H7xx_HAL_Driver/Src/stm32h7xx_hal_tim_ex.c **** 
 377:Drivers/STM32H7xx_HAL_Driver/Src/stm32h7xx_hal_tim_ex.c **** /**
 378:Drivers/STM32H7xx_HAL_Driver/Src/stm32h7xx_hal_tim_ex.c ****   * @brief  Stops the TIM Hall sensor Interface.
 379:Drivers/STM32H7xx_HAL_Driver/Src/stm32h7xx_hal_tim_ex.c ****   * @param  htim TIM Hall Sensor Interface handle
 380:Drivers/STM32H7xx_HAL_Driver/Src/stm32h7xx_hal_tim_ex.c ****   * @retval HAL status
 381:Drivers/STM32H7xx_HAL_Driver/Src/stm32h7xx_hal_tim_ex.c ****   */
 382:Drivers/STM32H7xx_HAL_Driver/Src/stm32h7xx_hal_tim_ex.c **** HAL_StatusTypeDef HAL_TIMEx_HallSensor_Stop(TIM_HandleTypeDef *htim)
 383:Drivers/STM32H7xx_HAL_Driver/Src/stm32h7xx_hal_tim_ex.c **** {
 701              		.loc 1 383 1
 702              		.cfi_startproc
 703              		@ args = 0, pretend = 0, frame = 8
 704              		@ frame_needed = 1, uses_anonymous_args = 0
 705 0000 80B5     		push	{r7, lr}
 706              	.LCFI27:
 707              		.cfi_def_cfa_offset 8
 708              		.cfi_offset 7, -8
 709              		.cfi_offset 14, -4
ARM GAS  /var/folders/d0/cymppscj10lcmm48h781wrc80000gn/T//ccIjALm5.s 			page 20


 710 0002 82B0     		sub	sp, sp, #8
 711              	.LCFI28:
 712              		.cfi_def_cfa_offset 16
 713 0004 00AF     		add	r7, sp, #0
 714              	.LCFI29:
 715              		.cfi_def_cfa_register 7
 716 0006 7860     		str	r0, [r7, #4]
 384:Drivers/STM32H7xx_HAL_Driver/Src/stm32h7xx_hal_tim_ex.c ****   /* Check the parameters */
 385:Drivers/STM32H7xx_HAL_Driver/Src/stm32h7xx_hal_tim_ex.c ****   assert_param(IS_TIM_HALL_SENSOR_INTERFACE_INSTANCE(htim->Instance));
 386:Drivers/STM32H7xx_HAL_Driver/Src/stm32h7xx_hal_tim_ex.c **** 
 387:Drivers/STM32H7xx_HAL_Driver/Src/stm32h7xx_hal_tim_ex.c ****   /* Disable the Input Capture channels 1, 2 and 3
 388:Drivers/STM32H7xx_HAL_Driver/Src/stm32h7xx_hal_tim_ex.c ****   (in the Hall Sensor Interface the three possible channels that can be used are TIM_CHANNEL_1,
 389:Drivers/STM32H7xx_HAL_Driver/Src/stm32h7xx_hal_tim_ex.c ****   TIM_CHANNEL_2 and TIM_CHANNEL_3) */
 390:Drivers/STM32H7xx_HAL_Driver/Src/stm32h7xx_hal_tim_ex.c ****   TIM_CCxChannelCmd(htim->Instance, TIM_CHANNEL_1, TIM_CCx_DISABLE);
 717              		.loc 1 390 3
 718 0008 7B68     		ldr	r3, [r7, #4]
 719 000a 1B68     		ldr	r3, [r3]
 720 000c 0022     		movs	r2, #0
 721 000e 0021     		movs	r1, #0
 722 0010 1846     		mov	r0, r3
 723 0012 FFF7FEFF 		bl	TIM_CCxChannelCmd
 391:Drivers/STM32H7xx_HAL_Driver/Src/stm32h7xx_hal_tim_ex.c **** 
 392:Drivers/STM32H7xx_HAL_Driver/Src/stm32h7xx_hal_tim_ex.c ****   /* Disable the Peripheral */
 393:Drivers/STM32H7xx_HAL_Driver/Src/stm32h7xx_hal_tim_ex.c ****   __HAL_TIM_DISABLE(htim);
 724              		.loc 1 393 3
 725 0016 7B68     		ldr	r3, [r7, #4]
 726 0018 1B68     		ldr	r3, [r3]
 727 001a 1A6A     		ldr	r2, [r3, #32]
 728 001c 41F21113 		movw	r3, #4369
 729 0020 1340     		ands	r3, r3, r2
 730 0022 002B     		cmp	r3, #0
 731 0024 0FD1     		bne	.L29
 732              		.loc 1 393 3 is_stmt 0 discriminator 1
 733 0026 7B68     		ldr	r3, [r7, #4]
 734 0028 1B68     		ldr	r3, [r3]
 735 002a 1A6A     		ldr	r2, [r3, #32]
 736 002c 40F24443 		movw	r3, #1092
 737 0030 1340     		ands	r3, r3, r2
 738 0032 002B     		cmp	r3, #0
 739 0034 07D1     		bne	.L29
 740              		.loc 1 393 3 discriminator 2
 741 0036 7B68     		ldr	r3, [r7, #4]
 742 0038 1B68     		ldr	r3, [r3]
 743 003a 1A68     		ldr	r2, [r3]
 744 003c 7B68     		ldr	r3, [r7, #4]
 745 003e 1B68     		ldr	r3, [r3]
 746 0040 22F00102 		bic	r2, r2, #1
 747 0044 1A60     		str	r2, [r3]
 748              	.L29:
 394:Drivers/STM32H7xx_HAL_Driver/Src/stm32h7xx_hal_tim_ex.c **** 
 395:Drivers/STM32H7xx_HAL_Driver/Src/stm32h7xx_hal_tim_ex.c ****   /* Set the TIM channels state */
 396:Drivers/STM32H7xx_HAL_Driver/Src/stm32h7xx_hal_tim_ex.c ****   TIM_CHANNEL_STATE_SET(htim, TIM_CHANNEL_1, HAL_TIM_CHANNEL_STATE_READY);
 749              		.loc 1 396 3 is_stmt 1
 750 0046 7B68     		ldr	r3, [r7, #4]
 751 0048 0122     		movs	r2, #1
 752 004a 83F83E20 		strb	r2, [r3, #62]
 397:Drivers/STM32H7xx_HAL_Driver/Src/stm32h7xx_hal_tim_ex.c ****   TIM_CHANNEL_STATE_SET(htim, TIM_CHANNEL_2, HAL_TIM_CHANNEL_STATE_READY);
ARM GAS  /var/folders/d0/cymppscj10lcmm48h781wrc80000gn/T//ccIjALm5.s 			page 21


 753              		.loc 1 397 3
 754 004e 7B68     		ldr	r3, [r7, #4]
 755 0050 0122     		movs	r2, #1
 756 0052 83F83F20 		strb	r2, [r3, #63]
 398:Drivers/STM32H7xx_HAL_Driver/Src/stm32h7xx_hal_tim_ex.c ****   TIM_CHANNEL_N_STATE_SET(htim, TIM_CHANNEL_1, HAL_TIM_CHANNEL_STATE_READY);
 757              		.loc 1 398 3
 758 0056 7B68     		ldr	r3, [r7, #4]
 759 0058 0122     		movs	r2, #1
 760 005a 83F84420 		strb	r2, [r3, #68]
 399:Drivers/STM32H7xx_HAL_Driver/Src/stm32h7xx_hal_tim_ex.c ****   TIM_CHANNEL_N_STATE_SET(htim, TIM_CHANNEL_2, HAL_TIM_CHANNEL_STATE_READY);
 761              		.loc 1 399 3
 762 005e 7B68     		ldr	r3, [r7, #4]
 763 0060 0122     		movs	r2, #1
 764 0062 83F84520 		strb	r2, [r3, #69]
 400:Drivers/STM32H7xx_HAL_Driver/Src/stm32h7xx_hal_tim_ex.c **** 
 401:Drivers/STM32H7xx_HAL_Driver/Src/stm32h7xx_hal_tim_ex.c ****   /* Return function status */
 402:Drivers/STM32H7xx_HAL_Driver/Src/stm32h7xx_hal_tim_ex.c ****   return HAL_OK;
 765              		.loc 1 402 10
 766 0066 0023     		movs	r3, #0
 403:Drivers/STM32H7xx_HAL_Driver/Src/stm32h7xx_hal_tim_ex.c **** }
 767              		.loc 1 403 1
 768 0068 1846     		mov	r0, r3
 769 006a 0837     		adds	r7, r7, #8
 770              	.LCFI30:
 771              		.cfi_def_cfa_offset 8
 772 006c BD46     		mov	sp, r7
 773              	.LCFI31:
 774              		.cfi_def_cfa_register 13
 775              		@ sp needed
 776 006e 80BD     		pop	{r7, pc}
 777              		.cfi_endproc
 778              	.LFE338:
 780              		.section	.text.HAL_TIMEx_HallSensor_Start_IT,"ax",%progbits
 781              		.align	1
 782              		.global	HAL_TIMEx_HallSensor_Start_IT
 783              		.syntax unified
 784              		.thumb
 785              		.thumb_func
 787              	HAL_TIMEx_HallSensor_Start_IT:
 788              	.LFB339:
 404:Drivers/STM32H7xx_HAL_Driver/Src/stm32h7xx_hal_tim_ex.c **** 
 405:Drivers/STM32H7xx_HAL_Driver/Src/stm32h7xx_hal_tim_ex.c **** /**
 406:Drivers/STM32H7xx_HAL_Driver/Src/stm32h7xx_hal_tim_ex.c ****   * @brief  Starts the TIM Hall Sensor Interface in interrupt mode.
 407:Drivers/STM32H7xx_HAL_Driver/Src/stm32h7xx_hal_tim_ex.c ****   * @param  htim TIM Hall Sensor Interface handle
 408:Drivers/STM32H7xx_HAL_Driver/Src/stm32h7xx_hal_tim_ex.c ****   * @retval HAL status
 409:Drivers/STM32H7xx_HAL_Driver/Src/stm32h7xx_hal_tim_ex.c ****   */
 410:Drivers/STM32H7xx_HAL_Driver/Src/stm32h7xx_hal_tim_ex.c **** HAL_StatusTypeDef HAL_TIMEx_HallSensor_Start_IT(TIM_HandleTypeDef *htim)
 411:Drivers/STM32H7xx_HAL_Driver/Src/stm32h7xx_hal_tim_ex.c **** {
 789              		.loc 1 411 1
 790              		.cfi_startproc
 791              		@ args = 0, pretend = 0, frame = 16
 792              		@ frame_needed = 1, uses_anonymous_args = 0
 793 0000 80B5     		push	{r7, lr}
 794              	.LCFI32:
 795              		.cfi_def_cfa_offset 8
 796              		.cfi_offset 7, -8
 797              		.cfi_offset 14, -4
ARM GAS  /var/folders/d0/cymppscj10lcmm48h781wrc80000gn/T//ccIjALm5.s 			page 22


 798 0002 84B0     		sub	sp, sp, #16
 799              	.LCFI33:
 800              		.cfi_def_cfa_offset 24
 801 0004 00AF     		add	r7, sp, #0
 802              	.LCFI34:
 803              		.cfi_def_cfa_register 7
 804 0006 7860     		str	r0, [r7, #4]
 412:Drivers/STM32H7xx_HAL_Driver/Src/stm32h7xx_hal_tim_ex.c ****   uint32_t tmpsmcr;
 413:Drivers/STM32H7xx_HAL_Driver/Src/stm32h7xx_hal_tim_ex.c ****   HAL_TIM_ChannelStateTypeDef channel_1_state = TIM_CHANNEL_STATE_GET(htim, TIM_CHANNEL_1);
 805              		.loc 1 413 31
 806 0008 7B68     		ldr	r3, [r7, #4]
 807 000a 93F83E30 		ldrb	r3, [r3, #62]
 808 000e FB73     		strb	r3, [r7, #15]
 414:Drivers/STM32H7xx_HAL_Driver/Src/stm32h7xx_hal_tim_ex.c ****   HAL_TIM_ChannelStateTypeDef channel_2_state = TIM_CHANNEL_STATE_GET(htim, TIM_CHANNEL_2);
 809              		.loc 1 414 31
 810 0010 7B68     		ldr	r3, [r7, #4]
 811 0012 93F83F30 		ldrb	r3, [r3, #63]
 812 0016 BB73     		strb	r3, [r7, #14]
 415:Drivers/STM32H7xx_HAL_Driver/Src/stm32h7xx_hal_tim_ex.c ****   HAL_TIM_ChannelStateTypeDef complementary_channel_1_state = TIM_CHANNEL_N_STATE_GET(htim, TIM_CHA
 813              		.loc 1 415 31
 814 0018 7B68     		ldr	r3, [r7, #4]
 815 001a 93F84430 		ldrb	r3, [r3, #68]
 816 001e 7B73     		strb	r3, [r7, #13]
 416:Drivers/STM32H7xx_HAL_Driver/Src/stm32h7xx_hal_tim_ex.c ****   HAL_TIM_ChannelStateTypeDef complementary_channel_2_state = TIM_CHANNEL_N_STATE_GET(htim, TIM_CHA
 817              		.loc 1 416 31
 818 0020 7B68     		ldr	r3, [r7, #4]
 819 0022 93F84530 		ldrb	r3, [r3, #69]
 820 0026 3B73     		strb	r3, [r7, #12]
 417:Drivers/STM32H7xx_HAL_Driver/Src/stm32h7xx_hal_tim_ex.c **** 
 418:Drivers/STM32H7xx_HAL_Driver/Src/stm32h7xx_hal_tim_ex.c ****   /* Check the parameters */
 419:Drivers/STM32H7xx_HAL_Driver/Src/stm32h7xx_hal_tim_ex.c ****   assert_param(IS_TIM_HALL_SENSOR_INTERFACE_INSTANCE(htim->Instance));
 420:Drivers/STM32H7xx_HAL_Driver/Src/stm32h7xx_hal_tim_ex.c **** 
 421:Drivers/STM32H7xx_HAL_Driver/Src/stm32h7xx_hal_tim_ex.c ****   /* Check the TIM channels state */
 422:Drivers/STM32H7xx_HAL_Driver/Src/stm32h7xx_hal_tim_ex.c ****   if ((channel_1_state != HAL_TIM_CHANNEL_STATE_READY)
 821              		.loc 1 422 6
 822 0028 FB7B     		ldrb	r3, [r7, #15]	@ zero_extendqisi2
 823 002a 012B     		cmp	r3, #1
 824 002c 08D1     		bne	.L32
 423:Drivers/STM32H7xx_HAL_Driver/Src/stm32h7xx_hal_tim_ex.c ****       || (channel_2_state != HAL_TIM_CHANNEL_STATE_READY)
 825              		.loc 1 423 7
 826 002e BB7B     		ldrb	r3, [r7, #14]	@ zero_extendqisi2
 827 0030 012B     		cmp	r3, #1
 828 0032 05D1     		bne	.L32
 424:Drivers/STM32H7xx_HAL_Driver/Src/stm32h7xx_hal_tim_ex.c ****       || (complementary_channel_1_state != HAL_TIM_CHANNEL_STATE_READY)
 829              		.loc 1 424 7
 830 0034 7B7B     		ldrb	r3, [r7, #13]	@ zero_extendqisi2
 831 0036 012B     		cmp	r3, #1
 832 0038 02D1     		bne	.L32
 425:Drivers/STM32H7xx_HAL_Driver/Src/stm32h7xx_hal_tim_ex.c ****       || (complementary_channel_2_state != HAL_TIM_CHANNEL_STATE_READY))
 833              		.loc 1 425 7
 834 003a 3B7B     		ldrb	r3, [r7, #12]	@ zero_extendqisi2
 835 003c 012B     		cmp	r3, #1
 836 003e 01D0     		beq	.L33
 837              	.L32:
 426:Drivers/STM32H7xx_HAL_Driver/Src/stm32h7xx_hal_tim_ex.c ****   {
 427:Drivers/STM32H7xx_HAL_Driver/Src/stm32h7xx_hal_tim_ex.c ****     return HAL_ERROR;
 838              		.loc 1 427 12
ARM GAS  /var/folders/d0/cymppscj10lcmm48h781wrc80000gn/T//ccIjALm5.s 			page 23


 839 0040 0123     		movs	r3, #1
 840 0042 67E0     		b	.L34
 841              	.L33:
 428:Drivers/STM32H7xx_HAL_Driver/Src/stm32h7xx_hal_tim_ex.c ****   }
 429:Drivers/STM32H7xx_HAL_Driver/Src/stm32h7xx_hal_tim_ex.c **** 
 430:Drivers/STM32H7xx_HAL_Driver/Src/stm32h7xx_hal_tim_ex.c ****   /* Set the TIM channels state */
 431:Drivers/STM32H7xx_HAL_Driver/Src/stm32h7xx_hal_tim_ex.c ****   TIM_CHANNEL_STATE_SET(htim, TIM_CHANNEL_1, HAL_TIM_CHANNEL_STATE_BUSY);
 842              		.loc 1 431 3
 843 0044 7B68     		ldr	r3, [r7, #4]
 844 0046 0222     		movs	r2, #2
 845 0048 83F83E20 		strb	r2, [r3, #62]
 432:Drivers/STM32H7xx_HAL_Driver/Src/stm32h7xx_hal_tim_ex.c ****   TIM_CHANNEL_STATE_SET(htim, TIM_CHANNEL_2, HAL_TIM_CHANNEL_STATE_BUSY);
 846              		.loc 1 432 3
 847 004c 7B68     		ldr	r3, [r7, #4]
 848 004e 0222     		movs	r2, #2
 849 0050 83F83F20 		strb	r2, [r3, #63]
 433:Drivers/STM32H7xx_HAL_Driver/Src/stm32h7xx_hal_tim_ex.c ****   TIM_CHANNEL_N_STATE_SET(htim, TIM_CHANNEL_1, HAL_TIM_CHANNEL_STATE_BUSY);
 850              		.loc 1 433 3
 851 0054 7B68     		ldr	r3, [r7, #4]
 852 0056 0222     		movs	r2, #2
 853 0058 83F84420 		strb	r2, [r3, #68]
 434:Drivers/STM32H7xx_HAL_Driver/Src/stm32h7xx_hal_tim_ex.c ****   TIM_CHANNEL_N_STATE_SET(htim, TIM_CHANNEL_2, HAL_TIM_CHANNEL_STATE_BUSY);
 854              		.loc 1 434 3
 855 005c 7B68     		ldr	r3, [r7, #4]
 856 005e 0222     		movs	r2, #2
 857 0060 83F84520 		strb	r2, [r3, #69]
 435:Drivers/STM32H7xx_HAL_Driver/Src/stm32h7xx_hal_tim_ex.c **** 
 436:Drivers/STM32H7xx_HAL_Driver/Src/stm32h7xx_hal_tim_ex.c ****   /* Enable the capture compare Interrupts 1 event */
 437:Drivers/STM32H7xx_HAL_Driver/Src/stm32h7xx_hal_tim_ex.c ****   __HAL_TIM_ENABLE_IT(htim, TIM_IT_CC1);
 858              		.loc 1 437 3
 859 0064 7B68     		ldr	r3, [r7, #4]
 860 0066 1B68     		ldr	r3, [r3]
 861 0068 DA68     		ldr	r2, [r3, #12]
 862 006a 7B68     		ldr	r3, [r7, #4]
 863 006c 1B68     		ldr	r3, [r3]
 864 006e 42F00202 		orr	r2, r2, #2
 865 0072 DA60     		str	r2, [r3, #12]
 438:Drivers/STM32H7xx_HAL_Driver/Src/stm32h7xx_hal_tim_ex.c **** 
 439:Drivers/STM32H7xx_HAL_Driver/Src/stm32h7xx_hal_tim_ex.c ****   /* Enable the Input Capture channel 1
 440:Drivers/STM32H7xx_HAL_Driver/Src/stm32h7xx_hal_tim_ex.c ****   (in the Hall Sensor Interface the three possible channels that can be used are TIM_CHANNEL_1,
 441:Drivers/STM32H7xx_HAL_Driver/Src/stm32h7xx_hal_tim_ex.c ****   TIM_CHANNEL_2 and TIM_CHANNEL_3) */
 442:Drivers/STM32H7xx_HAL_Driver/Src/stm32h7xx_hal_tim_ex.c ****   TIM_CCxChannelCmd(htim->Instance, TIM_CHANNEL_1, TIM_CCx_ENABLE);
 866              		.loc 1 442 3
 867 0074 7B68     		ldr	r3, [r7, #4]
 868 0076 1B68     		ldr	r3, [r3]
 869 0078 0122     		movs	r2, #1
 870 007a 0021     		movs	r1, #0
 871 007c 1846     		mov	r0, r3
 872 007e FFF7FEFF 		bl	TIM_CCxChannelCmd
 443:Drivers/STM32H7xx_HAL_Driver/Src/stm32h7xx_hal_tim_ex.c **** 
 444:Drivers/STM32H7xx_HAL_Driver/Src/stm32h7xx_hal_tim_ex.c ****   /* Enable the Peripheral, except in trigger mode where enable is automatically done with trigger 
 445:Drivers/STM32H7xx_HAL_Driver/Src/stm32h7xx_hal_tim_ex.c ****   if (IS_TIM_SLAVE_INSTANCE(htim->Instance))
 873              		.loc 1 445 7
 874 0082 7B68     		ldr	r3, [r7, #4]
 875 0084 1B68     		ldr	r3, [r3]
 876              		.loc 1 445 6
 877 0086 254A     		ldr	r2, .L40
ARM GAS  /var/folders/d0/cymppscj10lcmm48h781wrc80000gn/T//ccIjALm5.s 			page 24


 878 0088 9342     		cmp	r3, r2
 879 008a 22D0     		beq	.L35
 880              		.loc 1 445 7 discriminator 1
 881 008c 7B68     		ldr	r3, [r7, #4]
 882 008e 1B68     		ldr	r3, [r3]
 883 0090 B3F1804F 		cmp	r3, #1073741824
 884 0094 1DD0     		beq	.L35
 885              		.loc 1 445 7 is_stmt 0 discriminator 2
 886 0096 7B68     		ldr	r3, [r7, #4]
 887 0098 1B68     		ldr	r3, [r3]
 888 009a 214A     		ldr	r2, .L40+4
 889 009c 9342     		cmp	r3, r2
 890 009e 18D0     		beq	.L35
 891              		.loc 1 445 7 discriminator 3
 892 00a0 7B68     		ldr	r3, [r7, #4]
 893 00a2 1B68     		ldr	r3, [r3]
 894 00a4 1F4A     		ldr	r2, .L40+8
 895 00a6 9342     		cmp	r3, r2
 896 00a8 13D0     		beq	.L35
 897              		.loc 1 445 7 discriminator 4
 898 00aa 7B68     		ldr	r3, [r7, #4]
 899 00ac 1B68     		ldr	r3, [r3]
 900 00ae 1E4A     		ldr	r2, .L40+12
 901 00b0 9342     		cmp	r3, r2
 902 00b2 0ED0     		beq	.L35
 903              		.loc 1 445 7 discriminator 5
 904 00b4 7B68     		ldr	r3, [r7, #4]
 905 00b6 1B68     		ldr	r3, [r3]
 906 00b8 1C4A     		ldr	r2, .L40+16
 907 00ba 9342     		cmp	r3, r2
 908 00bc 09D0     		beq	.L35
 909              		.loc 1 445 7 discriminator 6
 910 00be 7B68     		ldr	r3, [r7, #4]
 911 00c0 1B68     		ldr	r3, [r3]
 912 00c2 1B4A     		ldr	r2, .L40+20
 913 00c4 9342     		cmp	r3, r2
 914 00c6 04D0     		beq	.L35
 915              		.loc 1 445 7 discriminator 7
 916 00c8 7B68     		ldr	r3, [r7, #4]
 917 00ca 1B68     		ldr	r3, [r3]
 918 00cc 194A     		ldr	r2, .L40+24
 919 00ce 9342     		cmp	r3, r2
 920 00d0 15D1     		bne	.L36
 921              	.L35:
 446:Drivers/STM32H7xx_HAL_Driver/Src/stm32h7xx_hal_tim_ex.c ****   {
 447:Drivers/STM32H7xx_HAL_Driver/Src/stm32h7xx_hal_tim_ex.c ****     tmpsmcr = htim->Instance->SMCR & TIM_SMCR_SMS;
 922              		.loc 1 447 19 is_stmt 1
 923 00d2 7B68     		ldr	r3, [r7, #4]
 924 00d4 1B68     		ldr	r3, [r3]
 925              		.loc 1 447 29
 926 00d6 9A68     		ldr	r2, [r3, #8]
 927              		.loc 1 447 13
 928 00d8 174B     		ldr	r3, .L40+28
 929 00da 1340     		ands	r3, r3, r2
 930 00dc BB60     		str	r3, [r7, #8]
 448:Drivers/STM32H7xx_HAL_Driver/Src/stm32h7xx_hal_tim_ex.c ****     if (!IS_TIM_SLAVEMODE_TRIGGER_ENABLED(tmpsmcr))
 931              		.loc 1 448 8
ARM GAS  /var/folders/d0/cymppscj10lcmm48h781wrc80000gn/T//ccIjALm5.s 			page 25


 932 00de BB68     		ldr	r3, [r7, #8]
 933 00e0 062B     		cmp	r3, #6
 934 00e2 15D0     		beq	.L39
 935              		.loc 1 448 9 discriminator 1
 936 00e4 BB68     		ldr	r3, [r7, #8]
 937 00e6 B3F5803F 		cmp	r3, #65536
 938 00ea 11D0     		beq	.L39
 449:Drivers/STM32H7xx_HAL_Driver/Src/stm32h7xx_hal_tim_ex.c ****     {
 450:Drivers/STM32H7xx_HAL_Driver/Src/stm32h7xx_hal_tim_ex.c ****       __HAL_TIM_ENABLE(htim);
 939              		.loc 1 450 7
 940 00ec 7B68     		ldr	r3, [r7, #4]
 941 00ee 1B68     		ldr	r3, [r3]
 942 00f0 1A68     		ldr	r2, [r3]
 943 00f2 7B68     		ldr	r3, [r7, #4]
 944 00f4 1B68     		ldr	r3, [r3]
 945 00f6 42F00102 		orr	r2, r2, #1
 946 00fa 1A60     		str	r2, [r3]
 448:Drivers/STM32H7xx_HAL_Driver/Src/stm32h7xx_hal_tim_ex.c ****     if (!IS_TIM_SLAVEMODE_TRIGGER_ENABLED(tmpsmcr))
 947              		.loc 1 448 8
 948 00fc 08E0     		b	.L39
 949              	.L36:
 451:Drivers/STM32H7xx_HAL_Driver/Src/stm32h7xx_hal_tim_ex.c ****     }
 452:Drivers/STM32H7xx_HAL_Driver/Src/stm32h7xx_hal_tim_ex.c ****   }
 453:Drivers/STM32H7xx_HAL_Driver/Src/stm32h7xx_hal_tim_ex.c ****   else
 454:Drivers/STM32H7xx_HAL_Driver/Src/stm32h7xx_hal_tim_ex.c ****   {
 455:Drivers/STM32H7xx_HAL_Driver/Src/stm32h7xx_hal_tim_ex.c ****     __HAL_TIM_ENABLE(htim);
 950              		.loc 1 455 5
 951 00fe 7B68     		ldr	r3, [r7, #4]
 952 0100 1B68     		ldr	r3, [r3]
 953 0102 1A68     		ldr	r2, [r3]
 954 0104 7B68     		ldr	r3, [r7, #4]
 955 0106 1B68     		ldr	r3, [r3]
 956 0108 42F00102 		orr	r2, r2, #1
 957 010c 1A60     		str	r2, [r3]
 958 010e 00E0     		b	.L38
 959              	.L39:
 448:Drivers/STM32H7xx_HAL_Driver/Src/stm32h7xx_hal_tim_ex.c ****     {
 960              		.loc 1 448 8
 961 0110 00BF     		nop
 962              	.L38:
 456:Drivers/STM32H7xx_HAL_Driver/Src/stm32h7xx_hal_tim_ex.c ****   }
 457:Drivers/STM32H7xx_HAL_Driver/Src/stm32h7xx_hal_tim_ex.c **** 
 458:Drivers/STM32H7xx_HAL_Driver/Src/stm32h7xx_hal_tim_ex.c ****   /* Return function status */
 459:Drivers/STM32H7xx_HAL_Driver/Src/stm32h7xx_hal_tim_ex.c ****   return HAL_OK;
 963              		.loc 1 459 10
 964 0112 0023     		movs	r3, #0
 965              	.L34:
 460:Drivers/STM32H7xx_HAL_Driver/Src/stm32h7xx_hal_tim_ex.c **** }
 966              		.loc 1 460 1
 967 0114 1846     		mov	r0, r3
 968 0116 1037     		adds	r7, r7, #16
 969              	.LCFI35:
 970              		.cfi_def_cfa_offset 8
 971 0118 BD46     		mov	sp, r7
 972              	.LCFI36:
 973              		.cfi_def_cfa_register 13
 974              		@ sp needed
ARM GAS  /var/folders/d0/cymppscj10lcmm48h781wrc80000gn/T//ccIjALm5.s 			page 26


 975 011a 80BD     		pop	{r7, pc}
 976              	.L41:
 977              		.align	2
 978              	.L40:
 979 011c 00000140 		.word	1073807360
 980 0120 00040040 		.word	1073742848
 981 0124 00080040 		.word	1073743872
 982 0128 000C0040 		.word	1073744896
 983 012c 00040140 		.word	1073808384
 984 0130 00180040 		.word	1073747968
 985 0134 00400140 		.word	1073823744
 986 0138 07000100 		.word	65543
 987              		.cfi_endproc
 988              	.LFE339:
 990              		.section	.text.HAL_TIMEx_HallSensor_Stop_IT,"ax",%progbits
 991              		.align	1
 992              		.global	HAL_TIMEx_HallSensor_Stop_IT
 993              		.syntax unified
 994              		.thumb
 995              		.thumb_func
 997              	HAL_TIMEx_HallSensor_Stop_IT:
 998              	.LFB340:
 461:Drivers/STM32H7xx_HAL_Driver/Src/stm32h7xx_hal_tim_ex.c **** 
 462:Drivers/STM32H7xx_HAL_Driver/Src/stm32h7xx_hal_tim_ex.c **** /**
 463:Drivers/STM32H7xx_HAL_Driver/Src/stm32h7xx_hal_tim_ex.c ****   * @brief  Stops the TIM Hall Sensor Interface in interrupt mode.
 464:Drivers/STM32H7xx_HAL_Driver/Src/stm32h7xx_hal_tim_ex.c ****   * @param  htim TIM Hall Sensor Interface handle
 465:Drivers/STM32H7xx_HAL_Driver/Src/stm32h7xx_hal_tim_ex.c ****   * @retval HAL status
 466:Drivers/STM32H7xx_HAL_Driver/Src/stm32h7xx_hal_tim_ex.c ****   */
 467:Drivers/STM32H7xx_HAL_Driver/Src/stm32h7xx_hal_tim_ex.c **** HAL_StatusTypeDef HAL_TIMEx_HallSensor_Stop_IT(TIM_HandleTypeDef *htim)
 468:Drivers/STM32H7xx_HAL_Driver/Src/stm32h7xx_hal_tim_ex.c **** {
 999              		.loc 1 468 1
 1000              		.cfi_startproc
 1001              		@ args = 0, pretend = 0, frame = 8
 1002              		@ frame_needed = 1, uses_anonymous_args = 0
 1003 0000 80B5     		push	{r7, lr}
 1004              	.LCFI37:
 1005              		.cfi_def_cfa_offset 8
 1006              		.cfi_offset 7, -8
 1007              		.cfi_offset 14, -4
 1008 0002 82B0     		sub	sp, sp, #8
 1009              	.LCFI38:
 1010              		.cfi_def_cfa_offset 16
 1011 0004 00AF     		add	r7, sp, #0
 1012              	.LCFI39:
 1013              		.cfi_def_cfa_register 7
 1014 0006 7860     		str	r0, [r7, #4]
 469:Drivers/STM32H7xx_HAL_Driver/Src/stm32h7xx_hal_tim_ex.c ****   /* Check the parameters */
 470:Drivers/STM32H7xx_HAL_Driver/Src/stm32h7xx_hal_tim_ex.c ****   assert_param(IS_TIM_HALL_SENSOR_INTERFACE_INSTANCE(htim->Instance));
 471:Drivers/STM32H7xx_HAL_Driver/Src/stm32h7xx_hal_tim_ex.c **** 
 472:Drivers/STM32H7xx_HAL_Driver/Src/stm32h7xx_hal_tim_ex.c ****   /* Disable the Input Capture channel 1
 473:Drivers/STM32H7xx_HAL_Driver/Src/stm32h7xx_hal_tim_ex.c ****   (in the Hall Sensor Interface the three possible channels that can be used are TIM_CHANNEL_1,
 474:Drivers/STM32H7xx_HAL_Driver/Src/stm32h7xx_hal_tim_ex.c ****   TIM_CHANNEL_2 and TIM_CHANNEL_3) */
 475:Drivers/STM32H7xx_HAL_Driver/Src/stm32h7xx_hal_tim_ex.c ****   TIM_CCxChannelCmd(htim->Instance, TIM_CHANNEL_1, TIM_CCx_DISABLE);
 1015              		.loc 1 475 3
 1016 0008 7B68     		ldr	r3, [r7, #4]
 1017 000a 1B68     		ldr	r3, [r3]
 1018 000c 0022     		movs	r2, #0
ARM GAS  /var/folders/d0/cymppscj10lcmm48h781wrc80000gn/T//ccIjALm5.s 			page 27


 1019 000e 0021     		movs	r1, #0
 1020 0010 1846     		mov	r0, r3
 1021 0012 FFF7FEFF 		bl	TIM_CCxChannelCmd
 476:Drivers/STM32H7xx_HAL_Driver/Src/stm32h7xx_hal_tim_ex.c **** 
 477:Drivers/STM32H7xx_HAL_Driver/Src/stm32h7xx_hal_tim_ex.c ****   /* Disable the capture compare Interrupts event */
 478:Drivers/STM32H7xx_HAL_Driver/Src/stm32h7xx_hal_tim_ex.c ****   __HAL_TIM_DISABLE_IT(htim, TIM_IT_CC1);
 1022              		.loc 1 478 3
 1023 0016 7B68     		ldr	r3, [r7, #4]
 1024 0018 1B68     		ldr	r3, [r3]
 1025 001a DA68     		ldr	r2, [r3, #12]
 1026 001c 7B68     		ldr	r3, [r7, #4]
 1027 001e 1B68     		ldr	r3, [r3]
 1028 0020 22F00202 		bic	r2, r2, #2
 1029 0024 DA60     		str	r2, [r3, #12]
 479:Drivers/STM32H7xx_HAL_Driver/Src/stm32h7xx_hal_tim_ex.c **** 
 480:Drivers/STM32H7xx_HAL_Driver/Src/stm32h7xx_hal_tim_ex.c ****   /* Disable the Peripheral */
 481:Drivers/STM32H7xx_HAL_Driver/Src/stm32h7xx_hal_tim_ex.c ****   __HAL_TIM_DISABLE(htim);
 1030              		.loc 1 481 3
 1031 0026 7B68     		ldr	r3, [r7, #4]
 1032 0028 1B68     		ldr	r3, [r3]
 1033 002a 1A6A     		ldr	r2, [r3, #32]
 1034 002c 41F21113 		movw	r3, #4369
 1035 0030 1340     		ands	r3, r3, r2
 1036 0032 002B     		cmp	r3, #0
 1037 0034 0FD1     		bne	.L43
 1038              		.loc 1 481 3 is_stmt 0 discriminator 1
 1039 0036 7B68     		ldr	r3, [r7, #4]
 1040 0038 1B68     		ldr	r3, [r3]
 1041 003a 1A6A     		ldr	r2, [r3, #32]
 1042 003c 40F24443 		movw	r3, #1092
 1043 0040 1340     		ands	r3, r3, r2
 1044 0042 002B     		cmp	r3, #0
 1045 0044 07D1     		bne	.L43
 1046              		.loc 1 481 3 discriminator 2
 1047 0046 7B68     		ldr	r3, [r7, #4]
 1048 0048 1B68     		ldr	r3, [r3]
 1049 004a 1A68     		ldr	r2, [r3]
 1050 004c 7B68     		ldr	r3, [r7, #4]
 1051 004e 1B68     		ldr	r3, [r3]
 1052 0050 22F00102 		bic	r2, r2, #1
 1053 0054 1A60     		str	r2, [r3]
 1054              	.L43:
 482:Drivers/STM32H7xx_HAL_Driver/Src/stm32h7xx_hal_tim_ex.c **** 
 483:Drivers/STM32H7xx_HAL_Driver/Src/stm32h7xx_hal_tim_ex.c ****   /* Set the TIM channels state */
 484:Drivers/STM32H7xx_HAL_Driver/Src/stm32h7xx_hal_tim_ex.c ****   TIM_CHANNEL_STATE_SET(htim, TIM_CHANNEL_1, HAL_TIM_CHANNEL_STATE_READY);
 1055              		.loc 1 484 3 is_stmt 1
 1056 0056 7B68     		ldr	r3, [r7, #4]
 1057 0058 0122     		movs	r2, #1
 1058 005a 83F83E20 		strb	r2, [r3, #62]
 485:Drivers/STM32H7xx_HAL_Driver/Src/stm32h7xx_hal_tim_ex.c ****   TIM_CHANNEL_STATE_SET(htim, TIM_CHANNEL_2, HAL_TIM_CHANNEL_STATE_READY);
 1059              		.loc 1 485 3
 1060 005e 7B68     		ldr	r3, [r7, #4]
 1061 0060 0122     		movs	r2, #1
 1062 0062 83F83F20 		strb	r2, [r3, #63]
 486:Drivers/STM32H7xx_HAL_Driver/Src/stm32h7xx_hal_tim_ex.c ****   TIM_CHANNEL_N_STATE_SET(htim, TIM_CHANNEL_1, HAL_TIM_CHANNEL_STATE_READY);
 1063              		.loc 1 486 3
 1064 0066 7B68     		ldr	r3, [r7, #4]
ARM GAS  /var/folders/d0/cymppscj10lcmm48h781wrc80000gn/T//ccIjALm5.s 			page 28


 1065 0068 0122     		movs	r2, #1
 1066 006a 83F84420 		strb	r2, [r3, #68]
 487:Drivers/STM32H7xx_HAL_Driver/Src/stm32h7xx_hal_tim_ex.c ****   TIM_CHANNEL_N_STATE_SET(htim, TIM_CHANNEL_2, HAL_TIM_CHANNEL_STATE_READY);
 1067              		.loc 1 487 3
 1068 006e 7B68     		ldr	r3, [r7, #4]
 1069 0070 0122     		movs	r2, #1
 1070 0072 83F84520 		strb	r2, [r3, #69]
 488:Drivers/STM32H7xx_HAL_Driver/Src/stm32h7xx_hal_tim_ex.c **** 
 489:Drivers/STM32H7xx_HAL_Driver/Src/stm32h7xx_hal_tim_ex.c ****   /* Return function status */
 490:Drivers/STM32H7xx_HAL_Driver/Src/stm32h7xx_hal_tim_ex.c ****   return HAL_OK;
 1071              		.loc 1 490 10
 1072 0076 0023     		movs	r3, #0
 491:Drivers/STM32H7xx_HAL_Driver/Src/stm32h7xx_hal_tim_ex.c **** }
 1073              		.loc 1 491 1
 1074 0078 1846     		mov	r0, r3
 1075 007a 0837     		adds	r7, r7, #8
 1076              	.LCFI40:
 1077              		.cfi_def_cfa_offset 8
 1078 007c BD46     		mov	sp, r7
 1079              	.LCFI41:
 1080              		.cfi_def_cfa_register 13
 1081              		@ sp needed
 1082 007e 80BD     		pop	{r7, pc}
 1083              		.cfi_endproc
 1084              	.LFE340:
 1086              		.section	.text.HAL_TIMEx_HallSensor_Start_DMA,"ax",%progbits
 1087              		.align	1
 1088              		.global	HAL_TIMEx_HallSensor_Start_DMA
 1089              		.syntax unified
 1090              		.thumb
 1091              		.thumb_func
 1093              	HAL_TIMEx_HallSensor_Start_DMA:
 1094              	.LFB341:
 492:Drivers/STM32H7xx_HAL_Driver/Src/stm32h7xx_hal_tim_ex.c **** 
 493:Drivers/STM32H7xx_HAL_Driver/Src/stm32h7xx_hal_tim_ex.c **** /**
 494:Drivers/STM32H7xx_HAL_Driver/Src/stm32h7xx_hal_tim_ex.c ****   * @brief  Starts the TIM Hall Sensor Interface in DMA mode.
 495:Drivers/STM32H7xx_HAL_Driver/Src/stm32h7xx_hal_tim_ex.c ****   * @param  htim TIM Hall Sensor Interface handle
 496:Drivers/STM32H7xx_HAL_Driver/Src/stm32h7xx_hal_tim_ex.c ****   * @param  pData The destination Buffer address.
 497:Drivers/STM32H7xx_HAL_Driver/Src/stm32h7xx_hal_tim_ex.c ****   * @param  Length The length of data to be transferred from TIM peripheral to memory.
 498:Drivers/STM32H7xx_HAL_Driver/Src/stm32h7xx_hal_tim_ex.c ****   * @retval HAL status
 499:Drivers/STM32H7xx_HAL_Driver/Src/stm32h7xx_hal_tim_ex.c ****   */
 500:Drivers/STM32H7xx_HAL_Driver/Src/stm32h7xx_hal_tim_ex.c **** HAL_StatusTypeDef HAL_TIMEx_HallSensor_Start_DMA(TIM_HandleTypeDef *htim, uint32_t *pData, uint16_t
 501:Drivers/STM32H7xx_HAL_Driver/Src/stm32h7xx_hal_tim_ex.c **** {
 1095              		.loc 1 501 1
 1096              		.cfi_startproc
 1097              		@ args = 0, pretend = 0, frame = 24
 1098              		@ frame_needed = 1, uses_anonymous_args = 0
 1099 0000 80B5     		push	{r7, lr}
 1100              	.LCFI42:
 1101              		.cfi_def_cfa_offset 8
 1102              		.cfi_offset 7, -8
 1103              		.cfi_offset 14, -4
 1104 0002 86B0     		sub	sp, sp, #24
 1105              	.LCFI43:
 1106              		.cfi_def_cfa_offset 32
 1107 0004 00AF     		add	r7, sp, #0
 1108              	.LCFI44:
ARM GAS  /var/folders/d0/cymppscj10lcmm48h781wrc80000gn/T//ccIjALm5.s 			page 29


 1109              		.cfi_def_cfa_register 7
 1110 0006 F860     		str	r0, [r7, #12]
 1111 0008 B960     		str	r1, [r7, #8]
 1112 000a 1346     		mov	r3, r2
 1113 000c FB80     		strh	r3, [r7, #6]	@ movhi
 502:Drivers/STM32H7xx_HAL_Driver/Src/stm32h7xx_hal_tim_ex.c ****   uint32_t tmpsmcr;
 503:Drivers/STM32H7xx_HAL_Driver/Src/stm32h7xx_hal_tim_ex.c ****   HAL_TIM_ChannelStateTypeDef channel_1_state = TIM_CHANNEL_STATE_GET(htim, TIM_CHANNEL_1);
 1114              		.loc 1 503 31
 1115 000e FB68     		ldr	r3, [r7, #12]
 1116 0010 93F83E30 		ldrb	r3, [r3, #62]
 1117 0014 FB75     		strb	r3, [r7, #23]
 504:Drivers/STM32H7xx_HAL_Driver/Src/stm32h7xx_hal_tim_ex.c ****   HAL_TIM_ChannelStateTypeDef complementary_channel_1_state = TIM_CHANNEL_N_STATE_GET(htim, TIM_CHA
 1118              		.loc 1 504 31
 1119 0016 FB68     		ldr	r3, [r7, #12]
 1120 0018 93F84430 		ldrb	r3, [r3, #68]
 1121 001c BB75     		strb	r3, [r7, #22]
 505:Drivers/STM32H7xx_HAL_Driver/Src/stm32h7xx_hal_tim_ex.c **** 
 506:Drivers/STM32H7xx_HAL_Driver/Src/stm32h7xx_hal_tim_ex.c ****   /* Check the parameters */
 507:Drivers/STM32H7xx_HAL_Driver/Src/stm32h7xx_hal_tim_ex.c ****   assert_param(IS_TIM_HALL_SENSOR_INTERFACE_INSTANCE(htim->Instance));
 508:Drivers/STM32H7xx_HAL_Driver/Src/stm32h7xx_hal_tim_ex.c **** 
 509:Drivers/STM32H7xx_HAL_Driver/Src/stm32h7xx_hal_tim_ex.c ****   /* Set the TIM channel state */
 510:Drivers/STM32H7xx_HAL_Driver/Src/stm32h7xx_hal_tim_ex.c ****   if ((channel_1_state == HAL_TIM_CHANNEL_STATE_BUSY)
 1122              		.loc 1 510 6
 1123 001e FB7D     		ldrb	r3, [r7, #23]	@ zero_extendqisi2
 1124 0020 022B     		cmp	r3, #2
 1125 0022 02D0     		beq	.L46
 511:Drivers/STM32H7xx_HAL_Driver/Src/stm32h7xx_hal_tim_ex.c ****       || (complementary_channel_1_state == HAL_TIM_CHANNEL_STATE_BUSY))
 1126              		.loc 1 511 7
 1127 0024 BB7D     		ldrb	r3, [r7, #22]	@ zero_extendqisi2
 1128 0026 022B     		cmp	r3, #2
 1129 0028 01D1     		bne	.L47
 1130              	.L46:
 512:Drivers/STM32H7xx_HAL_Driver/Src/stm32h7xx_hal_tim_ex.c ****   {
 513:Drivers/STM32H7xx_HAL_Driver/Src/stm32h7xx_hal_tim_ex.c ****     return HAL_BUSY;
 1131              		.loc 1 513 12
 1132 002a 0223     		movs	r3, #2
 1133 002c 8CE0     		b	.L48
 1134              	.L47:
 514:Drivers/STM32H7xx_HAL_Driver/Src/stm32h7xx_hal_tim_ex.c ****   }
 515:Drivers/STM32H7xx_HAL_Driver/Src/stm32h7xx_hal_tim_ex.c ****   else if ((channel_1_state == HAL_TIM_CHANNEL_STATE_READY)
 1135              		.loc 1 515 11
 1136 002e FB7D     		ldrb	r3, [r7, #23]	@ zero_extendqisi2
 1137 0030 012B     		cmp	r3, #1
 1138 0032 34D1     		bne	.L49
 516:Drivers/STM32H7xx_HAL_Driver/Src/stm32h7xx_hal_tim_ex.c ****            && (complementary_channel_1_state == HAL_TIM_CHANNEL_STATE_READY))
 1139              		.loc 1 516 12
 1140 0034 BB7D     		ldrb	r3, [r7, #22]	@ zero_extendqisi2
 1141 0036 012B     		cmp	r3, #1
 1142 0038 31D1     		bne	.L49
 517:Drivers/STM32H7xx_HAL_Driver/Src/stm32h7xx_hal_tim_ex.c ****   {
 518:Drivers/STM32H7xx_HAL_Driver/Src/stm32h7xx_hal_tim_ex.c ****     if ((pData == NULL) && (Length > 0U))
 1143              		.loc 1 518 8
 1144 003a BB68     		ldr	r3, [r7, #8]
 1145 003c 002B     		cmp	r3, #0
 1146 003e 04D1     		bne	.L50
 1147              		.loc 1 518 25 discriminator 1
 1148 0040 FB88     		ldrh	r3, [r7, #6]
ARM GAS  /var/folders/d0/cymppscj10lcmm48h781wrc80000gn/T//ccIjALm5.s 			page 30


 1149 0042 002B     		cmp	r3, #0
 1150 0044 01D0     		beq	.L50
 519:Drivers/STM32H7xx_HAL_Driver/Src/stm32h7xx_hal_tim_ex.c ****     {
 520:Drivers/STM32H7xx_HAL_Driver/Src/stm32h7xx_hal_tim_ex.c ****       return HAL_ERROR;
 1151              		.loc 1 520 14
 1152 0046 0123     		movs	r3, #1
 1153 0048 7EE0     		b	.L48
 1154              	.L50:
 521:Drivers/STM32H7xx_HAL_Driver/Src/stm32h7xx_hal_tim_ex.c ****     }
 522:Drivers/STM32H7xx_HAL_Driver/Src/stm32h7xx_hal_tim_ex.c ****     else
 523:Drivers/STM32H7xx_HAL_Driver/Src/stm32h7xx_hal_tim_ex.c ****     {
 524:Drivers/STM32H7xx_HAL_Driver/Src/stm32h7xx_hal_tim_ex.c ****       TIM_CHANNEL_STATE_SET(htim, TIM_CHANNEL_1, HAL_TIM_CHANNEL_STATE_BUSY);
 1155              		.loc 1 524 7
 1156 004a FB68     		ldr	r3, [r7, #12]
 1157 004c 0222     		movs	r2, #2
 1158 004e 83F83E20 		strb	r2, [r3, #62]
 525:Drivers/STM32H7xx_HAL_Driver/Src/stm32h7xx_hal_tim_ex.c ****       TIM_CHANNEL_N_STATE_SET(htim, TIM_CHANNEL_1, HAL_TIM_CHANNEL_STATE_BUSY);
 1159              		.loc 1 525 7
 1160 0052 FB68     		ldr	r3, [r7, #12]
 1161 0054 0222     		movs	r2, #2
 1162 0056 83F84420 		strb	r2, [r3, #68]
 518:Drivers/STM32H7xx_HAL_Driver/Src/stm32h7xx_hal_tim_ex.c ****     {
 1163              		.loc 1 518 8
 1164 005a 00BF     		nop
 526:Drivers/STM32H7xx_HAL_Driver/Src/stm32h7xx_hal_tim_ex.c ****     }
 527:Drivers/STM32H7xx_HAL_Driver/Src/stm32h7xx_hal_tim_ex.c ****   }
 528:Drivers/STM32H7xx_HAL_Driver/Src/stm32h7xx_hal_tim_ex.c ****   else
 529:Drivers/STM32H7xx_HAL_Driver/Src/stm32h7xx_hal_tim_ex.c ****   {
 530:Drivers/STM32H7xx_HAL_Driver/Src/stm32h7xx_hal_tim_ex.c ****     return HAL_ERROR;
 531:Drivers/STM32H7xx_HAL_Driver/Src/stm32h7xx_hal_tim_ex.c ****   }
 532:Drivers/STM32H7xx_HAL_Driver/Src/stm32h7xx_hal_tim_ex.c **** 
 533:Drivers/STM32H7xx_HAL_Driver/Src/stm32h7xx_hal_tim_ex.c ****   /* Enable the Input Capture channel 1
 534:Drivers/STM32H7xx_HAL_Driver/Src/stm32h7xx_hal_tim_ex.c ****   (in the Hall Sensor Interface the three possible channels that can be used are TIM_CHANNEL_1,
 535:Drivers/STM32H7xx_HAL_Driver/Src/stm32h7xx_hal_tim_ex.c ****   TIM_CHANNEL_2 and TIM_CHANNEL_3) */
 536:Drivers/STM32H7xx_HAL_Driver/Src/stm32h7xx_hal_tim_ex.c ****   TIM_CCxChannelCmd(htim->Instance, TIM_CHANNEL_1, TIM_CCx_ENABLE);
 1165              		.loc 1 536 3
 1166 005c FB68     		ldr	r3, [r7, #12]
 1167 005e 1B68     		ldr	r3, [r3]
 1168 0060 0122     		movs	r2, #1
 1169 0062 0021     		movs	r1, #0
 1170 0064 1846     		mov	r0, r3
 1171 0066 FFF7FEFF 		bl	TIM_CCxChannelCmd
 537:Drivers/STM32H7xx_HAL_Driver/Src/stm32h7xx_hal_tim_ex.c **** 
 538:Drivers/STM32H7xx_HAL_Driver/Src/stm32h7xx_hal_tim_ex.c ****   /* Set the DMA Input Capture 1 Callbacks */
 539:Drivers/STM32H7xx_HAL_Driver/Src/stm32h7xx_hal_tim_ex.c ****   htim->hdma[TIM_DMA_ID_CC1]->XferCpltCallback = TIM_DMACaptureCplt;
 1172              		.loc 1 539 13
 1173 006a FB68     		ldr	r3, [r7, #12]
 1174 006c 5B6A     		ldr	r3, [r3, #36]
 1175              		.loc 1 539 48
 1176 006e 384A     		ldr	r2, .L59
 1177 0070 DA63     		str	r2, [r3, #60]
 540:Drivers/STM32H7xx_HAL_Driver/Src/stm32h7xx_hal_tim_ex.c ****   htim->hdma[TIM_DMA_ID_CC1]->XferHalfCpltCallback = TIM_DMACaptureHalfCplt;
 1178              		.loc 1 540 13
 1179 0072 FB68     		ldr	r3, [r7, #12]
 1180 0074 5B6A     		ldr	r3, [r3, #36]
 1181              		.loc 1 540 52
 1182 0076 374A     		ldr	r2, .L59+4
ARM GAS  /var/folders/d0/cymppscj10lcmm48h781wrc80000gn/T//ccIjALm5.s 			page 31


 1183 0078 1A64     		str	r2, [r3, #64]
 541:Drivers/STM32H7xx_HAL_Driver/Src/stm32h7xx_hal_tim_ex.c ****   /* Set the DMA error callback */
 542:Drivers/STM32H7xx_HAL_Driver/Src/stm32h7xx_hal_tim_ex.c ****   htim->hdma[TIM_DMA_ID_CC1]->XferErrorCallback = TIM_DMAError ;
 1184              		.loc 1 542 13
 1185 007a FB68     		ldr	r3, [r7, #12]
 1186 007c 5B6A     		ldr	r3, [r3, #36]
 1187              		.loc 1 542 49
 1188 007e 364A     		ldr	r2, .L59+8
 1189 0080 DA64     		str	r2, [r3, #76]
 543:Drivers/STM32H7xx_HAL_Driver/Src/stm32h7xx_hal_tim_ex.c **** 
 544:Drivers/STM32H7xx_HAL_Driver/Src/stm32h7xx_hal_tim_ex.c ****   /* Enable the DMA stream for Capture 1*/
 545:Drivers/STM32H7xx_HAL_Driver/Src/stm32h7xx_hal_tim_ex.c ****   if (HAL_DMA_Start_IT(htim->hdma[TIM_DMA_ID_CC1], (uint32_t)&htim->Instance->CCR1, (uint32_t)pData
 1190              		.loc 1 545 7
 1191 0082 FB68     		ldr	r3, [r7, #12]
 1192 0084 586A     		ldr	r0, [r3, #36]
 1193              		.loc 1 545 67
 1194 0086 FB68     		ldr	r3, [r7, #12]
 1195 0088 1B68     		ldr	r3, [r3]
 1196              		.loc 1 545 62
 1197 008a 3433     		adds	r3, r3, #52
 1198              		.loc 1 545 7
 1199 008c 1946     		mov	r1, r3
 1200 008e BA68     		ldr	r2, [r7, #8]
 1201 0090 FB88     		ldrh	r3, [r7, #6]
 1202 0092 FFF7FEFF 		bl	HAL_DMA_Start_IT
 1203 0096 0346     		mov	r3, r0
 1204              		.loc 1 545 6
 1205 0098 002B     		cmp	r3, #0
 1206 009a 04D0     		beq	.L52
 1207 009c 01E0     		b	.L57
 1208              	.L49:
 530:Drivers/STM32H7xx_HAL_Driver/Src/stm32h7xx_hal_tim_ex.c ****   }
 1209              		.loc 1 530 12
 1210 009e 0123     		movs	r3, #1
 1211 00a0 52E0     		b	.L48
 1212              	.L57:
 546:Drivers/STM32H7xx_HAL_Driver/Src/stm32h7xx_hal_tim_ex.c ****   {
 547:Drivers/STM32H7xx_HAL_Driver/Src/stm32h7xx_hal_tim_ex.c ****     /* Return error status */
 548:Drivers/STM32H7xx_HAL_Driver/Src/stm32h7xx_hal_tim_ex.c ****     return HAL_ERROR;
 1213              		.loc 1 548 12
 1214 00a2 0123     		movs	r3, #1
 1215 00a4 50E0     		b	.L48
 1216              	.L52:
 549:Drivers/STM32H7xx_HAL_Driver/Src/stm32h7xx_hal_tim_ex.c ****   }
 550:Drivers/STM32H7xx_HAL_Driver/Src/stm32h7xx_hal_tim_ex.c ****   /* Enable the capture compare 1 Interrupt */
 551:Drivers/STM32H7xx_HAL_Driver/Src/stm32h7xx_hal_tim_ex.c ****   __HAL_TIM_ENABLE_DMA(htim, TIM_DMA_CC1);
 1217              		.loc 1 551 3
 1218 00a6 FB68     		ldr	r3, [r7, #12]
 1219 00a8 1B68     		ldr	r3, [r3]
 1220 00aa DA68     		ldr	r2, [r3, #12]
 1221 00ac FB68     		ldr	r3, [r7, #12]
 1222 00ae 1B68     		ldr	r3, [r3]
 1223 00b0 42F40072 		orr	r2, r2, #512
 1224 00b4 DA60     		str	r2, [r3, #12]
 552:Drivers/STM32H7xx_HAL_Driver/Src/stm32h7xx_hal_tim_ex.c **** 
 553:Drivers/STM32H7xx_HAL_Driver/Src/stm32h7xx_hal_tim_ex.c ****   /* Enable the Peripheral, except in trigger mode where enable is automatically done with trigger 
 554:Drivers/STM32H7xx_HAL_Driver/Src/stm32h7xx_hal_tim_ex.c ****   if (IS_TIM_SLAVE_INSTANCE(htim->Instance))
ARM GAS  /var/folders/d0/cymppscj10lcmm48h781wrc80000gn/T//ccIjALm5.s 			page 32


 1225              		.loc 1 554 7
 1226 00b6 FB68     		ldr	r3, [r7, #12]
 1227 00b8 1B68     		ldr	r3, [r3]
 1228              		.loc 1 554 6
 1229 00ba 284A     		ldr	r2, .L59+12
 1230 00bc 9342     		cmp	r3, r2
 1231 00be 22D0     		beq	.L53
 1232              		.loc 1 554 7 discriminator 1
 1233 00c0 FB68     		ldr	r3, [r7, #12]
 1234 00c2 1B68     		ldr	r3, [r3]
 1235 00c4 B3F1804F 		cmp	r3, #1073741824
 1236 00c8 1DD0     		beq	.L53
 1237              		.loc 1 554 7 is_stmt 0 discriminator 2
 1238 00ca FB68     		ldr	r3, [r7, #12]
 1239 00cc 1B68     		ldr	r3, [r3]
 1240 00ce 244A     		ldr	r2, .L59+16
 1241 00d0 9342     		cmp	r3, r2
 1242 00d2 18D0     		beq	.L53
 1243              		.loc 1 554 7 discriminator 3
 1244 00d4 FB68     		ldr	r3, [r7, #12]
 1245 00d6 1B68     		ldr	r3, [r3]
 1246 00d8 224A     		ldr	r2, .L59+20
 1247 00da 9342     		cmp	r3, r2
 1248 00dc 13D0     		beq	.L53
 1249              		.loc 1 554 7 discriminator 4
 1250 00de FB68     		ldr	r3, [r7, #12]
 1251 00e0 1B68     		ldr	r3, [r3]
 1252 00e2 214A     		ldr	r2, .L59+24
 1253 00e4 9342     		cmp	r3, r2
 1254 00e6 0ED0     		beq	.L53
 1255              		.loc 1 554 7 discriminator 5
 1256 00e8 FB68     		ldr	r3, [r7, #12]
 1257 00ea 1B68     		ldr	r3, [r3]
 1258 00ec 1F4A     		ldr	r2, .L59+28
 1259 00ee 9342     		cmp	r3, r2
 1260 00f0 09D0     		beq	.L53
 1261              		.loc 1 554 7 discriminator 6
 1262 00f2 FB68     		ldr	r3, [r7, #12]
 1263 00f4 1B68     		ldr	r3, [r3]
 1264 00f6 1E4A     		ldr	r2, .L59+32
 1265 00f8 9342     		cmp	r3, r2
 1266 00fa 04D0     		beq	.L53
 1267              		.loc 1 554 7 discriminator 7
 1268 00fc FB68     		ldr	r3, [r7, #12]
 1269 00fe 1B68     		ldr	r3, [r3]
 1270 0100 1C4A     		ldr	r2, .L59+36
 1271 0102 9342     		cmp	r3, r2
 1272 0104 15D1     		bne	.L54
 1273              	.L53:
 555:Drivers/STM32H7xx_HAL_Driver/Src/stm32h7xx_hal_tim_ex.c ****   {
 556:Drivers/STM32H7xx_HAL_Driver/Src/stm32h7xx_hal_tim_ex.c ****     tmpsmcr = htim->Instance->SMCR & TIM_SMCR_SMS;
 1274              		.loc 1 556 19 is_stmt 1
 1275 0106 FB68     		ldr	r3, [r7, #12]
 1276 0108 1B68     		ldr	r3, [r3]
 1277              		.loc 1 556 29
 1278 010a 9A68     		ldr	r2, [r3, #8]
 1279              		.loc 1 556 13
ARM GAS  /var/folders/d0/cymppscj10lcmm48h781wrc80000gn/T//ccIjALm5.s 			page 33


 1280 010c 1A4B     		ldr	r3, .L59+40
 1281 010e 1340     		ands	r3, r3, r2
 1282 0110 3B61     		str	r3, [r7, #16]
 557:Drivers/STM32H7xx_HAL_Driver/Src/stm32h7xx_hal_tim_ex.c ****     if (!IS_TIM_SLAVEMODE_TRIGGER_ENABLED(tmpsmcr))
 1283              		.loc 1 557 8
 1284 0112 3B69     		ldr	r3, [r7, #16]
 1285 0114 062B     		cmp	r3, #6
 1286 0116 15D0     		beq	.L58
 1287              		.loc 1 557 9 discriminator 1
 1288 0118 3B69     		ldr	r3, [r7, #16]
 1289 011a B3F5803F 		cmp	r3, #65536
 1290 011e 11D0     		beq	.L58
 558:Drivers/STM32H7xx_HAL_Driver/Src/stm32h7xx_hal_tim_ex.c ****     {
 559:Drivers/STM32H7xx_HAL_Driver/Src/stm32h7xx_hal_tim_ex.c ****       __HAL_TIM_ENABLE(htim);
 1291              		.loc 1 559 7
 1292 0120 FB68     		ldr	r3, [r7, #12]
 1293 0122 1B68     		ldr	r3, [r3]
 1294 0124 1A68     		ldr	r2, [r3]
 1295 0126 FB68     		ldr	r3, [r7, #12]
 1296 0128 1B68     		ldr	r3, [r3]
 1297 012a 42F00102 		orr	r2, r2, #1
 1298 012e 1A60     		str	r2, [r3]
 557:Drivers/STM32H7xx_HAL_Driver/Src/stm32h7xx_hal_tim_ex.c ****     if (!IS_TIM_SLAVEMODE_TRIGGER_ENABLED(tmpsmcr))
 1299              		.loc 1 557 8
 1300 0130 08E0     		b	.L58
 1301              	.L54:
 560:Drivers/STM32H7xx_HAL_Driver/Src/stm32h7xx_hal_tim_ex.c ****     }
 561:Drivers/STM32H7xx_HAL_Driver/Src/stm32h7xx_hal_tim_ex.c ****   }
 562:Drivers/STM32H7xx_HAL_Driver/Src/stm32h7xx_hal_tim_ex.c ****   else
 563:Drivers/STM32H7xx_HAL_Driver/Src/stm32h7xx_hal_tim_ex.c ****   {
 564:Drivers/STM32H7xx_HAL_Driver/Src/stm32h7xx_hal_tim_ex.c ****     __HAL_TIM_ENABLE(htim);
 1302              		.loc 1 564 5
 1303 0132 FB68     		ldr	r3, [r7, #12]
 1304 0134 1B68     		ldr	r3, [r3]
 1305 0136 1A68     		ldr	r2, [r3]
 1306 0138 FB68     		ldr	r3, [r7, #12]
 1307 013a 1B68     		ldr	r3, [r3]
 1308 013c 42F00102 		orr	r2, r2, #1
 1309 0140 1A60     		str	r2, [r3]
 1310 0142 00E0     		b	.L56
 1311              	.L58:
 557:Drivers/STM32H7xx_HAL_Driver/Src/stm32h7xx_hal_tim_ex.c ****     {
 1312              		.loc 1 557 8
 1313 0144 00BF     		nop
 1314              	.L56:
 565:Drivers/STM32H7xx_HAL_Driver/Src/stm32h7xx_hal_tim_ex.c ****   }
 566:Drivers/STM32H7xx_HAL_Driver/Src/stm32h7xx_hal_tim_ex.c **** 
 567:Drivers/STM32H7xx_HAL_Driver/Src/stm32h7xx_hal_tim_ex.c ****   /* Return function status */
 568:Drivers/STM32H7xx_HAL_Driver/Src/stm32h7xx_hal_tim_ex.c ****   return HAL_OK;
 1315              		.loc 1 568 10
 1316 0146 0023     		movs	r3, #0
 1317              	.L48:
 569:Drivers/STM32H7xx_HAL_Driver/Src/stm32h7xx_hal_tim_ex.c **** }
 1318              		.loc 1 569 1
 1319 0148 1846     		mov	r0, r3
 1320 014a 1837     		adds	r7, r7, #24
 1321              	.LCFI45:
ARM GAS  /var/folders/d0/cymppscj10lcmm48h781wrc80000gn/T//ccIjALm5.s 			page 34


 1322              		.cfi_def_cfa_offset 8
 1323 014c BD46     		mov	sp, r7
 1324              	.LCFI46:
 1325              		.cfi_def_cfa_register 13
 1326              		@ sp needed
 1327 014e 80BD     		pop	{r7, pc}
 1328              	.L60:
 1329              		.align	2
 1330              	.L59:
 1331 0150 00000000 		.word	TIM_DMACaptureCplt
 1332 0154 00000000 		.word	TIM_DMACaptureHalfCplt
 1333 0158 00000000 		.word	TIM_DMAError
 1334 015c 00000140 		.word	1073807360
 1335 0160 00040040 		.word	1073742848
 1336 0164 00080040 		.word	1073743872
 1337 0168 000C0040 		.word	1073744896
 1338 016c 00040140 		.word	1073808384
 1339 0170 00180040 		.word	1073747968
 1340 0174 00400140 		.word	1073823744
 1341 0178 07000100 		.word	65543
 1342              		.cfi_endproc
 1343              	.LFE341:
 1345              		.section	.text.HAL_TIMEx_HallSensor_Stop_DMA,"ax",%progbits
 1346              		.align	1
 1347              		.global	HAL_TIMEx_HallSensor_Stop_DMA
 1348              		.syntax unified
 1349              		.thumb
 1350              		.thumb_func
 1352              	HAL_TIMEx_HallSensor_Stop_DMA:
 1353              	.LFB342:
 570:Drivers/STM32H7xx_HAL_Driver/Src/stm32h7xx_hal_tim_ex.c **** 
 571:Drivers/STM32H7xx_HAL_Driver/Src/stm32h7xx_hal_tim_ex.c **** /**
 572:Drivers/STM32H7xx_HAL_Driver/Src/stm32h7xx_hal_tim_ex.c ****   * @brief  Stops the TIM Hall Sensor Interface in DMA mode.
 573:Drivers/STM32H7xx_HAL_Driver/Src/stm32h7xx_hal_tim_ex.c ****   * @param  htim TIM Hall Sensor Interface handle
 574:Drivers/STM32H7xx_HAL_Driver/Src/stm32h7xx_hal_tim_ex.c ****   * @retval HAL status
 575:Drivers/STM32H7xx_HAL_Driver/Src/stm32h7xx_hal_tim_ex.c ****   */
 576:Drivers/STM32H7xx_HAL_Driver/Src/stm32h7xx_hal_tim_ex.c **** HAL_StatusTypeDef HAL_TIMEx_HallSensor_Stop_DMA(TIM_HandleTypeDef *htim)
 577:Drivers/STM32H7xx_HAL_Driver/Src/stm32h7xx_hal_tim_ex.c **** {
 1354              		.loc 1 577 1
 1355              		.cfi_startproc
 1356              		@ args = 0, pretend = 0, frame = 8
 1357              		@ frame_needed = 1, uses_anonymous_args = 0
 1358 0000 80B5     		push	{r7, lr}
 1359              	.LCFI47:
 1360              		.cfi_def_cfa_offset 8
 1361              		.cfi_offset 7, -8
 1362              		.cfi_offset 14, -4
 1363 0002 82B0     		sub	sp, sp, #8
 1364              	.LCFI48:
 1365              		.cfi_def_cfa_offset 16
 1366 0004 00AF     		add	r7, sp, #0
 1367              	.LCFI49:
 1368              		.cfi_def_cfa_register 7
 1369 0006 7860     		str	r0, [r7, #4]
 578:Drivers/STM32H7xx_HAL_Driver/Src/stm32h7xx_hal_tim_ex.c ****   /* Check the parameters */
 579:Drivers/STM32H7xx_HAL_Driver/Src/stm32h7xx_hal_tim_ex.c ****   assert_param(IS_TIM_HALL_SENSOR_INTERFACE_INSTANCE(htim->Instance));
 580:Drivers/STM32H7xx_HAL_Driver/Src/stm32h7xx_hal_tim_ex.c **** 
ARM GAS  /var/folders/d0/cymppscj10lcmm48h781wrc80000gn/T//ccIjALm5.s 			page 35


 581:Drivers/STM32H7xx_HAL_Driver/Src/stm32h7xx_hal_tim_ex.c ****   /* Disable the Input Capture channel 1
 582:Drivers/STM32H7xx_HAL_Driver/Src/stm32h7xx_hal_tim_ex.c ****   (in the Hall Sensor Interface the three possible channels that can be used are TIM_CHANNEL_1,
 583:Drivers/STM32H7xx_HAL_Driver/Src/stm32h7xx_hal_tim_ex.c ****   TIM_CHANNEL_2 and TIM_CHANNEL_3) */
 584:Drivers/STM32H7xx_HAL_Driver/Src/stm32h7xx_hal_tim_ex.c ****   TIM_CCxChannelCmd(htim->Instance, TIM_CHANNEL_1, TIM_CCx_DISABLE);
 1370              		.loc 1 584 3
 1371 0008 7B68     		ldr	r3, [r7, #4]
 1372 000a 1B68     		ldr	r3, [r3]
 1373 000c 0022     		movs	r2, #0
 1374 000e 0021     		movs	r1, #0
 1375 0010 1846     		mov	r0, r3
 1376 0012 FFF7FEFF 		bl	TIM_CCxChannelCmd
 585:Drivers/STM32H7xx_HAL_Driver/Src/stm32h7xx_hal_tim_ex.c **** 
 586:Drivers/STM32H7xx_HAL_Driver/Src/stm32h7xx_hal_tim_ex.c **** 
 587:Drivers/STM32H7xx_HAL_Driver/Src/stm32h7xx_hal_tim_ex.c ****   /* Disable the capture compare Interrupts 1 event */
 588:Drivers/STM32H7xx_HAL_Driver/Src/stm32h7xx_hal_tim_ex.c ****   __HAL_TIM_DISABLE_DMA(htim, TIM_DMA_CC1);
 1377              		.loc 1 588 3
 1378 0016 7B68     		ldr	r3, [r7, #4]
 1379 0018 1B68     		ldr	r3, [r3]
 1380 001a DA68     		ldr	r2, [r3, #12]
 1381 001c 7B68     		ldr	r3, [r7, #4]
 1382 001e 1B68     		ldr	r3, [r3]
 1383 0020 22F40072 		bic	r2, r2, #512
 1384 0024 DA60     		str	r2, [r3, #12]
 589:Drivers/STM32H7xx_HAL_Driver/Src/stm32h7xx_hal_tim_ex.c **** 
 590:Drivers/STM32H7xx_HAL_Driver/Src/stm32h7xx_hal_tim_ex.c ****   (void)HAL_DMA_Abort_IT(htim->hdma[TIM_DMA_ID_CC1]);
 1385              		.loc 1 590 9
 1386 0026 7B68     		ldr	r3, [r7, #4]
 1387 0028 5B6A     		ldr	r3, [r3, #36]
 1388 002a 1846     		mov	r0, r3
 1389 002c FFF7FEFF 		bl	HAL_DMA_Abort_IT
 591:Drivers/STM32H7xx_HAL_Driver/Src/stm32h7xx_hal_tim_ex.c **** 
 592:Drivers/STM32H7xx_HAL_Driver/Src/stm32h7xx_hal_tim_ex.c ****   /* Disable the Peripheral */
 593:Drivers/STM32H7xx_HAL_Driver/Src/stm32h7xx_hal_tim_ex.c ****   __HAL_TIM_DISABLE(htim);
 1390              		.loc 1 593 3
 1391 0030 7B68     		ldr	r3, [r7, #4]
 1392 0032 1B68     		ldr	r3, [r3]
 1393 0034 1A6A     		ldr	r2, [r3, #32]
 1394 0036 41F21113 		movw	r3, #4369
 1395 003a 1340     		ands	r3, r3, r2
 1396 003c 002B     		cmp	r3, #0
 1397 003e 0FD1     		bne	.L62
 1398              		.loc 1 593 3 is_stmt 0 discriminator 1
 1399 0040 7B68     		ldr	r3, [r7, #4]
 1400 0042 1B68     		ldr	r3, [r3]
 1401 0044 1A6A     		ldr	r2, [r3, #32]
 1402 0046 40F24443 		movw	r3, #1092
 1403 004a 1340     		ands	r3, r3, r2
 1404 004c 002B     		cmp	r3, #0
 1405 004e 07D1     		bne	.L62
 1406              		.loc 1 593 3 discriminator 2
 1407 0050 7B68     		ldr	r3, [r7, #4]
 1408 0052 1B68     		ldr	r3, [r3]
 1409 0054 1A68     		ldr	r2, [r3]
 1410 0056 7B68     		ldr	r3, [r7, #4]
 1411 0058 1B68     		ldr	r3, [r3]
 1412 005a 22F00102 		bic	r2, r2, #1
 1413 005e 1A60     		str	r2, [r3]
ARM GAS  /var/folders/d0/cymppscj10lcmm48h781wrc80000gn/T//ccIjALm5.s 			page 36


 1414              	.L62:
 594:Drivers/STM32H7xx_HAL_Driver/Src/stm32h7xx_hal_tim_ex.c **** 
 595:Drivers/STM32H7xx_HAL_Driver/Src/stm32h7xx_hal_tim_ex.c ****   /* Set the TIM channel state */
 596:Drivers/STM32H7xx_HAL_Driver/Src/stm32h7xx_hal_tim_ex.c ****   TIM_CHANNEL_STATE_SET(htim, TIM_CHANNEL_1, HAL_TIM_CHANNEL_STATE_READY);
 1415              		.loc 1 596 3 is_stmt 1
 1416 0060 7B68     		ldr	r3, [r7, #4]
 1417 0062 0122     		movs	r2, #1
 1418 0064 83F83E20 		strb	r2, [r3, #62]
 597:Drivers/STM32H7xx_HAL_Driver/Src/stm32h7xx_hal_tim_ex.c ****   TIM_CHANNEL_N_STATE_SET(htim, TIM_CHANNEL_1, HAL_TIM_CHANNEL_STATE_READY);
 1419              		.loc 1 597 3
 1420 0068 7B68     		ldr	r3, [r7, #4]
 1421 006a 0122     		movs	r2, #1
 1422 006c 83F84420 		strb	r2, [r3, #68]
 598:Drivers/STM32H7xx_HAL_Driver/Src/stm32h7xx_hal_tim_ex.c **** 
 599:Drivers/STM32H7xx_HAL_Driver/Src/stm32h7xx_hal_tim_ex.c ****   /* Return function status */
 600:Drivers/STM32H7xx_HAL_Driver/Src/stm32h7xx_hal_tim_ex.c ****   return HAL_OK;
 1423              		.loc 1 600 10
 1424 0070 0023     		movs	r3, #0
 601:Drivers/STM32H7xx_HAL_Driver/Src/stm32h7xx_hal_tim_ex.c **** }
 1425              		.loc 1 601 1
 1426 0072 1846     		mov	r0, r3
 1427 0074 0837     		adds	r7, r7, #8
 1428              	.LCFI50:
 1429              		.cfi_def_cfa_offset 8
 1430 0076 BD46     		mov	sp, r7
 1431              	.LCFI51:
 1432              		.cfi_def_cfa_register 13
 1433              		@ sp needed
 1434 0078 80BD     		pop	{r7, pc}
 1435              		.cfi_endproc
 1436              	.LFE342:
 1438              		.section	.text.HAL_TIMEx_OCN_Start,"ax",%progbits
 1439              		.align	1
 1440              		.global	HAL_TIMEx_OCN_Start
 1441              		.syntax unified
 1442              		.thumb
 1443              		.thumb_func
 1445              	HAL_TIMEx_OCN_Start:
 1446              	.LFB343:
 602:Drivers/STM32H7xx_HAL_Driver/Src/stm32h7xx_hal_tim_ex.c **** 
 603:Drivers/STM32H7xx_HAL_Driver/Src/stm32h7xx_hal_tim_ex.c **** /**
 604:Drivers/STM32H7xx_HAL_Driver/Src/stm32h7xx_hal_tim_ex.c ****   * @}
 605:Drivers/STM32H7xx_HAL_Driver/Src/stm32h7xx_hal_tim_ex.c ****   */
 606:Drivers/STM32H7xx_HAL_Driver/Src/stm32h7xx_hal_tim_ex.c **** 
 607:Drivers/STM32H7xx_HAL_Driver/Src/stm32h7xx_hal_tim_ex.c **** /** @defgroup TIMEx_Exported_Functions_Group2 Extended Timer Complementary Output Compare functions
 608:Drivers/STM32H7xx_HAL_Driver/Src/stm32h7xx_hal_tim_ex.c ****   *  @brief   Timer Complementary Output Compare functions
 609:Drivers/STM32H7xx_HAL_Driver/Src/stm32h7xx_hal_tim_ex.c ****   *
 610:Drivers/STM32H7xx_HAL_Driver/Src/stm32h7xx_hal_tim_ex.c **** @verbatim
 611:Drivers/STM32H7xx_HAL_Driver/Src/stm32h7xx_hal_tim_ex.c ****   ==============================================================================
 612:Drivers/STM32H7xx_HAL_Driver/Src/stm32h7xx_hal_tim_ex.c ****               ##### Timer Complementary Output Compare functions #####
 613:Drivers/STM32H7xx_HAL_Driver/Src/stm32h7xx_hal_tim_ex.c ****   ==============================================================================
 614:Drivers/STM32H7xx_HAL_Driver/Src/stm32h7xx_hal_tim_ex.c ****   [..]
 615:Drivers/STM32H7xx_HAL_Driver/Src/stm32h7xx_hal_tim_ex.c ****     This section provides functions allowing to:
 616:Drivers/STM32H7xx_HAL_Driver/Src/stm32h7xx_hal_tim_ex.c ****     (+) Start the Complementary Output Compare/PWM.
 617:Drivers/STM32H7xx_HAL_Driver/Src/stm32h7xx_hal_tim_ex.c ****     (+) Stop the Complementary Output Compare/PWM.
 618:Drivers/STM32H7xx_HAL_Driver/Src/stm32h7xx_hal_tim_ex.c ****     (+) Start the Complementary Output Compare/PWM and enable interrupts.
 619:Drivers/STM32H7xx_HAL_Driver/Src/stm32h7xx_hal_tim_ex.c ****     (+) Stop the Complementary Output Compare/PWM and disable interrupts.
ARM GAS  /var/folders/d0/cymppscj10lcmm48h781wrc80000gn/T//ccIjALm5.s 			page 37


 620:Drivers/STM32H7xx_HAL_Driver/Src/stm32h7xx_hal_tim_ex.c ****     (+) Start the Complementary Output Compare/PWM and enable DMA transfers.
 621:Drivers/STM32H7xx_HAL_Driver/Src/stm32h7xx_hal_tim_ex.c ****     (+) Stop the Complementary Output Compare/PWM and disable DMA transfers.
 622:Drivers/STM32H7xx_HAL_Driver/Src/stm32h7xx_hal_tim_ex.c **** 
 623:Drivers/STM32H7xx_HAL_Driver/Src/stm32h7xx_hal_tim_ex.c **** @endverbatim
 624:Drivers/STM32H7xx_HAL_Driver/Src/stm32h7xx_hal_tim_ex.c ****   * @{
 625:Drivers/STM32H7xx_HAL_Driver/Src/stm32h7xx_hal_tim_ex.c ****   */
 626:Drivers/STM32H7xx_HAL_Driver/Src/stm32h7xx_hal_tim_ex.c **** 
 627:Drivers/STM32H7xx_HAL_Driver/Src/stm32h7xx_hal_tim_ex.c **** /**
 628:Drivers/STM32H7xx_HAL_Driver/Src/stm32h7xx_hal_tim_ex.c ****   * @brief  Starts the TIM Output Compare signal generation on the complementary
 629:Drivers/STM32H7xx_HAL_Driver/Src/stm32h7xx_hal_tim_ex.c ****   *         output.
 630:Drivers/STM32H7xx_HAL_Driver/Src/stm32h7xx_hal_tim_ex.c ****   * @param  htim TIM Output Compare handle
 631:Drivers/STM32H7xx_HAL_Driver/Src/stm32h7xx_hal_tim_ex.c ****   * @param  Channel TIM Channel to be enabled
 632:Drivers/STM32H7xx_HAL_Driver/Src/stm32h7xx_hal_tim_ex.c ****   *          This parameter can be one of the following values:
 633:Drivers/STM32H7xx_HAL_Driver/Src/stm32h7xx_hal_tim_ex.c ****   *            @arg TIM_CHANNEL_1: TIM Channel 1 selected
 634:Drivers/STM32H7xx_HAL_Driver/Src/stm32h7xx_hal_tim_ex.c ****   *            @arg TIM_CHANNEL_2: TIM Channel 2 selected
 635:Drivers/STM32H7xx_HAL_Driver/Src/stm32h7xx_hal_tim_ex.c ****   *            @arg TIM_CHANNEL_3: TIM Channel 3 selected
 636:Drivers/STM32H7xx_HAL_Driver/Src/stm32h7xx_hal_tim_ex.c ****   * @retval HAL status
 637:Drivers/STM32H7xx_HAL_Driver/Src/stm32h7xx_hal_tim_ex.c ****   */
 638:Drivers/STM32H7xx_HAL_Driver/Src/stm32h7xx_hal_tim_ex.c **** HAL_StatusTypeDef HAL_TIMEx_OCN_Start(TIM_HandleTypeDef *htim, uint32_t Channel)
 639:Drivers/STM32H7xx_HAL_Driver/Src/stm32h7xx_hal_tim_ex.c **** {
 1447              		.loc 1 639 1
 1448              		.cfi_startproc
 1449              		@ args = 0, pretend = 0, frame = 16
 1450              		@ frame_needed = 1, uses_anonymous_args = 0
 1451 0000 80B5     		push	{r7, lr}
 1452              	.LCFI52:
 1453              		.cfi_def_cfa_offset 8
 1454              		.cfi_offset 7, -8
 1455              		.cfi_offset 14, -4
 1456 0002 84B0     		sub	sp, sp, #16
 1457              	.LCFI53:
 1458              		.cfi_def_cfa_offset 24
 1459 0004 00AF     		add	r7, sp, #0
 1460              	.LCFI54:
 1461              		.cfi_def_cfa_register 7
 1462 0006 7860     		str	r0, [r7, #4]
 1463 0008 3960     		str	r1, [r7]
 640:Drivers/STM32H7xx_HAL_Driver/Src/stm32h7xx_hal_tim_ex.c ****   uint32_t tmpsmcr;
 641:Drivers/STM32H7xx_HAL_Driver/Src/stm32h7xx_hal_tim_ex.c **** 
 642:Drivers/STM32H7xx_HAL_Driver/Src/stm32h7xx_hal_tim_ex.c ****   /* Check the parameters */
 643:Drivers/STM32H7xx_HAL_Driver/Src/stm32h7xx_hal_tim_ex.c ****   assert_param(IS_TIM_CCXN_INSTANCE(htim->Instance, Channel));
 644:Drivers/STM32H7xx_HAL_Driver/Src/stm32h7xx_hal_tim_ex.c **** 
 645:Drivers/STM32H7xx_HAL_Driver/Src/stm32h7xx_hal_tim_ex.c ****   /* Check the TIM complementary channel state */
 646:Drivers/STM32H7xx_HAL_Driver/Src/stm32h7xx_hal_tim_ex.c ****   if (TIM_CHANNEL_N_STATE_GET(htim, Channel) != HAL_TIM_CHANNEL_STATE_READY)
 1464              		.loc 1 646 46
 1465 000a 3B68     		ldr	r3, [r7]
 1466 000c 002B     		cmp	r3, #0
 1467 000e 09D1     		bne	.L65
 1468              		.loc 1 646 7 discriminator 1
 1469 0010 7B68     		ldr	r3, [r7, #4]
 1470 0012 93F84430 		ldrb	r3, [r3, #68]
 1471 0016 DBB2     		uxtb	r3, r3
 1472              		.loc 1 646 46 discriminator 1
 1473 0018 012B     		cmp	r3, #1
 1474 001a 14BF     		ite	ne
 1475 001c 0123     		movne	r3, #1
 1476 001e 0023     		moveq	r3, #0
ARM GAS  /var/folders/d0/cymppscj10lcmm48h781wrc80000gn/T//ccIjALm5.s 			page 38


 1477 0020 DBB2     		uxtb	r3, r3
 1478 0022 22E0     		b	.L66
 1479              	.L65:
 1480              		.loc 1 646 46 is_stmt 0 discriminator 2
 1481 0024 3B68     		ldr	r3, [r7]
 1482 0026 042B     		cmp	r3, #4
 1483 0028 09D1     		bne	.L67
 1484              		.loc 1 646 7 is_stmt 1 discriminator 4
 1485 002a 7B68     		ldr	r3, [r7, #4]
 1486 002c 93F84530 		ldrb	r3, [r3, #69]
 1487 0030 DBB2     		uxtb	r3, r3
 1488              		.loc 1 646 46 discriminator 4
 1489 0032 012B     		cmp	r3, #1
 1490 0034 14BF     		ite	ne
 1491 0036 0123     		movne	r3, #1
 1492 0038 0023     		moveq	r3, #0
 1493 003a DBB2     		uxtb	r3, r3
 1494 003c 15E0     		b	.L66
 1495              	.L67:
 1496              		.loc 1 646 46 is_stmt 0 discriminator 5
 1497 003e 3B68     		ldr	r3, [r7]
 1498 0040 082B     		cmp	r3, #8
 1499 0042 09D1     		bne	.L69
 1500              		.loc 1 646 7 is_stmt 1 discriminator 7
 1501 0044 7B68     		ldr	r3, [r7, #4]
 1502 0046 93F84630 		ldrb	r3, [r3, #70]
 1503 004a DBB2     		uxtb	r3, r3
 1504              		.loc 1 646 46 discriminator 7
 1505 004c 012B     		cmp	r3, #1
 1506 004e 14BF     		ite	ne
 1507 0050 0123     		movne	r3, #1
 1508 0052 0023     		moveq	r3, #0
 1509 0054 DBB2     		uxtb	r3, r3
 1510 0056 08E0     		b	.L66
 1511              	.L69:
 1512              		.loc 1 646 7 discriminator 8
 1513 0058 7B68     		ldr	r3, [r7, #4]
 1514 005a 93F84730 		ldrb	r3, [r3, #71]
 1515 005e DBB2     		uxtb	r3, r3
 1516              		.loc 1 646 46 discriminator 8
 1517 0060 012B     		cmp	r3, #1
 1518 0062 14BF     		ite	ne
 1519 0064 0123     		movne	r3, #1
 1520 0066 0023     		moveq	r3, #0
 1521 0068 DBB2     		uxtb	r3, r3
 1522              	.L66:
 1523              		.loc 1 646 6 discriminator 12
 1524 006a 002B     		cmp	r3, #0
 1525 006c 01D0     		beq	.L71
 647:Drivers/STM32H7xx_HAL_Driver/Src/stm32h7xx_hal_tim_ex.c ****   {
 648:Drivers/STM32H7xx_HAL_Driver/Src/stm32h7xx_hal_tim_ex.c ****     return HAL_ERROR;
 1526              		.loc 1 648 12
 1527 006e 0123     		movs	r3, #1
 1528 0070 73E0     		b	.L72
 1529              	.L71:
 649:Drivers/STM32H7xx_HAL_Driver/Src/stm32h7xx_hal_tim_ex.c ****   }
 650:Drivers/STM32H7xx_HAL_Driver/Src/stm32h7xx_hal_tim_ex.c **** 
ARM GAS  /var/folders/d0/cymppscj10lcmm48h781wrc80000gn/T//ccIjALm5.s 			page 39


 651:Drivers/STM32H7xx_HAL_Driver/Src/stm32h7xx_hal_tim_ex.c ****   /* Set the TIM complementary channel state */
 652:Drivers/STM32H7xx_HAL_Driver/Src/stm32h7xx_hal_tim_ex.c ****   TIM_CHANNEL_N_STATE_SET(htim, Channel, HAL_TIM_CHANNEL_STATE_BUSY);
 1530              		.loc 1 652 3
 1531 0072 3B68     		ldr	r3, [r7]
 1532 0074 002B     		cmp	r3, #0
 1533 0076 04D1     		bne	.L73
 1534              		.loc 1 652 3 is_stmt 0 discriminator 1
 1535 0078 7B68     		ldr	r3, [r7, #4]
 1536 007a 0222     		movs	r2, #2
 1537 007c 83F84420 		strb	r2, [r3, #68]
 1538 0080 13E0     		b	.L74
 1539              	.L73:
 1540              		.loc 1 652 3 discriminator 2
 1541 0082 3B68     		ldr	r3, [r7]
 1542 0084 042B     		cmp	r3, #4
 1543 0086 04D1     		bne	.L75
 1544              		.loc 1 652 3 discriminator 3
 1545 0088 7B68     		ldr	r3, [r7, #4]
 1546 008a 0222     		movs	r2, #2
 1547 008c 83F84520 		strb	r2, [r3, #69]
 1548 0090 0BE0     		b	.L74
 1549              	.L75:
 1550              		.loc 1 652 3 discriminator 4
 1551 0092 3B68     		ldr	r3, [r7]
 1552 0094 082B     		cmp	r3, #8
 1553 0096 04D1     		bne	.L77
 1554              		.loc 1 652 3 discriminator 6
 1555 0098 7B68     		ldr	r3, [r7, #4]
 1556 009a 0222     		movs	r2, #2
 1557 009c 83F84620 		strb	r2, [r3, #70]
 1558 00a0 03E0     		b	.L74
 1559              	.L77:
 1560              		.loc 1 652 3 discriminator 7
 1561 00a2 7B68     		ldr	r3, [r7, #4]
 1562 00a4 0222     		movs	r2, #2
 1563 00a6 83F84720 		strb	r2, [r3, #71]
 1564              	.L74:
 653:Drivers/STM32H7xx_HAL_Driver/Src/stm32h7xx_hal_tim_ex.c **** 
 654:Drivers/STM32H7xx_HAL_Driver/Src/stm32h7xx_hal_tim_ex.c ****   /* Enable the Capture compare channel N */
 655:Drivers/STM32H7xx_HAL_Driver/Src/stm32h7xx_hal_tim_ex.c ****   TIM_CCxNChannelCmd(htim->Instance, Channel, TIM_CCxN_ENABLE);
 1565              		.loc 1 655 3 is_stmt 1
 1566 00aa 7B68     		ldr	r3, [r7, #4]
 1567 00ac 1B68     		ldr	r3, [r3]
 1568 00ae 0422     		movs	r2, #4
 1569 00b0 3968     		ldr	r1, [r7]
 1570 00b2 1846     		mov	r0, r3
 1571 00b4 FFF7FEFF 		bl	TIM_CCxNChannelCmd
 656:Drivers/STM32H7xx_HAL_Driver/Src/stm32h7xx_hal_tim_ex.c **** 
 657:Drivers/STM32H7xx_HAL_Driver/Src/stm32h7xx_hal_tim_ex.c ****   /* Enable the Main Output */
 658:Drivers/STM32H7xx_HAL_Driver/Src/stm32h7xx_hal_tim_ex.c ****   __HAL_TIM_MOE_ENABLE(htim);
 1572              		.loc 1 658 3
 1573 00b8 7B68     		ldr	r3, [r7, #4]
 1574 00ba 1B68     		ldr	r3, [r3]
 1575 00bc 5A6C     		ldr	r2, [r3, #68]
 1576 00be 7B68     		ldr	r3, [r7, #4]
 1577 00c0 1B68     		ldr	r3, [r3]
 1578 00c2 42F40042 		orr	r2, r2, #32768
ARM GAS  /var/folders/d0/cymppscj10lcmm48h781wrc80000gn/T//ccIjALm5.s 			page 40


 1579 00c6 5A64     		str	r2, [r3, #68]
 659:Drivers/STM32H7xx_HAL_Driver/Src/stm32h7xx_hal_tim_ex.c **** 
 660:Drivers/STM32H7xx_HAL_Driver/Src/stm32h7xx_hal_tim_ex.c ****   /* Enable the Peripheral, except in trigger mode where enable is automatically done with trigger 
 661:Drivers/STM32H7xx_HAL_Driver/Src/stm32h7xx_hal_tim_ex.c ****   if (IS_TIM_SLAVE_INSTANCE(htim->Instance))
 1580              		.loc 1 661 7
 1581 00c8 7B68     		ldr	r3, [r7, #4]
 1582 00ca 1B68     		ldr	r3, [r3]
 1583              		.loc 1 661 6
 1584 00cc 254A     		ldr	r2, .L84
 1585 00ce 9342     		cmp	r3, r2
 1586 00d0 22D0     		beq	.L79
 1587              		.loc 1 661 7 discriminator 1
 1588 00d2 7B68     		ldr	r3, [r7, #4]
 1589 00d4 1B68     		ldr	r3, [r3]
 1590 00d6 B3F1804F 		cmp	r3, #1073741824
 1591 00da 1DD0     		beq	.L79
 1592              		.loc 1 661 7 is_stmt 0 discriminator 2
 1593 00dc 7B68     		ldr	r3, [r7, #4]
 1594 00de 1B68     		ldr	r3, [r3]
 1595 00e0 214A     		ldr	r2, .L84+4
 1596 00e2 9342     		cmp	r3, r2
 1597 00e4 18D0     		beq	.L79
 1598              		.loc 1 661 7 discriminator 3
 1599 00e6 7B68     		ldr	r3, [r7, #4]
 1600 00e8 1B68     		ldr	r3, [r3]
 1601 00ea 204A     		ldr	r2, .L84+8
 1602 00ec 9342     		cmp	r3, r2
 1603 00ee 13D0     		beq	.L79
 1604              		.loc 1 661 7 discriminator 4
 1605 00f0 7B68     		ldr	r3, [r7, #4]
 1606 00f2 1B68     		ldr	r3, [r3]
 1607 00f4 1E4A     		ldr	r2, .L84+12
 1608 00f6 9342     		cmp	r3, r2
 1609 00f8 0ED0     		beq	.L79
 1610              		.loc 1 661 7 discriminator 5
 1611 00fa 7B68     		ldr	r3, [r7, #4]
 1612 00fc 1B68     		ldr	r3, [r3]
 1613 00fe 1D4A     		ldr	r2, .L84+16
 1614 0100 9342     		cmp	r3, r2
 1615 0102 09D0     		beq	.L79
 1616              		.loc 1 661 7 discriminator 6
 1617 0104 7B68     		ldr	r3, [r7, #4]
 1618 0106 1B68     		ldr	r3, [r3]
 1619 0108 1B4A     		ldr	r2, .L84+20
 1620 010a 9342     		cmp	r3, r2
 1621 010c 04D0     		beq	.L79
 1622              		.loc 1 661 7 discriminator 7
 1623 010e 7B68     		ldr	r3, [r7, #4]
 1624 0110 1B68     		ldr	r3, [r3]
 1625 0112 1A4A     		ldr	r2, .L84+24
 1626 0114 9342     		cmp	r3, r2
 1627 0116 15D1     		bne	.L80
 1628              	.L79:
 662:Drivers/STM32H7xx_HAL_Driver/Src/stm32h7xx_hal_tim_ex.c ****   {
 663:Drivers/STM32H7xx_HAL_Driver/Src/stm32h7xx_hal_tim_ex.c ****     tmpsmcr = htim->Instance->SMCR & TIM_SMCR_SMS;
 1629              		.loc 1 663 19 is_stmt 1
 1630 0118 7B68     		ldr	r3, [r7, #4]
ARM GAS  /var/folders/d0/cymppscj10lcmm48h781wrc80000gn/T//ccIjALm5.s 			page 41


 1631 011a 1B68     		ldr	r3, [r3]
 1632              		.loc 1 663 29
 1633 011c 9A68     		ldr	r2, [r3, #8]
 1634              		.loc 1 663 13
 1635 011e 184B     		ldr	r3, .L84+28
 1636 0120 1340     		ands	r3, r3, r2
 1637 0122 FB60     		str	r3, [r7, #12]
 664:Drivers/STM32H7xx_HAL_Driver/Src/stm32h7xx_hal_tim_ex.c ****     if (!IS_TIM_SLAVEMODE_TRIGGER_ENABLED(tmpsmcr))
 1638              		.loc 1 664 8
 1639 0124 FB68     		ldr	r3, [r7, #12]
 1640 0126 062B     		cmp	r3, #6
 1641 0128 15D0     		beq	.L83
 1642              		.loc 1 664 9 discriminator 1
 1643 012a FB68     		ldr	r3, [r7, #12]
 1644 012c B3F5803F 		cmp	r3, #65536
 1645 0130 11D0     		beq	.L83
 665:Drivers/STM32H7xx_HAL_Driver/Src/stm32h7xx_hal_tim_ex.c ****     {
 666:Drivers/STM32H7xx_HAL_Driver/Src/stm32h7xx_hal_tim_ex.c ****       __HAL_TIM_ENABLE(htim);
 1646              		.loc 1 666 7
 1647 0132 7B68     		ldr	r3, [r7, #4]
 1648 0134 1B68     		ldr	r3, [r3]
 1649 0136 1A68     		ldr	r2, [r3]
 1650 0138 7B68     		ldr	r3, [r7, #4]
 1651 013a 1B68     		ldr	r3, [r3]
 1652 013c 42F00102 		orr	r2, r2, #1
 1653 0140 1A60     		str	r2, [r3]
 664:Drivers/STM32H7xx_HAL_Driver/Src/stm32h7xx_hal_tim_ex.c ****     if (!IS_TIM_SLAVEMODE_TRIGGER_ENABLED(tmpsmcr))
 1654              		.loc 1 664 8
 1655 0142 08E0     		b	.L83
 1656              	.L80:
 667:Drivers/STM32H7xx_HAL_Driver/Src/stm32h7xx_hal_tim_ex.c ****     }
 668:Drivers/STM32H7xx_HAL_Driver/Src/stm32h7xx_hal_tim_ex.c ****   }
 669:Drivers/STM32H7xx_HAL_Driver/Src/stm32h7xx_hal_tim_ex.c ****   else
 670:Drivers/STM32H7xx_HAL_Driver/Src/stm32h7xx_hal_tim_ex.c ****   {
 671:Drivers/STM32H7xx_HAL_Driver/Src/stm32h7xx_hal_tim_ex.c ****     __HAL_TIM_ENABLE(htim);
 1657              		.loc 1 671 5
 1658 0144 7B68     		ldr	r3, [r7, #4]
 1659 0146 1B68     		ldr	r3, [r3]
 1660 0148 1A68     		ldr	r2, [r3]
 1661 014a 7B68     		ldr	r3, [r7, #4]
 1662 014c 1B68     		ldr	r3, [r3]
 1663 014e 42F00102 		orr	r2, r2, #1
 1664 0152 1A60     		str	r2, [r3]
 1665 0154 00E0     		b	.L82
 1666              	.L83:
 664:Drivers/STM32H7xx_HAL_Driver/Src/stm32h7xx_hal_tim_ex.c ****     {
 1667              		.loc 1 664 8
 1668 0156 00BF     		nop
 1669              	.L82:
 672:Drivers/STM32H7xx_HAL_Driver/Src/stm32h7xx_hal_tim_ex.c ****   }
 673:Drivers/STM32H7xx_HAL_Driver/Src/stm32h7xx_hal_tim_ex.c **** 
 674:Drivers/STM32H7xx_HAL_Driver/Src/stm32h7xx_hal_tim_ex.c ****   /* Return function status */
 675:Drivers/STM32H7xx_HAL_Driver/Src/stm32h7xx_hal_tim_ex.c ****   return HAL_OK;
 1670              		.loc 1 675 10
 1671 0158 0023     		movs	r3, #0
 1672              	.L72:
 676:Drivers/STM32H7xx_HAL_Driver/Src/stm32h7xx_hal_tim_ex.c **** }
ARM GAS  /var/folders/d0/cymppscj10lcmm48h781wrc80000gn/T//ccIjALm5.s 			page 42


 1673              		.loc 1 676 1
 1674 015a 1846     		mov	r0, r3
 1675 015c 1037     		adds	r7, r7, #16
 1676              	.LCFI55:
 1677              		.cfi_def_cfa_offset 8
 1678 015e BD46     		mov	sp, r7
 1679              	.LCFI56:
 1680              		.cfi_def_cfa_register 13
 1681              		@ sp needed
 1682 0160 80BD     		pop	{r7, pc}
 1683              	.L85:
 1684 0162 00BF     		.align	2
 1685              	.L84:
 1686 0164 00000140 		.word	1073807360
 1687 0168 00040040 		.word	1073742848
 1688 016c 00080040 		.word	1073743872
 1689 0170 000C0040 		.word	1073744896
 1690 0174 00040140 		.word	1073808384
 1691 0178 00180040 		.word	1073747968
 1692 017c 00400140 		.word	1073823744
 1693 0180 07000100 		.word	65543
 1694              		.cfi_endproc
 1695              	.LFE343:
 1697              		.section	.text.HAL_TIMEx_OCN_Stop,"ax",%progbits
 1698              		.align	1
 1699              		.global	HAL_TIMEx_OCN_Stop
 1700              		.syntax unified
 1701              		.thumb
 1702              		.thumb_func
 1704              	HAL_TIMEx_OCN_Stop:
 1705              	.LFB344:
 677:Drivers/STM32H7xx_HAL_Driver/Src/stm32h7xx_hal_tim_ex.c **** 
 678:Drivers/STM32H7xx_HAL_Driver/Src/stm32h7xx_hal_tim_ex.c **** /**
 679:Drivers/STM32H7xx_HAL_Driver/Src/stm32h7xx_hal_tim_ex.c ****   * @brief  Stops the TIM Output Compare signal generation on the complementary
 680:Drivers/STM32H7xx_HAL_Driver/Src/stm32h7xx_hal_tim_ex.c ****   *         output.
 681:Drivers/STM32H7xx_HAL_Driver/Src/stm32h7xx_hal_tim_ex.c ****   * @param  htim TIM handle
 682:Drivers/STM32H7xx_HAL_Driver/Src/stm32h7xx_hal_tim_ex.c ****   * @param  Channel TIM Channel to be disabled
 683:Drivers/STM32H7xx_HAL_Driver/Src/stm32h7xx_hal_tim_ex.c ****   *          This parameter can be one of the following values:
 684:Drivers/STM32H7xx_HAL_Driver/Src/stm32h7xx_hal_tim_ex.c ****   *            @arg TIM_CHANNEL_1: TIM Channel 1 selected
 685:Drivers/STM32H7xx_HAL_Driver/Src/stm32h7xx_hal_tim_ex.c ****   *            @arg TIM_CHANNEL_2: TIM Channel 2 selected
 686:Drivers/STM32H7xx_HAL_Driver/Src/stm32h7xx_hal_tim_ex.c ****   *            @arg TIM_CHANNEL_3: TIM Channel 3 selected
 687:Drivers/STM32H7xx_HAL_Driver/Src/stm32h7xx_hal_tim_ex.c ****   * @retval HAL status
 688:Drivers/STM32H7xx_HAL_Driver/Src/stm32h7xx_hal_tim_ex.c ****   */
 689:Drivers/STM32H7xx_HAL_Driver/Src/stm32h7xx_hal_tim_ex.c **** HAL_StatusTypeDef HAL_TIMEx_OCN_Stop(TIM_HandleTypeDef *htim, uint32_t Channel)
 690:Drivers/STM32H7xx_HAL_Driver/Src/stm32h7xx_hal_tim_ex.c **** {
 1706              		.loc 1 690 1
 1707              		.cfi_startproc
 1708              		@ args = 0, pretend = 0, frame = 8
 1709              		@ frame_needed = 1, uses_anonymous_args = 0
 1710 0000 80B5     		push	{r7, lr}
 1711              	.LCFI57:
 1712              		.cfi_def_cfa_offset 8
 1713              		.cfi_offset 7, -8
 1714              		.cfi_offset 14, -4
 1715 0002 82B0     		sub	sp, sp, #8
 1716              	.LCFI58:
 1717              		.cfi_def_cfa_offset 16
ARM GAS  /var/folders/d0/cymppscj10lcmm48h781wrc80000gn/T//ccIjALm5.s 			page 43


 1718 0004 00AF     		add	r7, sp, #0
 1719              	.LCFI59:
 1720              		.cfi_def_cfa_register 7
 1721 0006 7860     		str	r0, [r7, #4]
 1722 0008 3960     		str	r1, [r7]
 691:Drivers/STM32H7xx_HAL_Driver/Src/stm32h7xx_hal_tim_ex.c ****   /* Check the parameters */
 692:Drivers/STM32H7xx_HAL_Driver/Src/stm32h7xx_hal_tim_ex.c ****   assert_param(IS_TIM_CCXN_INSTANCE(htim->Instance, Channel));
 693:Drivers/STM32H7xx_HAL_Driver/Src/stm32h7xx_hal_tim_ex.c **** 
 694:Drivers/STM32H7xx_HAL_Driver/Src/stm32h7xx_hal_tim_ex.c ****   /* Disable the Capture compare channel N */
 695:Drivers/STM32H7xx_HAL_Driver/Src/stm32h7xx_hal_tim_ex.c ****   TIM_CCxNChannelCmd(htim->Instance, Channel, TIM_CCxN_DISABLE);
 1723              		.loc 1 695 3
 1724 000a 7B68     		ldr	r3, [r7, #4]
 1725 000c 1B68     		ldr	r3, [r3]
 1726 000e 0022     		movs	r2, #0
 1727 0010 3968     		ldr	r1, [r7]
 1728 0012 1846     		mov	r0, r3
 1729 0014 FFF7FEFF 		bl	TIM_CCxNChannelCmd
 696:Drivers/STM32H7xx_HAL_Driver/Src/stm32h7xx_hal_tim_ex.c **** 
 697:Drivers/STM32H7xx_HAL_Driver/Src/stm32h7xx_hal_tim_ex.c ****   /* Disable the Main Output */
 698:Drivers/STM32H7xx_HAL_Driver/Src/stm32h7xx_hal_tim_ex.c ****   __HAL_TIM_MOE_DISABLE(htim);
 1730              		.loc 1 698 3
 1731 0018 7B68     		ldr	r3, [r7, #4]
 1732 001a 1B68     		ldr	r3, [r3]
 1733 001c 1A6A     		ldr	r2, [r3, #32]
 1734 001e 41F21113 		movw	r3, #4369
 1735 0022 1340     		ands	r3, r3, r2
 1736 0024 002B     		cmp	r3, #0
 1737 0026 0FD1     		bne	.L87
 1738              		.loc 1 698 3 is_stmt 0 discriminator 1
 1739 0028 7B68     		ldr	r3, [r7, #4]
 1740 002a 1B68     		ldr	r3, [r3]
 1741 002c 1A6A     		ldr	r2, [r3, #32]
 1742 002e 40F24443 		movw	r3, #1092
 1743 0032 1340     		ands	r3, r3, r2
 1744 0034 002B     		cmp	r3, #0
 1745 0036 07D1     		bne	.L87
 1746              		.loc 1 698 3 discriminator 2
 1747 0038 7B68     		ldr	r3, [r7, #4]
 1748 003a 1B68     		ldr	r3, [r3]
 1749 003c 5A6C     		ldr	r2, [r3, #68]
 1750 003e 7B68     		ldr	r3, [r7, #4]
 1751 0040 1B68     		ldr	r3, [r3]
 1752 0042 22F40042 		bic	r2, r2, #32768
 1753 0046 5A64     		str	r2, [r3, #68]
 1754              	.L87:
 699:Drivers/STM32H7xx_HAL_Driver/Src/stm32h7xx_hal_tim_ex.c **** 
 700:Drivers/STM32H7xx_HAL_Driver/Src/stm32h7xx_hal_tim_ex.c ****   /* Disable the Peripheral */
 701:Drivers/STM32H7xx_HAL_Driver/Src/stm32h7xx_hal_tim_ex.c ****   __HAL_TIM_DISABLE(htim);
 1755              		.loc 1 701 3 is_stmt 1
 1756 0048 7B68     		ldr	r3, [r7, #4]
 1757 004a 1B68     		ldr	r3, [r3]
 1758 004c 1A6A     		ldr	r2, [r3, #32]
 1759 004e 41F21113 		movw	r3, #4369
 1760 0052 1340     		ands	r3, r3, r2
 1761 0054 002B     		cmp	r3, #0
 1762 0056 0FD1     		bne	.L88
 1763              		.loc 1 701 3 is_stmt 0 discriminator 1
ARM GAS  /var/folders/d0/cymppscj10lcmm48h781wrc80000gn/T//ccIjALm5.s 			page 44


 1764 0058 7B68     		ldr	r3, [r7, #4]
 1765 005a 1B68     		ldr	r3, [r3]
 1766 005c 1A6A     		ldr	r2, [r3, #32]
 1767 005e 40F24443 		movw	r3, #1092
 1768 0062 1340     		ands	r3, r3, r2
 1769 0064 002B     		cmp	r3, #0
 1770 0066 07D1     		bne	.L88
 1771              		.loc 1 701 3 discriminator 2
 1772 0068 7B68     		ldr	r3, [r7, #4]
 1773 006a 1B68     		ldr	r3, [r3]
 1774 006c 1A68     		ldr	r2, [r3]
 1775 006e 7B68     		ldr	r3, [r7, #4]
 1776 0070 1B68     		ldr	r3, [r3]
 1777 0072 22F00102 		bic	r2, r2, #1
 1778 0076 1A60     		str	r2, [r3]
 1779              	.L88:
 702:Drivers/STM32H7xx_HAL_Driver/Src/stm32h7xx_hal_tim_ex.c **** 
 703:Drivers/STM32H7xx_HAL_Driver/Src/stm32h7xx_hal_tim_ex.c ****   /* Set the TIM complementary channel state */
 704:Drivers/STM32H7xx_HAL_Driver/Src/stm32h7xx_hal_tim_ex.c ****   TIM_CHANNEL_N_STATE_SET(htim, Channel, HAL_TIM_CHANNEL_STATE_READY);
 1780              		.loc 1 704 3 is_stmt 1
 1781 0078 3B68     		ldr	r3, [r7]
 1782 007a 002B     		cmp	r3, #0
 1783 007c 04D1     		bne	.L89
 1784              		.loc 1 704 3 is_stmt 0 discriminator 1
 1785 007e 7B68     		ldr	r3, [r7, #4]
 1786 0080 0122     		movs	r2, #1
 1787 0082 83F84420 		strb	r2, [r3, #68]
 1788 0086 13E0     		b	.L90
 1789              	.L89:
 1790              		.loc 1 704 3 discriminator 2
 1791 0088 3B68     		ldr	r3, [r7]
 1792 008a 042B     		cmp	r3, #4
 1793 008c 04D1     		bne	.L91
 1794              		.loc 1 704 3 discriminator 3
 1795 008e 7B68     		ldr	r3, [r7, #4]
 1796 0090 0122     		movs	r2, #1
 1797 0092 83F84520 		strb	r2, [r3, #69]
 1798 0096 0BE0     		b	.L90
 1799              	.L91:
 1800              		.loc 1 704 3 discriminator 4
 1801 0098 3B68     		ldr	r3, [r7]
 1802 009a 082B     		cmp	r3, #8
 1803 009c 04D1     		bne	.L93
 1804              		.loc 1 704 3 discriminator 6
 1805 009e 7B68     		ldr	r3, [r7, #4]
 1806 00a0 0122     		movs	r2, #1
 1807 00a2 83F84620 		strb	r2, [r3, #70]
 1808 00a6 03E0     		b	.L90
 1809              	.L93:
 1810              		.loc 1 704 3 discriminator 7
 1811 00a8 7B68     		ldr	r3, [r7, #4]
 1812 00aa 0122     		movs	r2, #1
 1813 00ac 83F84720 		strb	r2, [r3, #71]
 1814              	.L90:
 705:Drivers/STM32H7xx_HAL_Driver/Src/stm32h7xx_hal_tim_ex.c **** 
 706:Drivers/STM32H7xx_HAL_Driver/Src/stm32h7xx_hal_tim_ex.c ****   /* Return function status */
 707:Drivers/STM32H7xx_HAL_Driver/Src/stm32h7xx_hal_tim_ex.c ****   return HAL_OK;
ARM GAS  /var/folders/d0/cymppscj10lcmm48h781wrc80000gn/T//ccIjALm5.s 			page 45


 1815              		.loc 1 707 10 is_stmt 1
 1816 00b0 0023     		movs	r3, #0
 708:Drivers/STM32H7xx_HAL_Driver/Src/stm32h7xx_hal_tim_ex.c **** }
 1817              		.loc 1 708 1
 1818 00b2 1846     		mov	r0, r3
 1819 00b4 0837     		adds	r7, r7, #8
 1820              	.LCFI60:
 1821              		.cfi_def_cfa_offset 8
 1822 00b6 BD46     		mov	sp, r7
 1823              	.LCFI61:
 1824              		.cfi_def_cfa_register 13
 1825              		@ sp needed
 1826 00b8 80BD     		pop	{r7, pc}
 1827              		.cfi_endproc
 1828              	.LFE344:
 1830              		.section	.text.HAL_TIMEx_OCN_Start_IT,"ax",%progbits
 1831              		.align	1
 1832              		.global	HAL_TIMEx_OCN_Start_IT
 1833              		.syntax unified
 1834              		.thumb
 1835              		.thumb_func
 1837              	HAL_TIMEx_OCN_Start_IT:
 1838              	.LFB345:
 709:Drivers/STM32H7xx_HAL_Driver/Src/stm32h7xx_hal_tim_ex.c **** 
 710:Drivers/STM32H7xx_HAL_Driver/Src/stm32h7xx_hal_tim_ex.c **** /**
 711:Drivers/STM32H7xx_HAL_Driver/Src/stm32h7xx_hal_tim_ex.c ****   * @brief  Starts the TIM Output Compare signal generation in interrupt mode
 712:Drivers/STM32H7xx_HAL_Driver/Src/stm32h7xx_hal_tim_ex.c ****   *         on the complementary output.
 713:Drivers/STM32H7xx_HAL_Driver/Src/stm32h7xx_hal_tim_ex.c ****   * @param  htim TIM OC handle
 714:Drivers/STM32H7xx_HAL_Driver/Src/stm32h7xx_hal_tim_ex.c ****   * @param  Channel TIM Channel to be enabled
 715:Drivers/STM32H7xx_HAL_Driver/Src/stm32h7xx_hal_tim_ex.c ****   *          This parameter can be one of the following values:
 716:Drivers/STM32H7xx_HAL_Driver/Src/stm32h7xx_hal_tim_ex.c ****   *            @arg TIM_CHANNEL_1: TIM Channel 1 selected
 717:Drivers/STM32H7xx_HAL_Driver/Src/stm32h7xx_hal_tim_ex.c ****   *            @arg TIM_CHANNEL_2: TIM Channel 2 selected
 718:Drivers/STM32H7xx_HAL_Driver/Src/stm32h7xx_hal_tim_ex.c ****   *            @arg TIM_CHANNEL_3: TIM Channel 3 selected
 719:Drivers/STM32H7xx_HAL_Driver/Src/stm32h7xx_hal_tim_ex.c ****   * @retval HAL status
 720:Drivers/STM32H7xx_HAL_Driver/Src/stm32h7xx_hal_tim_ex.c ****   */
 721:Drivers/STM32H7xx_HAL_Driver/Src/stm32h7xx_hal_tim_ex.c **** HAL_StatusTypeDef HAL_TIMEx_OCN_Start_IT(TIM_HandleTypeDef *htim, uint32_t Channel)
 722:Drivers/STM32H7xx_HAL_Driver/Src/stm32h7xx_hal_tim_ex.c **** {
 1839              		.loc 1 722 1
 1840              		.cfi_startproc
 1841              		@ args = 0, pretend = 0, frame = 16
 1842              		@ frame_needed = 1, uses_anonymous_args = 0
 1843 0000 80B5     		push	{r7, lr}
 1844              	.LCFI62:
 1845              		.cfi_def_cfa_offset 8
 1846              		.cfi_offset 7, -8
 1847              		.cfi_offset 14, -4
 1848 0002 84B0     		sub	sp, sp, #16
 1849              	.LCFI63:
 1850              		.cfi_def_cfa_offset 24
 1851 0004 00AF     		add	r7, sp, #0
 1852              	.LCFI64:
 1853              		.cfi_def_cfa_register 7
 1854 0006 7860     		str	r0, [r7, #4]
 1855 0008 3960     		str	r1, [r7]
 723:Drivers/STM32H7xx_HAL_Driver/Src/stm32h7xx_hal_tim_ex.c ****   HAL_StatusTypeDef status = HAL_OK;
 1856              		.loc 1 723 21
 1857 000a 0023     		movs	r3, #0
ARM GAS  /var/folders/d0/cymppscj10lcmm48h781wrc80000gn/T//ccIjALm5.s 			page 46


 1858 000c FB73     		strb	r3, [r7, #15]
 724:Drivers/STM32H7xx_HAL_Driver/Src/stm32h7xx_hal_tim_ex.c ****   uint32_t tmpsmcr;
 725:Drivers/STM32H7xx_HAL_Driver/Src/stm32h7xx_hal_tim_ex.c **** 
 726:Drivers/STM32H7xx_HAL_Driver/Src/stm32h7xx_hal_tim_ex.c ****   /* Check the parameters */
 727:Drivers/STM32H7xx_HAL_Driver/Src/stm32h7xx_hal_tim_ex.c ****   assert_param(IS_TIM_CCXN_INSTANCE(htim->Instance, Channel));
 728:Drivers/STM32H7xx_HAL_Driver/Src/stm32h7xx_hal_tim_ex.c **** 
 729:Drivers/STM32H7xx_HAL_Driver/Src/stm32h7xx_hal_tim_ex.c ****   /* Check the TIM complementary channel state */
 730:Drivers/STM32H7xx_HAL_Driver/Src/stm32h7xx_hal_tim_ex.c ****   if (TIM_CHANNEL_N_STATE_GET(htim, Channel) != HAL_TIM_CHANNEL_STATE_READY)
 1859              		.loc 1 730 46
 1860 000e 3B68     		ldr	r3, [r7]
 1861 0010 002B     		cmp	r3, #0
 1862 0012 09D1     		bne	.L97
 1863              		.loc 1 730 7 discriminator 1
 1864 0014 7B68     		ldr	r3, [r7, #4]
 1865 0016 93F84430 		ldrb	r3, [r3, #68]
 1866 001a DBB2     		uxtb	r3, r3
 1867              		.loc 1 730 46 discriminator 1
 1868 001c 012B     		cmp	r3, #1
 1869 001e 14BF     		ite	ne
 1870 0020 0123     		movne	r3, #1
 1871 0022 0023     		moveq	r3, #0
 1872 0024 DBB2     		uxtb	r3, r3
 1873 0026 22E0     		b	.L98
 1874              	.L97:
 1875              		.loc 1 730 46 is_stmt 0 discriminator 2
 1876 0028 3B68     		ldr	r3, [r7]
 1877 002a 042B     		cmp	r3, #4
 1878 002c 09D1     		bne	.L99
 1879              		.loc 1 730 7 is_stmt 1 discriminator 4
 1880 002e 7B68     		ldr	r3, [r7, #4]
 1881 0030 93F84530 		ldrb	r3, [r3, #69]
 1882 0034 DBB2     		uxtb	r3, r3
 1883              		.loc 1 730 46 discriminator 4
 1884 0036 012B     		cmp	r3, #1
 1885 0038 14BF     		ite	ne
 1886 003a 0123     		movne	r3, #1
 1887 003c 0023     		moveq	r3, #0
 1888 003e DBB2     		uxtb	r3, r3
 1889 0040 15E0     		b	.L98
 1890              	.L99:
 1891              		.loc 1 730 46 is_stmt 0 discriminator 5
 1892 0042 3B68     		ldr	r3, [r7]
 1893 0044 082B     		cmp	r3, #8
 1894 0046 09D1     		bne	.L101
 1895              		.loc 1 730 7 is_stmt 1 discriminator 7
 1896 0048 7B68     		ldr	r3, [r7, #4]
 1897 004a 93F84630 		ldrb	r3, [r3, #70]
 1898 004e DBB2     		uxtb	r3, r3
 1899              		.loc 1 730 46 discriminator 7
 1900 0050 012B     		cmp	r3, #1
 1901 0052 14BF     		ite	ne
 1902 0054 0123     		movne	r3, #1
 1903 0056 0023     		moveq	r3, #0
 1904 0058 DBB2     		uxtb	r3, r3
 1905 005a 08E0     		b	.L98
 1906              	.L101:
 1907              		.loc 1 730 7 discriminator 8
ARM GAS  /var/folders/d0/cymppscj10lcmm48h781wrc80000gn/T//ccIjALm5.s 			page 47


 1908 005c 7B68     		ldr	r3, [r7, #4]
 1909 005e 93F84730 		ldrb	r3, [r3, #71]
 1910 0062 DBB2     		uxtb	r3, r3
 1911              		.loc 1 730 46 discriminator 8
 1912 0064 012B     		cmp	r3, #1
 1913 0066 14BF     		ite	ne
 1914 0068 0123     		movne	r3, #1
 1915 006a 0023     		moveq	r3, #0
 1916 006c DBB2     		uxtb	r3, r3
 1917              	.L98:
 1918              		.loc 1 730 6 discriminator 12
 1919 006e 002B     		cmp	r3, #0
 1920 0070 01D0     		beq	.L103
 731:Drivers/STM32H7xx_HAL_Driver/Src/stm32h7xx_hal_tim_ex.c ****   {
 732:Drivers/STM32H7xx_HAL_Driver/Src/stm32h7xx_hal_tim_ex.c ****     return HAL_ERROR;
 1921              		.loc 1 732 12
 1922 0072 0123     		movs	r3, #1
 1923 0074 A9E0     		b	.L104
 1924              	.L103:
 733:Drivers/STM32H7xx_HAL_Driver/Src/stm32h7xx_hal_tim_ex.c ****   }
 734:Drivers/STM32H7xx_HAL_Driver/Src/stm32h7xx_hal_tim_ex.c **** 
 735:Drivers/STM32H7xx_HAL_Driver/Src/stm32h7xx_hal_tim_ex.c ****   /* Set the TIM complementary channel state */
 736:Drivers/STM32H7xx_HAL_Driver/Src/stm32h7xx_hal_tim_ex.c ****   TIM_CHANNEL_N_STATE_SET(htim, Channel, HAL_TIM_CHANNEL_STATE_BUSY);
 1925              		.loc 1 736 3
 1926 0076 3B68     		ldr	r3, [r7]
 1927 0078 002B     		cmp	r3, #0
 1928 007a 04D1     		bne	.L105
 1929              		.loc 1 736 3 is_stmt 0 discriminator 1
 1930 007c 7B68     		ldr	r3, [r7, #4]
 1931 007e 0222     		movs	r2, #2
 1932 0080 83F84420 		strb	r2, [r3, #68]
 1933 0084 13E0     		b	.L106
 1934              	.L105:
 1935              		.loc 1 736 3 discriminator 2
 1936 0086 3B68     		ldr	r3, [r7]
 1937 0088 042B     		cmp	r3, #4
 1938 008a 04D1     		bne	.L107
 1939              		.loc 1 736 3 discriminator 3
 1940 008c 7B68     		ldr	r3, [r7, #4]
 1941 008e 0222     		movs	r2, #2
 1942 0090 83F84520 		strb	r2, [r3, #69]
 1943 0094 0BE0     		b	.L106
 1944              	.L107:
 1945              		.loc 1 736 3 discriminator 4
 1946 0096 3B68     		ldr	r3, [r7]
 1947 0098 082B     		cmp	r3, #8
 1948 009a 04D1     		bne	.L109
 1949              		.loc 1 736 3 discriminator 6
 1950 009c 7B68     		ldr	r3, [r7, #4]
 1951 009e 0222     		movs	r2, #2
 1952 00a0 83F84620 		strb	r2, [r3, #70]
 1953 00a4 03E0     		b	.L106
 1954              	.L109:
 1955              		.loc 1 736 3 discriminator 7
 1956 00a6 7B68     		ldr	r3, [r7, #4]
 1957 00a8 0222     		movs	r2, #2
 1958 00aa 83F84720 		strb	r2, [r3, #71]
ARM GAS  /var/folders/d0/cymppscj10lcmm48h781wrc80000gn/T//ccIjALm5.s 			page 48


 1959              	.L106:
 737:Drivers/STM32H7xx_HAL_Driver/Src/stm32h7xx_hal_tim_ex.c **** 
 738:Drivers/STM32H7xx_HAL_Driver/Src/stm32h7xx_hal_tim_ex.c ****   switch (Channel)
 1960              		.loc 1 738 3 is_stmt 1
 1961 00ae 3B68     		ldr	r3, [r7]
 1962 00b0 082B     		cmp	r3, #8
 1963 00b2 1BD0     		beq	.L111
 1964 00b4 3B68     		ldr	r3, [r7]
 1965 00b6 082B     		cmp	r3, #8
 1966 00b8 21D8     		bhi	.L112
 1967 00ba 3B68     		ldr	r3, [r7]
 1968 00bc 002B     		cmp	r3, #0
 1969 00be 03D0     		beq	.L113
 1970 00c0 3B68     		ldr	r3, [r7]
 1971 00c2 042B     		cmp	r3, #4
 1972 00c4 09D0     		beq	.L114
 1973 00c6 1AE0     		b	.L112
 1974              	.L113:
 739:Drivers/STM32H7xx_HAL_Driver/Src/stm32h7xx_hal_tim_ex.c ****   {
 740:Drivers/STM32H7xx_HAL_Driver/Src/stm32h7xx_hal_tim_ex.c ****     case TIM_CHANNEL_1:
 741:Drivers/STM32H7xx_HAL_Driver/Src/stm32h7xx_hal_tim_ex.c ****     {
 742:Drivers/STM32H7xx_HAL_Driver/Src/stm32h7xx_hal_tim_ex.c ****       /* Enable the TIM Output Compare interrupt */
 743:Drivers/STM32H7xx_HAL_Driver/Src/stm32h7xx_hal_tim_ex.c ****       __HAL_TIM_ENABLE_IT(htim, TIM_IT_CC1);
 1975              		.loc 1 743 7
 1976 00c8 7B68     		ldr	r3, [r7, #4]
 1977 00ca 1B68     		ldr	r3, [r3]
 1978 00cc DA68     		ldr	r2, [r3, #12]
 1979 00ce 7B68     		ldr	r3, [r7, #4]
 1980 00d0 1B68     		ldr	r3, [r3]
 1981 00d2 42F00202 		orr	r2, r2, #2
 1982 00d6 DA60     		str	r2, [r3, #12]
 744:Drivers/STM32H7xx_HAL_Driver/Src/stm32h7xx_hal_tim_ex.c ****       break;
 1983              		.loc 1 744 7
 1984 00d8 14E0     		b	.L115
 1985              	.L114:
 745:Drivers/STM32H7xx_HAL_Driver/Src/stm32h7xx_hal_tim_ex.c ****     }
 746:Drivers/STM32H7xx_HAL_Driver/Src/stm32h7xx_hal_tim_ex.c **** 
 747:Drivers/STM32H7xx_HAL_Driver/Src/stm32h7xx_hal_tim_ex.c ****     case TIM_CHANNEL_2:
 748:Drivers/STM32H7xx_HAL_Driver/Src/stm32h7xx_hal_tim_ex.c ****     {
 749:Drivers/STM32H7xx_HAL_Driver/Src/stm32h7xx_hal_tim_ex.c ****       /* Enable the TIM Output Compare interrupt */
 750:Drivers/STM32H7xx_HAL_Driver/Src/stm32h7xx_hal_tim_ex.c ****       __HAL_TIM_ENABLE_IT(htim, TIM_IT_CC2);
 1986              		.loc 1 750 7
 1987 00da 7B68     		ldr	r3, [r7, #4]
 1988 00dc 1B68     		ldr	r3, [r3]
 1989 00de DA68     		ldr	r2, [r3, #12]
 1990 00e0 7B68     		ldr	r3, [r7, #4]
 1991 00e2 1B68     		ldr	r3, [r3]
 1992 00e4 42F00402 		orr	r2, r2, #4
 1993 00e8 DA60     		str	r2, [r3, #12]
 751:Drivers/STM32H7xx_HAL_Driver/Src/stm32h7xx_hal_tim_ex.c ****       break;
 1994              		.loc 1 751 7
 1995 00ea 0BE0     		b	.L115
 1996              	.L111:
 752:Drivers/STM32H7xx_HAL_Driver/Src/stm32h7xx_hal_tim_ex.c ****     }
 753:Drivers/STM32H7xx_HAL_Driver/Src/stm32h7xx_hal_tim_ex.c **** 
 754:Drivers/STM32H7xx_HAL_Driver/Src/stm32h7xx_hal_tim_ex.c ****     case TIM_CHANNEL_3:
 755:Drivers/STM32H7xx_HAL_Driver/Src/stm32h7xx_hal_tim_ex.c ****     {
ARM GAS  /var/folders/d0/cymppscj10lcmm48h781wrc80000gn/T//ccIjALm5.s 			page 49


 756:Drivers/STM32H7xx_HAL_Driver/Src/stm32h7xx_hal_tim_ex.c ****       /* Enable the TIM Output Compare interrupt */
 757:Drivers/STM32H7xx_HAL_Driver/Src/stm32h7xx_hal_tim_ex.c ****       __HAL_TIM_ENABLE_IT(htim, TIM_IT_CC3);
 1997              		.loc 1 757 7
 1998 00ec 7B68     		ldr	r3, [r7, #4]
 1999 00ee 1B68     		ldr	r3, [r3]
 2000 00f0 DA68     		ldr	r2, [r3, #12]
 2001 00f2 7B68     		ldr	r3, [r7, #4]
 2002 00f4 1B68     		ldr	r3, [r3]
 2003 00f6 42F00802 		orr	r2, r2, #8
 2004 00fa DA60     		str	r2, [r3, #12]
 758:Drivers/STM32H7xx_HAL_Driver/Src/stm32h7xx_hal_tim_ex.c ****       break;
 2005              		.loc 1 758 7
 2006 00fc 02E0     		b	.L115
 2007              	.L112:
 759:Drivers/STM32H7xx_HAL_Driver/Src/stm32h7xx_hal_tim_ex.c ****     }
 760:Drivers/STM32H7xx_HAL_Driver/Src/stm32h7xx_hal_tim_ex.c **** 
 761:Drivers/STM32H7xx_HAL_Driver/Src/stm32h7xx_hal_tim_ex.c **** 
 762:Drivers/STM32H7xx_HAL_Driver/Src/stm32h7xx_hal_tim_ex.c ****     default:
 763:Drivers/STM32H7xx_HAL_Driver/Src/stm32h7xx_hal_tim_ex.c ****       status = HAL_ERROR;
 2008              		.loc 1 763 14
 2009 00fe 0123     		movs	r3, #1
 2010 0100 FB73     		strb	r3, [r7, #15]
 764:Drivers/STM32H7xx_HAL_Driver/Src/stm32h7xx_hal_tim_ex.c ****       break;
 2011              		.loc 1 764 7
 2012 0102 00BF     		nop
 2013              	.L115:
 765:Drivers/STM32H7xx_HAL_Driver/Src/stm32h7xx_hal_tim_ex.c ****   }
 766:Drivers/STM32H7xx_HAL_Driver/Src/stm32h7xx_hal_tim_ex.c **** 
 767:Drivers/STM32H7xx_HAL_Driver/Src/stm32h7xx_hal_tim_ex.c ****   if (status == HAL_OK)
 2014              		.loc 1 767 6
 2015 0104 FB7B     		ldrb	r3, [r7, #15]	@ zero_extendqisi2
 2016 0106 002B     		cmp	r3, #0
 2017 0108 5ED1     		bne	.L116
 768:Drivers/STM32H7xx_HAL_Driver/Src/stm32h7xx_hal_tim_ex.c ****   {
 769:Drivers/STM32H7xx_HAL_Driver/Src/stm32h7xx_hal_tim_ex.c ****     /* Enable the TIM Break interrupt */
 770:Drivers/STM32H7xx_HAL_Driver/Src/stm32h7xx_hal_tim_ex.c ****     __HAL_TIM_ENABLE_IT(htim, TIM_IT_BREAK);
 2018              		.loc 1 770 5
 2019 010a 7B68     		ldr	r3, [r7, #4]
 2020 010c 1B68     		ldr	r3, [r3]
 2021 010e DA68     		ldr	r2, [r3, #12]
 2022 0110 7B68     		ldr	r3, [r7, #4]
 2023 0112 1B68     		ldr	r3, [r3]
 2024 0114 42F08002 		orr	r2, r2, #128
 2025 0118 DA60     		str	r2, [r3, #12]
 771:Drivers/STM32H7xx_HAL_Driver/Src/stm32h7xx_hal_tim_ex.c **** 
 772:Drivers/STM32H7xx_HAL_Driver/Src/stm32h7xx_hal_tim_ex.c ****     /* Enable the Capture compare channel N */
 773:Drivers/STM32H7xx_HAL_Driver/Src/stm32h7xx_hal_tim_ex.c ****     TIM_CCxNChannelCmd(htim->Instance, Channel, TIM_CCxN_ENABLE);
 2026              		.loc 1 773 5
 2027 011a 7B68     		ldr	r3, [r7, #4]
 2028 011c 1B68     		ldr	r3, [r3]
 2029 011e 0422     		movs	r2, #4
 2030 0120 3968     		ldr	r1, [r7]
 2031 0122 1846     		mov	r0, r3
 2032 0124 FFF7FEFF 		bl	TIM_CCxNChannelCmd
 774:Drivers/STM32H7xx_HAL_Driver/Src/stm32h7xx_hal_tim_ex.c **** 
 775:Drivers/STM32H7xx_HAL_Driver/Src/stm32h7xx_hal_tim_ex.c ****     /* Enable the Main Output */
 776:Drivers/STM32H7xx_HAL_Driver/Src/stm32h7xx_hal_tim_ex.c ****     __HAL_TIM_MOE_ENABLE(htim);
ARM GAS  /var/folders/d0/cymppscj10lcmm48h781wrc80000gn/T//ccIjALm5.s 			page 50


 2033              		.loc 1 776 5
 2034 0128 7B68     		ldr	r3, [r7, #4]
 2035 012a 1B68     		ldr	r3, [r3]
 2036 012c 5A6C     		ldr	r2, [r3, #68]
 2037 012e 7B68     		ldr	r3, [r7, #4]
 2038 0130 1B68     		ldr	r3, [r3]
 2039 0132 42F40042 		orr	r2, r2, #32768
 2040 0136 5A64     		str	r2, [r3, #68]
 777:Drivers/STM32H7xx_HAL_Driver/Src/stm32h7xx_hal_tim_ex.c **** 
 778:Drivers/STM32H7xx_HAL_Driver/Src/stm32h7xx_hal_tim_ex.c ****     /* Enable the Peripheral, except in trigger mode where enable is automatically done with trigge
 779:Drivers/STM32H7xx_HAL_Driver/Src/stm32h7xx_hal_tim_ex.c ****     if (IS_TIM_SLAVE_INSTANCE(htim->Instance))
 2041              		.loc 1 779 9
 2042 0138 7B68     		ldr	r3, [r7, #4]
 2043 013a 1B68     		ldr	r3, [r3]
 2044              		.loc 1 779 8
 2045 013c 254A     		ldr	r2, .L121
 2046 013e 9342     		cmp	r3, r2
 2047 0140 22D0     		beq	.L117
 2048              		.loc 1 779 9 discriminator 1
 2049 0142 7B68     		ldr	r3, [r7, #4]
 2050 0144 1B68     		ldr	r3, [r3]
 2051 0146 B3F1804F 		cmp	r3, #1073741824
 2052 014a 1DD0     		beq	.L117
 2053              		.loc 1 779 9 is_stmt 0 discriminator 2
 2054 014c 7B68     		ldr	r3, [r7, #4]
 2055 014e 1B68     		ldr	r3, [r3]
 2056 0150 214A     		ldr	r2, .L121+4
 2057 0152 9342     		cmp	r3, r2
 2058 0154 18D0     		beq	.L117
 2059              		.loc 1 779 9 discriminator 3
 2060 0156 7B68     		ldr	r3, [r7, #4]
 2061 0158 1B68     		ldr	r3, [r3]
 2062 015a 204A     		ldr	r2, .L121+8
 2063 015c 9342     		cmp	r3, r2
 2064 015e 13D0     		beq	.L117
 2065              		.loc 1 779 9 discriminator 4
 2066 0160 7B68     		ldr	r3, [r7, #4]
 2067 0162 1B68     		ldr	r3, [r3]
 2068 0164 1E4A     		ldr	r2, .L121+12
 2069 0166 9342     		cmp	r3, r2
 2070 0168 0ED0     		beq	.L117
 2071              		.loc 1 779 9 discriminator 5
 2072 016a 7B68     		ldr	r3, [r7, #4]
 2073 016c 1B68     		ldr	r3, [r3]
 2074 016e 1D4A     		ldr	r2, .L121+16
 2075 0170 9342     		cmp	r3, r2
 2076 0172 09D0     		beq	.L117
 2077              		.loc 1 779 9 discriminator 6
 2078 0174 7B68     		ldr	r3, [r7, #4]
 2079 0176 1B68     		ldr	r3, [r3]
 2080 0178 1B4A     		ldr	r2, .L121+20
 2081 017a 9342     		cmp	r3, r2
 2082 017c 04D0     		beq	.L117
 2083              		.loc 1 779 9 discriminator 7
 2084 017e 7B68     		ldr	r3, [r7, #4]
 2085 0180 1B68     		ldr	r3, [r3]
 2086 0182 1A4A     		ldr	r2, .L121+24
ARM GAS  /var/folders/d0/cymppscj10lcmm48h781wrc80000gn/T//ccIjALm5.s 			page 51


 2087 0184 9342     		cmp	r3, r2
 2088 0186 15D1     		bne	.L118
 2089              	.L117:
 780:Drivers/STM32H7xx_HAL_Driver/Src/stm32h7xx_hal_tim_ex.c ****     {
 781:Drivers/STM32H7xx_HAL_Driver/Src/stm32h7xx_hal_tim_ex.c ****       tmpsmcr = htim->Instance->SMCR & TIM_SMCR_SMS;
 2090              		.loc 1 781 21 is_stmt 1
 2091 0188 7B68     		ldr	r3, [r7, #4]
 2092 018a 1B68     		ldr	r3, [r3]
 2093              		.loc 1 781 31
 2094 018c 9A68     		ldr	r2, [r3, #8]
 2095              		.loc 1 781 15
 2096 018e 184B     		ldr	r3, .L121+28
 2097 0190 1340     		ands	r3, r3, r2
 2098 0192 BB60     		str	r3, [r7, #8]
 782:Drivers/STM32H7xx_HAL_Driver/Src/stm32h7xx_hal_tim_ex.c ****       if (!IS_TIM_SLAVEMODE_TRIGGER_ENABLED(tmpsmcr))
 2099              		.loc 1 782 10
 2100 0194 BB68     		ldr	r3, [r7, #8]
 2101 0196 062B     		cmp	r3, #6
 2102 0198 15D0     		beq	.L120
 2103              		.loc 1 782 11 discriminator 1
 2104 019a BB68     		ldr	r3, [r7, #8]
 2105 019c B3F5803F 		cmp	r3, #65536
 2106 01a0 11D0     		beq	.L120
 783:Drivers/STM32H7xx_HAL_Driver/Src/stm32h7xx_hal_tim_ex.c ****       {
 784:Drivers/STM32H7xx_HAL_Driver/Src/stm32h7xx_hal_tim_ex.c ****         __HAL_TIM_ENABLE(htim);
 2107              		.loc 1 784 9
 2108 01a2 7B68     		ldr	r3, [r7, #4]
 2109 01a4 1B68     		ldr	r3, [r3]
 2110 01a6 1A68     		ldr	r2, [r3]
 2111 01a8 7B68     		ldr	r3, [r7, #4]
 2112 01aa 1B68     		ldr	r3, [r3]
 2113 01ac 42F00102 		orr	r2, r2, #1
 2114 01b0 1A60     		str	r2, [r3]
 782:Drivers/STM32H7xx_HAL_Driver/Src/stm32h7xx_hal_tim_ex.c ****       if (!IS_TIM_SLAVEMODE_TRIGGER_ENABLED(tmpsmcr))
 2115              		.loc 1 782 10
 2116 01b2 08E0     		b	.L120
 2117              	.L118:
 785:Drivers/STM32H7xx_HAL_Driver/Src/stm32h7xx_hal_tim_ex.c ****       }
 786:Drivers/STM32H7xx_HAL_Driver/Src/stm32h7xx_hal_tim_ex.c ****     }
 787:Drivers/STM32H7xx_HAL_Driver/Src/stm32h7xx_hal_tim_ex.c ****     else
 788:Drivers/STM32H7xx_HAL_Driver/Src/stm32h7xx_hal_tim_ex.c ****     {
 789:Drivers/STM32H7xx_HAL_Driver/Src/stm32h7xx_hal_tim_ex.c ****       __HAL_TIM_ENABLE(htim);
 2118              		.loc 1 789 7
 2119 01b4 7B68     		ldr	r3, [r7, #4]
 2120 01b6 1B68     		ldr	r3, [r3]
 2121 01b8 1A68     		ldr	r2, [r3]
 2122 01ba 7B68     		ldr	r3, [r7, #4]
 2123 01bc 1B68     		ldr	r3, [r3]
 2124 01be 42F00102 		orr	r2, r2, #1
 2125 01c2 1A60     		str	r2, [r3]
 2126 01c4 00E0     		b	.L116
 2127              	.L120:
 782:Drivers/STM32H7xx_HAL_Driver/Src/stm32h7xx_hal_tim_ex.c ****       {
 2128              		.loc 1 782 10
 2129 01c6 00BF     		nop
 2130              	.L116:
 790:Drivers/STM32H7xx_HAL_Driver/Src/stm32h7xx_hal_tim_ex.c ****     }
ARM GAS  /var/folders/d0/cymppscj10lcmm48h781wrc80000gn/T//ccIjALm5.s 			page 52


 791:Drivers/STM32H7xx_HAL_Driver/Src/stm32h7xx_hal_tim_ex.c ****   }
 792:Drivers/STM32H7xx_HAL_Driver/Src/stm32h7xx_hal_tim_ex.c **** 
 793:Drivers/STM32H7xx_HAL_Driver/Src/stm32h7xx_hal_tim_ex.c ****   /* Return function status */
 794:Drivers/STM32H7xx_HAL_Driver/Src/stm32h7xx_hal_tim_ex.c ****   return status;
 2131              		.loc 1 794 10
 2132 01c8 FB7B     		ldrb	r3, [r7, #15]	@ zero_extendqisi2
 2133              	.L104:
 795:Drivers/STM32H7xx_HAL_Driver/Src/stm32h7xx_hal_tim_ex.c **** }
 2134              		.loc 1 795 1
 2135 01ca 1846     		mov	r0, r3
 2136 01cc 1037     		adds	r7, r7, #16
 2137              	.LCFI65:
 2138              		.cfi_def_cfa_offset 8
 2139 01ce BD46     		mov	sp, r7
 2140              	.LCFI66:
 2141              		.cfi_def_cfa_register 13
 2142              		@ sp needed
 2143 01d0 80BD     		pop	{r7, pc}
 2144              	.L122:
 2145 01d2 00BF     		.align	2
 2146              	.L121:
 2147 01d4 00000140 		.word	1073807360
 2148 01d8 00040040 		.word	1073742848
 2149 01dc 00080040 		.word	1073743872
 2150 01e0 000C0040 		.word	1073744896
 2151 01e4 00040140 		.word	1073808384
 2152 01e8 00180040 		.word	1073747968
 2153 01ec 00400140 		.word	1073823744
 2154 01f0 07000100 		.word	65543
 2155              		.cfi_endproc
 2156              	.LFE345:
 2158              		.section	.text.HAL_TIMEx_OCN_Stop_IT,"ax",%progbits
 2159              		.align	1
 2160              		.global	HAL_TIMEx_OCN_Stop_IT
 2161              		.syntax unified
 2162              		.thumb
 2163              		.thumb_func
 2165              	HAL_TIMEx_OCN_Stop_IT:
 2166              	.LFB346:
 796:Drivers/STM32H7xx_HAL_Driver/Src/stm32h7xx_hal_tim_ex.c **** 
 797:Drivers/STM32H7xx_HAL_Driver/Src/stm32h7xx_hal_tim_ex.c **** /**
 798:Drivers/STM32H7xx_HAL_Driver/Src/stm32h7xx_hal_tim_ex.c ****   * @brief  Stops the TIM Output Compare signal generation in interrupt mode
 799:Drivers/STM32H7xx_HAL_Driver/Src/stm32h7xx_hal_tim_ex.c ****   *         on the complementary output.
 800:Drivers/STM32H7xx_HAL_Driver/Src/stm32h7xx_hal_tim_ex.c ****   * @param  htim TIM Output Compare handle
 801:Drivers/STM32H7xx_HAL_Driver/Src/stm32h7xx_hal_tim_ex.c ****   * @param  Channel TIM Channel to be disabled
 802:Drivers/STM32H7xx_HAL_Driver/Src/stm32h7xx_hal_tim_ex.c ****   *          This parameter can be one of the following values:
 803:Drivers/STM32H7xx_HAL_Driver/Src/stm32h7xx_hal_tim_ex.c ****   *            @arg TIM_CHANNEL_1: TIM Channel 1 selected
 804:Drivers/STM32H7xx_HAL_Driver/Src/stm32h7xx_hal_tim_ex.c ****   *            @arg TIM_CHANNEL_2: TIM Channel 2 selected
 805:Drivers/STM32H7xx_HAL_Driver/Src/stm32h7xx_hal_tim_ex.c ****   *            @arg TIM_CHANNEL_3: TIM Channel 3 selected
 806:Drivers/STM32H7xx_HAL_Driver/Src/stm32h7xx_hal_tim_ex.c ****   * @retval HAL status
 807:Drivers/STM32H7xx_HAL_Driver/Src/stm32h7xx_hal_tim_ex.c ****   */
 808:Drivers/STM32H7xx_HAL_Driver/Src/stm32h7xx_hal_tim_ex.c **** HAL_StatusTypeDef HAL_TIMEx_OCN_Stop_IT(TIM_HandleTypeDef *htim, uint32_t Channel)
 809:Drivers/STM32H7xx_HAL_Driver/Src/stm32h7xx_hal_tim_ex.c **** {
 2167              		.loc 1 809 1
 2168              		.cfi_startproc
 2169              		@ args = 0, pretend = 0, frame = 16
 2170              		@ frame_needed = 1, uses_anonymous_args = 0
ARM GAS  /var/folders/d0/cymppscj10lcmm48h781wrc80000gn/T//ccIjALm5.s 			page 53


 2171 0000 80B5     		push	{r7, lr}
 2172              	.LCFI67:
 2173              		.cfi_def_cfa_offset 8
 2174              		.cfi_offset 7, -8
 2175              		.cfi_offset 14, -4
 2176 0002 84B0     		sub	sp, sp, #16
 2177              	.LCFI68:
 2178              		.cfi_def_cfa_offset 24
 2179 0004 00AF     		add	r7, sp, #0
 2180              	.LCFI69:
 2181              		.cfi_def_cfa_register 7
 2182 0006 7860     		str	r0, [r7, #4]
 2183 0008 3960     		str	r1, [r7]
 810:Drivers/STM32H7xx_HAL_Driver/Src/stm32h7xx_hal_tim_ex.c ****   HAL_StatusTypeDef status = HAL_OK;
 2184              		.loc 1 810 21
 2185 000a 0023     		movs	r3, #0
 2186 000c FB73     		strb	r3, [r7, #15]
 811:Drivers/STM32H7xx_HAL_Driver/Src/stm32h7xx_hal_tim_ex.c ****   uint32_t tmpccer;
 812:Drivers/STM32H7xx_HAL_Driver/Src/stm32h7xx_hal_tim_ex.c **** 
 813:Drivers/STM32H7xx_HAL_Driver/Src/stm32h7xx_hal_tim_ex.c ****   /* Check the parameters */
 814:Drivers/STM32H7xx_HAL_Driver/Src/stm32h7xx_hal_tim_ex.c ****   assert_param(IS_TIM_CCXN_INSTANCE(htim->Instance, Channel));
 815:Drivers/STM32H7xx_HAL_Driver/Src/stm32h7xx_hal_tim_ex.c **** 
 816:Drivers/STM32H7xx_HAL_Driver/Src/stm32h7xx_hal_tim_ex.c ****   switch (Channel)
 2187              		.loc 1 816 3
 2188 000e 3B68     		ldr	r3, [r7]
 2189 0010 082B     		cmp	r3, #8
 2190 0012 1BD0     		beq	.L124
 2191 0014 3B68     		ldr	r3, [r7]
 2192 0016 082B     		cmp	r3, #8
 2193 0018 21D8     		bhi	.L125
 2194 001a 3B68     		ldr	r3, [r7]
 2195 001c 002B     		cmp	r3, #0
 2196 001e 03D0     		beq	.L126
 2197 0020 3B68     		ldr	r3, [r7]
 2198 0022 042B     		cmp	r3, #4
 2199 0024 09D0     		beq	.L127
 2200 0026 1AE0     		b	.L125
 2201              	.L126:
 817:Drivers/STM32H7xx_HAL_Driver/Src/stm32h7xx_hal_tim_ex.c ****   {
 818:Drivers/STM32H7xx_HAL_Driver/Src/stm32h7xx_hal_tim_ex.c ****     case TIM_CHANNEL_1:
 819:Drivers/STM32H7xx_HAL_Driver/Src/stm32h7xx_hal_tim_ex.c ****     {
 820:Drivers/STM32H7xx_HAL_Driver/Src/stm32h7xx_hal_tim_ex.c ****       /* Disable the TIM Output Compare interrupt */
 821:Drivers/STM32H7xx_HAL_Driver/Src/stm32h7xx_hal_tim_ex.c ****       __HAL_TIM_DISABLE_IT(htim, TIM_IT_CC1);
 2202              		.loc 1 821 7
 2203 0028 7B68     		ldr	r3, [r7, #4]
 2204 002a 1B68     		ldr	r3, [r3]
 2205 002c DA68     		ldr	r2, [r3, #12]
 2206 002e 7B68     		ldr	r3, [r7, #4]
 2207 0030 1B68     		ldr	r3, [r3]
 2208 0032 22F00202 		bic	r2, r2, #2
 2209 0036 DA60     		str	r2, [r3, #12]
 822:Drivers/STM32H7xx_HAL_Driver/Src/stm32h7xx_hal_tim_ex.c ****       break;
 2210              		.loc 1 822 7
 2211 0038 14E0     		b	.L128
 2212              	.L127:
 823:Drivers/STM32H7xx_HAL_Driver/Src/stm32h7xx_hal_tim_ex.c ****     }
 824:Drivers/STM32H7xx_HAL_Driver/Src/stm32h7xx_hal_tim_ex.c **** 
ARM GAS  /var/folders/d0/cymppscj10lcmm48h781wrc80000gn/T//ccIjALm5.s 			page 54


 825:Drivers/STM32H7xx_HAL_Driver/Src/stm32h7xx_hal_tim_ex.c ****     case TIM_CHANNEL_2:
 826:Drivers/STM32H7xx_HAL_Driver/Src/stm32h7xx_hal_tim_ex.c ****     {
 827:Drivers/STM32H7xx_HAL_Driver/Src/stm32h7xx_hal_tim_ex.c ****       /* Disable the TIM Output Compare interrupt */
 828:Drivers/STM32H7xx_HAL_Driver/Src/stm32h7xx_hal_tim_ex.c ****       __HAL_TIM_DISABLE_IT(htim, TIM_IT_CC2);
 2213              		.loc 1 828 7
 2214 003a 7B68     		ldr	r3, [r7, #4]
 2215 003c 1B68     		ldr	r3, [r3]
 2216 003e DA68     		ldr	r2, [r3, #12]
 2217 0040 7B68     		ldr	r3, [r7, #4]
 2218 0042 1B68     		ldr	r3, [r3]
 2219 0044 22F00402 		bic	r2, r2, #4
 2220 0048 DA60     		str	r2, [r3, #12]
 829:Drivers/STM32H7xx_HAL_Driver/Src/stm32h7xx_hal_tim_ex.c ****       break;
 2221              		.loc 1 829 7
 2222 004a 0BE0     		b	.L128
 2223              	.L124:
 830:Drivers/STM32H7xx_HAL_Driver/Src/stm32h7xx_hal_tim_ex.c ****     }
 831:Drivers/STM32H7xx_HAL_Driver/Src/stm32h7xx_hal_tim_ex.c **** 
 832:Drivers/STM32H7xx_HAL_Driver/Src/stm32h7xx_hal_tim_ex.c ****     case TIM_CHANNEL_3:
 833:Drivers/STM32H7xx_HAL_Driver/Src/stm32h7xx_hal_tim_ex.c ****     {
 834:Drivers/STM32H7xx_HAL_Driver/Src/stm32h7xx_hal_tim_ex.c ****       /* Disable the TIM Output Compare interrupt */
 835:Drivers/STM32H7xx_HAL_Driver/Src/stm32h7xx_hal_tim_ex.c ****       __HAL_TIM_DISABLE_IT(htim, TIM_IT_CC3);
 2224              		.loc 1 835 7
 2225 004c 7B68     		ldr	r3, [r7, #4]
 2226 004e 1B68     		ldr	r3, [r3]
 2227 0050 DA68     		ldr	r2, [r3, #12]
 2228 0052 7B68     		ldr	r3, [r7, #4]
 2229 0054 1B68     		ldr	r3, [r3]
 2230 0056 22F00802 		bic	r2, r2, #8
 2231 005a DA60     		str	r2, [r3, #12]
 836:Drivers/STM32H7xx_HAL_Driver/Src/stm32h7xx_hal_tim_ex.c ****       break;
 2232              		.loc 1 836 7
 2233 005c 02E0     		b	.L128
 2234              	.L125:
 837:Drivers/STM32H7xx_HAL_Driver/Src/stm32h7xx_hal_tim_ex.c ****     }
 838:Drivers/STM32H7xx_HAL_Driver/Src/stm32h7xx_hal_tim_ex.c **** 
 839:Drivers/STM32H7xx_HAL_Driver/Src/stm32h7xx_hal_tim_ex.c ****     default:
 840:Drivers/STM32H7xx_HAL_Driver/Src/stm32h7xx_hal_tim_ex.c ****       status = HAL_ERROR;
 2235              		.loc 1 840 14
 2236 005e 0123     		movs	r3, #1
 2237 0060 FB73     		strb	r3, [r7, #15]
 841:Drivers/STM32H7xx_HAL_Driver/Src/stm32h7xx_hal_tim_ex.c ****       break;
 2238              		.loc 1 841 7
 2239 0062 00BF     		nop
 2240              	.L128:
 842:Drivers/STM32H7xx_HAL_Driver/Src/stm32h7xx_hal_tim_ex.c ****   }
 843:Drivers/STM32H7xx_HAL_Driver/Src/stm32h7xx_hal_tim_ex.c **** 
 844:Drivers/STM32H7xx_HAL_Driver/Src/stm32h7xx_hal_tim_ex.c ****   if (status == HAL_OK)
 2241              		.loc 1 844 6
 2242 0064 FB7B     		ldrb	r3, [r7, #15]	@ zero_extendqisi2
 2243 0066 002B     		cmp	r3, #0
 2244 0068 64D1     		bne	.L129
 845:Drivers/STM32H7xx_HAL_Driver/Src/stm32h7xx_hal_tim_ex.c ****   {
 846:Drivers/STM32H7xx_HAL_Driver/Src/stm32h7xx_hal_tim_ex.c ****     /* Disable the Capture compare channel N */
 847:Drivers/STM32H7xx_HAL_Driver/Src/stm32h7xx_hal_tim_ex.c ****     TIM_CCxNChannelCmd(htim->Instance, Channel, TIM_CCxN_DISABLE);
 2245              		.loc 1 847 5
 2246 006a 7B68     		ldr	r3, [r7, #4]
ARM GAS  /var/folders/d0/cymppscj10lcmm48h781wrc80000gn/T//ccIjALm5.s 			page 55


 2247 006c 1B68     		ldr	r3, [r3]
 2248 006e 0022     		movs	r2, #0
 2249 0070 3968     		ldr	r1, [r7]
 2250 0072 1846     		mov	r0, r3
 2251 0074 FFF7FEFF 		bl	TIM_CCxNChannelCmd
 848:Drivers/STM32H7xx_HAL_Driver/Src/stm32h7xx_hal_tim_ex.c **** 
 849:Drivers/STM32H7xx_HAL_Driver/Src/stm32h7xx_hal_tim_ex.c ****     /* Disable the TIM Break interrupt (only if no more channel is active) */
 850:Drivers/STM32H7xx_HAL_Driver/Src/stm32h7xx_hal_tim_ex.c ****     tmpccer = htim->Instance->CCER;
 2252              		.loc 1 850 19
 2253 0078 7B68     		ldr	r3, [r7, #4]
 2254 007a 1B68     		ldr	r3, [r3]
 2255              		.loc 1 850 13
 2256 007c 1B6A     		ldr	r3, [r3, #32]
 2257 007e BB60     		str	r3, [r7, #8]
 851:Drivers/STM32H7xx_HAL_Driver/Src/stm32h7xx_hal_tim_ex.c ****     if ((tmpccer & (TIM_CCER_CC1NE | TIM_CCER_CC2NE | TIM_CCER_CC3NE)) == (uint32_t)RESET)
 2258              		.loc 1 851 18
 2259 0080 BA68     		ldr	r2, [r7, #8]
 2260 0082 40F24443 		movw	r3, #1092
 2261 0086 1340     		ands	r3, r3, r2
 2262              		.loc 1 851 8
 2263 0088 002B     		cmp	r3, #0
 2264 008a 07D1     		bne	.L130
 852:Drivers/STM32H7xx_HAL_Driver/Src/stm32h7xx_hal_tim_ex.c ****     {
 853:Drivers/STM32H7xx_HAL_Driver/Src/stm32h7xx_hal_tim_ex.c ****       __HAL_TIM_DISABLE_IT(htim, TIM_IT_BREAK);
 2265              		.loc 1 853 7
 2266 008c 7B68     		ldr	r3, [r7, #4]
 2267 008e 1B68     		ldr	r3, [r3]
 2268 0090 DA68     		ldr	r2, [r3, #12]
 2269 0092 7B68     		ldr	r3, [r7, #4]
 2270 0094 1B68     		ldr	r3, [r3]
 2271 0096 22F08002 		bic	r2, r2, #128
 2272 009a DA60     		str	r2, [r3, #12]
 2273              	.L130:
 854:Drivers/STM32H7xx_HAL_Driver/Src/stm32h7xx_hal_tim_ex.c ****     }
 855:Drivers/STM32H7xx_HAL_Driver/Src/stm32h7xx_hal_tim_ex.c **** 
 856:Drivers/STM32H7xx_HAL_Driver/Src/stm32h7xx_hal_tim_ex.c ****     /* Disable the Main Output */
 857:Drivers/STM32H7xx_HAL_Driver/Src/stm32h7xx_hal_tim_ex.c ****     __HAL_TIM_MOE_DISABLE(htim);
 2274              		.loc 1 857 5
 2275 009c 7B68     		ldr	r3, [r7, #4]
 2276 009e 1B68     		ldr	r3, [r3]
 2277 00a0 1A6A     		ldr	r2, [r3, #32]
 2278 00a2 41F21113 		movw	r3, #4369
 2279 00a6 1340     		ands	r3, r3, r2
 2280 00a8 002B     		cmp	r3, #0
 2281 00aa 0FD1     		bne	.L131
 2282              		.loc 1 857 5 is_stmt 0 discriminator 1
 2283 00ac 7B68     		ldr	r3, [r7, #4]
 2284 00ae 1B68     		ldr	r3, [r3]
 2285 00b0 1A6A     		ldr	r2, [r3, #32]
 2286 00b2 40F24443 		movw	r3, #1092
 2287 00b6 1340     		ands	r3, r3, r2
 2288 00b8 002B     		cmp	r3, #0
 2289 00ba 07D1     		bne	.L131
 2290              		.loc 1 857 5 discriminator 2
 2291 00bc 7B68     		ldr	r3, [r7, #4]
 2292 00be 1B68     		ldr	r3, [r3]
 2293 00c0 5A6C     		ldr	r2, [r3, #68]
ARM GAS  /var/folders/d0/cymppscj10lcmm48h781wrc80000gn/T//ccIjALm5.s 			page 56


 2294 00c2 7B68     		ldr	r3, [r7, #4]
 2295 00c4 1B68     		ldr	r3, [r3]
 2296 00c6 22F40042 		bic	r2, r2, #32768
 2297 00ca 5A64     		str	r2, [r3, #68]
 2298              	.L131:
 858:Drivers/STM32H7xx_HAL_Driver/Src/stm32h7xx_hal_tim_ex.c **** 
 859:Drivers/STM32H7xx_HAL_Driver/Src/stm32h7xx_hal_tim_ex.c ****     /* Disable the Peripheral */
 860:Drivers/STM32H7xx_HAL_Driver/Src/stm32h7xx_hal_tim_ex.c ****     __HAL_TIM_DISABLE(htim);
 2299              		.loc 1 860 5 is_stmt 1
 2300 00cc 7B68     		ldr	r3, [r7, #4]
 2301 00ce 1B68     		ldr	r3, [r3]
 2302 00d0 1A6A     		ldr	r2, [r3, #32]
 2303 00d2 41F21113 		movw	r3, #4369
 2304 00d6 1340     		ands	r3, r3, r2
 2305 00d8 002B     		cmp	r3, #0
 2306 00da 0FD1     		bne	.L132
 2307              		.loc 1 860 5 is_stmt 0 discriminator 1
 2308 00dc 7B68     		ldr	r3, [r7, #4]
 2309 00de 1B68     		ldr	r3, [r3]
 2310 00e0 1A6A     		ldr	r2, [r3, #32]
 2311 00e2 40F24443 		movw	r3, #1092
 2312 00e6 1340     		ands	r3, r3, r2
 2313 00e8 002B     		cmp	r3, #0
 2314 00ea 07D1     		bne	.L132
 2315              		.loc 1 860 5 discriminator 2
 2316 00ec 7B68     		ldr	r3, [r7, #4]
 2317 00ee 1B68     		ldr	r3, [r3]
 2318 00f0 1A68     		ldr	r2, [r3]
 2319 00f2 7B68     		ldr	r3, [r7, #4]
 2320 00f4 1B68     		ldr	r3, [r3]
 2321 00f6 22F00102 		bic	r2, r2, #1
 2322 00fa 1A60     		str	r2, [r3]
 2323              	.L132:
 861:Drivers/STM32H7xx_HAL_Driver/Src/stm32h7xx_hal_tim_ex.c **** 
 862:Drivers/STM32H7xx_HAL_Driver/Src/stm32h7xx_hal_tim_ex.c ****     /* Set the TIM complementary channel state */
 863:Drivers/STM32H7xx_HAL_Driver/Src/stm32h7xx_hal_tim_ex.c ****     TIM_CHANNEL_N_STATE_SET(htim, Channel, HAL_TIM_CHANNEL_STATE_READY);
 2324              		.loc 1 863 5 is_stmt 1
 2325 00fc 3B68     		ldr	r3, [r7]
 2326 00fe 002B     		cmp	r3, #0
 2327 0100 04D1     		bne	.L133
 2328              		.loc 1 863 5 is_stmt 0 discriminator 1
 2329 0102 7B68     		ldr	r3, [r7, #4]
 2330 0104 0122     		movs	r2, #1
 2331 0106 83F84420 		strb	r2, [r3, #68]
 2332 010a 13E0     		b	.L129
 2333              	.L133:
 2334              		.loc 1 863 5 discriminator 2
 2335 010c 3B68     		ldr	r3, [r7]
 2336 010e 042B     		cmp	r3, #4
 2337 0110 04D1     		bne	.L134
 2338              		.loc 1 863 5 discriminator 3
 2339 0112 7B68     		ldr	r3, [r7, #4]
 2340 0114 0122     		movs	r2, #1
 2341 0116 83F84520 		strb	r2, [r3, #69]
 2342 011a 0BE0     		b	.L129
 2343              	.L134:
 2344              		.loc 1 863 5 discriminator 4
ARM GAS  /var/folders/d0/cymppscj10lcmm48h781wrc80000gn/T//ccIjALm5.s 			page 57


 2345 011c 3B68     		ldr	r3, [r7]
 2346 011e 082B     		cmp	r3, #8
 2347 0120 04D1     		bne	.L136
 2348              		.loc 1 863 5 discriminator 6
 2349 0122 7B68     		ldr	r3, [r7, #4]
 2350 0124 0122     		movs	r2, #1
 2351 0126 83F84620 		strb	r2, [r3, #70]
 2352 012a 03E0     		b	.L129
 2353              	.L136:
 2354              		.loc 1 863 5 discriminator 7
 2355 012c 7B68     		ldr	r3, [r7, #4]
 2356 012e 0122     		movs	r2, #1
 2357 0130 83F84720 		strb	r2, [r3, #71]
 2358              	.L129:
 864:Drivers/STM32H7xx_HAL_Driver/Src/stm32h7xx_hal_tim_ex.c ****   }
 865:Drivers/STM32H7xx_HAL_Driver/Src/stm32h7xx_hal_tim_ex.c **** 
 866:Drivers/STM32H7xx_HAL_Driver/Src/stm32h7xx_hal_tim_ex.c ****   /* Return function status */
 867:Drivers/STM32H7xx_HAL_Driver/Src/stm32h7xx_hal_tim_ex.c ****   return status;
 2359              		.loc 1 867 10 is_stmt 1
 2360 0134 FB7B     		ldrb	r3, [r7, #15]	@ zero_extendqisi2
 868:Drivers/STM32H7xx_HAL_Driver/Src/stm32h7xx_hal_tim_ex.c **** }
 2361              		.loc 1 868 1
 2362 0136 1846     		mov	r0, r3
 2363 0138 1037     		adds	r7, r7, #16
 2364              	.LCFI70:
 2365              		.cfi_def_cfa_offset 8
 2366 013a BD46     		mov	sp, r7
 2367              	.LCFI71:
 2368              		.cfi_def_cfa_register 13
 2369              		@ sp needed
 2370 013c 80BD     		pop	{r7, pc}
 2371              		.cfi_endproc
 2372              	.LFE346:
 2374              		.section	.text.HAL_TIMEx_OCN_Start_DMA,"ax",%progbits
 2375              		.align	1
 2376              		.global	HAL_TIMEx_OCN_Start_DMA
 2377              		.syntax unified
 2378              		.thumb
 2379              		.thumb_func
 2381              	HAL_TIMEx_OCN_Start_DMA:
 2382              	.LFB347:
 869:Drivers/STM32H7xx_HAL_Driver/Src/stm32h7xx_hal_tim_ex.c **** 
 870:Drivers/STM32H7xx_HAL_Driver/Src/stm32h7xx_hal_tim_ex.c **** /**
 871:Drivers/STM32H7xx_HAL_Driver/Src/stm32h7xx_hal_tim_ex.c ****   * @brief  Starts the TIM Output Compare signal generation in DMA mode
 872:Drivers/STM32H7xx_HAL_Driver/Src/stm32h7xx_hal_tim_ex.c ****   *         on the complementary output.
 873:Drivers/STM32H7xx_HAL_Driver/Src/stm32h7xx_hal_tim_ex.c ****   * @param  htim TIM Output Compare handle
 874:Drivers/STM32H7xx_HAL_Driver/Src/stm32h7xx_hal_tim_ex.c ****   * @param  Channel TIM Channel to be enabled
 875:Drivers/STM32H7xx_HAL_Driver/Src/stm32h7xx_hal_tim_ex.c ****   *          This parameter can be one of the following values:
 876:Drivers/STM32H7xx_HAL_Driver/Src/stm32h7xx_hal_tim_ex.c ****   *            @arg TIM_CHANNEL_1: TIM Channel 1 selected
 877:Drivers/STM32H7xx_HAL_Driver/Src/stm32h7xx_hal_tim_ex.c ****   *            @arg TIM_CHANNEL_2: TIM Channel 2 selected
 878:Drivers/STM32H7xx_HAL_Driver/Src/stm32h7xx_hal_tim_ex.c ****   *            @arg TIM_CHANNEL_3: TIM Channel 3 selected
 879:Drivers/STM32H7xx_HAL_Driver/Src/stm32h7xx_hal_tim_ex.c ****   * @param  pData The source Buffer address.
 880:Drivers/STM32H7xx_HAL_Driver/Src/stm32h7xx_hal_tim_ex.c ****   * @param  Length The length of data to be transferred from memory to TIM peripheral
 881:Drivers/STM32H7xx_HAL_Driver/Src/stm32h7xx_hal_tim_ex.c ****   * @retval HAL status
 882:Drivers/STM32H7xx_HAL_Driver/Src/stm32h7xx_hal_tim_ex.c ****   */
 883:Drivers/STM32H7xx_HAL_Driver/Src/stm32h7xx_hal_tim_ex.c **** HAL_StatusTypeDef HAL_TIMEx_OCN_Start_DMA(TIM_HandleTypeDef *htim, uint32_t Channel, uint32_t *pDat
 884:Drivers/STM32H7xx_HAL_Driver/Src/stm32h7xx_hal_tim_ex.c **** {
ARM GAS  /var/folders/d0/cymppscj10lcmm48h781wrc80000gn/T//ccIjALm5.s 			page 58


 2383              		.loc 1 884 1
 2384              		.cfi_startproc
 2385              		@ args = 0, pretend = 0, frame = 24
 2386              		@ frame_needed = 1, uses_anonymous_args = 0
 2387 0000 80B5     		push	{r7, lr}
 2388              	.LCFI72:
 2389              		.cfi_def_cfa_offset 8
 2390              		.cfi_offset 7, -8
 2391              		.cfi_offset 14, -4
 2392 0002 86B0     		sub	sp, sp, #24
 2393              	.LCFI73:
 2394              		.cfi_def_cfa_offset 32
 2395 0004 00AF     		add	r7, sp, #0
 2396              	.LCFI74:
 2397              		.cfi_def_cfa_register 7
 2398 0006 F860     		str	r0, [r7, #12]
 2399 0008 B960     		str	r1, [r7, #8]
 2400 000a 7A60     		str	r2, [r7, #4]
 2401 000c 7B80     		strh	r3, [r7, #2]	@ movhi
 885:Drivers/STM32H7xx_HAL_Driver/Src/stm32h7xx_hal_tim_ex.c ****   HAL_StatusTypeDef status = HAL_OK;
 2402              		.loc 1 885 21
 2403 000e 0023     		movs	r3, #0
 2404 0010 FB75     		strb	r3, [r7, #23]
 886:Drivers/STM32H7xx_HAL_Driver/Src/stm32h7xx_hal_tim_ex.c ****   uint32_t tmpsmcr;
 887:Drivers/STM32H7xx_HAL_Driver/Src/stm32h7xx_hal_tim_ex.c **** 
 888:Drivers/STM32H7xx_HAL_Driver/Src/stm32h7xx_hal_tim_ex.c ****   /* Check the parameters */
 889:Drivers/STM32H7xx_HAL_Driver/Src/stm32h7xx_hal_tim_ex.c ****   assert_param(IS_TIM_CCXN_INSTANCE(htim->Instance, Channel));
 890:Drivers/STM32H7xx_HAL_Driver/Src/stm32h7xx_hal_tim_ex.c **** 
 891:Drivers/STM32H7xx_HAL_Driver/Src/stm32h7xx_hal_tim_ex.c ****   /* Set the TIM complementary channel state */
 892:Drivers/STM32H7xx_HAL_Driver/Src/stm32h7xx_hal_tim_ex.c ****   if (TIM_CHANNEL_N_STATE_GET(htim, Channel) == HAL_TIM_CHANNEL_STATE_BUSY)
 2405              		.loc 1 892 46
 2406 0012 BB68     		ldr	r3, [r7, #8]
 2407 0014 002B     		cmp	r3, #0
 2408 0016 09D1     		bne	.L140
 2409              		.loc 1 892 7 discriminator 1
 2410 0018 FB68     		ldr	r3, [r7, #12]
 2411 001a 93F84430 		ldrb	r3, [r3, #68]
 2412 001e DBB2     		uxtb	r3, r3
 2413              		.loc 1 892 46 discriminator 1
 2414 0020 022B     		cmp	r3, #2
 2415 0022 0CBF     		ite	eq
 2416 0024 0123     		moveq	r3, #1
 2417 0026 0023     		movne	r3, #0
 2418 0028 DBB2     		uxtb	r3, r3
 2419 002a 22E0     		b	.L141
 2420              	.L140:
 2421              		.loc 1 892 46 is_stmt 0 discriminator 2
 2422 002c BB68     		ldr	r3, [r7, #8]
 2423 002e 042B     		cmp	r3, #4
 2424 0030 09D1     		bne	.L142
 2425              		.loc 1 892 7 is_stmt 1 discriminator 4
 2426 0032 FB68     		ldr	r3, [r7, #12]
 2427 0034 93F84530 		ldrb	r3, [r3, #69]
 2428 0038 DBB2     		uxtb	r3, r3
 2429              		.loc 1 892 46 discriminator 4
 2430 003a 022B     		cmp	r3, #2
 2431 003c 0CBF     		ite	eq
ARM GAS  /var/folders/d0/cymppscj10lcmm48h781wrc80000gn/T//ccIjALm5.s 			page 59


 2432 003e 0123     		moveq	r3, #1
 2433 0040 0023     		movne	r3, #0
 2434 0042 DBB2     		uxtb	r3, r3
 2435 0044 15E0     		b	.L141
 2436              	.L142:
 2437              		.loc 1 892 46 is_stmt 0 discriminator 5
 2438 0046 BB68     		ldr	r3, [r7, #8]
 2439 0048 082B     		cmp	r3, #8
 2440 004a 09D1     		bne	.L144
 2441              		.loc 1 892 7 is_stmt 1 discriminator 7
 2442 004c FB68     		ldr	r3, [r7, #12]
 2443 004e 93F84630 		ldrb	r3, [r3, #70]
 2444 0052 DBB2     		uxtb	r3, r3
 2445              		.loc 1 892 46 discriminator 7
 2446 0054 022B     		cmp	r3, #2
 2447 0056 0CBF     		ite	eq
 2448 0058 0123     		moveq	r3, #1
 2449 005a 0023     		movne	r3, #0
 2450 005c DBB2     		uxtb	r3, r3
 2451 005e 08E0     		b	.L141
 2452              	.L144:
 2453              		.loc 1 892 7 discriminator 8
 2454 0060 FB68     		ldr	r3, [r7, #12]
 2455 0062 93F84730 		ldrb	r3, [r3, #71]
 2456 0066 DBB2     		uxtb	r3, r3
 2457              		.loc 1 892 46 discriminator 8
 2458 0068 022B     		cmp	r3, #2
 2459 006a 0CBF     		ite	eq
 2460 006c 0123     		moveq	r3, #1
 2461 006e 0023     		movne	r3, #0
 2462 0070 DBB2     		uxtb	r3, r3
 2463              	.L141:
 2464              		.loc 1 892 6 discriminator 12
 2465 0072 002B     		cmp	r3, #0
 2466 0074 01D0     		beq	.L146
 893:Drivers/STM32H7xx_HAL_Driver/Src/stm32h7xx_hal_tim_ex.c ****   {
 894:Drivers/STM32H7xx_HAL_Driver/Src/stm32h7xx_hal_tim_ex.c ****     return HAL_BUSY;
 2467              		.loc 1 894 12
 2468 0076 0223     		movs	r3, #2
 2469 0078 2FE1     		b	.L147
 2470              	.L146:
 895:Drivers/STM32H7xx_HAL_Driver/Src/stm32h7xx_hal_tim_ex.c ****   }
 896:Drivers/STM32H7xx_HAL_Driver/Src/stm32h7xx_hal_tim_ex.c ****   else if (TIM_CHANNEL_N_STATE_GET(htim, Channel) == HAL_TIM_CHANNEL_STATE_READY)
 2471              		.loc 1 896 51
 2472 007a BB68     		ldr	r3, [r7, #8]
 2473 007c 002B     		cmp	r3, #0
 2474 007e 09D1     		bne	.L148
 2475              		.loc 1 896 12 discriminator 1
 2476 0080 FB68     		ldr	r3, [r7, #12]
 2477 0082 93F84430 		ldrb	r3, [r3, #68]
 2478 0086 DBB2     		uxtb	r3, r3
 2479              		.loc 1 896 51 discriminator 1
 2480 0088 012B     		cmp	r3, #1
 2481 008a 0CBF     		ite	eq
 2482 008c 0123     		moveq	r3, #1
 2483 008e 0023     		movne	r3, #0
 2484 0090 DBB2     		uxtb	r3, r3
ARM GAS  /var/folders/d0/cymppscj10lcmm48h781wrc80000gn/T//ccIjALm5.s 			page 60


 2485 0092 22E0     		b	.L149
 2486              	.L148:
 2487              		.loc 1 896 51 is_stmt 0 discriminator 2
 2488 0094 BB68     		ldr	r3, [r7, #8]
 2489 0096 042B     		cmp	r3, #4
 2490 0098 09D1     		bne	.L150
 2491              		.loc 1 896 12 is_stmt 1 discriminator 4
 2492 009a FB68     		ldr	r3, [r7, #12]
 2493 009c 93F84530 		ldrb	r3, [r3, #69]
 2494 00a0 DBB2     		uxtb	r3, r3
 2495              		.loc 1 896 51 discriminator 4
 2496 00a2 012B     		cmp	r3, #1
 2497 00a4 0CBF     		ite	eq
 2498 00a6 0123     		moveq	r3, #1
 2499 00a8 0023     		movne	r3, #0
 2500 00aa DBB2     		uxtb	r3, r3
 2501 00ac 15E0     		b	.L149
 2502              	.L150:
 2503              		.loc 1 896 51 is_stmt 0 discriminator 5
 2504 00ae BB68     		ldr	r3, [r7, #8]
 2505 00b0 082B     		cmp	r3, #8
 2506 00b2 09D1     		bne	.L152
 2507              		.loc 1 896 12 is_stmt 1 discriminator 7
 2508 00b4 FB68     		ldr	r3, [r7, #12]
 2509 00b6 93F84630 		ldrb	r3, [r3, #70]
 2510 00ba DBB2     		uxtb	r3, r3
 2511              		.loc 1 896 51 discriminator 7
 2512 00bc 012B     		cmp	r3, #1
 2513 00be 0CBF     		ite	eq
 2514 00c0 0123     		moveq	r3, #1
 2515 00c2 0023     		movne	r3, #0
 2516 00c4 DBB2     		uxtb	r3, r3
 2517 00c6 08E0     		b	.L149
 2518              	.L152:
 2519              		.loc 1 896 12 discriminator 8
 2520 00c8 FB68     		ldr	r3, [r7, #12]
 2521 00ca 93F84730 		ldrb	r3, [r3, #71]
 2522 00ce DBB2     		uxtb	r3, r3
 2523              		.loc 1 896 51 discriminator 8
 2524 00d0 012B     		cmp	r3, #1
 2525 00d2 0CBF     		ite	eq
 2526 00d4 0123     		moveq	r3, #1
 2527 00d6 0023     		movne	r3, #0
 2528 00d8 DBB2     		uxtb	r3, r3
 2529              	.L149:
 2530              		.loc 1 896 11 discriminator 12
 2531 00da 002B     		cmp	r3, #0
 2532 00dc 24D0     		beq	.L154
 897:Drivers/STM32H7xx_HAL_Driver/Src/stm32h7xx_hal_tim_ex.c ****   {
 898:Drivers/STM32H7xx_HAL_Driver/Src/stm32h7xx_hal_tim_ex.c ****     if ((pData == NULL) && (Length > 0U))
 2533              		.loc 1 898 8
 2534 00de 7B68     		ldr	r3, [r7, #4]
 2535 00e0 002B     		cmp	r3, #0
 2536 00e2 04D1     		bne	.L155
 2537              		.loc 1 898 25 discriminator 1
 2538 00e4 7B88     		ldrh	r3, [r7, #2]
 2539 00e6 002B     		cmp	r3, #0
ARM GAS  /var/folders/d0/cymppscj10lcmm48h781wrc80000gn/T//ccIjALm5.s 			page 61


 2540 00e8 01D0     		beq	.L155
 899:Drivers/STM32H7xx_HAL_Driver/Src/stm32h7xx_hal_tim_ex.c ****     {
 900:Drivers/STM32H7xx_HAL_Driver/Src/stm32h7xx_hal_tim_ex.c ****       return HAL_ERROR;
 2541              		.loc 1 900 14
 2542 00ea 0123     		movs	r3, #1
 2543 00ec F5E0     		b	.L147
 2544              	.L155:
 901:Drivers/STM32H7xx_HAL_Driver/Src/stm32h7xx_hal_tim_ex.c ****     }
 902:Drivers/STM32H7xx_HAL_Driver/Src/stm32h7xx_hal_tim_ex.c ****     else
 903:Drivers/STM32H7xx_HAL_Driver/Src/stm32h7xx_hal_tim_ex.c ****     {
 904:Drivers/STM32H7xx_HAL_Driver/Src/stm32h7xx_hal_tim_ex.c ****       TIM_CHANNEL_N_STATE_SET(htim, Channel, HAL_TIM_CHANNEL_STATE_BUSY);
 2545              		.loc 1 904 7
 2546 00ee BB68     		ldr	r3, [r7, #8]
 2547 00f0 002B     		cmp	r3, #0
 2548 00f2 04D1     		bne	.L156
 2549              		.loc 1 904 7 is_stmt 0 discriminator 1
 2550 00f4 FB68     		ldr	r3, [r7, #12]
 2551 00f6 0222     		movs	r2, #2
 2552 00f8 83F84420 		strb	r2, [r3, #68]
 2553 00fc 16E0     		b	.L157
 2554              	.L156:
 2555              		.loc 1 904 7 discriminator 2
 2556 00fe BB68     		ldr	r3, [r7, #8]
 2557 0100 042B     		cmp	r3, #4
 2558 0102 04D1     		bne	.L158
 2559              		.loc 1 904 7 discriminator 3
 2560 0104 FB68     		ldr	r3, [r7, #12]
 2561 0106 0222     		movs	r2, #2
 2562 0108 83F84520 		strb	r2, [r3, #69]
 2563 010c 0EE0     		b	.L157
 2564              	.L158:
 2565              		.loc 1 904 7 discriminator 4
 2566 010e BB68     		ldr	r3, [r7, #8]
 2567 0110 082B     		cmp	r3, #8
 2568 0112 04D1     		bne	.L160
 2569              		.loc 1 904 7 discriminator 6
 2570 0114 FB68     		ldr	r3, [r7, #12]
 2571 0116 0222     		movs	r2, #2
 2572 0118 83F84620 		strb	r2, [r3, #70]
 2573 011c 06E0     		b	.L157
 2574              	.L160:
 2575              		.loc 1 904 7 discriminator 7
 2576 011e FB68     		ldr	r3, [r7, #12]
 2577 0120 0222     		movs	r2, #2
 2578 0122 83F84720 		strb	r2, [r3, #71]
 2579 0126 01E0     		b	.L157
 2580              	.L154:
 905:Drivers/STM32H7xx_HAL_Driver/Src/stm32h7xx_hal_tim_ex.c ****     }
 906:Drivers/STM32H7xx_HAL_Driver/Src/stm32h7xx_hal_tim_ex.c ****   }
 907:Drivers/STM32H7xx_HAL_Driver/Src/stm32h7xx_hal_tim_ex.c ****   else
 908:Drivers/STM32H7xx_HAL_Driver/Src/stm32h7xx_hal_tim_ex.c ****   {
 909:Drivers/STM32H7xx_HAL_Driver/Src/stm32h7xx_hal_tim_ex.c ****     return HAL_ERROR;
 2581              		.loc 1 909 12 is_stmt 1
 2582 0128 0123     		movs	r3, #1
 2583 012a D6E0     		b	.L147
 2584              	.L157:
 910:Drivers/STM32H7xx_HAL_Driver/Src/stm32h7xx_hal_tim_ex.c ****   }
ARM GAS  /var/folders/d0/cymppscj10lcmm48h781wrc80000gn/T//ccIjALm5.s 			page 62


 911:Drivers/STM32H7xx_HAL_Driver/Src/stm32h7xx_hal_tim_ex.c **** 
 912:Drivers/STM32H7xx_HAL_Driver/Src/stm32h7xx_hal_tim_ex.c ****   switch (Channel)
 2585              		.loc 1 912 3
 2586 012c BB68     		ldr	r3, [r7, #8]
 2587 012e 082B     		cmp	r3, #8
 2588 0130 51D0     		beq	.L162
 2589 0132 BB68     		ldr	r3, [r7, #8]
 2590 0134 082B     		cmp	r3, #8
 2591 0136 72D8     		bhi	.L163
 2592 0138 BB68     		ldr	r3, [r7, #8]
 2593 013a 002B     		cmp	r3, #0
 2594 013c 03D0     		beq	.L164
 2595 013e BB68     		ldr	r3, [r7, #8]
 2596 0140 042B     		cmp	r3, #4
 2597 0142 24D0     		beq	.L165
 2598 0144 6BE0     		b	.L163
 2599              	.L164:
 913:Drivers/STM32H7xx_HAL_Driver/Src/stm32h7xx_hal_tim_ex.c ****   {
 914:Drivers/STM32H7xx_HAL_Driver/Src/stm32h7xx_hal_tim_ex.c ****     case TIM_CHANNEL_1:
 915:Drivers/STM32H7xx_HAL_Driver/Src/stm32h7xx_hal_tim_ex.c ****     {
 916:Drivers/STM32H7xx_HAL_Driver/Src/stm32h7xx_hal_tim_ex.c ****       /* Set the DMA compare callbacks */
 917:Drivers/STM32H7xx_HAL_Driver/Src/stm32h7xx_hal_tim_ex.c ****       htim->hdma[TIM_DMA_ID_CC1]->XferCpltCallback = TIM_DMADelayPulseNCplt;
 2600              		.loc 1 917 17
 2601 0146 FB68     		ldr	r3, [r7, #12]
 2602 0148 5B6A     		ldr	r3, [r3, #36]
 2603              		.loc 1 917 52
 2604 014a 664A     		ldr	r2, .L175
 2605 014c DA63     		str	r2, [r3, #60]
 918:Drivers/STM32H7xx_HAL_Driver/Src/stm32h7xx_hal_tim_ex.c ****       htim->hdma[TIM_DMA_ID_CC1]->XferHalfCpltCallback = TIM_DMADelayPulseHalfCplt;
 2606              		.loc 1 918 17
 2607 014e FB68     		ldr	r3, [r7, #12]
 2608 0150 5B6A     		ldr	r3, [r3, #36]
 2609              		.loc 1 918 56
 2610 0152 654A     		ldr	r2, .L175+4
 2611 0154 1A64     		str	r2, [r3, #64]
 919:Drivers/STM32H7xx_HAL_Driver/Src/stm32h7xx_hal_tim_ex.c **** 
 920:Drivers/STM32H7xx_HAL_Driver/Src/stm32h7xx_hal_tim_ex.c ****       /* Set the DMA error callback */
 921:Drivers/STM32H7xx_HAL_Driver/Src/stm32h7xx_hal_tim_ex.c ****       htim->hdma[TIM_DMA_ID_CC1]->XferErrorCallback = TIM_DMAErrorCCxN ;
 2612              		.loc 1 921 17
 2613 0156 FB68     		ldr	r3, [r7, #12]
 2614 0158 5B6A     		ldr	r3, [r3, #36]
 2615              		.loc 1 921 53
 2616 015a 644A     		ldr	r2, .L175+8
 2617 015c DA64     		str	r2, [r3, #76]
 922:Drivers/STM32H7xx_HAL_Driver/Src/stm32h7xx_hal_tim_ex.c **** 
 923:Drivers/STM32H7xx_HAL_Driver/Src/stm32h7xx_hal_tim_ex.c ****       /* Enable the DMA stream */
 924:Drivers/STM32H7xx_HAL_Driver/Src/stm32h7xx_hal_tim_ex.c ****       if (HAL_DMA_Start_IT(htim->hdma[TIM_DMA_ID_CC1], (uint32_t)pData, (uint32_t)&htim->Instance->
 2618              		.loc 1 924 11
 2619 015e FB68     		ldr	r3, [r7, #12]
 2620 0160 586A     		ldr	r0, [r3, #36]
 2621 0162 7968     		ldr	r1, [r7, #4]
 2622              		.loc 1 924 88
 2623 0164 FB68     		ldr	r3, [r7, #12]
 2624 0166 1B68     		ldr	r3, [r3]
 2625              		.loc 1 924 83
 2626 0168 3433     		adds	r3, r3, #52
 2627              		.loc 1 924 11
ARM GAS  /var/folders/d0/cymppscj10lcmm48h781wrc80000gn/T//ccIjALm5.s 			page 63


 2628 016a 1A46     		mov	r2, r3
 2629 016c 7B88     		ldrh	r3, [r7, #2]
 2630 016e FFF7FEFF 		bl	HAL_DMA_Start_IT
 2631 0172 0346     		mov	r3, r0
 2632              		.loc 1 924 10
 2633 0174 002B     		cmp	r3, #0
 2634 0176 01D0     		beq	.L166
 925:Drivers/STM32H7xx_HAL_Driver/Src/stm32h7xx_hal_tim_ex.c ****                            Length) != HAL_OK)
 926:Drivers/STM32H7xx_HAL_Driver/Src/stm32h7xx_hal_tim_ex.c ****       {
 927:Drivers/STM32H7xx_HAL_Driver/Src/stm32h7xx_hal_tim_ex.c ****         /* Return error status */
 928:Drivers/STM32H7xx_HAL_Driver/Src/stm32h7xx_hal_tim_ex.c ****         return HAL_ERROR;
 2635              		.loc 1 928 16
 2636 0178 0123     		movs	r3, #1
 2637 017a AEE0     		b	.L147
 2638              	.L166:
 929:Drivers/STM32H7xx_HAL_Driver/Src/stm32h7xx_hal_tim_ex.c ****       }
 930:Drivers/STM32H7xx_HAL_Driver/Src/stm32h7xx_hal_tim_ex.c ****       /* Enable the TIM Output Compare DMA request */
 931:Drivers/STM32H7xx_HAL_Driver/Src/stm32h7xx_hal_tim_ex.c ****       __HAL_TIM_ENABLE_DMA(htim, TIM_DMA_CC1);
 2639              		.loc 1 931 7
 2640 017c FB68     		ldr	r3, [r7, #12]
 2641 017e 1B68     		ldr	r3, [r3]
 2642 0180 DA68     		ldr	r2, [r3, #12]
 2643 0182 FB68     		ldr	r3, [r7, #12]
 2644 0184 1B68     		ldr	r3, [r3]
 2645 0186 42F40072 		orr	r2, r2, #512
 2646 018a DA60     		str	r2, [r3, #12]
 932:Drivers/STM32H7xx_HAL_Driver/Src/stm32h7xx_hal_tim_ex.c ****       break;
 2647              		.loc 1 932 7
 2648 018c 4AE0     		b	.L167
 2649              	.L165:
 933:Drivers/STM32H7xx_HAL_Driver/Src/stm32h7xx_hal_tim_ex.c ****     }
 934:Drivers/STM32H7xx_HAL_Driver/Src/stm32h7xx_hal_tim_ex.c **** 
 935:Drivers/STM32H7xx_HAL_Driver/Src/stm32h7xx_hal_tim_ex.c ****     case TIM_CHANNEL_2:
 936:Drivers/STM32H7xx_HAL_Driver/Src/stm32h7xx_hal_tim_ex.c ****     {
 937:Drivers/STM32H7xx_HAL_Driver/Src/stm32h7xx_hal_tim_ex.c ****       /* Set the DMA compare callbacks */
 938:Drivers/STM32H7xx_HAL_Driver/Src/stm32h7xx_hal_tim_ex.c ****       htim->hdma[TIM_DMA_ID_CC2]->XferCpltCallback = TIM_DMADelayPulseNCplt;
 2650              		.loc 1 938 17
 2651 018e FB68     		ldr	r3, [r7, #12]
 2652 0190 9B6A     		ldr	r3, [r3, #40]
 2653              		.loc 1 938 52
 2654 0192 544A     		ldr	r2, .L175
 2655 0194 DA63     		str	r2, [r3, #60]
 939:Drivers/STM32H7xx_HAL_Driver/Src/stm32h7xx_hal_tim_ex.c ****       htim->hdma[TIM_DMA_ID_CC2]->XferHalfCpltCallback = TIM_DMADelayPulseHalfCplt;
 2656              		.loc 1 939 17
 2657 0196 FB68     		ldr	r3, [r7, #12]
 2658 0198 9B6A     		ldr	r3, [r3, #40]
 2659              		.loc 1 939 56
 2660 019a 534A     		ldr	r2, .L175+4
 2661 019c 1A64     		str	r2, [r3, #64]
 940:Drivers/STM32H7xx_HAL_Driver/Src/stm32h7xx_hal_tim_ex.c **** 
 941:Drivers/STM32H7xx_HAL_Driver/Src/stm32h7xx_hal_tim_ex.c ****       /* Set the DMA error callback */
 942:Drivers/STM32H7xx_HAL_Driver/Src/stm32h7xx_hal_tim_ex.c ****       htim->hdma[TIM_DMA_ID_CC2]->XferErrorCallback = TIM_DMAErrorCCxN ;
 2662              		.loc 1 942 17
 2663 019e FB68     		ldr	r3, [r7, #12]
 2664 01a0 9B6A     		ldr	r3, [r3, #40]
 2665              		.loc 1 942 53
 2666 01a2 524A     		ldr	r2, .L175+8
ARM GAS  /var/folders/d0/cymppscj10lcmm48h781wrc80000gn/T//ccIjALm5.s 			page 64


 2667 01a4 DA64     		str	r2, [r3, #76]
 943:Drivers/STM32H7xx_HAL_Driver/Src/stm32h7xx_hal_tim_ex.c **** 
 944:Drivers/STM32H7xx_HAL_Driver/Src/stm32h7xx_hal_tim_ex.c ****       /* Enable the DMA stream */
 945:Drivers/STM32H7xx_HAL_Driver/Src/stm32h7xx_hal_tim_ex.c ****       if (HAL_DMA_Start_IT(htim->hdma[TIM_DMA_ID_CC2], (uint32_t)pData, (uint32_t)&htim->Instance->
 2668              		.loc 1 945 11
 2669 01a6 FB68     		ldr	r3, [r7, #12]
 2670 01a8 986A     		ldr	r0, [r3, #40]
 2671 01aa 7968     		ldr	r1, [r7, #4]
 2672              		.loc 1 945 88
 2673 01ac FB68     		ldr	r3, [r7, #12]
 2674 01ae 1B68     		ldr	r3, [r3]
 2675              		.loc 1 945 83
 2676 01b0 3833     		adds	r3, r3, #56
 2677              		.loc 1 945 11
 2678 01b2 1A46     		mov	r2, r3
 2679 01b4 7B88     		ldrh	r3, [r7, #2]
 2680 01b6 FFF7FEFF 		bl	HAL_DMA_Start_IT
 2681 01ba 0346     		mov	r3, r0
 2682              		.loc 1 945 10
 2683 01bc 002B     		cmp	r3, #0
 2684 01be 01D0     		beq	.L168
 946:Drivers/STM32H7xx_HAL_Driver/Src/stm32h7xx_hal_tim_ex.c ****                            Length) != HAL_OK)
 947:Drivers/STM32H7xx_HAL_Driver/Src/stm32h7xx_hal_tim_ex.c ****       {
 948:Drivers/STM32H7xx_HAL_Driver/Src/stm32h7xx_hal_tim_ex.c ****         /* Return error status */
 949:Drivers/STM32H7xx_HAL_Driver/Src/stm32h7xx_hal_tim_ex.c ****         return HAL_ERROR;
 2685              		.loc 1 949 16
 2686 01c0 0123     		movs	r3, #1
 2687 01c2 8AE0     		b	.L147
 2688              	.L168:
 950:Drivers/STM32H7xx_HAL_Driver/Src/stm32h7xx_hal_tim_ex.c ****       }
 951:Drivers/STM32H7xx_HAL_Driver/Src/stm32h7xx_hal_tim_ex.c ****       /* Enable the TIM Output Compare DMA request */
 952:Drivers/STM32H7xx_HAL_Driver/Src/stm32h7xx_hal_tim_ex.c ****       __HAL_TIM_ENABLE_DMA(htim, TIM_DMA_CC2);
 2689              		.loc 1 952 7
 2690 01c4 FB68     		ldr	r3, [r7, #12]
 2691 01c6 1B68     		ldr	r3, [r3]
 2692 01c8 DA68     		ldr	r2, [r3, #12]
 2693 01ca FB68     		ldr	r3, [r7, #12]
 2694 01cc 1B68     		ldr	r3, [r3]
 2695 01ce 42F48062 		orr	r2, r2, #1024
 2696 01d2 DA60     		str	r2, [r3, #12]
 953:Drivers/STM32H7xx_HAL_Driver/Src/stm32h7xx_hal_tim_ex.c ****       break;
 2697              		.loc 1 953 7
 2698 01d4 26E0     		b	.L167
 2699              	.L162:
 954:Drivers/STM32H7xx_HAL_Driver/Src/stm32h7xx_hal_tim_ex.c ****     }
 955:Drivers/STM32H7xx_HAL_Driver/Src/stm32h7xx_hal_tim_ex.c **** 
 956:Drivers/STM32H7xx_HAL_Driver/Src/stm32h7xx_hal_tim_ex.c ****     case TIM_CHANNEL_3:
 957:Drivers/STM32H7xx_HAL_Driver/Src/stm32h7xx_hal_tim_ex.c ****     {
 958:Drivers/STM32H7xx_HAL_Driver/Src/stm32h7xx_hal_tim_ex.c ****       /* Set the DMA compare callbacks */
 959:Drivers/STM32H7xx_HAL_Driver/Src/stm32h7xx_hal_tim_ex.c ****       htim->hdma[TIM_DMA_ID_CC3]->XferCpltCallback = TIM_DMADelayPulseNCplt;
 2700              		.loc 1 959 17
 2701 01d6 FB68     		ldr	r3, [r7, #12]
 2702 01d8 DB6A     		ldr	r3, [r3, #44]
 2703              		.loc 1 959 52
 2704 01da 424A     		ldr	r2, .L175
 2705 01dc DA63     		str	r2, [r3, #60]
 960:Drivers/STM32H7xx_HAL_Driver/Src/stm32h7xx_hal_tim_ex.c ****       htim->hdma[TIM_DMA_ID_CC3]->XferHalfCpltCallback = TIM_DMADelayPulseHalfCplt;
ARM GAS  /var/folders/d0/cymppscj10lcmm48h781wrc80000gn/T//ccIjALm5.s 			page 65


 2706              		.loc 1 960 17
 2707 01de FB68     		ldr	r3, [r7, #12]
 2708 01e0 DB6A     		ldr	r3, [r3, #44]
 2709              		.loc 1 960 56
 2710 01e2 414A     		ldr	r2, .L175+4
 2711 01e4 1A64     		str	r2, [r3, #64]
 961:Drivers/STM32H7xx_HAL_Driver/Src/stm32h7xx_hal_tim_ex.c **** 
 962:Drivers/STM32H7xx_HAL_Driver/Src/stm32h7xx_hal_tim_ex.c ****       /* Set the DMA error callback */
 963:Drivers/STM32H7xx_HAL_Driver/Src/stm32h7xx_hal_tim_ex.c ****       htim->hdma[TIM_DMA_ID_CC3]->XferErrorCallback = TIM_DMAErrorCCxN ;
 2712              		.loc 1 963 17
 2713 01e6 FB68     		ldr	r3, [r7, #12]
 2714 01e8 DB6A     		ldr	r3, [r3, #44]
 2715              		.loc 1 963 53
 2716 01ea 404A     		ldr	r2, .L175+8
 2717 01ec DA64     		str	r2, [r3, #76]
 964:Drivers/STM32H7xx_HAL_Driver/Src/stm32h7xx_hal_tim_ex.c **** 
 965:Drivers/STM32H7xx_HAL_Driver/Src/stm32h7xx_hal_tim_ex.c ****       /* Enable the DMA stream */
 966:Drivers/STM32H7xx_HAL_Driver/Src/stm32h7xx_hal_tim_ex.c ****       if (HAL_DMA_Start_IT(htim->hdma[TIM_DMA_ID_CC3], (uint32_t)pData, (uint32_t)&htim->Instance->
 2718              		.loc 1 966 11
 2719 01ee FB68     		ldr	r3, [r7, #12]
 2720 01f0 D86A     		ldr	r0, [r3, #44]
 2721 01f2 7968     		ldr	r1, [r7, #4]
 2722              		.loc 1 966 88
 2723 01f4 FB68     		ldr	r3, [r7, #12]
 2724 01f6 1B68     		ldr	r3, [r3]
 2725              		.loc 1 966 83
 2726 01f8 3C33     		adds	r3, r3, #60
 2727              		.loc 1 966 11
 2728 01fa 1A46     		mov	r2, r3
 2729 01fc 7B88     		ldrh	r3, [r7, #2]
 2730 01fe FFF7FEFF 		bl	HAL_DMA_Start_IT
 2731 0202 0346     		mov	r3, r0
 2732              		.loc 1 966 10
 2733 0204 002B     		cmp	r3, #0
 2734 0206 01D0     		beq	.L169
 967:Drivers/STM32H7xx_HAL_Driver/Src/stm32h7xx_hal_tim_ex.c ****                            Length) != HAL_OK)
 968:Drivers/STM32H7xx_HAL_Driver/Src/stm32h7xx_hal_tim_ex.c ****       {
 969:Drivers/STM32H7xx_HAL_Driver/Src/stm32h7xx_hal_tim_ex.c ****         /* Return error status */
 970:Drivers/STM32H7xx_HAL_Driver/Src/stm32h7xx_hal_tim_ex.c ****         return HAL_ERROR;
 2735              		.loc 1 970 16
 2736 0208 0123     		movs	r3, #1
 2737 020a 66E0     		b	.L147
 2738              	.L169:
 971:Drivers/STM32H7xx_HAL_Driver/Src/stm32h7xx_hal_tim_ex.c ****       }
 972:Drivers/STM32H7xx_HAL_Driver/Src/stm32h7xx_hal_tim_ex.c ****       /* Enable the TIM Output Compare DMA request */
 973:Drivers/STM32H7xx_HAL_Driver/Src/stm32h7xx_hal_tim_ex.c ****       __HAL_TIM_ENABLE_DMA(htim, TIM_DMA_CC3);
 2739              		.loc 1 973 7
 2740 020c FB68     		ldr	r3, [r7, #12]
 2741 020e 1B68     		ldr	r3, [r3]
 2742 0210 DA68     		ldr	r2, [r3, #12]
 2743 0212 FB68     		ldr	r3, [r7, #12]
 2744 0214 1B68     		ldr	r3, [r3]
 2745 0216 42F40062 		orr	r2, r2, #2048
 2746 021a DA60     		str	r2, [r3, #12]
 974:Drivers/STM32H7xx_HAL_Driver/Src/stm32h7xx_hal_tim_ex.c ****       break;
 2747              		.loc 1 974 7
 2748 021c 02E0     		b	.L167
ARM GAS  /var/folders/d0/cymppscj10lcmm48h781wrc80000gn/T//ccIjALm5.s 			page 66


 2749              	.L163:
 975:Drivers/STM32H7xx_HAL_Driver/Src/stm32h7xx_hal_tim_ex.c ****     }
 976:Drivers/STM32H7xx_HAL_Driver/Src/stm32h7xx_hal_tim_ex.c **** 
 977:Drivers/STM32H7xx_HAL_Driver/Src/stm32h7xx_hal_tim_ex.c ****     default:
 978:Drivers/STM32H7xx_HAL_Driver/Src/stm32h7xx_hal_tim_ex.c ****       status = HAL_ERROR;
 2750              		.loc 1 978 14
 2751 021e 0123     		movs	r3, #1
 2752 0220 FB75     		strb	r3, [r7, #23]
 979:Drivers/STM32H7xx_HAL_Driver/Src/stm32h7xx_hal_tim_ex.c ****       break;
 2753              		.loc 1 979 7
 2754 0222 00BF     		nop
 2755              	.L167:
 980:Drivers/STM32H7xx_HAL_Driver/Src/stm32h7xx_hal_tim_ex.c ****   }
 981:Drivers/STM32H7xx_HAL_Driver/Src/stm32h7xx_hal_tim_ex.c **** 
 982:Drivers/STM32H7xx_HAL_Driver/Src/stm32h7xx_hal_tim_ex.c ****   if (status == HAL_OK)
 2756              		.loc 1 982 6
 2757 0224 FB7D     		ldrb	r3, [r7, #23]	@ zero_extendqisi2
 2758 0226 002B     		cmp	r3, #0
 2759 0228 56D1     		bne	.L170
 983:Drivers/STM32H7xx_HAL_Driver/Src/stm32h7xx_hal_tim_ex.c ****   {
 984:Drivers/STM32H7xx_HAL_Driver/Src/stm32h7xx_hal_tim_ex.c ****     /* Enable the Capture compare channel N */
 985:Drivers/STM32H7xx_HAL_Driver/Src/stm32h7xx_hal_tim_ex.c ****     TIM_CCxNChannelCmd(htim->Instance, Channel, TIM_CCxN_ENABLE);
 2760              		.loc 1 985 5
 2761 022a FB68     		ldr	r3, [r7, #12]
 2762 022c 1B68     		ldr	r3, [r3]
 2763 022e 0422     		movs	r2, #4
 2764 0230 B968     		ldr	r1, [r7, #8]
 2765 0232 1846     		mov	r0, r3
 2766 0234 FFF7FEFF 		bl	TIM_CCxNChannelCmd
 986:Drivers/STM32H7xx_HAL_Driver/Src/stm32h7xx_hal_tim_ex.c **** 
 987:Drivers/STM32H7xx_HAL_Driver/Src/stm32h7xx_hal_tim_ex.c ****     /* Enable the Main Output */
 988:Drivers/STM32H7xx_HAL_Driver/Src/stm32h7xx_hal_tim_ex.c ****     __HAL_TIM_MOE_ENABLE(htim);
 2767              		.loc 1 988 5
 2768 0238 FB68     		ldr	r3, [r7, #12]
 2769 023a 1B68     		ldr	r3, [r3]
 2770 023c 5A6C     		ldr	r2, [r3, #68]
 2771 023e FB68     		ldr	r3, [r7, #12]
 2772 0240 1B68     		ldr	r3, [r3]
 2773 0242 42F40042 		orr	r2, r2, #32768
 2774 0246 5A64     		str	r2, [r3, #68]
 989:Drivers/STM32H7xx_HAL_Driver/Src/stm32h7xx_hal_tim_ex.c **** 
 990:Drivers/STM32H7xx_HAL_Driver/Src/stm32h7xx_hal_tim_ex.c ****     /* Enable the Peripheral, except in trigger mode where enable is automatically done with trigge
 991:Drivers/STM32H7xx_HAL_Driver/Src/stm32h7xx_hal_tim_ex.c ****     if (IS_TIM_SLAVE_INSTANCE(htim->Instance))
 2775              		.loc 1 991 9
 2776 0248 FB68     		ldr	r3, [r7, #12]
 2777 024a 1B68     		ldr	r3, [r3]
 2778              		.loc 1 991 8
 2779 024c 284A     		ldr	r2, .L175+12
 2780 024e 9342     		cmp	r3, r2
 2781 0250 22D0     		beq	.L171
 2782              		.loc 1 991 9 discriminator 1
 2783 0252 FB68     		ldr	r3, [r7, #12]
 2784 0254 1B68     		ldr	r3, [r3]
 2785 0256 B3F1804F 		cmp	r3, #1073741824
 2786 025a 1DD0     		beq	.L171
 2787              		.loc 1 991 9 is_stmt 0 discriminator 2
 2788 025c FB68     		ldr	r3, [r7, #12]
ARM GAS  /var/folders/d0/cymppscj10lcmm48h781wrc80000gn/T//ccIjALm5.s 			page 67


 2789 025e 1B68     		ldr	r3, [r3]
 2790 0260 244A     		ldr	r2, .L175+16
 2791 0262 9342     		cmp	r3, r2
 2792 0264 18D0     		beq	.L171
 2793              		.loc 1 991 9 discriminator 3
 2794 0266 FB68     		ldr	r3, [r7, #12]
 2795 0268 1B68     		ldr	r3, [r3]
 2796 026a 234A     		ldr	r2, .L175+20
 2797 026c 9342     		cmp	r3, r2
 2798 026e 13D0     		beq	.L171
 2799              		.loc 1 991 9 discriminator 4
 2800 0270 FB68     		ldr	r3, [r7, #12]
 2801 0272 1B68     		ldr	r3, [r3]
 2802 0274 214A     		ldr	r2, .L175+24
 2803 0276 9342     		cmp	r3, r2
 2804 0278 0ED0     		beq	.L171
 2805              		.loc 1 991 9 discriminator 5
 2806 027a FB68     		ldr	r3, [r7, #12]
 2807 027c 1B68     		ldr	r3, [r3]
 2808 027e 204A     		ldr	r2, .L175+28
 2809 0280 9342     		cmp	r3, r2
 2810 0282 09D0     		beq	.L171
 2811              		.loc 1 991 9 discriminator 6
 2812 0284 FB68     		ldr	r3, [r7, #12]
 2813 0286 1B68     		ldr	r3, [r3]
 2814 0288 1E4A     		ldr	r2, .L175+32
 2815 028a 9342     		cmp	r3, r2
 2816 028c 04D0     		beq	.L171
 2817              		.loc 1 991 9 discriminator 7
 2818 028e FB68     		ldr	r3, [r7, #12]
 2819 0290 1B68     		ldr	r3, [r3]
 2820 0292 1D4A     		ldr	r2, .L175+36
 2821 0294 9342     		cmp	r3, r2
 2822 0296 15D1     		bne	.L172
 2823              	.L171:
 992:Drivers/STM32H7xx_HAL_Driver/Src/stm32h7xx_hal_tim_ex.c ****     {
 993:Drivers/STM32H7xx_HAL_Driver/Src/stm32h7xx_hal_tim_ex.c ****       tmpsmcr = htim->Instance->SMCR & TIM_SMCR_SMS;
 2824              		.loc 1 993 21 is_stmt 1
 2825 0298 FB68     		ldr	r3, [r7, #12]
 2826 029a 1B68     		ldr	r3, [r3]
 2827              		.loc 1 993 31
 2828 029c 9A68     		ldr	r2, [r3, #8]
 2829              		.loc 1 993 15
 2830 029e 1B4B     		ldr	r3, .L175+40
 2831 02a0 1340     		ands	r3, r3, r2
 2832 02a2 3B61     		str	r3, [r7, #16]
 994:Drivers/STM32H7xx_HAL_Driver/Src/stm32h7xx_hal_tim_ex.c ****       if (!IS_TIM_SLAVEMODE_TRIGGER_ENABLED(tmpsmcr))
 2833              		.loc 1 994 10
 2834 02a4 3B69     		ldr	r3, [r7, #16]
 2835 02a6 062B     		cmp	r3, #6
 2836 02a8 15D0     		beq	.L174
 2837              		.loc 1 994 11 discriminator 1
 2838 02aa 3B69     		ldr	r3, [r7, #16]
 2839 02ac B3F5803F 		cmp	r3, #65536
 2840 02b0 11D0     		beq	.L174
 995:Drivers/STM32H7xx_HAL_Driver/Src/stm32h7xx_hal_tim_ex.c ****       {
 996:Drivers/STM32H7xx_HAL_Driver/Src/stm32h7xx_hal_tim_ex.c ****         __HAL_TIM_ENABLE(htim);
ARM GAS  /var/folders/d0/cymppscj10lcmm48h781wrc80000gn/T//ccIjALm5.s 			page 68


 2841              		.loc 1 996 9
 2842 02b2 FB68     		ldr	r3, [r7, #12]
 2843 02b4 1B68     		ldr	r3, [r3]
 2844 02b6 1A68     		ldr	r2, [r3]
 2845 02b8 FB68     		ldr	r3, [r7, #12]
 2846 02ba 1B68     		ldr	r3, [r3]
 2847 02bc 42F00102 		orr	r2, r2, #1
 2848 02c0 1A60     		str	r2, [r3]
 994:Drivers/STM32H7xx_HAL_Driver/Src/stm32h7xx_hal_tim_ex.c ****       if (!IS_TIM_SLAVEMODE_TRIGGER_ENABLED(tmpsmcr))
 2849              		.loc 1 994 10
 2850 02c2 08E0     		b	.L174
 2851              	.L172:
 997:Drivers/STM32H7xx_HAL_Driver/Src/stm32h7xx_hal_tim_ex.c ****       }
 998:Drivers/STM32H7xx_HAL_Driver/Src/stm32h7xx_hal_tim_ex.c ****     }
 999:Drivers/STM32H7xx_HAL_Driver/Src/stm32h7xx_hal_tim_ex.c ****     else
1000:Drivers/STM32H7xx_HAL_Driver/Src/stm32h7xx_hal_tim_ex.c ****     {
1001:Drivers/STM32H7xx_HAL_Driver/Src/stm32h7xx_hal_tim_ex.c ****       __HAL_TIM_ENABLE(htim);
 2852              		.loc 1 1001 7
 2853 02c4 FB68     		ldr	r3, [r7, #12]
 2854 02c6 1B68     		ldr	r3, [r3]
 2855 02c8 1A68     		ldr	r2, [r3]
 2856 02ca FB68     		ldr	r3, [r7, #12]
 2857 02cc 1B68     		ldr	r3, [r3]
 2858 02ce 42F00102 		orr	r2, r2, #1
 2859 02d2 1A60     		str	r2, [r3]
 2860 02d4 00E0     		b	.L170
 2861              	.L174:
 994:Drivers/STM32H7xx_HAL_Driver/Src/stm32h7xx_hal_tim_ex.c ****       {
 2862              		.loc 1 994 10
 2863 02d6 00BF     		nop
 2864              	.L170:
1002:Drivers/STM32H7xx_HAL_Driver/Src/stm32h7xx_hal_tim_ex.c ****     }
1003:Drivers/STM32H7xx_HAL_Driver/Src/stm32h7xx_hal_tim_ex.c ****   }
1004:Drivers/STM32H7xx_HAL_Driver/Src/stm32h7xx_hal_tim_ex.c **** 
1005:Drivers/STM32H7xx_HAL_Driver/Src/stm32h7xx_hal_tim_ex.c ****   /* Return function status */
1006:Drivers/STM32H7xx_HAL_Driver/Src/stm32h7xx_hal_tim_ex.c ****   return status;
 2865              		.loc 1 1006 10
 2866 02d8 FB7D     		ldrb	r3, [r7, #23]	@ zero_extendqisi2
 2867              	.L147:
1007:Drivers/STM32H7xx_HAL_Driver/Src/stm32h7xx_hal_tim_ex.c **** }
 2868              		.loc 1 1007 1
 2869 02da 1846     		mov	r0, r3
 2870 02dc 1837     		adds	r7, r7, #24
 2871              	.LCFI75:
 2872              		.cfi_def_cfa_offset 8
 2873 02de BD46     		mov	sp, r7
 2874              	.LCFI76:
 2875              		.cfi_def_cfa_register 13
 2876              		@ sp needed
 2877 02e0 80BD     		pop	{r7, pc}
 2878              	.L176:
 2879 02e2 00BF     		.align	2
 2880              	.L175:
 2881 02e4 00000000 		.word	TIM_DMADelayPulseNCplt
 2882 02e8 00000000 		.word	TIM_DMADelayPulseHalfCplt
 2883 02ec 00000000 		.word	TIM_DMAErrorCCxN
 2884 02f0 00000140 		.word	1073807360
ARM GAS  /var/folders/d0/cymppscj10lcmm48h781wrc80000gn/T//ccIjALm5.s 			page 69


 2885 02f4 00040040 		.word	1073742848
 2886 02f8 00080040 		.word	1073743872
 2887 02fc 000C0040 		.word	1073744896
 2888 0300 00040140 		.word	1073808384
 2889 0304 00180040 		.word	1073747968
 2890 0308 00400140 		.word	1073823744
 2891 030c 07000100 		.word	65543
 2892              		.cfi_endproc
 2893              	.LFE347:
 2895              		.section	.text.HAL_TIMEx_OCN_Stop_DMA,"ax",%progbits
 2896              		.align	1
 2897              		.global	HAL_TIMEx_OCN_Stop_DMA
 2898              		.syntax unified
 2899              		.thumb
 2900              		.thumb_func
 2902              	HAL_TIMEx_OCN_Stop_DMA:
 2903              	.LFB348:
1008:Drivers/STM32H7xx_HAL_Driver/Src/stm32h7xx_hal_tim_ex.c **** 
1009:Drivers/STM32H7xx_HAL_Driver/Src/stm32h7xx_hal_tim_ex.c **** /**
1010:Drivers/STM32H7xx_HAL_Driver/Src/stm32h7xx_hal_tim_ex.c ****   * @brief  Stops the TIM Output Compare signal generation in DMA mode
1011:Drivers/STM32H7xx_HAL_Driver/Src/stm32h7xx_hal_tim_ex.c ****   *         on the complementary output.
1012:Drivers/STM32H7xx_HAL_Driver/Src/stm32h7xx_hal_tim_ex.c ****   * @param  htim TIM Output Compare handle
1013:Drivers/STM32H7xx_HAL_Driver/Src/stm32h7xx_hal_tim_ex.c ****   * @param  Channel TIM Channel to be disabled
1014:Drivers/STM32H7xx_HAL_Driver/Src/stm32h7xx_hal_tim_ex.c ****   *          This parameter can be one of the following values:
1015:Drivers/STM32H7xx_HAL_Driver/Src/stm32h7xx_hal_tim_ex.c ****   *            @arg TIM_CHANNEL_1: TIM Channel 1 selected
1016:Drivers/STM32H7xx_HAL_Driver/Src/stm32h7xx_hal_tim_ex.c ****   *            @arg TIM_CHANNEL_2: TIM Channel 2 selected
1017:Drivers/STM32H7xx_HAL_Driver/Src/stm32h7xx_hal_tim_ex.c ****   *            @arg TIM_CHANNEL_3: TIM Channel 3 selected
1018:Drivers/STM32H7xx_HAL_Driver/Src/stm32h7xx_hal_tim_ex.c ****   * @retval HAL status
1019:Drivers/STM32H7xx_HAL_Driver/Src/stm32h7xx_hal_tim_ex.c ****   */
1020:Drivers/STM32H7xx_HAL_Driver/Src/stm32h7xx_hal_tim_ex.c **** HAL_StatusTypeDef HAL_TIMEx_OCN_Stop_DMA(TIM_HandleTypeDef *htim, uint32_t Channel)
1021:Drivers/STM32H7xx_HAL_Driver/Src/stm32h7xx_hal_tim_ex.c **** {
 2904              		.loc 1 1021 1
 2905              		.cfi_startproc
 2906              		@ args = 0, pretend = 0, frame = 16
 2907              		@ frame_needed = 1, uses_anonymous_args = 0
 2908 0000 80B5     		push	{r7, lr}
 2909              	.LCFI77:
 2910              		.cfi_def_cfa_offset 8
 2911              		.cfi_offset 7, -8
 2912              		.cfi_offset 14, -4
 2913 0002 84B0     		sub	sp, sp, #16
 2914              	.LCFI78:
 2915              		.cfi_def_cfa_offset 24
 2916 0004 00AF     		add	r7, sp, #0
 2917              	.LCFI79:
 2918              		.cfi_def_cfa_register 7
 2919 0006 7860     		str	r0, [r7, #4]
 2920 0008 3960     		str	r1, [r7]
1022:Drivers/STM32H7xx_HAL_Driver/Src/stm32h7xx_hal_tim_ex.c ****   HAL_StatusTypeDef status = HAL_OK;
 2921              		.loc 1 1022 21
 2922 000a 0023     		movs	r3, #0
 2923 000c FB73     		strb	r3, [r7, #15]
1023:Drivers/STM32H7xx_HAL_Driver/Src/stm32h7xx_hal_tim_ex.c **** 
1024:Drivers/STM32H7xx_HAL_Driver/Src/stm32h7xx_hal_tim_ex.c ****   /* Check the parameters */
1025:Drivers/STM32H7xx_HAL_Driver/Src/stm32h7xx_hal_tim_ex.c ****   assert_param(IS_TIM_CCXN_INSTANCE(htim->Instance, Channel));
1026:Drivers/STM32H7xx_HAL_Driver/Src/stm32h7xx_hal_tim_ex.c **** 
1027:Drivers/STM32H7xx_HAL_Driver/Src/stm32h7xx_hal_tim_ex.c ****   switch (Channel)
ARM GAS  /var/folders/d0/cymppscj10lcmm48h781wrc80000gn/T//ccIjALm5.s 			page 70


 2924              		.loc 1 1027 3
 2925 000e 3B68     		ldr	r3, [r7]
 2926 0010 082B     		cmp	r3, #8
 2927 0012 25D0     		beq	.L178
 2928 0014 3B68     		ldr	r3, [r7]
 2929 0016 082B     		cmp	r3, #8
 2930 0018 30D8     		bhi	.L179
 2931 001a 3B68     		ldr	r3, [r7]
 2932 001c 002B     		cmp	r3, #0
 2933 001e 03D0     		beq	.L180
 2934 0020 3B68     		ldr	r3, [r7]
 2935 0022 042B     		cmp	r3, #4
 2936 0024 0ED0     		beq	.L181
 2937 0026 29E0     		b	.L179
 2938              	.L180:
1028:Drivers/STM32H7xx_HAL_Driver/Src/stm32h7xx_hal_tim_ex.c ****   {
1029:Drivers/STM32H7xx_HAL_Driver/Src/stm32h7xx_hal_tim_ex.c ****     case TIM_CHANNEL_1:
1030:Drivers/STM32H7xx_HAL_Driver/Src/stm32h7xx_hal_tim_ex.c ****     {
1031:Drivers/STM32H7xx_HAL_Driver/Src/stm32h7xx_hal_tim_ex.c ****       /* Disable the TIM Output Compare DMA request */
1032:Drivers/STM32H7xx_HAL_Driver/Src/stm32h7xx_hal_tim_ex.c ****       __HAL_TIM_DISABLE_DMA(htim, TIM_DMA_CC1);
 2939              		.loc 1 1032 7
 2940 0028 7B68     		ldr	r3, [r7, #4]
 2941 002a 1B68     		ldr	r3, [r3]
 2942 002c DA68     		ldr	r2, [r3, #12]
 2943 002e 7B68     		ldr	r3, [r7, #4]
 2944 0030 1B68     		ldr	r3, [r3]
 2945 0032 22F40072 		bic	r2, r2, #512
 2946 0036 DA60     		str	r2, [r3, #12]
1033:Drivers/STM32H7xx_HAL_Driver/Src/stm32h7xx_hal_tim_ex.c ****       (void)HAL_DMA_Abort_IT(htim->hdma[TIM_DMA_ID_CC1]);
 2947              		.loc 1 1033 13
 2948 0038 7B68     		ldr	r3, [r7, #4]
 2949 003a 5B6A     		ldr	r3, [r3, #36]
 2950 003c 1846     		mov	r0, r3
 2951 003e FFF7FEFF 		bl	HAL_DMA_Abort_IT
1034:Drivers/STM32H7xx_HAL_Driver/Src/stm32h7xx_hal_tim_ex.c ****       break;
 2952              		.loc 1 1034 7
 2953 0042 1EE0     		b	.L182
 2954              	.L181:
1035:Drivers/STM32H7xx_HAL_Driver/Src/stm32h7xx_hal_tim_ex.c ****     }
1036:Drivers/STM32H7xx_HAL_Driver/Src/stm32h7xx_hal_tim_ex.c **** 
1037:Drivers/STM32H7xx_HAL_Driver/Src/stm32h7xx_hal_tim_ex.c ****     case TIM_CHANNEL_2:
1038:Drivers/STM32H7xx_HAL_Driver/Src/stm32h7xx_hal_tim_ex.c ****     {
1039:Drivers/STM32H7xx_HAL_Driver/Src/stm32h7xx_hal_tim_ex.c ****       /* Disable the TIM Output Compare DMA request */
1040:Drivers/STM32H7xx_HAL_Driver/Src/stm32h7xx_hal_tim_ex.c ****       __HAL_TIM_DISABLE_DMA(htim, TIM_DMA_CC2);
 2955              		.loc 1 1040 7
 2956 0044 7B68     		ldr	r3, [r7, #4]
 2957 0046 1B68     		ldr	r3, [r3]
 2958 0048 DA68     		ldr	r2, [r3, #12]
 2959 004a 7B68     		ldr	r3, [r7, #4]
 2960 004c 1B68     		ldr	r3, [r3]
 2961 004e 22F48062 		bic	r2, r2, #1024
 2962 0052 DA60     		str	r2, [r3, #12]
1041:Drivers/STM32H7xx_HAL_Driver/Src/stm32h7xx_hal_tim_ex.c ****       (void)HAL_DMA_Abort_IT(htim->hdma[TIM_DMA_ID_CC2]);
 2963              		.loc 1 1041 13
 2964 0054 7B68     		ldr	r3, [r7, #4]
 2965 0056 9B6A     		ldr	r3, [r3, #40]
 2966 0058 1846     		mov	r0, r3
ARM GAS  /var/folders/d0/cymppscj10lcmm48h781wrc80000gn/T//ccIjALm5.s 			page 71


 2967 005a FFF7FEFF 		bl	HAL_DMA_Abort_IT
1042:Drivers/STM32H7xx_HAL_Driver/Src/stm32h7xx_hal_tim_ex.c ****       break;
 2968              		.loc 1 1042 7
 2969 005e 10E0     		b	.L182
 2970              	.L178:
1043:Drivers/STM32H7xx_HAL_Driver/Src/stm32h7xx_hal_tim_ex.c ****     }
1044:Drivers/STM32H7xx_HAL_Driver/Src/stm32h7xx_hal_tim_ex.c **** 
1045:Drivers/STM32H7xx_HAL_Driver/Src/stm32h7xx_hal_tim_ex.c ****     case TIM_CHANNEL_3:
1046:Drivers/STM32H7xx_HAL_Driver/Src/stm32h7xx_hal_tim_ex.c ****     {
1047:Drivers/STM32H7xx_HAL_Driver/Src/stm32h7xx_hal_tim_ex.c ****       /* Disable the TIM Output Compare DMA request */
1048:Drivers/STM32H7xx_HAL_Driver/Src/stm32h7xx_hal_tim_ex.c ****       __HAL_TIM_DISABLE_DMA(htim, TIM_DMA_CC3);
 2971              		.loc 1 1048 7
 2972 0060 7B68     		ldr	r3, [r7, #4]
 2973 0062 1B68     		ldr	r3, [r3]
 2974 0064 DA68     		ldr	r2, [r3, #12]
 2975 0066 7B68     		ldr	r3, [r7, #4]
 2976 0068 1B68     		ldr	r3, [r3]
 2977 006a 22F40062 		bic	r2, r2, #2048
 2978 006e DA60     		str	r2, [r3, #12]
1049:Drivers/STM32H7xx_HAL_Driver/Src/stm32h7xx_hal_tim_ex.c ****       (void)HAL_DMA_Abort_IT(htim->hdma[TIM_DMA_ID_CC3]);
 2979              		.loc 1 1049 13
 2980 0070 7B68     		ldr	r3, [r7, #4]
 2981 0072 DB6A     		ldr	r3, [r3, #44]
 2982 0074 1846     		mov	r0, r3
 2983 0076 FFF7FEFF 		bl	HAL_DMA_Abort_IT
1050:Drivers/STM32H7xx_HAL_Driver/Src/stm32h7xx_hal_tim_ex.c ****       break;
 2984              		.loc 1 1050 7
 2985 007a 02E0     		b	.L182
 2986              	.L179:
1051:Drivers/STM32H7xx_HAL_Driver/Src/stm32h7xx_hal_tim_ex.c ****     }
1052:Drivers/STM32H7xx_HAL_Driver/Src/stm32h7xx_hal_tim_ex.c **** 
1053:Drivers/STM32H7xx_HAL_Driver/Src/stm32h7xx_hal_tim_ex.c ****     default:
1054:Drivers/STM32H7xx_HAL_Driver/Src/stm32h7xx_hal_tim_ex.c ****       status = HAL_ERROR;
 2987              		.loc 1 1054 14
 2988 007c 0123     		movs	r3, #1
 2989 007e FB73     		strb	r3, [r7, #15]
1055:Drivers/STM32H7xx_HAL_Driver/Src/stm32h7xx_hal_tim_ex.c ****       break;
 2990              		.loc 1 1055 7
 2991 0080 00BF     		nop
 2992              	.L182:
1056:Drivers/STM32H7xx_HAL_Driver/Src/stm32h7xx_hal_tim_ex.c ****   }
1057:Drivers/STM32H7xx_HAL_Driver/Src/stm32h7xx_hal_tim_ex.c **** 
1058:Drivers/STM32H7xx_HAL_Driver/Src/stm32h7xx_hal_tim_ex.c ****   if (status == HAL_OK)
 2993              		.loc 1 1058 6
 2994 0082 FB7B     		ldrb	r3, [r7, #15]	@ zero_extendqisi2
 2995 0084 002B     		cmp	r3, #0
 2996 0086 52D1     		bne	.L183
1059:Drivers/STM32H7xx_HAL_Driver/Src/stm32h7xx_hal_tim_ex.c ****   {
1060:Drivers/STM32H7xx_HAL_Driver/Src/stm32h7xx_hal_tim_ex.c ****     /* Disable the Capture compare channel N */
1061:Drivers/STM32H7xx_HAL_Driver/Src/stm32h7xx_hal_tim_ex.c ****     TIM_CCxNChannelCmd(htim->Instance, Channel, TIM_CCxN_DISABLE);
 2997              		.loc 1 1061 5
 2998 0088 7B68     		ldr	r3, [r7, #4]
 2999 008a 1B68     		ldr	r3, [r3]
 3000 008c 0022     		movs	r2, #0
 3001 008e 3968     		ldr	r1, [r7]
 3002 0090 1846     		mov	r0, r3
 3003 0092 FFF7FEFF 		bl	TIM_CCxNChannelCmd
ARM GAS  /var/folders/d0/cymppscj10lcmm48h781wrc80000gn/T//ccIjALm5.s 			page 72


1062:Drivers/STM32H7xx_HAL_Driver/Src/stm32h7xx_hal_tim_ex.c **** 
1063:Drivers/STM32H7xx_HAL_Driver/Src/stm32h7xx_hal_tim_ex.c ****     /* Disable the Main Output */
1064:Drivers/STM32H7xx_HAL_Driver/Src/stm32h7xx_hal_tim_ex.c ****     __HAL_TIM_MOE_DISABLE(htim);
 3004              		.loc 1 1064 5
 3005 0096 7B68     		ldr	r3, [r7, #4]
 3006 0098 1B68     		ldr	r3, [r3]
 3007 009a 1A6A     		ldr	r2, [r3, #32]
 3008 009c 41F21113 		movw	r3, #4369
 3009 00a0 1340     		ands	r3, r3, r2
 3010 00a2 002B     		cmp	r3, #0
 3011 00a4 0FD1     		bne	.L184
 3012              		.loc 1 1064 5 is_stmt 0 discriminator 1
 3013 00a6 7B68     		ldr	r3, [r7, #4]
 3014 00a8 1B68     		ldr	r3, [r3]
 3015 00aa 1A6A     		ldr	r2, [r3, #32]
 3016 00ac 40F24443 		movw	r3, #1092
 3017 00b0 1340     		ands	r3, r3, r2
 3018 00b2 002B     		cmp	r3, #0
 3019 00b4 07D1     		bne	.L184
 3020              		.loc 1 1064 5 discriminator 2
 3021 00b6 7B68     		ldr	r3, [r7, #4]
 3022 00b8 1B68     		ldr	r3, [r3]
 3023 00ba 5A6C     		ldr	r2, [r3, #68]
 3024 00bc 7B68     		ldr	r3, [r7, #4]
 3025 00be 1B68     		ldr	r3, [r3]
 3026 00c0 22F40042 		bic	r2, r2, #32768
 3027 00c4 5A64     		str	r2, [r3, #68]
 3028              	.L184:
1065:Drivers/STM32H7xx_HAL_Driver/Src/stm32h7xx_hal_tim_ex.c **** 
1066:Drivers/STM32H7xx_HAL_Driver/Src/stm32h7xx_hal_tim_ex.c ****     /* Disable the Peripheral */
1067:Drivers/STM32H7xx_HAL_Driver/Src/stm32h7xx_hal_tim_ex.c ****     __HAL_TIM_DISABLE(htim);
 3029              		.loc 1 1067 5 is_stmt 1
 3030 00c6 7B68     		ldr	r3, [r7, #4]
 3031 00c8 1B68     		ldr	r3, [r3]
 3032 00ca 1A6A     		ldr	r2, [r3, #32]
 3033 00cc 41F21113 		movw	r3, #4369
 3034 00d0 1340     		ands	r3, r3, r2
 3035 00d2 002B     		cmp	r3, #0
 3036 00d4 0FD1     		bne	.L185
 3037              		.loc 1 1067 5 is_stmt 0 discriminator 1
 3038 00d6 7B68     		ldr	r3, [r7, #4]
 3039 00d8 1B68     		ldr	r3, [r3]
 3040 00da 1A6A     		ldr	r2, [r3, #32]
 3041 00dc 40F24443 		movw	r3, #1092
 3042 00e0 1340     		ands	r3, r3, r2
 3043 00e2 002B     		cmp	r3, #0
 3044 00e4 07D1     		bne	.L185
 3045              		.loc 1 1067 5 discriminator 2
 3046 00e6 7B68     		ldr	r3, [r7, #4]
 3047 00e8 1B68     		ldr	r3, [r3]
 3048 00ea 1A68     		ldr	r2, [r3]
 3049 00ec 7B68     		ldr	r3, [r7, #4]
 3050 00ee 1B68     		ldr	r3, [r3]
 3051 00f0 22F00102 		bic	r2, r2, #1
 3052 00f4 1A60     		str	r2, [r3]
 3053              	.L185:
1068:Drivers/STM32H7xx_HAL_Driver/Src/stm32h7xx_hal_tim_ex.c **** 
ARM GAS  /var/folders/d0/cymppscj10lcmm48h781wrc80000gn/T//ccIjALm5.s 			page 73


1069:Drivers/STM32H7xx_HAL_Driver/Src/stm32h7xx_hal_tim_ex.c ****     /* Set the TIM complementary channel state */
1070:Drivers/STM32H7xx_HAL_Driver/Src/stm32h7xx_hal_tim_ex.c ****     TIM_CHANNEL_N_STATE_SET(htim, Channel, HAL_TIM_CHANNEL_STATE_READY);
 3054              		.loc 1 1070 5 is_stmt 1
 3055 00f6 3B68     		ldr	r3, [r7]
 3056 00f8 002B     		cmp	r3, #0
 3057 00fa 04D1     		bne	.L186
 3058              		.loc 1 1070 5 is_stmt 0 discriminator 1
 3059 00fc 7B68     		ldr	r3, [r7, #4]
 3060 00fe 0122     		movs	r2, #1
 3061 0100 83F84420 		strb	r2, [r3, #68]
 3062 0104 13E0     		b	.L183
 3063              	.L186:
 3064              		.loc 1 1070 5 discriminator 2
 3065 0106 3B68     		ldr	r3, [r7]
 3066 0108 042B     		cmp	r3, #4
 3067 010a 04D1     		bne	.L187
 3068              		.loc 1 1070 5 discriminator 3
 3069 010c 7B68     		ldr	r3, [r7, #4]
 3070 010e 0122     		movs	r2, #1
 3071 0110 83F84520 		strb	r2, [r3, #69]
 3072 0114 0BE0     		b	.L183
 3073              	.L187:
 3074              		.loc 1 1070 5 discriminator 4
 3075 0116 3B68     		ldr	r3, [r7]
 3076 0118 082B     		cmp	r3, #8
 3077 011a 04D1     		bne	.L189
 3078              		.loc 1 1070 5 discriminator 6
 3079 011c 7B68     		ldr	r3, [r7, #4]
 3080 011e 0122     		movs	r2, #1
 3081 0120 83F84620 		strb	r2, [r3, #70]
 3082 0124 03E0     		b	.L183
 3083              	.L189:
 3084              		.loc 1 1070 5 discriminator 7
 3085 0126 7B68     		ldr	r3, [r7, #4]
 3086 0128 0122     		movs	r2, #1
 3087 012a 83F84720 		strb	r2, [r3, #71]
 3088              	.L183:
1071:Drivers/STM32H7xx_HAL_Driver/Src/stm32h7xx_hal_tim_ex.c ****   }
1072:Drivers/STM32H7xx_HAL_Driver/Src/stm32h7xx_hal_tim_ex.c **** 
1073:Drivers/STM32H7xx_HAL_Driver/Src/stm32h7xx_hal_tim_ex.c ****   /* Return function status */
1074:Drivers/STM32H7xx_HAL_Driver/Src/stm32h7xx_hal_tim_ex.c ****   return status;
 3089              		.loc 1 1074 10 is_stmt 1
 3090 012e FB7B     		ldrb	r3, [r7, #15]	@ zero_extendqisi2
1075:Drivers/STM32H7xx_HAL_Driver/Src/stm32h7xx_hal_tim_ex.c **** }
 3091              		.loc 1 1075 1
 3092 0130 1846     		mov	r0, r3
 3093 0132 1037     		adds	r7, r7, #16
 3094              	.LCFI80:
 3095              		.cfi_def_cfa_offset 8
 3096 0134 BD46     		mov	sp, r7
 3097              	.LCFI81:
 3098              		.cfi_def_cfa_register 13
 3099              		@ sp needed
 3100 0136 80BD     		pop	{r7, pc}
 3101              		.cfi_endproc
 3102              	.LFE348:
 3104              		.section	.text.HAL_TIMEx_PWMN_Start,"ax",%progbits
ARM GAS  /var/folders/d0/cymppscj10lcmm48h781wrc80000gn/T//ccIjALm5.s 			page 74


 3105              		.align	1
 3106              		.global	HAL_TIMEx_PWMN_Start
 3107              		.syntax unified
 3108              		.thumb
 3109              		.thumb_func
 3111              	HAL_TIMEx_PWMN_Start:
 3112              	.LFB349:
1076:Drivers/STM32H7xx_HAL_Driver/Src/stm32h7xx_hal_tim_ex.c **** 
1077:Drivers/STM32H7xx_HAL_Driver/Src/stm32h7xx_hal_tim_ex.c **** /**
1078:Drivers/STM32H7xx_HAL_Driver/Src/stm32h7xx_hal_tim_ex.c ****   * @}
1079:Drivers/STM32H7xx_HAL_Driver/Src/stm32h7xx_hal_tim_ex.c ****   */
1080:Drivers/STM32H7xx_HAL_Driver/Src/stm32h7xx_hal_tim_ex.c **** 
1081:Drivers/STM32H7xx_HAL_Driver/Src/stm32h7xx_hal_tim_ex.c **** /** @defgroup TIMEx_Exported_Functions_Group3 Extended Timer Complementary PWM functions
1082:Drivers/STM32H7xx_HAL_Driver/Src/stm32h7xx_hal_tim_ex.c ****   * @brief    Timer Complementary PWM functions
1083:Drivers/STM32H7xx_HAL_Driver/Src/stm32h7xx_hal_tim_ex.c ****   *
1084:Drivers/STM32H7xx_HAL_Driver/Src/stm32h7xx_hal_tim_ex.c **** @verbatim
1085:Drivers/STM32H7xx_HAL_Driver/Src/stm32h7xx_hal_tim_ex.c ****   ==============================================================================
1086:Drivers/STM32H7xx_HAL_Driver/Src/stm32h7xx_hal_tim_ex.c ****                  ##### Timer Complementary PWM functions #####
1087:Drivers/STM32H7xx_HAL_Driver/Src/stm32h7xx_hal_tim_ex.c ****   ==============================================================================
1088:Drivers/STM32H7xx_HAL_Driver/Src/stm32h7xx_hal_tim_ex.c ****   [..]
1089:Drivers/STM32H7xx_HAL_Driver/Src/stm32h7xx_hal_tim_ex.c ****     This section provides functions allowing to:
1090:Drivers/STM32H7xx_HAL_Driver/Src/stm32h7xx_hal_tim_ex.c ****     (+) Start the Complementary PWM.
1091:Drivers/STM32H7xx_HAL_Driver/Src/stm32h7xx_hal_tim_ex.c ****     (+) Stop the Complementary PWM.
1092:Drivers/STM32H7xx_HAL_Driver/Src/stm32h7xx_hal_tim_ex.c ****     (+) Start the Complementary PWM and enable interrupts.
1093:Drivers/STM32H7xx_HAL_Driver/Src/stm32h7xx_hal_tim_ex.c ****     (+) Stop the Complementary PWM and disable interrupts.
1094:Drivers/STM32H7xx_HAL_Driver/Src/stm32h7xx_hal_tim_ex.c ****     (+) Start the Complementary PWM and enable DMA transfers.
1095:Drivers/STM32H7xx_HAL_Driver/Src/stm32h7xx_hal_tim_ex.c ****     (+) Stop the Complementary PWM and disable DMA transfers.
1096:Drivers/STM32H7xx_HAL_Driver/Src/stm32h7xx_hal_tim_ex.c ****     (+) Start the Complementary Input Capture measurement.
1097:Drivers/STM32H7xx_HAL_Driver/Src/stm32h7xx_hal_tim_ex.c ****     (+) Stop the Complementary Input Capture.
1098:Drivers/STM32H7xx_HAL_Driver/Src/stm32h7xx_hal_tim_ex.c ****     (+) Start the Complementary Input Capture and enable interrupts.
1099:Drivers/STM32H7xx_HAL_Driver/Src/stm32h7xx_hal_tim_ex.c ****     (+) Stop the Complementary Input Capture and disable interrupts.
1100:Drivers/STM32H7xx_HAL_Driver/Src/stm32h7xx_hal_tim_ex.c ****     (+) Start the Complementary Input Capture and enable DMA transfers.
1101:Drivers/STM32H7xx_HAL_Driver/Src/stm32h7xx_hal_tim_ex.c ****     (+) Stop the Complementary Input Capture and disable DMA transfers.
1102:Drivers/STM32H7xx_HAL_Driver/Src/stm32h7xx_hal_tim_ex.c ****     (+) Start the Complementary One Pulse generation.
1103:Drivers/STM32H7xx_HAL_Driver/Src/stm32h7xx_hal_tim_ex.c ****     (+) Stop the Complementary One Pulse.
1104:Drivers/STM32H7xx_HAL_Driver/Src/stm32h7xx_hal_tim_ex.c ****     (+) Start the Complementary One Pulse and enable interrupts.
1105:Drivers/STM32H7xx_HAL_Driver/Src/stm32h7xx_hal_tim_ex.c ****     (+) Stop the Complementary One Pulse and disable interrupts.
1106:Drivers/STM32H7xx_HAL_Driver/Src/stm32h7xx_hal_tim_ex.c **** 
1107:Drivers/STM32H7xx_HAL_Driver/Src/stm32h7xx_hal_tim_ex.c **** @endverbatim
1108:Drivers/STM32H7xx_HAL_Driver/Src/stm32h7xx_hal_tim_ex.c ****   * @{
1109:Drivers/STM32H7xx_HAL_Driver/Src/stm32h7xx_hal_tim_ex.c ****   */
1110:Drivers/STM32H7xx_HAL_Driver/Src/stm32h7xx_hal_tim_ex.c **** 
1111:Drivers/STM32H7xx_HAL_Driver/Src/stm32h7xx_hal_tim_ex.c **** /**
1112:Drivers/STM32H7xx_HAL_Driver/Src/stm32h7xx_hal_tim_ex.c ****   * @brief  Starts the PWM signal generation on the complementary output.
1113:Drivers/STM32H7xx_HAL_Driver/Src/stm32h7xx_hal_tim_ex.c ****   * @param  htim TIM handle
1114:Drivers/STM32H7xx_HAL_Driver/Src/stm32h7xx_hal_tim_ex.c ****   * @param  Channel TIM Channel to be enabled
1115:Drivers/STM32H7xx_HAL_Driver/Src/stm32h7xx_hal_tim_ex.c ****   *          This parameter can be one of the following values:
1116:Drivers/STM32H7xx_HAL_Driver/Src/stm32h7xx_hal_tim_ex.c ****   *            @arg TIM_CHANNEL_1: TIM Channel 1 selected
1117:Drivers/STM32H7xx_HAL_Driver/Src/stm32h7xx_hal_tim_ex.c ****   *            @arg TIM_CHANNEL_2: TIM Channel 2 selected
1118:Drivers/STM32H7xx_HAL_Driver/Src/stm32h7xx_hal_tim_ex.c ****   *            @arg TIM_CHANNEL_3: TIM Channel 3 selected
1119:Drivers/STM32H7xx_HAL_Driver/Src/stm32h7xx_hal_tim_ex.c ****   * @retval HAL status
1120:Drivers/STM32H7xx_HAL_Driver/Src/stm32h7xx_hal_tim_ex.c ****   */
1121:Drivers/STM32H7xx_HAL_Driver/Src/stm32h7xx_hal_tim_ex.c **** HAL_StatusTypeDef HAL_TIMEx_PWMN_Start(TIM_HandleTypeDef *htim, uint32_t Channel)
1122:Drivers/STM32H7xx_HAL_Driver/Src/stm32h7xx_hal_tim_ex.c **** {
 3113              		.loc 1 1122 1
 3114              		.cfi_startproc
 3115              		@ args = 0, pretend = 0, frame = 16
ARM GAS  /var/folders/d0/cymppscj10lcmm48h781wrc80000gn/T//ccIjALm5.s 			page 75


 3116              		@ frame_needed = 1, uses_anonymous_args = 0
 3117 0000 80B5     		push	{r7, lr}
 3118              	.LCFI82:
 3119              		.cfi_def_cfa_offset 8
 3120              		.cfi_offset 7, -8
 3121              		.cfi_offset 14, -4
 3122 0002 84B0     		sub	sp, sp, #16
 3123              	.LCFI83:
 3124              		.cfi_def_cfa_offset 24
 3125 0004 00AF     		add	r7, sp, #0
 3126              	.LCFI84:
 3127              		.cfi_def_cfa_register 7
 3128 0006 7860     		str	r0, [r7, #4]
 3129 0008 3960     		str	r1, [r7]
1123:Drivers/STM32H7xx_HAL_Driver/Src/stm32h7xx_hal_tim_ex.c ****   uint32_t tmpsmcr;
1124:Drivers/STM32H7xx_HAL_Driver/Src/stm32h7xx_hal_tim_ex.c **** 
1125:Drivers/STM32H7xx_HAL_Driver/Src/stm32h7xx_hal_tim_ex.c ****   /* Check the parameters */
1126:Drivers/STM32H7xx_HAL_Driver/Src/stm32h7xx_hal_tim_ex.c ****   assert_param(IS_TIM_CCXN_INSTANCE(htim->Instance, Channel));
1127:Drivers/STM32H7xx_HAL_Driver/Src/stm32h7xx_hal_tim_ex.c **** 
1128:Drivers/STM32H7xx_HAL_Driver/Src/stm32h7xx_hal_tim_ex.c ****   /* Check the TIM complementary channel state */
1129:Drivers/STM32H7xx_HAL_Driver/Src/stm32h7xx_hal_tim_ex.c ****   if (TIM_CHANNEL_N_STATE_GET(htim, Channel) != HAL_TIM_CHANNEL_STATE_READY)
 3130              		.loc 1 1129 46
 3131 000a 3B68     		ldr	r3, [r7]
 3132 000c 002B     		cmp	r3, #0
 3133 000e 09D1     		bne	.L193
 3134              		.loc 1 1129 7 discriminator 1
 3135 0010 7B68     		ldr	r3, [r7, #4]
 3136 0012 93F84430 		ldrb	r3, [r3, #68]
 3137 0016 DBB2     		uxtb	r3, r3
 3138              		.loc 1 1129 46 discriminator 1
 3139 0018 012B     		cmp	r3, #1
 3140 001a 14BF     		ite	ne
 3141 001c 0123     		movne	r3, #1
 3142 001e 0023     		moveq	r3, #0
 3143 0020 DBB2     		uxtb	r3, r3
 3144 0022 22E0     		b	.L194
 3145              	.L193:
 3146              		.loc 1 1129 46 is_stmt 0 discriminator 2
 3147 0024 3B68     		ldr	r3, [r7]
 3148 0026 042B     		cmp	r3, #4
 3149 0028 09D1     		bne	.L195
 3150              		.loc 1 1129 7 is_stmt 1 discriminator 4
 3151 002a 7B68     		ldr	r3, [r7, #4]
 3152 002c 93F84530 		ldrb	r3, [r3, #69]
 3153 0030 DBB2     		uxtb	r3, r3
 3154              		.loc 1 1129 46 discriminator 4
 3155 0032 012B     		cmp	r3, #1
 3156 0034 14BF     		ite	ne
 3157 0036 0123     		movne	r3, #1
 3158 0038 0023     		moveq	r3, #0
 3159 003a DBB2     		uxtb	r3, r3
 3160 003c 15E0     		b	.L194
 3161              	.L195:
 3162              		.loc 1 1129 46 is_stmt 0 discriminator 5
 3163 003e 3B68     		ldr	r3, [r7]
 3164 0040 082B     		cmp	r3, #8
 3165 0042 09D1     		bne	.L197
ARM GAS  /var/folders/d0/cymppscj10lcmm48h781wrc80000gn/T//ccIjALm5.s 			page 76


 3166              		.loc 1 1129 7 is_stmt 1 discriminator 7
 3167 0044 7B68     		ldr	r3, [r7, #4]
 3168 0046 93F84630 		ldrb	r3, [r3, #70]
 3169 004a DBB2     		uxtb	r3, r3
 3170              		.loc 1 1129 46 discriminator 7
 3171 004c 012B     		cmp	r3, #1
 3172 004e 14BF     		ite	ne
 3173 0050 0123     		movne	r3, #1
 3174 0052 0023     		moveq	r3, #0
 3175 0054 DBB2     		uxtb	r3, r3
 3176 0056 08E0     		b	.L194
 3177              	.L197:
 3178              		.loc 1 1129 7 discriminator 8
 3179 0058 7B68     		ldr	r3, [r7, #4]
 3180 005a 93F84730 		ldrb	r3, [r3, #71]
 3181 005e DBB2     		uxtb	r3, r3
 3182              		.loc 1 1129 46 discriminator 8
 3183 0060 012B     		cmp	r3, #1
 3184 0062 14BF     		ite	ne
 3185 0064 0123     		movne	r3, #1
 3186 0066 0023     		moveq	r3, #0
 3187 0068 DBB2     		uxtb	r3, r3
 3188              	.L194:
 3189              		.loc 1 1129 6 discriminator 12
 3190 006a 002B     		cmp	r3, #0
 3191 006c 01D0     		beq	.L199
1130:Drivers/STM32H7xx_HAL_Driver/Src/stm32h7xx_hal_tim_ex.c ****   {
1131:Drivers/STM32H7xx_HAL_Driver/Src/stm32h7xx_hal_tim_ex.c ****     return HAL_ERROR;
 3192              		.loc 1 1131 12
 3193 006e 0123     		movs	r3, #1
 3194 0070 73E0     		b	.L200
 3195              	.L199:
1132:Drivers/STM32H7xx_HAL_Driver/Src/stm32h7xx_hal_tim_ex.c ****   }
1133:Drivers/STM32H7xx_HAL_Driver/Src/stm32h7xx_hal_tim_ex.c **** 
1134:Drivers/STM32H7xx_HAL_Driver/Src/stm32h7xx_hal_tim_ex.c ****   /* Set the TIM complementary channel state */
1135:Drivers/STM32H7xx_HAL_Driver/Src/stm32h7xx_hal_tim_ex.c ****   TIM_CHANNEL_N_STATE_SET(htim, Channel, HAL_TIM_CHANNEL_STATE_BUSY);
 3196              		.loc 1 1135 3
 3197 0072 3B68     		ldr	r3, [r7]
 3198 0074 002B     		cmp	r3, #0
 3199 0076 04D1     		bne	.L201
 3200              		.loc 1 1135 3 is_stmt 0 discriminator 1
 3201 0078 7B68     		ldr	r3, [r7, #4]
 3202 007a 0222     		movs	r2, #2
 3203 007c 83F84420 		strb	r2, [r3, #68]
 3204 0080 13E0     		b	.L202
 3205              	.L201:
 3206              		.loc 1 1135 3 discriminator 2
 3207 0082 3B68     		ldr	r3, [r7]
 3208 0084 042B     		cmp	r3, #4
 3209 0086 04D1     		bne	.L203
 3210              		.loc 1 1135 3 discriminator 3
 3211 0088 7B68     		ldr	r3, [r7, #4]
 3212 008a 0222     		movs	r2, #2
 3213 008c 83F84520 		strb	r2, [r3, #69]
 3214 0090 0BE0     		b	.L202
 3215              	.L203:
 3216              		.loc 1 1135 3 discriminator 4
ARM GAS  /var/folders/d0/cymppscj10lcmm48h781wrc80000gn/T//ccIjALm5.s 			page 77


 3217 0092 3B68     		ldr	r3, [r7]
 3218 0094 082B     		cmp	r3, #8
 3219 0096 04D1     		bne	.L205
 3220              		.loc 1 1135 3 discriminator 6
 3221 0098 7B68     		ldr	r3, [r7, #4]
 3222 009a 0222     		movs	r2, #2
 3223 009c 83F84620 		strb	r2, [r3, #70]
 3224 00a0 03E0     		b	.L202
 3225              	.L205:
 3226              		.loc 1 1135 3 discriminator 7
 3227 00a2 7B68     		ldr	r3, [r7, #4]
 3228 00a4 0222     		movs	r2, #2
 3229 00a6 83F84720 		strb	r2, [r3, #71]
 3230              	.L202:
1136:Drivers/STM32H7xx_HAL_Driver/Src/stm32h7xx_hal_tim_ex.c **** 
1137:Drivers/STM32H7xx_HAL_Driver/Src/stm32h7xx_hal_tim_ex.c ****   /* Enable the complementary PWM output  */
1138:Drivers/STM32H7xx_HAL_Driver/Src/stm32h7xx_hal_tim_ex.c ****   TIM_CCxNChannelCmd(htim->Instance, Channel, TIM_CCxN_ENABLE);
 3231              		.loc 1 1138 3 is_stmt 1
 3232 00aa 7B68     		ldr	r3, [r7, #4]
 3233 00ac 1B68     		ldr	r3, [r3]
 3234 00ae 0422     		movs	r2, #4
 3235 00b0 3968     		ldr	r1, [r7]
 3236 00b2 1846     		mov	r0, r3
 3237 00b4 FFF7FEFF 		bl	TIM_CCxNChannelCmd
1139:Drivers/STM32H7xx_HAL_Driver/Src/stm32h7xx_hal_tim_ex.c **** 
1140:Drivers/STM32H7xx_HAL_Driver/Src/stm32h7xx_hal_tim_ex.c ****   /* Enable the Main Output */
1141:Drivers/STM32H7xx_HAL_Driver/Src/stm32h7xx_hal_tim_ex.c ****   __HAL_TIM_MOE_ENABLE(htim);
 3238              		.loc 1 1141 3
 3239 00b8 7B68     		ldr	r3, [r7, #4]
 3240 00ba 1B68     		ldr	r3, [r3]
 3241 00bc 5A6C     		ldr	r2, [r3, #68]
 3242 00be 7B68     		ldr	r3, [r7, #4]
 3243 00c0 1B68     		ldr	r3, [r3]
 3244 00c2 42F40042 		orr	r2, r2, #32768
 3245 00c6 5A64     		str	r2, [r3, #68]
1142:Drivers/STM32H7xx_HAL_Driver/Src/stm32h7xx_hal_tim_ex.c **** 
1143:Drivers/STM32H7xx_HAL_Driver/Src/stm32h7xx_hal_tim_ex.c ****   /* Enable the Peripheral, except in trigger mode where enable is automatically done with trigger 
1144:Drivers/STM32H7xx_HAL_Driver/Src/stm32h7xx_hal_tim_ex.c ****   if (IS_TIM_SLAVE_INSTANCE(htim->Instance))
 3246              		.loc 1 1144 7
 3247 00c8 7B68     		ldr	r3, [r7, #4]
 3248 00ca 1B68     		ldr	r3, [r3]
 3249              		.loc 1 1144 6
 3250 00cc 254A     		ldr	r2, .L212
 3251 00ce 9342     		cmp	r3, r2
 3252 00d0 22D0     		beq	.L207
 3253              		.loc 1 1144 7 discriminator 1
 3254 00d2 7B68     		ldr	r3, [r7, #4]
 3255 00d4 1B68     		ldr	r3, [r3]
 3256 00d6 B3F1804F 		cmp	r3, #1073741824
 3257 00da 1DD0     		beq	.L207
 3258              		.loc 1 1144 7 is_stmt 0 discriminator 2
 3259 00dc 7B68     		ldr	r3, [r7, #4]
 3260 00de 1B68     		ldr	r3, [r3]
 3261 00e0 214A     		ldr	r2, .L212+4
 3262 00e2 9342     		cmp	r3, r2
 3263 00e4 18D0     		beq	.L207
 3264              		.loc 1 1144 7 discriminator 3
ARM GAS  /var/folders/d0/cymppscj10lcmm48h781wrc80000gn/T//ccIjALm5.s 			page 78


 3265 00e6 7B68     		ldr	r3, [r7, #4]
 3266 00e8 1B68     		ldr	r3, [r3]
 3267 00ea 204A     		ldr	r2, .L212+8
 3268 00ec 9342     		cmp	r3, r2
 3269 00ee 13D0     		beq	.L207
 3270              		.loc 1 1144 7 discriminator 4
 3271 00f0 7B68     		ldr	r3, [r7, #4]
 3272 00f2 1B68     		ldr	r3, [r3]
 3273 00f4 1E4A     		ldr	r2, .L212+12
 3274 00f6 9342     		cmp	r3, r2
 3275 00f8 0ED0     		beq	.L207
 3276              		.loc 1 1144 7 discriminator 5
 3277 00fa 7B68     		ldr	r3, [r7, #4]
 3278 00fc 1B68     		ldr	r3, [r3]
 3279 00fe 1D4A     		ldr	r2, .L212+16
 3280 0100 9342     		cmp	r3, r2
 3281 0102 09D0     		beq	.L207
 3282              		.loc 1 1144 7 discriminator 6
 3283 0104 7B68     		ldr	r3, [r7, #4]
 3284 0106 1B68     		ldr	r3, [r3]
 3285 0108 1B4A     		ldr	r2, .L212+20
 3286 010a 9342     		cmp	r3, r2
 3287 010c 04D0     		beq	.L207
 3288              		.loc 1 1144 7 discriminator 7
 3289 010e 7B68     		ldr	r3, [r7, #4]
 3290 0110 1B68     		ldr	r3, [r3]
 3291 0112 1A4A     		ldr	r2, .L212+24
 3292 0114 9342     		cmp	r3, r2
 3293 0116 15D1     		bne	.L208
 3294              	.L207:
1145:Drivers/STM32H7xx_HAL_Driver/Src/stm32h7xx_hal_tim_ex.c ****   {
1146:Drivers/STM32H7xx_HAL_Driver/Src/stm32h7xx_hal_tim_ex.c ****     tmpsmcr = htim->Instance->SMCR & TIM_SMCR_SMS;
 3295              		.loc 1 1146 19 is_stmt 1
 3296 0118 7B68     		ldr	r3, [r7, #4]
 3297 011a 1B68     		ldr	r3, [r3]
 3298              		.loc 1 1146 29
 3299 011c 9A68     		ldr	r2, [r3, #8]
 3300              		.loc 1 1146 13
 3301 011e 184B     		ldr	r3, .L212+28
 3302 0120 1340     		ands	r3, r3, r2
 3303 0122 FB60     		str	r3, [r7, #12]
1147:Drivers/STM32H7xx_HAL_Driver/Src/stm32h7xx_hal_tim_ex.c ****     if (!IS_TIM_SLAVEMODE_TRIGGER_ENABLED(tmpsmcr))
 3304              		.loc 1 1147 8
 3305 0124 FB68     		ldr	r3, [r7, #12]
 3306 0126 062B     		cmp	r3, #6
 3307 0128 15D0     		beq	.L211
 3308              		.loc 1 1147 9 discriminator 1
 3309 012a FB68     		ldr	r3, [r7, #12]
 3310 012c B3F5803F 		cmp	r3, #65536
 3311 0130 11D0     		beq	.L211
1148:Drivers/STM32H7xx_HAL_Driver/Src/stm32h7xx_hal_tim_ex.c ****     {
1149:Drivers/STM32H7xx_HAL_Driver/Src/stm32h7xx_hal_tim_ex.c ****       __HAL_TIM_ENABLE(htim);
 3312              		.loc 1 1149 7
 3313 0132 7B68     		ldr	r3, [r7, #4]
 3314 0134 1B68     		ldr	r3, [r3]
 3315 0136 1A68     		ldr	r2, [r3]
 3316 0138 7B68     		ldr	r3, [r7, #4]
ARM GAS  /var/folders/d0/cymppscj10lcmm48h781wrc80000gn/T//ccIjALm5.s 			page 79


 3317 013a 1B68     		ldr	r3, [r3]
 3318 013c 42F00102 		orr	r2, r2, #1
 3319 0140 1A60     		str	r2, [r3]
1147:Drivers/STM32H7xx_HAL_Driver/Src/stm32h7xx_hal_tim_ex.c ****     if (!IS_TIM_SLAVEMODE_TRIGGER_ENABLED(tmpsmcr))
 3320              		.loc 1 1147 8
 3321 0142 08E0     		b	.L211
 3322              	.L208:
1150:Drivers/STM32H7xx_HAL_Driver/Src/stm32h7xx_hal_tim_ex.c ****     }
1151:Drivers/STM32H7xx_HAL_Driver/Src/stm32h7xx_hal_tim_ex.c ****   }
1152:Drivers/STM32H7xx_HAL_Driver/Src/stm32h7xx_hal_tim_ex.c ****   else
1153:Drivers/STM32H7xx_HAL_Driver/Src/stm32h7xx_hal_tim_ex.c ****   {
1154:Drivers/STM32H7xx_HAL_Driver/Src/stm32h7xx_hal_tim_ex.c ****     __HAL_TIM_ENABLE(htim);
 3323              		.loc 1 1154 5
 3324 0144 7B68     		ldr	r3, [r7, #4]
 3325 0146 1B68     		ldr	r3, [r3]
 3326 0148 1A68     		ldr	r2, [r3]
 3327 014a 7B68     		ldr	r3, [r7, #4]
 3328 014c 1B68     		ldr	r3, [r3]
 3329 014e 42F00102 		orr	r2, r2, #1
 3330 0152 1A60     		str	r2, [r3]
 3331 0154 00E0     		b	.L210
 3332              	.L211:
1147:Drivers/STM32H7xx_HAL_Driver/Src/stm32h7xx_hal_tim_ex.c ****     {
 3333              		.loc 1 1147 8
 3334 0156 00BF     		nop
 3335              	.L210:
1155:Drivers/STM32H7xx_HAL_Driver/Src/stm32h7xx_hal_tim_ex.c ****   }
1156:Drivers/STM32H7xx_HAL_Driver/Src/stm32h7xx_hal_tim_ex.c **** 
1157:Drivers/STM32H7xx_HAL_Driver/Src/stm32h7xx_hal_tim_ex.c ****   /* Return function status */
1158:Drivers/STM32H7xx_HAL_Driver/Src/stm32h7xx_hal_tim_ex.c ****   return HAL_OK;
 3336              		.loc 1 1158 10
 3337 0158 0023     		movs	r3, #0
 3338              	.L200:
1159:Drivers/STM32H7xx_HAL_Driver/Src/stm32h7xx_hal_tim_ex.c **** }
 3339              		.loc 1 1159 1
 3340 015a 1846     		mov	r0, r3
 3341 015c 1037     		adds	r7, r7, #16
 3342              	.LCFI85:
 3343              		.cfi_def_cfa_offset 8
 3344 015e BD46     		mov	sp, r7
 3345              	.LCFI86:
 3346              		.cfi_def_cfa_register 13
 3347              		@ sp needed
 3348 0160 80BD     		pop	{r7, pc}
 3349              	.L213:
 3350 0162 00BF     		.align	2
 3351              	.L212:
 3352 0164 00000140 		.word	1073807360
 3353 0168 00040040 		.word	1073742848
 3354 016c 00080040 		.word	1073743872
 3355 0170 000C0040 		.word	1073744896
 3356 0174 00040140 		.word	1073808384
 3357 0178 00180040 		.word	1073747968
 3358 017c 00400140 		.word	1073823744
 3359 0180 07000100 		.word	65543
 3360              		.cfi_endproc
 3361              	.LFE349:
ARM GAS  /var/folders/d0/cymppscj10lcmm48h781wrc80000gn/T//ccIjALm5.s 			page 80


 3363              		.section	.text.HAL_TIMEx_PWMN_Stop,"ax",%progbits
 3364              		.align	1
 3365              		.global	HAL_TIMEx_PWMN_Stop
 3366              		.syntax unified
 3367              		.thumb
 3368              		.thumb_func
 3370              	HAL_TIMEx_PWMN_Stop:
 3371              	.LFB350:
1160:Drivers/STM32H7xx_HAL_Driver/Src/stm32h7xx_hal_tim_ex.c **** 
1161:Drivers/STM32H7xx_HAL_Driver/Src/stm32h7xx_hal_tim_ex.c **** /**
1162:Drivers/STM32H7xx_HAL_Driver/Src/stm32h7xx_hal_tim_ex.c ****   * @brief  Stops the PWM signal generation on the complementary output.
1163:Drivers/STM32H7xx_HAL_Driver/Src/stm32h7xx_hal_tim_ex.c ****   * @param  htim TIM handle
1164:Drivers/STM32H7xx_HAL_Driver/Src/stm32h7xx_hal_tim_ex.c ****   * @param  Channel TIM Channel to be disabled
1165:Drivers/STM32H7xx_HAL_Driver/Src/stm32h7xx_hal_tim_ex.c ****   *          This parameter can be one of the following values:
1166:Drivers/STM32H7xx_HAL_Driver/Src/stm32h7xx_hal_tim_ex.c ****   *            @arg TIM_CHANNEL_1: TIM Channel 1 selected
1167:Drivers/STM32H7xx_HAL_Driver/Src/stm32h7xx_hal_tim_ex.c ****   *            @arg TIM_CHANNEL_2: TIM Channel 2 selected
1168:Drivers/STM32H7xx_HAL_Driver/Src/stm32h7xx_hal_tim_ex.c ****   *            @arg TIM_CHANNEL_3: TIM Channel 3 selected
1169:Drivers/STM32H7xx_HAL_Driver/Src/stm32h7xx_hal_tim_ex.c ****   * @retval HAL status
1170:Drivers/STM32H7xx_HAL_Driver/Src/stm32h7xx_hal_tim_ex.c ****   */
1171:Drivers/STM32H7xx_HAL_Driver/Src/stm32h7xx_hal_tim_ex.c **** HAL_StatusTypeDef HAL_TIMEx_PWMN_Stop(TIM_HandleTypeDef *htim, uint32_t Channel)
1172:Drivers/STM32H7xx_HAL_Driver/Src/stm32h7xx_hal_tim_ex.c **** {
 3372              		.loc 1 1172 1
 3373              		.cfi_startproc
 3374              		@ args = 0, pretend = 0, frame = 8
 3375              		@ frame_needed = 1, uses_anonymous_args = 0
 3376 0000 80B5     		push	{r7, lr}
 3377              	.LCFI87:
 3378              		.cfi_def_cfa_offset 8
 3379              		.cfi_offset 7, -8
 3380              		.cfi_offset 14, -4
 3381 0002 82B0     		sub	sp, sp, #8
 3382              	.LCFI88:
 3383              		.cfi_def_cfa_offset 16
 3384 0004 00AF     		add	r7, sp, #0
 3385              	.LCFI89:
 3386              		.cfi_def_cfa_register 7
 3387 0006 7860     		str	r0, [r7, #4]
 3388 0008 3960     		str	r1, [r7]
1173:Drivers/STM32H7xx_HAL_Driver/Src/stm32h7xx_hal_tim_ex.c ****   /* Check the parameters */
1174:Drivers/STM32H7xx_HAL_Driver/Src/stm32h7xx_hal_tim_ex.c ****   assert_param(IS_TIM_CCXN_INSTANCE(htim->Instance, Channel));
1175:Drivers/STM32H7xx_HAL_Driver/Src/stm32h7xx_hal_tim_ex.c **** 
1176:Drivers/STM32H7xx_HAL_Driver/Src/stm32h7xx_hal_tim_ex.c ****   /* Disable the complementary PWM output  */
1177:Drivers/STM32H7xx_HAL_Driver/Src/stm32h7xx_hal_tim_ex.c ****   TIM_CCxNChannelCmd(htim->Instance, Channel, TIM_CCxN_DISABLE);
 3389              		.loc 1 1177 3
 3390 000a 7B68     		ldr	r3, [r7, #4]
 3391 000c 1B68     		ldr	r3, [r3]
 3392 000e 0022     		movs	r2, #0
 3393 0010 3968     		ldr	r1, [r7]
 3394 0012 1846     		mov	r0, r3
 3395 0014 FFF7FEFF 		bl	TIM_CCxNChannelCmd
1178:Drivers/STM32H7xx_HAL_Driver/Src/stm32h7xx_hal_tim_ex.c **** 
1179:Drivers/STM32H7xx_HAL_Driver/Src/stm32h7xx_hal_tim_ex.c ****   /* Disable the Main Output */
1180:Drivers/STM32H7xx_HAL_Driver/Src/stm32h7xx_hal_tim_ex.c ****   __HAL_TIM_MOE_DISABLE(htim);
 3396              		.loc 1 1180 3
 3397 0018 7B68     		ldr	r3, [r7, #4]
 3398 001a 1B68     		ldr	r3, [r3]
 3399 001c 1A6A     		ldr	r2, [r3, #32]
ARM GAS  /var/folders/d0/cymppscj10lcmm48h781wrc80000gn/T//ccIjALm5.s 			page 81


 3400 001e 41F21113 		movw	r3, #4369
 3401 0022 1340     		ands	r3, r3, r2
 3402 0024 002B     		cmp	r3, #0
 3403 0026 0FD1     		bne	.L215
 3404              		.loc 1 1180 3 is_stmt 0 discriminator 1
 3405 0028 7B68     		ldr	r3, [r7, #4]
 3406 002a 1B68     		ldr	r3, [r3]
 3407 002c 1A6A     		ldr	r2, [r3, #32]
 3408 002e 40F24443 		movw	r3, #1092
 3409 0032 1340     		ands	r3, r3, r2
 3410 0034 002B     		cmp	r3, #0
 3411 0036 07D1     		bne	.L215
 3412              		.loc 1 1180 3 discriminator 2
 3413 0038 7B68     		ldr	r3, [r7, #4]
 3414 003a 1B68     		ldr	r3, [r3]
 3415 003c 5A6C     		ldr	r2, [r3, #68]
 3416 003e 7B68     		ldr	r3, [r7, #4]
 3417 0040 1B68     		ldr	r3, [r3]
 3418 0042 22F40042 		bic	r2, r2, #32768
 3419 0046 5A64     		str	r2, [r3, #68]
 3420              	.L215:
1181:Drivers/STM32H7xx_HAL_Driver/Src/stm32h7xx_hal_tim_ex.c **** 
1182:Drivers/STM32H7xx_HAL_Driver/Src/stm32h7xx_hal_tim_ex.c ****   /* Disable the Peripheral */
1183:Drivers/STM32H7xx_HAL_Driver/Src/stm32h7xx_hal_tim_ex.c ****   __HAL_TIM_DISABLE(htim);
 3421              		.loc 1 1183 3 is_stmt 1
 3422 0048 7B68     		ldr	r3, [r7, #4]
 3423 004a 1B68     		ldr	r3, [r3]
 3424 004c 1A6A     		ldr	r2, [r3, #32]
 3425 004e 41F21113 		movw	r3, #4369
 3426 0052 1340     		ands	r3, r3, r2
 3427 0054 002B     		cmp	r3, #0
 3428 0056 0FD1     		bne	.L216
 3429              		.loc 1 1183 3 is_stmt 0 discriminator 1
 3430 0058 7B68     		ldr	r3, [r7, #4]
 3431 005a 1B68     		ldr	r3, [r3]
 3432 005c 1A6A     		ldr	r2, [r3, #32]
 3433 005e 40F24443 		movw	r3, #1092
 3434 0062 1340     		ands	r3, r3, r2
 3435 0064 002B     		cmp	r3, #0
 3436 0066 07D1     		bne	.L216
 3437              		.loc 1 1183 3 discriminator 2
 3438 0068 7B68     		ldr	r3, [r7, #4]
 3439 006a 1B68     		ldr	r3, [r3]
 3440 006c 1A68     		ldr	r2, [r3]
 3441 006e 7B68     		ldr	r3, [r7, #4]
 3442 0070 1B68     		ldr	r3, [r3]
 3443 0072 22F00102 		bic	r2, r2, #1
 3444 0076 1A60     		str	r2, [r3]
 3445              	.L216:
1184:Drivers/STM32H7xx_HAL_Driver/Src/stm32h7xx_hal_tim_ex.c **** 
1185:Drivers/STM32H7xx_HAL_Driver/Src/stm32h7xx_hal_tim_ex.c ****   /* Set the TIM complementary channel state */
1186:Drivers/STM32H7xx_HAL_Driver/Src/stm32h7xx_hal_tim_ex.c ****   TIM_CHANNEL_N_STATE_SET(htim, Channel, HAL_TIM_CHANNEL_STATE_READY);
 3446              		.loc 1 1186 3 is_stmt 1
 3447 0078 3B68     		ldr	r3, [r7]
 3448 007a 002B     		cmp	r3, #0
 3449 007c 04D1     		bne	.L217
 3450              		.loc 1 1186 3 is_stmt 0 discriminator 1
ARM GAS  /var/folders/d0/cymppscj10lcmm48h781wrc80000gn/T//ccIjALm5.s 			page 82


 3451 007e 7B68     		ldr	r3, [r7, #4]
 3452 0080 0122     		movs	r2, #1
 3453 0082 83F84420 		strb	r2, [r3, #68]
 3454 0086 13E0     		b	.L218
 3455              	.L217:
 3456              		.loc 1 1186 3 discriminator 2
 3457 0088 3B68     		ldr	r3, [r7]
 3458 008a 042B     		cmp	r3, #4
 3459 008c 04D1     		bne	.L219
 3460              		.loc 1 1186 3 discriminator 3
 3461 008e 7B68     		ldr	r3, [r7, #4]
 3462 0090 0122     		movs	r2, #1
 3463 0092 83F84520 		strb	r2, [r3, #69]
 3464 0096 0BE0     		b	.L218
 3465              	.L219:
 3466              		.loc 1 1186 3 discriminator 4
 3467 0098 3B68     		ldr	r3, [r7]
 3468 009a 082B     		cmp	r3, #8
 3469 009c 04D1     		bne	.L221
 3470              		.loc 1 1186 3 discriminator 6
 3471 009e 7B68     		ldr	r3, [r7, #4]
 3472 00a0 0122     		movs	r2, #1
 3473 00a2 83F84620 		strb	r2, [r3, #70]
 3474 00a6 03E0     		b	.L218
 3475              	.L221:
 3476              		.loc 1 1186 3 discriminator 7
 3477 00a8 7B68     		ldr	r3, [r7, #4]
 3478 00aa 0122     		movs	r2, #1
 3479 00ac 83F84720 		strb	r2, [r3, #71]
 3480              	.L218:
1187:Drivers/STM32H7xx_HAL_Driver/Src/stm32h7xx_hal_tim_ex.c **** 
1188:Drivers/STM32H7xx_HAL_Driver/Src/stm32h7xx_hal_tim_ex.c ****   /* Return function status */
1189:Drivers/STM32H7xx_HAL_Driver/Src/stm32h7xx_hal_tim_ex.c ****   return HAL_OK;
 3481              		.loc 1 1189 10 is_stmt 1
 3482 00b0 0023     		movs	r3, #0
1190:Drivers/STM32H7xx_HAL_Driver/Src/stm32h7xx_hal_tim_ex.c **** }
 3483              		.loc 1 1190 1
 3484 00b2 1846     		mov	r0, r3
 3485 00b4 0837     		adds	r7, r7, #8
 3486              	.LCFI90:
 3487              		.cfi_def_cfa_offset 8
 3488 00b6 BD46     		mov	sp, r7
 3489              	.LCFI91:
 3490              		.cfi_def_cfa_register 13
 3491              		@ sp needed
 3492 00b8 80BD     		pop	{r7, pc}
 3493              		.cfi_endproc
 3494              	.LFE350:
 3496              		.section	.text.HAL_TIMEx_PWMN_Start_IT,"ax",%progbits
 3497              		.align	1
 3498              		.global	HAL_TIMEx_PWMN_Start_IT
 3499              		.syntax unified
 3500              		.thumb
 3501              		.thumb_func
 3503              	HAL_TIMEx_PWMN_Start_IT:
 3504              	.LFB351:
1191:Drivers/STM32H7xx_HAL_Driver/Src/stm32h7xx_hal_tim_ex.c **** 
ARM GAS  /var/folders/d0/cymppscj10lcmm48h781wrc80000gn/T//ccIjALm5.s 			page 83


1192:Drivers/STM32H7xx_HAL_Driver/Src/stm32h7xx_hal_tim_ex.c **** /**
1193:Drivers/STM32H7xx_HAL_Driver/Src/stm32h7xx_hal_tim_ex.c ****   * @brief  Starts the PWM signal generation in interrupt mode on the
1194:Drivers/STM32H7xx_HAL_Driver/Src/stm32h7xx_hal_tim_ex.c ****   *         complementary output.
1195:Drivers/STM32H7xx_HAL_Driver/Src/stm32h7xx_hal_tim_ex.c ****   * @param  htim TIM handle
1196:Drivers/STM32H7xx_HAL_Driver/Src/stm32h7xx_hal_tim_ex.c ****   * @param  Channel TIM Channel to be disabled
1197:Drivers/STM32H7xx_HAL_Driver/Src/stm32h7xx_hal_tim_ex.c ****   *          This parameter can be one of the following values:
1198:Drivers/STM32H7xx_HAL_Driver/Src/stm32h7xx_hal_tim_ex.c ****   *            @arg TIM_CHANNEL_1: TIM Channel 1 selected
1199:Drivers/STM32H7xx_HAL_Driver/Src/stm32h7xx_hal_tim_ex.c ****   *            @arg TIM_CHANNEL_2: TIM Channel 2 selected
1200:Drivers/STM32H7xx_HAL_Driver/Src/stm32h7xx_hal_tim_ex.c ****   *            @arg TIM_CHANNEL_3: TIM Channel 3 selected
1201:Drivers/STM32H7xx_HAL_Driver/Src/stm32h7xx_hal_tim_ex.c ****   * @retval HAL status
1202:Drivers/STM32H7xx_HAL_Driver/Src/stm32h7xx_hal_tim_ex.c ****   */
1203:Drivers/STM32H7xx_HAL_Driver/Src/stm32h7xx_hal_tim_ex.c **** HAL_StatusTypeDef HAL_TIMEx_PWMN_Start_IT(TIM_HandleTypeDef *htim, uint32_t Channel)
1204:Drivers/STM32H7xx_HAL_Driver/Src/stm32h7xx_hal_tim_ex.c **** {
 3505              		.loc 1 1204 1
 3506              		.cfi_startproc
 3507              		@ args = 0, pretend = 0, frame = 16
 3508              		@ frame_needed = 1, uses_anonymous_args = 0
 3509 0000 80B5     		push	{r7, lr}
 3510              	.LCFI92:
 3511              		.cfi_def_cfa_offset 8
 3512              		.cfi_offset 7, -8
 3513              		.cfi_offset 14, -4
 3514 0002 84B0     		sub	sp, sp, #16
 3515              	.LCFI93:
 3516              		.cfi_def_cfa_offset 24
 3517 0004 00AF     		add	r7, sp, #0
 3518              	.LCFI94:
 3519              		.cfi_def_cfa_register 7
 3520 0006 7860     		str	r0, [r7, #4]
 3521 0008 3960     		str	r1, [r7]
1205:Drivers/STM32H7xx_HAL_Driver/Src/stm32h7xx_hal_tim_ex.c ****   HAL_StatusTypeDef status = HAL_OK;
 3522              		.loc 1 1205 21
 3523 000a 0023     		movs	r3, #0
 3524 000c FB73     		strb	r3, [r7, #15]
1206:Drivers/STM32H7xx_HAL_Driver/Src/stm32h7xx_hal_tim_ex.c ****   uint32_t tmpsmcr;
1207:Drivers/STM32H7xx_HAL_Driver/Src/stm32h7xx_hal_tim_ex.c **** 
1208:Drivers/STM32H7xx_HAL_Driver/Src/stm32h7xx_hal_tim_ex.c ****   /* Check the parameters */
1209:Drivers/STM32H7xx_HAL_Driver/Src/stm32h7xx_hal_tim_ex.c ****   assert_param(IS_TIM_CCXN_INSTANCE(htim->Instance, Channel));
1210:Drivers/STM32H7xx_HAL_Driver/Src/stm32h7xx_hal_tim_ex.c **** 
1211:Drivers/STM32H7xx_HAL_Driver/Src/stm32h7xx_hal_tim_ex.c ****   /* Check the TIM complementary channel state */
1212:Drivers/STM32H7xx_HAL_Driver/Src/stm32h7xx_hal_tim_ex.c ****   if (TIM_CHANNEL_N_STATE_GET(htim, Channel) != HAL_TIM_CHANNEL_STATE_READY)
 3525              		.loc 1 1212 46
 3526 000e 3B68     		ldr	r3, [r7]
 3527 0010 002B     		cmp	r3, #0
 3528 0012 09D1     		bne	.L225
 3529              		.loc 1 1212 7 discriminator 1
 3530 0014 7B68     		ldr	r3, [r7, #4]
 3531 0016 93F84430 		ldrb	r3, [r3, #68]
 3532 001a DBB2     		uxtb	r3, r3
 3533              		.loc 1 1212 46 discriminator 1
 3534 001c 012B     		cmp	r3, #1
 3535 001e 14BF     		ite	ne
 3536 0020 0123     		movne	r3, #1
 3537 0022 0023     		moveq	r3, #0
 3538 0024 DBB2     		uxtb	r3, r3
 3539 0026 22E0     		b	.L226
 3540              	.L225:
ARM GAS  /var/folders/d0/cymppscj10lcmm48h781wrc80000gn/T//ccIjALm5.s 			page 84


 3541              		.loc 1 1212 46 is_stmt 0 discriminator 2
 3542 0028 3B68     		ldr	r3, [r7]
 3543 002a 042B     		cmp	r3, #4
 3544 002c 09D1     		bne	.L227
 3545              		.loc 1 1212 7 is_stmt 1 discriminator 4
 3546 002e 7B68     		ldr	r3, [r7, #4]
 3547 0030 93F84530 		ldrb	r3, [r3, #69]
 3548 0034 DBB2     		uxtb	r3, r3
 3549              		.loc 1 1212 46 discriminator 4
 3550 0036 012B     		cmp	r3, #1
 3551 0038 14BF     		ite	ne
 3552 003a 0123     		movne	r3, #1
 3553 003c 0023     		moveq	r3, #0
 3554 003e DBB2     		uxtb	r3, r3
 3555 0040 15E0     		b	.L226
 3556              	.L227:
 3557              		.loc 1 1212 46 is_stmt 0 discriminator 5
 3558 0042 3B68     		ldr	r3, [r7]
 3559 0044 082B     		cmp	r3, #8
 3560 0046 09D1     		bne	.L229
 3561              		.loc 1 1212 7 is_stmt 1 discriminator 7
 3562 0048 7B68     		ldr	r3, [r7, #4]
 3563 004a 93F84630 		ldrb	r3, [r3, #70]
 3564 004e DBB2     		uxtb	r3, r3
 3565              		.loc 1 1212 46 discriminator 7
 3566 0050 012B     		cmp	r3, #1
 3567 0052 14BF     		ite	ne
 3568 0054 0123     		movne	r3, #1
 3569 0056 0023     		moveq	r3, #0
 3570 0058 DBB2     		uxtb	r3, r3
 3571 005a 08E0     		b	.L226
 3572              	.L229:
 3573              		.loc 1 1212 7 discriminator 8
 3574 005c 7B68     		ldr	r3, [r7, #4]
 3575 005e 93F84730 		ldrb	r3, [r3, #71]
 3576 0062 DBB2     		uxtb	r3, r3
 3577              		.loc 1 1212 46 discriminator 8
 3578 0064 012B     		cmp	r3, #1
 3579 0066 14BF     		ite	ne
 3580 0068 0123     		movne	r3, #1
 3581 006a 0023     		moveq	r3, #0
 3582 006c DBB2     		uxtb	r3, r3
 3583              	.L226:
 3584              		.loc 1 1212 6 discriminator 12
 3585 006e 002B     		cmp	r3, #0
 3586 0070 01D0     		beq	.L231
1213:Drivers/STM32H7xx_HAL_Driver/Src/stm32h7xx_hal_tim_ex.c ****   {
1214:Drivers/STM32H7xx_HAL_Driver/Src/stm32h7xx_hal_tim_ex.c ****     return HAL_ERROR;
 3587              		.loc 1 1214 12
 3588 0072 0123     		movs	r3, #1
 3589 0074 A9E0     		b	.L232
 3590              	.L231:
1215:Drivers/STM32H7xx_HAL_Driver/Src/stm32h7xx_hal_tim_ex.c ****   }
1216:Drivers/STM32H7xx_HAL_Driver/Src/stm32h7xx_hal_tim_ex.c **** 
1217:Drivers/STM32H7xx_HAL_Driver/Src/stm32h7xx_hal_tim_ex.c ****   /* Set the TIM complementary channel state */
1218:Drivers/STM32H7xx_HAL_Driver/Src/stm32h7xx_hal_tim_ex.c ****   TIM_CHANNEL_N_STATE_SET(htim, Channel, HAL_TIM_CHANNEL_STATE_BUSY);
 3591              		.loc 1 1218 3
ARM GAS  /var/folders/d0/cymppscj10lcmm48h781wrc80000gn/T//ccIjALm5.s 			page 85


 3592 0076 3B68     		ldr	r3, [r7]
 3593 0078 002B     		cmp	r3, #0
 3594 007a 04D1     		bne	.L233
 3595              		.loc 1 1218 3 is_stmt 0 discriminator 1
 3596 007c 7B68     		ldr	r3, [r7, #4]
 3597 007e 0222     		movs	r2, #2
 3598 0080 83F84420 		strb	r2, [r3, #68]
 3599 0084 13E0     		b	.L234
 3600              	.L233:
 3601              		.loc 1 1218 3 discriminator 2
 3602 0086 3B68     		ldr	r3, [r7]
 3603 0088 042B     		cmp	r3, #4
 3604 008a 04D1     		bne	.L235
 3605              		.loc 1 1218 3 discriminator 3
 3606 008c 7B68     		ldr	r3, [r7, #4]
 3607 008e 0222     		movs	r2, #2
 3608 0090 83F84520 		strb	r2, [r3, #69]
 3609 0094 0BE0     		b	.L234
 3610              	.L235:
 3611              		.loc 1 1218 3 discriminator 4
 3612 0096 3B68     		ldr	r3, [r7]
 3613 0098 082B     		cmp	r3, #8
 3614 009a 04D1     		bne	.L237
 3615              		.loc 1 1218 3 discriminator 6
 3616 009c 7B68     		ldr	r3, [r7, #4]
 3617 009e 0222     		movs	r2, #2
 3618 00a0 83F84620 		strb	r2, [r3, #70]
 3619 00a4 03E0     		b	.L234
 3620              	.L237:
 3621              		.loc 1 1218 3 discriminator 7
 3622 00a6 7B68     		ldr	r3, [r7, #4]
 3623 00a8 0222     		movs	r2, #2
 3624 00aa 83F84720 		strb	r2, [r3, #71]
 3625              	.L234:
1219:Drivers/STM32H7xx_HAL_Driver/Src/stm32h7xx_hal_tim_ex.c **** 
1220:Drivers/STM32H7xx_HAL_Driver/Src/stm32h7xx_hal_tim_ex.c ****   switch (Channel)
 3626              		.loc 1 1220 3 is_stmt 1
 3627 00ae 3B68     		ldr	r3, [r7]
 3628 00b0 082B     		cmp	r3, #8
 3629 00b2 1BD0     		beq	.L239
 3630 00b4 3B68     		ldr	r3, [r7]
 3631 00b6 082B     		cmp	r3, #8
 3632 00b8 21D8     		bhi	.L240
 3633 00ba 3B68     		ldr	r3, [r7]
 3634 00bc 002B     		cmp	r3, #0
 3635 00be 03D0     		beq	.L241
 3636 00c0 3B68     		ldr	r3, [r7]
 3637 00c2 042B     		cmp	r3, #4
 3638 00c4 09D0     		beq	.L242
 3639 00c6 1AE0     		b	.L240
 3640              	.L241:
1221:Drivers/STM32H7xx_HAL_Driver/Src/stm32h7xx_hal_tim_ex.c ****   {
1222:Drivers/STM32H7xx_HAL_Driver/Src/stm32h7xx_hal_tim_ex.c ****     case TIM_CHANNEL_1:
1223:Drivers/STM32H7xx_HAL_Driver/Src/stm32h7xx_hal_tim_ex.c ****     {
1224:Drivers/STM32H7xx_HAL_Driver/Src/stm32h7xx_hal_tim_ex.c ****       /* Enable the TIM Capture/Compare 1 interrupt */
1225:Drivers/STM32H7xx_HAL_Driver/Src/stm32h7xx_hal_tim_ex.c ****       __HAL_TIM_ENABLE_IT(htim, TIM_IT_CC1);
 3641              		.loc 1 1225 7
ARM GAS  /var/folders/d0/cymppscj10lcmm48h781wrc80000gn/T//ccIjALm5.s 			page 86


 3642 00c8 7B68     		ldr	r3, [r7, #4]
 3643 00ca 1B68     		ldr	r3, [r3]
 3644 00cc DA68     		ldr	r2, [r3, #12]
 3645 00ce 7B68     		ldr	r3, [r7, #4]
 3646 00d0 1B68     		ldr	r3, [r3]
 3647 00d2 42F00202 		orr	r2, r2, #2
 3648 00d6 DA60     		str	r2, [r3, #12]
1226:Drivers/STM32H7xx_HAL_Driver/Src/stm32h7xx_hal_tim_ex.c ****       break;
 3649              		.loc 1 1226 7
 3650 00d8 14E0     		b	.L243
 3651              	.L242:
1227:Drivers/STM32H7xx_HAL_Driver/Src/stm32h7xx_hal_tim_ex.c ****     }
1228:Drivers/STM32H7xx_HAL_Driver/Src/stm32h7xx_hal_tim_ex.c **** 
1229:Drivers/STM32H7xx_HAL_Driver/Src/stm32h7xx_hal_tim_ex.c ****     case TIM_CHANNEL_2:
1230:Drivers/STM32H7xx_HAL_Driver/Src/stm32h7xx_hal_tim_ex.c ****     {
1231:Drivers/STM32H7xx_HAL_Driver/Src/stm32h7xx_hal_tim_ex.c ****       /* Enable the TIM Capture/Compare 2 interrupt */
1232:Drivers/STM32H7xx_HAL_Driver/Src/stm32h7xx_hal_tim_ex.c ****       __HAL_TIM_ENABLE_IT(htim, TIM_IT_CC2);
 3652              		.loc 1 1232 7
 3653 00da 7B68     		ldr	r3, [r7, #4]
 3654 00dc 1B68     		ldr	r3, [r3]
 3655 00de DA68     		ldr	r2, [r3, #12]
 3656 00e0 7B68     		ldr	r3, [r7, #4]
 3657 00e2 1B68     		ldr	r3, [r3]
 3658 00e4 42F00402 		orr	r2, r2, #4
 3659 00e8 DA60     		str	r2, [r3, #12]
1233:Drivers/STM32H7xx_HAL_Driver/Src/stm32h7xx_hal_tim_ex.c ****       break;
 3660              		.loc 1 1233 7
 3661 00ea 0BE0     		b	.L243
 3662              	.L239:
1234:Drivers/STM32H7xx_HAL_Driver/Src/stm32h7xx_hal_tim_ex.c ****     }
1235:Drivers/STM32H7xx_HAL_Driver/Src/stm32h7xx_hal_tim_ex.c **** 
1236:Drivers/STM32H7xx_HAL_Driver/Src/stm32h7xx_hal_tim_ex.c ****     case TIM_CHANNEL_3:
1237:Drivers/STM32H7xx_HAL_Driver/Src/stm32h7xx_hal_tim_ex.c ****     {
1238:Drivers/STM32H7xx_HAL_Driver/Src/stm32h7xx_hal_tim_ex.c ****       /* Enable the TIM Capture/Compare 3 interrupt */
1239:Drivers/STM32H7xx_HAL_Driver/Src/stm32h7xx_hal_tim_ex.c ****       __HAL_TIM_ENABLE_IT(htim, TIM_IT_CC3);
 3663              		.loc 1 1239 7
 3664 00ec 7B68     		ldr	r3, [r7, #4]
 3665 00ee 1B68     		ldr	r3, [r3]
 3666 00f0 DA68     		ldr	r2, [r3, #12]
 3667 00f2 7B68     		ldr	r3, [r7, #4]
 3668 00f4 1B68     		ldr	r3, [r3]
 3669 00f6 42F00802 		orr	r2, r2, #8
 3670 00fa DA60     		str	r2, [r3, #12]
1240:Drivers/STM32H7xx_HAL_Driver/Src/stm32h7xx_hal_tim_ex.c ****       break;
 3671              		.loc 1 1240 7
 3672 00fc 02E0     		b	.L243
 3673              	.L240:
1241:Drivers/STM32H7xx_HAL_Driver/Src/stm32h7xx_hal_tim_ex.c ****     }
1242:Drivers/STM32H7xx_HAL_Driver/Src/stm32h7xx_hal_tim_ex.c **** 
1243:Drivers/STM32H7xx_HAL_Driver/Src/stm32h7xx_hal_tim_ex.c ****     default:
1244:Drivers/STM32H7xx_HAL_Driver/Src/stm32h7xx_hal_tim_ex.c ****       status = HAL_ERROR;
 3674              		.loc 1 1244 14
 3675 00fe 0123     		movs	r3, #1
 3676 0100 FB73     		strb	r3, [r7, #15]
1245:Drivers/STM32H7xx_HAL_Driver/Src/stm32h7xx_hal_tim_ex.c ****       break;
 3677              		.loc 1 1245 7
 3678 0102 00BF     		nop
ARM GAS  /var/folders/d0/cymppscj10lcmm48h781wrc80000gn/T//ccIjALm5.s 			page 87


 3679              	.L243:
1246:Drivers/STM32H7xx_HAL_Driver/Src/stm32h7xx_hal_tim_ex.c ****   }
1247:Drivers/STM32H7xx_HAL_Driver/Src/stm32h7xx_hal_tim_ex.c **** 
1248:Drivers/STM32H7xx_HAL_Driver/Src/stm32h7xx_hal_tim_ex.c ****   if (status == HAL_OK)
 3680              		.loc 1 1248 6
 3681 0104 FB7B     		ldrb	r3, [r7, #15]	@ zero_extendqisi2
 3682 0106 002B     		cmp	r3, #0
 3683 0108 5ED1     		bne	.L244
1249:Drivers/STM32H7xx_HAL_Driver/Src/stm32h7xx_hal_tim_ex.c ****   {
1250:Drivers/STM32H7xx_HAL_Driver/Src/stm32h7xx_hal_tim_ex.c ****     /* Enable the TIM Break interrupt */
1251:Drivers/STM32H7xx_HAL_Driver/Src/stm32h7xx_hal_tim_ex.c ****     __HAL_TIM_ENABLE_IT(htim, TIM_IT_BREAK);
 3684              		.loc 1 1251 5
 3685 010a 7B68     		ldr	r3, [r7, #4]
 3686 010c 1B68     		ldr	r3, [r3]
 3687 010e DA68     		ldr	r2, [r3, #12]
 3688 0110 7B68     		ldr	r3, [r7, #4]
 3689 0112 1B68     		ldr	r3, [r3]
 3690 0114 42F08002 		orr	r2, r2, #128
 3691 0118 DA60     		str	r2, [r3, #12]
1252:Drivers/STM32H7xx_HAL_Driver/Src/stm32h7xx_hal_tim_ex.c **** 
1253:Drivers/STM32H7xx_HAL_Driver/Src/stm32h7xx_hal_tim_ex.c ****     /* Enable the complementary PWM output  */
1254:Drivers/STM32H7xx_HAL_Driver/Src/stm32h7xx_hal_tim_ex.c ****     TIM_CCxNChannelCmd(htim->Instance, Channel, TIM_CCxN_ENABLE);
 3692              		.loc 1 1254 5
 3693 011a 7B68     		ldr	r3, [r7, #4]
 3694 011c 1B68     		ldr	r3, [r3]
 3695 011e 0422     		movs	r2, #4
 3696 0120 3968     		ldr	r1, [r7]
 3697 0122 1846     		mov	r0, r3
 3698 0124 FFF7FEFF 		bl	TIM_CCxNChannelCmd
1255:Drivers/STM32H7xx_HAL_Driver/Src/stm32h7xx_hal_tim_ex.c **** 
1256:Drivers/STM32H7xx_HAL_Driver/Src/stm32h7xx_hal_tim_ex.c ****     /* Enable the Main Output */
1257:Drivers/STM32H7xx_HAL_Driver/Src/stm32h7xx_hal_tim_ex.c ****     __HAL_TIM_MOE_ENABLE(htim);
 3699              		.loc 1 1257 5
 3700 0128 7B68     		ldr	r3, [r7, #4]
 3701 012a 1B68     		ldr	r3, [r3]
 3702 012c 5A6C     		ldr	r2, [r3, #68]
 3703 012e 7B68     		ldr	r3, [r7, #4]
 3704 0130 1B68     		ldr	r3, [r3]
 3705 0132 42F40042 		orr	r2, r2, #32768
 3706 0136 5A64     		str	r2, [r3, #68]
1258:Drivers/STM32H7xx_HAL_Driver/Src/stm32h7xx_hal_tim_ex.c **** 
1259:Drivers/STM32H7xx_HAL_Driver/Src/stm32h7xx_hal_tim_ex.c ****     /* Enable the Peripheral, except in trigger mode where enable is automatically done with trigge
1260:Drivers/STM32H7xx_HAL_Driver/Src/stm32h7xx_hal_tim_ex.c ****     if (IS_TIM_SLAVE_INSTANCE(htim->Instance))
 3707              		.loc 1 1260 9
 3708 0138 7B68     		ldr	r3, [r7, #4]
 3709 013a 1B68     		ldr	r3, [r3]
 3710              		.loc 1 1260 8
 3711 013c 254A     		ldr	r2, .L249
 3712 013e 9342     		cmp	r3, r2
 3713 0140 22D0     		beq	.L245
 3714              		.loc 1 1260 9 discriminator 1
 3715 0142 7B68     		ldr	r3, [r7, #4]
 3716 0144 1B68     		ldr	r3, [r3]
 3717 0146 B3F1804F 		cmp	r3, #1073741824
 3718 014a 1DD0     		beq	.L245
 3719              		.loc 1 1260 9 is_stmt 0 discriminator 2
 3720 014c 7B68     		ldr	r3, [r7, #4]
ARM GAS  /var/folders/d0/cymppscj10lcmm48h781wrc80000gn/T//ccIjALm5.s 			page 88


 3721 014e 1B68     		ldr	r3, [r3]
 3722 0150 214A     		ldr	r2, .L249+4
 3723 0152 9342     		cmp	r3, r2
 3724 0154 18D0     		beq	.L245
 3725              		.loc 1 1260 9 discriminator 3
 3726 0156 7B68     		ldr	r3, [r7, #4]
 3727 0158 1B68     		ldr	r3, [r3]
 3728 015a 204A     		ldr	r2, .L249+8
 3729 015c 9342     		cmp	r3, r2
 3730 015e 13D0     		beq	.L245
 3731              		.loc 1 1260 9 discriminator 4
 3732 0160 7B68     		ldr	r3, [r7, #4]
 3733 0162 1B68     		ldr	r3, [r3]
 3734 0164 1E4A     		ldr	r2, .L249+12
 3735 0166 9342     		cmp	r3, r2
 3736 0168 0ED0     		beq	.L245
 3737              		.loc 1 1260 9 discriminator 5
 3738 016a 7B68     		ldr	r3, [r7, #4]
 3739 016c 1B68     		ldr	r3, [r3]
 3740 016e 1D4A     		ldr	r2, .L249+16
 3741 0170 9342     		cmp	r3, r2
 3742 0172 09D0     		beq	.L245
 3743              		.loc 1 1260 9 discriminator 6
 3744 0174 7B68     		ldr	r3, [r7, #4]
 3745 0176 1B68     		ldr	r3, [r3]
 3746 0178 1B4A     		ldr	r2, .L249+20
 3747 017a 9342     		cmp	r3, r2
 3748 017c 04D0     		beq	.L245
 3749              		.loc 1 1260 9 discriminator 7
 3750 017e 7B68     		ldr	r3, [r7, #4]
 3751 0180 1B68     		ldr	r3, [r3]
 3752 0182 1A4A     		ldr	r2, .L249+24
 3753 0184 9342     		cmp	r3, r2
 3754 0186 15D1     		bne	.L246
 3755              	.L245:
1261:Drivers/STM32H7xx_HAL_Driver/Src/stm32h7xx_hal_tim_ex.c ****     {
1262:Drivers/STM32H7xx_HAL_Driver/Src/stm32h7xx_hal_tim_ex.c ****       tmpsmcr = htim->Instance->SMCR & TIM_SMCR_SMS;
 3756              		.loc 1 1262 21 is_stmt 1
 3757 0188 7B68     		ldr	r3, [r7, #4]
 3758 018a 1B68     		ldr	r3, [r3]
 3759              		.loc 1 1262 31
 3760 018c 9A68     		ldr	r2, [r3, #8]
 3761              		.loc 1 1262 15
 3762 018e 184B     		ldr	r3, .L249+28
 3763 0190 1340     		ands	r3, r3, r2
 3764 0192 BB60     		str	r3, [r7, #8]
1263:Drivers/STM32H7xx_HAL_Driver/Src/stm32h7xx_hal_tim_ex.c ****       if (!IS_TIM_SLAVEMODE_TRIGGER_ENABLED(tmpsmcr))
 3765              		.loc 1 1263 10
 3766 0194 BB68     		ldr	r3, [r7, #8]
 3767 0196 062B     		cmp	r3, #6
 3768 0198 15D0     		beq	.L248
 3769              		.loc 1 1263 11 discriminator 1
 3770 019a BB68     		ldr	r3, [r7, #8]
 3771 019c B3F5803F 		cmp	r3, #65536
 3772 01a0 11D0     		beq	.L248
1264:Drivers/STM32H7xx_HAL_Driver/Src/stm32h7xx_hal_tim_ex.c ****       {
1265:Drivers/STM32H7xx_HAL_Driver/Src/stm32h7xx_hal_tim_ex.c ****         __HAL_TIM_ENABLE(htim);
ARM GAS  /var/folders/d0/cymppscj10lcmm48h781wrc80000gn/T//ccIjALm5.s 			page 89


 3773              		.loc 1 1265 9
 3774 01a2 7B68     		ldr	r3, [r7, #4]
 3775 01a4 1B68     		ldr	r3, [r3]
 3776 01a6 1A68     		ldr	r2, [r3]
 3777 01a8 7B68     		ldr	r3, [r7, #4]
 3778 01aa 1B68     		ldr	r3, [r3]
 3779 01ac 42F00102 		orr	r2, r2, #1
 3780 01b0 1A60     		str	r2, [r3]
1263:Drivers/STM32H7xx_HAL_Driver/Src/stm32h7xx_hal_tim_ex.c ****       if (!IS_TIM_SLAVEMODE_TRIGGER_ENABLED(tmpsmcr))
 3781              		.loc 1 1263 10
 3782 01b2 08E0     		b	.L248
 3783              	.L246:
1266:Drivers/STM32H7xx_HAL_Driver/Src/stm32h7xx_hal_tim_ex.c ****       }
1267:Drivers/STM32H7xx_HAL_Driver/Src/stm32h7xx_hal_tim_ex.c ****     }
1268:Drivers/STM32H7xx_HAL_Driver/Src/stm32h7xx_hal_tim_ex.c ****     else
1269:Drivers/STM32H7xx_HAL_Driver/Src/stm32h7xx_hal_tim_ex.c ****     {
1270:Drivers/STM32H7xx_HAL_Driver/Src/stm32h7xx_hal_tim_ex.c ****       __HAL_TIM_ENABLE(htim);
 3784              		.loc 1 1270 7
 3785 01b4 7B68     		ldr	r3, [r7, #4]
 3786 01b6 1B68     		ldr	r3, [r3]
 3787 01b8 1A68     		ldr	r2, [r3]
 3788 01ba 7B68     		ldr	r3, [r7, #4]
 3789 01bc 1B68     		ldr	r3, [r3]
 3790 01be 42F00102 		orr	r2, r2, #1
 3791 01c2 1A60     		str	r2, [r3]
 3792 01c4 00E0     		b	.L244
 3793              	.L248:
1263:Drivers/STM32H7xx_HAL_Driver/Src/stm32h7xx_hal_tim_ex.c ****       {
 3794              		.loc 1 1263 10
 3795 01c6 00BF     		nop
 3796              	.L244:
1271:Drivers/STM32H7xx_HAL_Driver/Src/stm32h7xx_hal_tim_ex.c ****     }
1272:Drivers/STM32H7xx_HAL_Driver/Src/stm32h7xx_hal_tim_ex.c ****   }
1273:Drivers/STM32H7xx_HAL_Driver/Src/stm32h7xx_hal_tim_ex.c **** 
1274:Drivers/STM32H7xx_HAL_Driver/Src/stm32h7xx_hal_tim_ex.c ****   /* Return function status */
1275:Drivers/STM32H7xx_HAL_Driver/Src/stm32h7xx_hal_tim_ex.c ****   return status;
 3797              		.loc 1 1275 10
 3798 01c8 FB7B     		ldrb	r3, [r7, #15]	@ zero_extendqisi2
 3799              	.L232:
1276:Drivers/STM32H7xx_HAL_Driver/Src/stm32h7xx_hal_tim_ex.c **** }
 3800              		.loc 1 1276 1
 3801 01ca 1846     		mov	r0, r3
 3802 01cc 1037     		adds	r7, r7, #16
 3803              	.LCFI95:
 3804              		.cfi_def_cfa_offset 8
 3805 01ce BD46     		mov	sp, r7
 3806              	.LCFI96:
 3807              		.cfi_def_cfa_register 13
 3808              		@ sp needed
 3809 01d0 80BD     		pop	{r7, pc}
 3810              	.L250:
 3811 01d2 00BF     		.align	2
 3812              	.L249:
 3813 01d4 00000140 		.word	1073807360
 3814 01d8 00040040 		.word	1073742848
 3815 01dc 00080040 		.word	1073743872
 3816 01e0 000C0040 		.word	1073744896
ARM GAS  /var/folders/d0/cymppscj10lcmm48h781wrc80000gn/T//ccIjALm5.s 			page 90


 3817 01e4 00040140 		.word	1073808384
 3818 01e8 00180040 		.word	1073747968
 3819 01ec 00400140 		.word	1073823744
 3820 01f0 07000100 		.word	65543
 3821              		.cfi_endproc
 3822              	.LFE351:
 3824              		.section	.text.HAL_TIMEx_PWMN_Stop_IT,"ax",%progbits
 3825              		.align	1
 3826              		.global	HAL_TIMEx_PWMN_Stop_IT
 3827              		.syntax unified
 3828              		.thumb
 3829              		.thumb_func
 3831              	HAL_TIMEx_PWMN_Stop_IT:
 3832              	.LFB352:
1277:Drivers/STM32H7xx_HAL_Driver/Src/stm32h7xx_hal_tim_ex.c **** 
1278:Drivers/STM32H7xx_HAL_Driver/Src/stm32h7xx_hal_tim_ex.c **** /**
1279:Drivers/STM32H7xx_HAL_Driver/Src/stm32h7xx_hal_tim_ex.c ****   * @brief  Stops the PWM signal generation in interrupt mode on the
1280:Drivers/STM32H7xx_HAL_Driver/Src/stm32h7xx_hal_tim_ex.c ****   *         complementary output.
1281:Drivers/STM32H7xx_HAL_Driver/Src/stm32h7xx_hal_tim_ex.c ****   * @param  htim TIM handle
1282:Drivers/STM32H7xx_HAL_Driver/Src/stm32h7xx_hal_tim_ex.c ****   * @param  Channel TIM Channel to be disabled
1283:Drivers/STM32H7xx_HAL_Driver/Src/stm32h7xx_hal_tim_ex.c ****   *          This parameter can be one of the following values:
1284:Drivers/STM32H7xx_HAL_Driver/Src/stm32h7xx_hal_tim_ex.c ****   *            @arg TIM_CHANNEL_1: TIM Channel 1 selected
1285:Drivers/STM32H7xx_HAL_Driver/Src/stm32h7xx_hal_tim_ex.c ****   *            @arg TIM_CHANNEL_2: TIM Channel 2 selected
1286:Drivers/STM32H7xx_HAL_Driver/Src/stm32h7xx_hal_tim_ex.c ****   *            @arg TIM_CHANNEL_3: TIM Channel 3 selected
1287:Drivers/STM32H7xx_HAL_Driver/Src/stm32h7xx_hal_tim_ex.c ****   * @retval HAL status
1288:Drivers/STM32H7xx_HAL_Driver/Src/stm32h7xx_hal_tim_ex.c ****   */
1289:Drivers/STM32H7xx_HAL_Driver/Src/stm32h7xx_hal_tim_ex.c **** HAL_StatusTypeDef HAL_TIMEx_PWMN_Stop_IT(TIM_HandleTypeDef *htim, uint32_t Channel)
1290:Drivers/STM32H7xx_HAL_Driver/Src/stm32h7xx_hal_tim_ex.c **** {
 3833              		.loc 1 1290 1
 3834              		.cfi_startproc
 3835              		@ args = 0, pretend = 0, frame = 16
 3836              		@ frame_needed = 1, uses_anonymous_args = 0
 3837 0000 80B5     		push	{r7, lr}
 3838              	.LCFI97:
 3839              		.cfi_def_cfa_offset 8
 3840              		.cfi_offset 7, -8
 3841              		.cfi_offset 14, -4
 3842 0002 84B0     		sub	sp, sp, #16
 3843              	.LCFI98:
 3844              		.cfi_def_cfa_offset 24
 3845 0004 00AF     		add	r7, sp, #0
 3846              	.LCFI99:
 3847              		.cfi_def_cfa_register 7
 3848 0006 7860     		str	r0, [r7, #4]
 3849 0008 3960     		str	r1, [r7]
1291:Drivers/STM32H7xx_HAL_Driver/Src/stm32h7xx_hal_tim_ex.c ****   HAL_StatusTypeDef status = HAL_OK;
 3850              		.loc 1 1291 21
 3851 000a 0023     		movs	r3, #0
 3852 000c FB73     		strb	r3, [r7, #15]
1292:Drivers/STM32H7xx_HAL_Driver/Src/stm32h7xx_hal_tim_ex.c ****   uint32_t tmpccer;
1293:Drivers/STM32H7xx_HAL_Driver/Src/stm32h7xx_hal_tim_ex.c **** 
1294:Drivers/STM32H7xx_HAL_Driver/Src/stm32h7xx_hal_tim_ex.c ****   /* Check the parameters */
1295:Drivers/STM32H7xx_HAL_Driver/Src/stm32h7xx_hal_tim_ex.c ****   assert_param(IS_TIM_CCXN_INSTANCE(htim->Instance, Channel));
1296:Drivers/STM32H7xx_HAL_Driver/Src/stm32h7xx_hal_tim_ex.c **** 
1297:Drivers/STM32H7xx_HAL_Driver/Src/stm32h7xx_hal_tim_ex.c ****   switch (Channel)
 3853              		.loc 1 1297 3
 3854 000e 3B68     		ldr	r3, [r7]
ARM GAS  /var/folders/d0/cymppscj10lcmm48h781wrc80000gn/T//ccIjALm5.s 			page 91


 3855 0010 082B     		cmp	r3, #8
 3856 0012 1BD0     		beq	.L252
 3857 0014 3B68     		ldr	r3, [r7]
 3858 0016 082B     		cmp	r3, #8
 3859 0018 21D8     		bhi	.L253
 3860 001a 3B68     		ldr	r3, [r7]
 3861 001c 002B     		cmp	r3, #0
 3862 001e 03D0     		beq	.L254
 3863 0020 3B68     		ldr	r3, [r7]
 3864 0022 042B     		cmp	r3, #4
 3865 0024 09D0     		beq	.L255
 3866 0026 1AE0     		b	.L253
 3867              	.L254:
1298:Drivers/STM32H7xx_HAL_Driver/Src/stm32h7xx_hal_tim_ex.c ****   {
1299:Drivers/STM32H7xx_HAL_Driver/Src/stm32h7xx_hal_tim_ex.c ****     case TIM_CHANNEL_1:
1300:Drivers/STM32H7xx_HAL_Driver/Src/stm32h7xx_hal_tim_ex.c ****     {
1301:Drivers/STM32H7xx_HAL_Driver/Src/stm32h7xx_hal_tim_ex.c ****       /* Disable the TIM Capture/Compare 1 interrupt */
1302:Drivers/STM32H7xx_HAL_Driver/Src/stm32h7xx_hal_tim_ex.c ****       __HAL_TIM_DISABLE_IT(htim, TIM_IT_CC1);
 3868              		.loc 1 1302 7
 3869 0028 7B68     		ldr	r3, [r7, #4]
 3870 002a 1B68     		ldr	r3, [r3]
 3871 002c DA68     		ldr	r2, [r3, #12]
 3872 002e 7B68     		ldr	r3, [r7, #4]
 3873 0030 1B68     		ldr	r3, [r3]
 3874 0032 22F00202 		bic	r2, r2, #2
 3875 0036 DA60     		str	r2, [r3, #12]
1303:Drivers/STM32H7xx_HAL_Driver/Src/stm32h7xx_hal_tim_ex.c ****       break;
 3876              		.loc 1 1303 7
 3877 0038 14E0     		b	.L256
 3878              	.L255:
1304:Drivers/STM32H7xx_HAL_Driver/Src/stm32h7xx_hal_tim_ex.c ****     }
1305:Drivers/STM32H7xx_HAL_Driver/Src/stm32h7xx_hal_tim_ex.c **** 
1306:Drivers/STM32H7xx_HAL_Driver/Src/stm32h7xx_hal_tim_ex.c ****     case TIM_CHANNEL_2:
1307:Drivers/STM32H7xx_HAL_Driver/Src/stm32h7xx_hal_tim_ex.c ****     {
1308:Drivers/STM32H7xx_HAL_Driver/Src/stm32h7xx_hal_tim_ex.c ****       /* Disable the TIM Capture/Compare 2 interrupt */
1309:Drivers/STM32H7xx_HAL_Driver/Src/stm32h7xx_hal_tim_ex.c ****       __HAL_TIM_DISABLE_IT(htim, TIM_IT_CC2);
 3879              		.loc 1 1309 7
 3880 003a 7B68     		ldr	r3, [r7, #4]
 3881 003c 1B68     		ldr	r3, [r3]
 3882 003e DA68     		ldr	r2, [r3, #12]
 3883 0040 7B68     		ldr	r3, [r7, #4]
 3884 0042 1B68     		ldr	r3, [r3]
 3885 0044 22F00402 		bic	r2, r2, #4
 3886 0048 DA60     		str	r2, [r3, #12]
1310:Drivers/STM32H7xx_HAL_Driver/Src/stm32h7xx_hal_tim_ex.c ****       break;
 3887              		.loc 1 1310 7
 3888 004a 0BE0     		b	.L256
 3889              	.L252:
1311:Drivers/STM32H7xx_HAL_Driver/Src/stm32h7xx_hal_tim_ex.c ****     }
1312:Drivers/STM32H7xx_HAL_Driver/Src/stm32h7xx_hal_tim_ex.c **** 
1313:Drivers/STM32H7xx_HAL_Driver/Src/stm32h7xx_hal_tim_ex.c ****     case TIM_CHANNEL_3:
1314:Drivers/STM32H7xx_HAL_Driver/Src/stm32h7xx_hal_tim_ex.c ****     {
1315:Drivers/STM32H7xx_HAL_Driver/Src/stm32h7xx_hal_tim_ex.c ****       /* Disable the TIM Capture/Compare 3 interrupt */
1316:Drivers/STM32H7xx_HAL_Driver/Src/stm32h7xx_hal_tim_ex.c ****       __HAL_TIM_DISABLE_IT(htim, TIM_IT_CC3);
 3890              		.loc 1 1316 7
 3891 004c 7B68     		ldr	r3, [r7, #4]
 3892 004e 1B68     		ldr	r3, [r3]
ARM GAS  /var/folders/d0/cymppscj10lcmm48h781wrc80000gn/T//ccIjALm5.s 			page 92


 3893 0050 DA68     		ldr	r2, [r3, #12]
 3894 0052 7B68     		ldr	r3, [r7, #4]
 3895 0054 1B68     		ldr	r3, [r3]
 3896 0056 22F00802 		bic	r2, r2, #8
 3897 005a DA60     		str	r2, [r3, #12]
1317:Drivers/STM32H7xx_HAL_Driver/Src/stm32h7xx_hal_tim_ex.c ****       break;
 3898              		.loc 1 1317 7
 3899 005c 02E0     		b	.L256
 3900              	.L253:
1318:Drivers/STM32H7xx_HAL_Driver/Src/stm32h7xx_hal_tim_ex.c ****     }
1319:Drivers/STM32H7xx_HAL_Driver/Src/stm32h7xx_hal_tim_ex.c **** 
1320:Drivers/STM32H7xx_HAL_Driver/Src/stm32h7xx_hal_tim_ex.c ****     default:
1321:Drivers/STM32H7xx_HAL_Driver/Src/stm32h7xx_hal_tim_ex.c ****       status = HAL_ERROR;
 3901              		.loc 1 1321 14
 3902 005e 0123     		movs	r3, #1
 3903 0060 FB73     		strb	r3, [r7, #15]
1322:Drivers/STM32H7xx_HAL_Driver/Src/stm32h7xx_hal_tim_ex.c ****       break;
 3904              		.loc 1 1322 7
 3905 0062 00BF     		nop
 3906              	.L256:
1323:Drivers/STM32H7xx_HAL_Driver/Src/stm32h7xx_hal_tim_ex.c ****   }
1324:Drivers/STM32H7xx_HAL_Driver/Src/stm32h7xx_hal_tim_ex.c **** 
1325:Drivers/STM32H7xx_HAL_Driver/Src/stm32h7xx_hal_tim_ex.c ****   if (status == HAL_OK)
 3907              		.loc 1 1325 6
 3908 0064 FB7B     		ldrb	r3, [r7, #15]	@ zero_extendqisi2
 3909 0066 002B     		cmp	r3, #0
 3910 0068 64D1     		bne	.L257
1326:Drivers/STM32H7xx_HAL_Driver/Src/stm32h7xx_hal_tim_ex.c ****   {
1327:Drivers/STM32H7xx_HAL_Driver/Src/stm32h7xx_hal_tim_ex.c ****     /* Disable the complementary PWM output  */
1328:Drivers/STM32H7xx_HAL_Driver/Src/stm32h7xx_hal_tim_ex.c ****     TIM_CCxNChannelCmd(htim->Instance, Channel, TIM_CCxN_DISABLE);
 3911              		.loc 1 1328 5
 3912 006a 7B68     		ldr	r3, [r7, #4]
 3913 006c 1B68     		ldr	r3, [r3]
 3914 006e 0022     		movs	r2, #0
 3915 0070 3968     		ldr	r1, [r7]
 3916 0072 1846     		mov	r0, r3
 3917 0074 FFF7FEFF 		bl	TIM_CCxNChannelCmd
1329:Drivers/STM32H7xx_HAL_Driver/Src/stm32h7xx_hal_tim_ex.c **** 
1330:Drivers/STM32H7xx_HAL_Driver/Src/stm32h7xx_hal_tim_ex.c ****     /* Disable the TIM Break interrupt (only if no more channel is active) */
1331:Drivers/STM32H7xx_HAL_Driver/Src/stm32h7xx_hal_tim_ex.c ****     tmpccer = htim->Instance->CCER;
 3918              		.loc 1 1331 19
 3919 0078 7B68     		ldr	r3, [r7, #4]
 3920 007a 1B68     		ldr	r3, [r3]
 3921              		.loc 1 1331 13
 3922 007c 1B6A     		ldr	r3, [r3, #32]
 3923 007e BB60     		str	r3, [r7, #8]
1332:Drivers/STM32H7xx_HAL_Driver/Src/stm32h7xx_hal_tim_ex.c ****     if ((tmpccer & (TIM_CCER_CC1NE | TIM_CCER_CC2NE | TIM_CCER_CC3NE)) == (uint32_t)RESET)
 3924              		.loc 1 1332 18
 3925 0080 BA68     		ldr	r2, [r7, #8]
 3926 0082 40F24443 		movw	r3, #1092
 3927 0086 1340     		ands	r3, r3, r2
 3928              		.loc 1 1332 8
 3929 0088 002B     		cmp	r3, #0
 3930 008a 07D1     		bne	.L258
1333:Drivers/STM32H7xx_HAL_Driver/Src/stm32h7xx_hal_tim_ex.c ****     {
1334:Drivers/STM32H7xx_HAL_Driver/Src/stm32h7xx_hal_tim_ex.c ****       __HAL_TIM_DISABLE_IT(htim, TIM_IT_BREAK);
 3931              		.loc 1 1334 7
ARM GAS  /var/folders/d0/cymppscj10lcmm48h781wrc80000gn/T//ccIjALm5.s 			page 93


 3932 008c 7B68     		ldr	r3, [r7, #4]
 3933 008e 1B68     		ldr	r3, [r3]
 3934 0090 DA68     		ldr	r2, [r3, #12]
 3935 0092 7B68     		ldr	r3, [r7, #4]
 3936 0094 1B68     		ldr	r3, [r3]
 3937 0096 22F08002 		bic	r2, r2, #128
 3938 009a DA60     		str	r2, [r3, #12]
 3939              	.L258:
1335:Drivers/STM32H7xx_HAL_Driver/Src/stm32h7xx_hal_tim_ex.c ****     }
1336:Drivers/STM32H7xx_HAL_Driver/Src/stm32h7xx_hal_tim_ex.c **** 
1337:Drivers/STM32H7xx_HAL_Driver/Src/stm32h7xx_hal_tim_ex.c ****     /* Disable the Main Output */
1338:Drivers/STM32H7xx_HAL_Driver/Src/stm32h7xx_hal_tim_ex.c ****     __HAL_TIM_MOE_DISABLE(htim);
 3940              		.loc 1 1338 5
 3941 009c 7B68     		ldr	r3, [r7, #4]
 3942 009e 1B68     		ldr	r3, [r3]
 3943 00a0 1A6A     		ldr	r2, [r3, #32]
 3944 00a2 41F21113 		movw	r3, #4369
 3945 00a6 1340     		ands	r3, r3, r2
 3946 00a8 002B     		cmp	r3, #0
 3947 00aa 0FD1     		bne	.L259
 3948              		.loc 1 1338 5 is_stmt 0 discriminator 1
 3949 00ac 7B68     		ldr	r3, [r7, #4]
 3950 00ae 1B68     		ldr	r3, [r3]
 3951 00b0 1A6A     		ldr	r2, [r3, #32]
 3952 00b2 40F24443 		movw	r3, #1092
 3953 00b6 1340     		ands	r3, r3, r2
 3954 00b8 002B     		cmp	r3, #0
 3955 00ba 07D1     		bne	.L259
 3956              		.loc 1 1338 5 discriminator 2
 3957 00bc 7B68     		ldr	r3, [r7, #4]
 3958 00be 1B68     		ldr	r3, [r3]
 3959 00c0 5A6C     		ldr	r2, [r3, #68]
 3960 00c2 7B68     		ldr	r3, [r7, #4]
 3961 00c4 1B68     		ldr	r3, [r3]
 3962 00c6 22F40042 		bic	r2, r2, #32768
 3963 00ca 5A64     		str	r2, [r3, #68]
 3964              	.L259:
1339:Drivers/STM32H7xx_HAL_Driver/Src/stm32h7xx_hal_tim_ex.c **** 
1340:Drivers/STM32H7xx_HAL_Driver/Src/stm32h7xx_hal_tim_ex.c ****     /* Disable the Peripheral */
1341:Drivers/STM32H7xx_HAL_Driver/Src/stm32h7xx_hal_tim_ex.c ****     __HAL_TIM_DISABLE(htim);
 3965              		.loc 1 1341 5 is_stmt 1
 3966 00cc 7B68     		ldr	r3, [r7, #4]
 3967 00ce 1B68     		ldr	r3, [r3]
 3968 00d0 1A6A     		ldr	r2, [r3, #32]
 3969 00d2 41F21113 		movw	r3, #4369
 3970 00d6 1340     		ands	r3, r3, r2
 3971 00d8 002B     		cmp	r3, #0
 3972 00da 0FD1     		bne	.L260
 3973              		.loc 1 1341 5 is_stmt 0 discriminator 1
 3974 00dc 7B68     		ldr	r3, [r7, #4]
 3975 00de 1B68     		ldr	r3, [r3]
 3976 00e0 1A6A     		ldr	r2, [r3, #32]
 3977 00e2 40F24443 		movw	r3, #1092
 3978 00e6 1340     		ands	r3, r3, r2
 3979 00e8 002B     		cmp	r3, #0
 3980 00ea 07D1     		bne	.L260
 3981              		.loc 1 1341 5 discriminator 2
ARM GAS  /var/folders/d0/cymppscj10lcmm48h781wrc80000gn/T//ccIjALm5.s 			page 94


 3982 00ec 7B68     		ldr	r3, [r7, #4]
 3983 00ee 1B68     		ldr	r3, [r3]
 3984 00f0 1A68     		ldr	r2, [r3]
 3985 00f2 7B68     		ldr	r3, [r7, #4]
 3986 00f4 1B68     		ldr	r3, [r3]
 3987 00f6 22F00102 		bic	r2, r2, #1
 3988 00fa 1A60     		str	r2, [r3]
 3989              	.L260:
1342:Drivers/STM32H7xx_HAL_Driver/Src/stm32h7xx_hal_tim_ex.c **** 
1343:Drivers/STM32H7xx_HAL_Driver/Src/stm32h7xx_hal_tim_ex.c ****     /* Set the TIM complementary channel state */
1344:Drivers/STM32H7xx_HAL_Driver/Src/stm32h7xx_hal_tim_ex.c ****     TIM_CHANNEL_N_STATE_SET(htim, Channel, HAL_TIM_CHANNEL_STATE_READY);
 3990              		.loc 1 1344 5 is_stmt 1
 3991 00fc 3B68     		ldr	r3, [r7]
 3992 00fe 002B     		cmp	r3, #0
 3993 0100 04D1     		bne	.L261
 3994              		.loc 1 1344 5 is_stmt 0 discriminator 1
 3995 0102 7B68     		ldr	r3, [r7, #4]
 3996 0104 0122     		movs	r2, #1
 3997 0106 83F84420 		strb	r2, [r3, #68]
 3998 010a 13E0     		b	.L257
 3999              	.L261:
 4000              		.loc 1 1344 5 discriminator 2
 4001 010c 3B68     		ldr	r3, [r7]
 4002 010e 042B     		cmp	r3, #4
 4003 0110 04D1     		bne	.L262
 4004              		.loc 1 1344 5 discriminator 3
 4005 0112 7B68     		ldr	r3, [r7, #4]
 4006 0114 0122     		movs	r2, #1
 4007 0116 83F84520 		strb	r2, [r3, #69]
 4008 011a 0BE0     		b	.L257
 4009              	.L262:
 4010              		.loc 1 1344 5 discriminator 4
 4011 011c 3B68     		ldr	r3, [r7]
 4012 011e 082B     		cmp	r3, #8
 4013 0120 04D1     		bne	.L264
 4014              		.loc 1 1344 5 discriminator 6
 4015 0122 7B68     		ldr	r3, [r7, #4]
 4016 0124 0122     		movs	r2, #1
 4017 0126 83F84620 		strb	r2, [r3, #70]
 4018 012a 03E0     		b	.L257
 4019              	.L264:
 4020              		.loc 1 1344 5 discriminator 7
 4021 012c 7B68     		ldr	r3, [r7, #4]
 4022 012e 0122     		movs	r2, #1
 4023 0130 83F84720 		strb	r2, [r3, #71]
 4024              	.L257:
1345:Drivers/STM32H7xx_HAL_Driver/Src/stm32h7xx_hal_tim_ex.c ****   }
1346:Drivers/STM32H7xx_HAL_Driver/Src/stm32h7xx_hal_tim_ex.c **** 
1347:Drivers/STM32H7xx_HAL_Driver/Src/stm32h7xx_hal_tim_ex.c ****   /* Return function status */
1348:Drivers/STM32H7xx_HAL_Driver/Src/stm32h7xx_hal_tim_ex.c ****   return status;
 4025              		.loc 1 1348 10 is_stmt 1
 4026 0134 FB7B     		ldrb	r3, [r7, #15]	@ zero_extendqisi2
1349:Drivers/STM32H7xx_HAL_Driver/Src/stm32h7xx_hal_tim_ex.c **** }
 4027              		.loc 1 1349 1
 4028 0136 1846     		mov	r0, r3
 4029 0138 1037     		adds	r7, r7, #16
 4030              	.LCFI100:
ARM GAS  /var/folders/d0/cymppscj10lcmm48h781wrc80000gn/T//ccIjALm5.s 			page 95


 4031              		.cfi_def_cfa_offset 8
 4032 013a BD46     		mov	sp, r7
 4033              	.LCFI101:
 4034              		.cfi_def_cfa_register 13
 4035              		@ sp needed
 4036 013c 80BD     		pop	{r7, pc}
 4037              		.cfi_endproc
 4038              	.LFE352:
 4040              		.section	.text.HAL_TIMEx_PWMN_Start_DMA,"ax",%progbits
 4041              		.align	1
 4042              		.global	HAL_TIMEx_PWMN_Start_DMA
 4043              		.syntax unified
 4044              		.thumb
 4045              		.thumb_func
 4047              	HAL_TIMEx_PWMN_Start_DMA:
 4048              	.LFB353:
1350:Drivers/STM32H7xx_HAL_Driver/Src/stm32h7xx_hal_tim_ex.c **** 
1351:Drivers/STM32H7xx_HAL_Driver/Src/stm32h7xx_hal_tim_ex.c **** /**
1352:Drivers/STM32H7xx_HAL_Driver/Src/stm32h7xx_hal_tim_ex.c ****   * @brief  Starts the TIM PWM signal generation in DMA mode on the
1353:Drivers/STM32H7xx_HAL_Driver/Src/stm32h7xx_hal_tim_ex.c ****   *         complementary output
1354:Drivers/STM32H7xx_HAL_Driver/Src/stm32h7xx_hal_tim_ex.c ****   * @param  htim TIM handle
1355:Drivers/STM32H7xx_HAL_Driver/Src/stm32h7xx_hal_tim_ex.c ****   * @param  Channel TIM Channel to be enabled
1356:Drivers/STM32H7xx_HAL_Driver/Src/stm32h7xx_hal_tim_ex.c ****   *          This parameter can be one of the following values:
1357:Drivers/STM32H7xx_HAL_Driver/Src/stm32h7xx_hal_tim_ex.c ****   *            @arg TIM_CHANNEL_1: TIM Channel 1 selected
1358:Drivers/STM32H7xx_HAL_Driver/Src/stm32h7xx_hal_tim_ex.c ****   *            @arg TIM_CHANNEL_2: TIM Channel 2 selected
1359:Drivers/STM32H7xx_HAL_Driver/Src/stm32h7xx_hal_tim_ex.c ****   *            @arg TIM_CHANNEL_3: TIM Channel 3 selected
1360:Drivers/STM32H7xx_HAL_Driver/Src/stm32h7xx_hal_tim_ex.c ****   * @param  pData The source Buffer address.
1361:Drivers/STM32H7xx_HAL_Driver/Src/stm32h7xx_hal_tim_ex.c ****   * @param  Length The length of data to be transferred from memory to TIM peripheral
1362:Drivers/STM32H7xx_HAL_Driver/Src/stm32h7xx_hal_tim_ex.c ****   * @retval HAL status
1363:Drivers/STM32H7xx_HAL_Driver/Src/stm32h7xx_hal_tim_ex.c ****   */
1364:Drivers/STM32H7xx_HAL_Driver/Src/stm32h7xx_hal_tim_ex.c **** HAL_StatusTypeDef HAL_TIMEx_PWMN_Start_DMA(TIM_HandleTypeDef *htim, uint32_t Channel, uint32_t *pDa
1365:Drivers/STM32H7xx_HAL_Driver/Src/stm32h7xx_hal_tim_ex.c **** {
 4049              		.loc 1 1365 1
 4050              		.cfi_startproc
 4051              		@ args = 0, pretend = 0, frame = 24
 4052              		@ frame_needed = 1, uses_anonymous_args = 0
 4053 0000 80B5     		push	{r7, lr}
 4054              	.LCFI102:
 4055              		.cfi_def_cfa_offset 8
 4056              		.cfi_offset 7, -8
 4057              		.cfi_offset 14, -4
 4058 0002 86B0     		sub	sp, sp, #24
 4059              	.LCFI103:
 4060              		.cfi_def_cfa_offset 32
 4061 0004 00AF     		add	r7, sp, #0
 4062              	.LCFI104:
 4063              		.cfi_def_cfa_register 7
 4064 0006 F860     		str	r0, [r7, #12]
 4065 0008 B960     		str	r1, [r7, #8]
 4066 000a 7A60     		str	r2, [r7, #4]
 4067 000c 7B80     		strh	r3, [r7, #2]	@ movhi
1366:Drivers/STM32H7xx_HAL_Driver/Src/stm32h7xx_hal_tim_ex.c ****   HAL_StatusTypeDef status = HAL_OK;
 4068              		.loc 1 1366 21
 4069 000e 0023     		movs	r3, #0
 4070 0010 FB75     		strb	r3, [r7, #23]
1367:Drivers/STM32H7xx_HAL_Driver/Src/stm32h7xx_hal_tim_ex.c ****   uint32_t tmpsmcr;
1368:Drivers/STM32H7xx_HAL_Driver/Src/stm32h7xx_hal_tim_ex.c **** 
ARM GAS  /var/folders/d0/cymppscj10lcmm48h781wrc80000gn/T//ccIjALm5.s 			page 96


1369:Drivers/STM32H7xx_HAL_Driver/Src/stm32h7xx_hal_tim_ex.c ****   /* Check the parameters */
1370:Drivers/STM32H7xx_HAL_Driver/Src/stm32h7xx_hal_tim_ex.c ****   assert_param(IS_TIM_CCXN_INSTANCE(htim->Instance, Channel));
1371:Drivers/STM32H7xx_HAL_Driver/Src/stm32h7xx_hal_tim_ex.c **** 
1372:Drivers/STM32H7xx_HAL_Driver/Src/stm32h7xx_hal_tim_ex.c ****   /* Set the TIM complementary channel state */
1373:Drivers/STM32H7xx_HAL_Driver/Src/stm32h7xx_hal_tim_ex.c ****   if (TIM_CHANNEL_N_STATE_GET(htim, Channel) == HAL_TIM_CHANNEL_STATE_BUSY)
 4071              		.loc 1 1373 46
 4072 0012 BB68     		ldr	r3, [r7, #8]
 4073 0014 002B     		cmp	r3, #0
 4074 0016 09D1     		bne	.L268
 4075              		.loc 1 1373 7 discriminator 1
 4076 0018 FB68     		ldr	r3, [r7, #12]
 4077 001a 93F84430 		ldrb	r3, [r3, #68]
 4078 001e DBB2     		uxtb	r3, r3
 4079              		.loc 1 1373 46 discriminator 1
 4080 0020 022B     		cmp	r3, #2
 4081 0022 0CBF     		ite	eq
 4082 0024 0123     		moveq	r3, #1
 4083 0026 0023     		movne	r3, #0
 4084 0028 DBB2     		uxtb	r3, r3
 4085 002a 22E0     		b	.L269
 4086              	.L268:
 4087              		.loc 1 1373 46 is_stmt 0 discriminator 2
 4088 002c BB68     		ldr	r3, [r7, #8]
 4089 002e 042B     		cmp	r3, #4
 4090 0030 09D1     		bne	.L270
 4091              		.loc 1 1373 7 is_stmt 1 discriminator 4
 4092 0032 FB68     		ldr	r3, [r7, #12]
 4093 0034 93F84530 		ldrb	r3, [r3, #69]
 4094 0038 DBB2     		uxtb	r3, r3
 4095              		.loc 1 1373 46 discriminator 4
 4096 003a 022B     		cmp	r3, #2
 4097 003c 0CBF     		ite	eq
 4098 003e 0123     		moveq	r3, #1
 4099 0040 0023     		movne	r3, #0
 4100 0042 DBB2     		uxtb	r3, r3
 4101 0044 15E0     		b	.L269
 4102              	.L270:
 4103              		.loc 1 1373 46 is_stmt 0 discriminator 5
 4104 0046 BB68     		ldr	r3, [r7, #8]
 4105 0048 082B     		cmp	r3, #8
 4106 004a 09D1     		bne	.L272
 4107              		.loc 1 1373 7 is_stmt 1 discriminator 7
 4108 004c FB68     		ldr	r3, [r7, #12]
 4109 004e 93F84630 		ldrb	r3, [r3, #70]
 4110 0052 DBB2     		uxtb	r3, r3
 4111              		.loc 1 1373 46 discriminator 7
 4112 0054 022B     		cmp	r3, #2
 4113 0056 0CBF     		ite	eq
 4114 0058 0123     		moveq	r3, #1
 4115 005a 0023     		movne	r3, #0
 4116 005c DBB2     		uxtb	r3, r3
 4117 005e 08E0     		b	.L269
 4118              	.L272:
 4119              		.loc 1 1373 7 discriminator 8
 4120 0060 FB68     		ldr	r3, [r7, #12]
 4121 0062 93F84730 		ldrb	r3, [r3, #71]
 4122 0066 DBB2     		uxtb	r3, r3
ARM GAS  /var/folders/d0/cymppscj10lcmm48h781wrc80000gn/T//ccIjALm5.s 			page 97


 4123              		.loc 1 1373 46 discriminator 8
 4124 0068 022B     		cmp	r3, #2
 4125 006a 0CBF     		ite	eq
 4126 006c 0123     		moveq	r3, #1
 4127 006e 0023     		movne	r3, #0
 4128 0070 DBB2     		uxtb	r3, r3
 4129              	.L269:
 4130              		.loc 1 1373 6 discriminator 12
 4131 0072 002B     		cmp	r3, #0
 4132 0074 01D0     		beq	.L274
1374:Drivers/STM32H7xx_HAL_Driver/Src/stm32h7xx_hal_tim_ex.c ****   {
1375:Drivers/STM32H7xx_HAL_Driver/Src/stm32h7xx_hal_tim_ex.c ****     return HAL_BUSY;
 4133              		.loc 1 1375 12
 4134 0076 0223     		movs	r3, #2
 4135 0078 2FE1     		b	.L275
 4136              	.L274:
1376:Drivers/STM32H7xx_HAL_Driver/Src/stm32h7xx_hal_tim_ex.c ****   }
1377:Drivers/STM32H7xx_HAL_Driver/Src/stm32h7xx_hal_tim_ex.c ****   else if (TIM_CHANNEL_N_STATE_GET(htim, Channel) == HAL_TIM_CHANNEL_STATE_READY)
 4137              		.loc 1 1377 51
 4138 007a BB68     		ldr	r3, [r7, #8]
 4139 007c 002B     		cmp	r3, #0
 4140 007e 09D1     		bne	.L276
 4141              		.loc 1 1377 12 discriminator 1
 4142 0080 FB68     		ldr	r3, [r7, #12]
 4143 0082 93F84430 		ldrb	r3, [r3, #68]
 4144 0086 DBB2     		uxtb	r3, r3
 4145              		.loc 1 1377 51 discriminator 1
 4146 0088 012B     		cmp	r3, #1
 4147 008a 0CBF     		ite	eq
 4148 008c 0123     		moveq	r3, #1
 4149 008e 0023     		movne	r3, #0
 4150 0090 DBB2     		uxtb	r3, r3
 4151 0092 22E0     		b	.L277
 4152              	.L276:
 4153              		.loc 1 1377 51 is_stmt 0 discriminator 2
 4154 0094 BB68     		ldr	r3, [r7, #8]
 4155 0096 042B     		cmp	r3, #4
 4156 0098 09D1     		bne	.L278
 4157              		.loc 1 1377 12 is_stmt 1 discriminator 4
 4158 009a FB68     		ldr	r3, [r7, #12]
 4159 009c 93F84530 		ldrb	r3, [r3, #69]
 4160 00a0 DBB2     		uxtb	r3, r3
 4161              		.loc 1 1377 51 discriminator 4
 4162 00a2 012B     		cmp	r3, #1
 4163 00a4 0CBF     		ite	eq
 4164 00a6 0123     		moveq	r3, #1
 4165 00a8 0023     		movne	r3, #0
 4166 00aa DBB2     		uxtb	r3, r3
 4167 00ac 15E0     		b	.L277
 4168              	.L278:
 4169              		.loc 1 1377 51 is_stmt 0 discriminator 5
 4170 00ae BB68     		ldr	r3, [r7, #8]
 4171 00b0 082B     		cmp	r3, #8
 4172 00b2 09D1     		bne	.L280
 4173              		.loc 1 1377 12 is_stmt 1 discriminator 7
 4174 00b4 FB68     		ldr	r3, [r7, #12]
 4175 00b6 93F84630 		ldrb	r3, [r3, #70]
ARM GAS  /var/folders/d0/cymppscj10lcmm48h781wrc80000gn/T//ccIjALm5.s 			page 98


 4176 00ba DBB2     		uxtb	r3, r3
 4177              		.loc 1 1377 51 discriminator 7
 4178 00bc 012B     		cmp	r3, #1
 4179 00be 0CBF     		ite	eq
 4180 00c0 0123     		moveq	r3, #1
 4181 00c2 0023     		movne	r3, #0
 4182 00c4 DBB2     		uxtb	r3, r3
 4183 00c6 08E0     		b	.L277
 4184              	.L280:
 4185              		.loc 1 1377 12 discriminator 8
 4186 00c8 FB68     		ldr	r3, [r7, #12]
 4187 00ca 93F84730 		ldrb	r3, [r3, #71]
 4188 00ce DBB2     		uxtb	r3, r3
 4189              		.loc 1 1377 51 discriminator 8
 4190 00d0 012B     		cmp	r3, #1
 4191 00d2 0CBF     		ite	eq
 4192 00d4 0123     		moveq	r3, #1
 4193 00d6 0023     		movne	r3, #0
 4194 00d8 DBB2     		uxtb	r3, r3
 4195              	.L277:
 4196              		.loc 1 1377 11 discriminator 12
 4197 00da 002B     		cmp	r3, #0
 4198 00dc 24D0     		beq	.L282
1378:Drivers/STM32H7xx_HAL_Driver/Src/stm32h7xx_hal_tim_ex.c ****   {
1379:Drivers/STM32H7xx_HAL_Driver/Src/stm32h7xx_hal_tim_ex.c ****     if ((pData == NULL) && (Length > 0U))
 4199              		.loc 1 1379 8
 4200 00de 7B68     		ldr	r3, [r7, #4]
 4201 00e0 002B     		cmp	r3, #0
 4202 00e2 04D1     		bne	.L283
 4203              		.loc 1 1379 25 discriminator 1
 4204 00e4 7B88     		ldrh	r3, [r7, #2]
 4205 00e6 002B     		cmp	r3, #0
 4206 00e8 01D0     		beq	.L283
1380:Drivers/STM32H7xx_HAL_Driver/Src/stm32h7xx_hal_tim_ex.c ****     {
1381:Drivers/STM32H7xx_HAL_Driver/Src/stm32h7xx_hal_tim_ex.c ****       return HAL_ERROR;
 4207              		.loc 1 1381 14
 4208 00ea 0123     		movs	r3, #1
 4209 00ec F5E0     		b	.L275
 4210              	.L283:
1382:Drivers/STM32H7xx_HAL_Driver/Src/stm32h7xx_hal_tim_ex.c ****     }
1383:Drivers/STM32H7xx_HAL_Driver/Src/stm32h7xx_hal_tim_ex.c ****     else
1384:Drivers/STM32H7xx_HAL_Driver/Src/stm32h7xx_hal_tim_ex.c ****     {
1385:Drivers/STM32H7xx_HAL_Driver/Src/stm32h7xx_hal_tim_ex.c ****       TIM_CHANNEL_N_STATE_SET(htim, Channel, HAL_TIM_CHANNEL_STATE_BUSY);
 4211              		.loc 1 1385 7
 4212 00ee BB68     		ldr	r3, [r7, #8]
 4213 00f0 002B     		cmp	r3, #0
 4214 00f2 04D1     		bne	.L284
 4215              		.loc 1 1385 7 is_stmt 0 discriminator 1
 4216 00f4 FB68     		ldr	r3, [r7, #12]
 4217 00f6 0222     		movs	r2, #2
 4218 00f8 83F84420 		strb	r2, [r3, #68]
 4219 00fc 16E0     		b	.L285
 4220              	.L284:
 4221              		.loc 1 1385 7 discriminator 2
 4222 00fe BB68     		ldr	r3, [r7, #8]
 4223 0100 042B     		cmp	r3, #4
 4224 0102 04D1     		bne	.L286
ARM GAS  /var/folders/d0/cymppscj10lcmm48h781wrc80000gn/T//ccIjALm5.s 			page 99


 4225              		.loc 1 1385 7 discriminator 3
 4226 0104 FB68     		ldr	r3, [r7, #12]
 4227 0106 0222     		movs	r2, #2
 4228 0108 83F84520 		strb	r2, [r3, #69]
 4229 010c 0EE0     		b	.L285
 4230              	.L286:
 4231              		.loc 1 1385 7 discriminator 4
 4232 010e BB68     		ldr	r3, [r7, #8]
 4233 0110 082B     		cmp	r3, #8
 4234 0112 04D1     		bne	.L288
 4235              		.loc 1 1385 7 discriminator 6
 4236 0114 FB68     		ldr	r3, [r7, #12]
 4237 0116 0222     		movs	r2, #2
 4238 0118 83F84620 		strb	r2, [r3, #70]
 4239 011c 06E0     		b	.L285
 4240              	.L288:
 4241              		.loc 1 1385 7 discriminator 7
 4242 011e FB68     		ldr	r3, [r7, #12]
 4243 0120 0222     		movs	r2, #2
 4244 0122 83F84720 		strb	r2, [r3, #71]
 4245 0126 01E0     		b	.L285
 4246              	.L282:
1386:Drivers/STM32H7xx_HAL_Driver/Src/stm32h7xx_hal_tim_ex.c ****     }
1387:Drivers/STM32H7xx_HAL_Driver/Src/stm32h7xx_hal_tim_ex.c ****   }
1388:Drivers/STM32H7xx_HAL_Driver/Src/stm32h7xx_hal_tim_ex.c ****   else
1389:Drivers/STM32H7xx_HAL_Driver/Src/stm32h7xx_hal_tim_ex.c ****   {
1390:Drivers/STM32H7xx_HAL_Driver/Src/stm32h7xx_hal_tim_ex.c ****     return HAL_ERROR;
 4247              		.loc 1 1390 12 is_stmt 1
 4248 0128 0123     		movs	r3, #1
 4249 012a D6E0     		b	.L275
 4250              	.L285:
1391:Drivers/STM32H7xx_HAL_Driver/Src/stm32h7xx_hal_tim_ex.c ****   }
1392:Drivers/STM32H7xx_HAL_Driver/Src/stm32h7xx_hal_tim_ex.c **** 
1393:Drivers/STM32H7xx_HAL_Driver/Src/stm32h7xx_hal_tim_ex.c ****   switch (Channel)
 4251              		.loc 1 1393 3
 4252 012c BB68     		ldr	r3, [r7, #8]
 4253 012e 082B     		cmp	r3, #8
 4254 0130 51D0     		beq	.L290
 4255 0132 BB68     		ldr	r3, [r7, #8]
 4256 0134 082B     		cmp	r3, #8
 4257 0136 72D8     		bhi	.L291
 4258 0138 BB68     		ldr	r3, [r7, #8]
 4259 013a 002B     		cmp	r3, #0
 4260 013c 03D0     		beq	.L292
 4261 013e BB68     		ldr	r3, [r7, #8]
 4262 0140 042B     		cmp	r3, #4
 4263 0142 24D0     		beq	.L293
 4264 0144 6BE0     		b	.L291
 4265              	.L292:
1394:Drivers/STM32H7xx_HAL_Driver/Src/stm32h7xx_hal_tim_ex.c ****   {
1395:Drivers/STM32H7xx_HAL_Driver/Src/stm32h7xx_hal_tim_ex.c ****     case TIM_CHANNEL_1:
1396:Drivers/STM32H7xx_HAL_Driver/Src/stm32h7xx_hal_tim_ex.c ****     {
1397:Drivers/STM32H7xx_HAL_Driver/Src/stm32h7xx_hal_tim_ex.c ****       /* Set the DMA compare callbacks */
1398:Drivers/STM32H7xx_HAL_Driver/Src/stm32h7xx_hal_tim_ex.c ****       htim->hdma[TIM_DMA_ID_CC1]->XferCpltCallback = TIM_DMADelayPulseNCplt;
 4266              		.loc 1 1398 17
 4267 0146 FB68     		ldr	r3, [r7, #12]
 4268 0148 5B6A     		ldr	r3, [r3, #36]
ARM GAS  /var/folders/d0/cymppscj10lcmm48h781wrc80000gn/T//ccIjALm5.s 			page 100


 4269              		.loc 1 1398 52
 4270 014a 664A     		ldr	r2, .L303
 4271 014c DA63     		str	r2, [r3, #60]
1399:Drivers/STM32H7xx_HAL_Driver/Src/stm32h7xx_hal_tim_ex.c ****       htim->hdma[TIM_DMA_ID_CC1]->XferHalfCpltCallback = TIM_DMADelayPulseHalfCplt;
 4272              		.loc 1 1399 17
 4273 014e FB68     		ldr	r3, [r7, #12]
 4274 0150 5B6A     		ldr	r3, [r3, #36]
 4275              		.loc 1 1399 56
 4276 0152 654A     		ldr	r2, .L303+4
 4277 0154 1A64     		str	r2, [r3, #64]
1400:Drivers/STM32H7xx_HAL_Driver/Src/stm32h7xx_hal_tim_ex.c **** 
1401:Drivers/STM32H7xx_HAL_Driver/Src/stm32h7xx_hal_tim_ex.c ****       /* Set the DMA error callback */
1402:Drivers/STM32H7xx_HAL_Driver/Src/stm32h7xx_hal_tim_ex.c ****       htim->hdma[TIM_DMA_ID_CC1]->XferErrorCallback = TIM_DMAErrorCCxN ;
 4278              		.loc 1 1402 17
 4279 0156 FB68     		ldr	r3, [r7, #12]
 4280 0158 5B6A     		ldr	r3, [r3, #36]
 4281              		.loc 1 1402 53
 4282 015a 644A     		ldr	r2, .L303+8
 4283 015c DA64     		str	r2, [r3, #76]
1403:Drivers/STM32H7xx_HAL_Driver/Src/stm32h7xx_hal_tim_ex.c **** 
1404:Drivers/STM32H7xx_HAL_Driver/Src/stm32h7xx_hal_tim_ex.c ****       /* Enable the DMA stream */
1405:Drivers/STM32H7xx_HAL_Driver/Src/stm32h7xx_hal_tim_ex.c ****       if (HAL_DMA_Start_IT(htim->hdma[TIM_DMA_ID_CC1], (uint32_t)pData, (uint32_t)&htim->Instance->
 4284              		.loc 1 1405 11
 4285 015e FB68     		ldr	r3, [r7, #12]
 4286 0160 586A     		ldr	r0, [r3, #36]
 4287 0162 7968     		ldr	r1, [r7, #4]
 4288              		.loc 1 1405 88
 4289 0164 FB68     		ldr	r3, [r7, #12]
 4290 0166 1B68     		ldr	r3, [r3]
 4291              		.loc 1 1405 83
 4292 0168 3433     		adds	r3, r3, #52
 4293              		.loc 1 1405 11
 4294 016a 1A46     		mov	r2, r3
 4295 016c 7B88     		ldrh	r3, [r7, #2]
 4296 016e FFF7FEFF 		bl	HAL_DMA_Start_IT
 4297 0172 0346     		mov	r3, r0
 4298              		.loc 1 1405 10
 4299 0174 002B     		cmp	r3, #0
 4300 0176 01D0     		beq	.L294
1406:Drivers/STM32H7xx_HAL_Driver/Src/stm32h7xx_hal_tim_ex.c ****                            Length) != HAL_OK)
1407:Drivers/STM32H7xx_HAL_Driver/Src/stm32h7xx_hal_tim_ex.c ****       {
1408:Drivers/STM32H7xx_HAL_Driver/Src/stm32h7xx_hal_tim_ex.c ****         /* Return error status */
1409:Drivers/STM32H7xx_HAL_Driver/Src/stm32h7xx_hal_tim_ex.c ****         return HAL_ERROR;
 4301              		.loc 1 1409 16
 4302 0178 0123     		movs	r3, #1
 4303 017a AEE0     		b	.L275
 4304              	.L294:
1410:Drivers/STM32H7xx_HAL_Driver/Src/stm32h7xx_hal_tim_ex.c ****       }
1411:Drivers/STM32H7xx_HAL_Driver/Src/stm32h7xx_hal_tim_ex.c ****       /* Enable the TIM Capture/Compare 1 DMA request */
1412:Drivers/STM32H7xx_HAL_Driver/Src/stm32h7xx_hal_tim_ex.c ****       __HAL_TIM_ENABLE_DMA(htim, TIM_DMA_CC1);
 4305              		.loc 1 1412 7
 4306 017c FB68     		ldr	r3, [r7, #12]
 4307 017e 1B68     		ldr	r3, [r3]
 4308 0180 DA68     		ldr	r2, [r3, #12]
 4309 0182 FB68     		ldr	r3, [r7, #12]
 4310 0184 1B68     		ldr	r3, [r3]
 4311 0186 42F40072 		orr	r2, r2, #512
ARM GAS  /var/folders/d0/cymppscj10lcmm48h781wrc80000gn/T//ccIjALm5.s 			page 101


 4312 018a DA60     		str	r2, [r3, #12]
1413:Drivers/STM32H7xx_HAL_Driver/Src/stm32h7xx_hal_tim_ex.c ****       break;
 4313              		.loc 1 1413 7
 4314 018c 4AE0     		b	.L295
 4315              	.L293:
1414:Drivers/STM32H7xx_HAL_Driver/Src/stm32h7xx_hal_tim_ex.c ****     }
1415:Drivers/STM32H7xx_HAL_Driver/Src/stm32h7xx_hal_tim_ex.c **** 
1416:Drivers/STM32H7xx_HAL_Driver/Src/stm32h7xx_hal_tim_ex.c ****     case TIM_CHANNEL_2:
1417:Drivers/STM32H7xx_HAL_Driver/Src/stm32h7xx_hal_tim_ex.c ****     {
1418:Drivers/STM32H7xx_HAL_Driver/Src/stm32h7xx_hal_tim_ex.c ****       /* Set the DMA compare callbacks */
1419:Drivers/STM32H7xx_HAL_Driver/Src/stm32h7xx_hal_tim_ex.c ****       htim->hdma[TIM_DMA_ID_CC2]->XferCpltCallback = TIM_DMADelayPulseNCplt;
 4316              		.loc 1 1419 17
 4317 018e FB68     		ldr	r3, [r7, #12]
 4318 0190 9B6A     		ldr	r3, [r3, #40]
 4319              		.loc 1 1419 52
 4320 0192 544A     		ldr	r2, .L303
 4321 0194 DA63     		str	r2, [r3, #60]
1420:Drivers/STM32H7xx_HAL_Driver/Src/stm32h7xx_hal_tim_ex.c ****       htim->hdma[TIM_DMA_ID_CC2]->XferHalfCpltCallback = TIM_DMADelayPulseHalfCplt;
 4322              		.loc 1 1420 17
 4323 0196 FB68     		ldr	r3, [r7, #12]
 4324 0198 9B6A     		ldr	r3, [r3, #40]
 4325              		.loc 1 1420 56
 4326 019a 534A     		ldr	r2, .L303+4
 4327 019c 1A64     		str	r2, [r3, #64]
1421:Drivers/STM32H7xx_HAL_Driver/Src/stm32h7xx_hal_tim_ex.c **** 
1422:Drivers/STM32H7xx_HAL_Driver/Src/stm32h7xx_hal_tim_ex.c ****       /* Set the DMA error callback */
1423:Drivers/STM32H7xx_HAL_Driver/Src/stm32h7xx_hal_tim_ex.c ****       htim->hdma[TIM_DMA_ID_CC2]->XferErrorCallback = TIM_DMAErrorCCxN ;
 4328              		.loc 1 1423 17
 4329 019e FB68     		ldr	r3, [r7, #12]
 4330 01a0 9B6A     		ldr	r3, [r3, #40]
 4331              		.loc 1 1423 53
 4332 01a2 524A     		ldr	r2, .L303+8
 4333 01a4 DA64     		str	r2, [r3, #76]
1424:Drivers/STM32H7xx_HAL_Driver/Src/stm32h7xx_hal_tim_ex.c **** 
1425:Drivers/STM32H7xx_HAL_Driver/Src/stm32h7xx_hal_tim_ex.c ****       /* Enable the DMA stream */
1426:Drivers/STM32H7xx_HAL_Driver/Src/stm32h7xx_hal_tim_ex.c ****       if (HAL_DMA_Start_IT(htim->hdma[TIM_DMA_ID_CC2], (uint32_t)pData, (uint32_t)&htim->Instance->
 4334              		.loc 1 1426 11
 4335 01a6 FB68     		ldr	r3, [r7, #12]
 4336 01a8 986A     		ldr	r0, [r3, #40]
 4337 01aa 7968     		ldr	r1, [r7, #4]
 4338              		.loc 1 1426 88
 4339 01ac FB68     		ldr	r3, [r7, #12]
 4340 01ae 1B68     		ldr	r3, [r3]
 4341              		.loc 1 1426 83
 4342 01b0 3833     		adds	r3, r3, #56
 4343              		.loc 1 1426 11
 4344 01b2 1A46     		mov	r2, r3
 4345 01b4 7B88     		ldrh	r3, [r7, #2]
 4346 01b6 FFF7FEFF 		bl	HAL_DMA_Start_IT
 4347 01ba 0346     		mov	r3, r0
 4348              		.loc 1 1426 10
 4349 01bc 002B     		cmp	r3, #0
 4350 01be 01D0     		beq	.L296
1427:Drivers/STM32H7xx_HAL_Driver/Src/stm32h7xx_hal_tim_ex.c ****                            Length) != HAL_OK)
1428:Drivers/STM32H7xx_HAL_Driver/Src/stm32h7xx_hal_tim_ex.c ****       {
1429:Drivers/STM32H7xx_HAL_Driver/Src/stm32h7xx_hal_tim_ex.c ****         /* Return error status */
1430:Drivers/STM32H7xx_HAL_Driver/Src/stm32h7xx_hal_tim_ex.c ****         return HAL_ERROR;
ARM GAS  /var/folders/d0/cymppscj10lcmm48h781wrc80000gn/T//ccIjALm5.s 			page 102


 4351              		.loc 1 1430 16
 4352 01c0 0123     		movs	r3, #1
 4353 01c2 8AE0     		b	.L275
 4354              	.L296:
1431:Drivers/STM32H7xx_HAL_Driver/Src/stm32h7xx_hal_tim_ex.c ****       }
1432:Drivers/STM32H7xx_HAL_Driver/Src/stm32h7xx_hal_tim_ex.c ****       /* Enable the TIM Capture/Compare 2 DMA request */
1433:Drivers/STM32H7xx_HAL_Driver/Src/stm32h7xx_hal_tim_ex.c ****       __HAL_TIM_ENABLE_DMA(htim, TIM_DMA_CC2);
 4355              		.loc 1 1433 7
 4356 01c4 FB68     		ldr	r3, [r7, #12]
 4357 01c6 1B68     		ldr	r3, [r3]
 4358 01c8 DA68     		ldr	r2, [r3, #12]
 4359 01ca FB68     		ldr	r3, [r7, #12]
 4360 01cc 1B68     		ldr	r3, [r3]
 4361 01ce 42F48062 		orr	r2, r2, #1024
 4362 01d2 DA60     		str	r2, [r3, #12]
1434:Drivers/STM32H7xx_HAL_Driver/Src/stm32h7xx_hal_tim_ex.c ****       break;
 4363              		.loc 1 1434 7
 4364 01d4 26E0     		b	.L295
 4365              	.L290:
1435:Drivers/STM32H7xx_HAL_Driver/Src/stm32h7xx_hal_tim_ex.c ****     }
1436:Drivers/STM32H7xx_HAL_Driver/Src/stm32h7xx_hal_tim_ex.c **** 
1437:Drivers/STM32H7xx_HAL_Driver/Src/stm32h7xx_hal_tim_ex.c ****     case TIM_CHANNEL_3:
1438:Drivers/STM32H7xx_HAL_Driver/Src/stm32h7xx_hal_tim_ex.c ****     {
1439:Drivers/STM32H7xx_HAL_Driver/Src/stm32h7xx_hal_tim_ex.c ****       /* Set the DMA compare callbacks */
1440:Drivers/STM32H7xx_HAL_Driver/Src/stm32h7xx_hal_tim_ex.c ****       htim->hdma[TIM_DMA_ID_CC3]->XferCpltCallback = TIM_DMADelayPulseNCplt;
 4366              		.loc 1 1440 17
 4367 01d6 FB68     		ldr	r3, [r7, #12]
 4368 01d8 DB6A     		ldr	r3, [r3, #44]
 4369              		.loc 1 1440 52
 4370 01da 424A     		ldr	r2, .L303
 4371 01dc DA63     		str	r2, [r3, #60]
1441:Drivers/STM32H7xx_HAL_Driver/Src/stm32h7xx_hal_tim_ex.c ****       htim->hdma[TIM_DMA_ID_CC3]->XferHalfCpltCallback = TIM_DMADelayPulseHalfCplt;
 4372              		.loc 1 1441 17
 4373 01de FB68     		ldr	r3, [r7, #12]
 4374 01e0 DB6A     		ldr	r3, [r3, #44]
 4375              		.loc 1 1441 56
 4376 01e2 414A     		ldr	r2, .L303+4
 4377 01e4 1A64     		str	r2, [r3, #64]
1442:Drivers/STM32H7xx_HAL_Driver/Src/stm32h7xx_hal_tim_ex.c **** 
1443:Drivers/STM32H7xx_HAL_Driver/Src/stm32h7xx_hal_tim_ex.c ****       /* Set the DMA error callback */
1444:Drivers/STM32H7xx_HAL_Driver/Src/stm32h7xx_hal_tim_ex.c ****       htim->hdma[TIM_DMA_ID_CC3]->XferErrorCallback = TIM_DMAErrorCCxN ;
 4378              		.loc 1 1444 17
 4379 01e6 FB68     		ldr	r3, [r7, #12]
 4380 01e8 DB6A     		ldr	r3, [r3, #44]
 4381              		.loc 1 1444 53
 4382 01ea 404A     		ldr	r2, .L303+8
 4383 01ec DA64     		str	r2, [r3, #76]
1445:Drivers/STM32H7xx_HAL_Driver/Src/stm32h7xx_hal_tim_ex.c **** 
1446:Drivers/STM32H7xx_HAL_Driver/Src/stm32h7xx_hal_tim_ex.c ****       /* Enable the DMA stream */
1447:Drivers/STM32H7xx_HAL_Driver/Src/stm32h7xx_hal_tim_ex.c ****       if (HAL_DMA_Start_IT(htim->hdma[TIM_DMA_ID_CC3], (uint32_t)pData, (uint32_t)&htim->Instance->
 4384              		.loc 1 1447 11
 4385 01ee FB68     		ldr	r3, [r7, #12]
 4386 01f0 D86A     		ldr	r0, [r3, #44]
 4387 01f2 7968     		ldr	r1, [r7, #4]
 4388              		.loc 1 1447 88
 4389 01f4 FB68     		ldr	r3, [r7, #12]
 4390 01f6 1B68     		ldr	r3, [r3]
ARM GAS  /var/folders/d0/cymppscj10lcmm48h781wrc80000gn/T//ccIjALm5.s 			page 103


 4391              		.loc 1 1447 83
 4392 01f8 3C33     		adds	r3, r3, #60
 4393              		.loc 1 1447 11
 4394 01fa 1A46     		mov	r2, r3
 4395 01fc 7B88     		ldrh	r3, [r7, #2]
 4396 01fe FFF7FEFF 		bl	HAL_DMA_Start_IT
 4397 0202 0346     		mov	r3, r0
 4398              		.loc 1 1447 10
 4399 0204 002B     		cmp	r3, #0
 4400 0206 01D0     		beq	.L297
1448:Drivers/STM32H7xx_HAL_Driver/Src/stm32h7xx_hal_tim_ex.c ****                            Length) != HAL_OK)
1449:Drivers/STM32H7xx_HAL_Driver/Src/stm32h7xx_hal_tim_ex.c ****       {
1450:Drivers/STM32H7xx_HAL_Driver/Src/stm32h7xx_hal_tim_ex.c ****         /* Return error status */
1451:Drivers/STM32H7xx_HAL_Driver/Src/stm32h7xx_hal_tim_ex.c ****         return HAL_ERROR;
 4401              		.loc 1 1451 16
 4402 0208 0123     		movs	r3, #1
 4403 020a 66E0     		b	.L275
 4404              	.L297:
1452:Drivers/STM32H7xx_HAL_Driver/Src/stm32h7xx_hal_tim_ex.c ****       }
1453:Drivers/STM32H7xx_HAL_Driver/Src/stm32h7xx_hal_tim_ex.c ****       /* Enable the TIM Capture/Compare 3 DMA request */
1454:Drivers/STM32H7xx_HAL_Driver/Src/stm32h7xx_hal_tim_ex.c ****       __HAL_TIM_ENABLE_DMA(htim, TIM_DMA_CC3);
 4405              		.loc 1 1454 7
 4406 020c FB68     		ldr	r3, [r7, #12]
 4407 020e 1B68     		ldr	r3, [r3]
 4408 0210 DA68     		ldr	r2, [r3, #12]
 4409 0212 FB68     		ldr	r3, [r7, #12]
 4410 0214 1B68     		ldr	r3, [r3]
 4411 0216 42F40062 		orr	r2, r2, #2048
 4412 021a DA60     		str	r2, [r3, #12]
1455:Drivers/STM32H7xx_HAL_Driver/Src/stm32h7xx_hal_tim_ex.c ****       break;
 4413              		.loc 1 1455 7
 4414 021c 02E0     		b	.L295
 4415              	.L291:
1456:Drivers/STM32H7xx_HAL_Driver/Src/stm32h7xx_hal_tim_ex.c ****     }
1457:Drivers/STM32H7xx_HAL_Driver/Src/stm32h7xx_hal_tim_ex.c **** 
1458:Drivers/STM32H7xx_HAL_Driver/Src/stm32h7xx_hal_tim_ex.c ****     default:
1459:Drivers/STM32H7xx_HAL_Driver/Src/stm32h7xx_hal_tim_ex.c ****       status = HAL_ERROR;
 4416              		.loc 1 1459 14
 4417 021e 0123     		movs	r3, #1
 4418 0220 FB75     		strb	r3, [r7, #23]
1460:Drivers/STM32H7xx_HAL_Driver/Src/stm32h7xx_hal_tim_ex.c ****       break;
 4419              		.loc 1 1460 7
 4420 0222 00BF     		nop
 4421              	.L295:
1461:Drivers/STM32H7xx_HAL_Driver/Src/stm32h7xx_hal_tim_ex.c ****   }
1462:Drivers/STM32H7xx_HAL_Driver/Src/stm32h7xx_hal_tim_ex.c **** 
1463:Drivers/STM32H7xx_HAL_Driver/Src/stm32h7xx_hal_tim_ex.c ****   if (status == HAL_OK)
 4422              		.loc 1 1463 6
 4423 0224 FB7D     		ldrb	r3, [r7, #23]	@ zero_extendqisi2
 4424 0226 002B     		cmp	r3, #0
 4425 0228 56D1     		bne	.L298
1464:Drivers/STM32H7xx_HAL_Driver/Src/stm32h7xx_hal_tim_ex.c ****   {
1465:Drivers/STM32H7xx_HAL_Driver/Src/stm32h7xx_hal_tim_ex.c ****     /* Enable the complementary PWM output  */
1466:Drivers/STM32H7xx_HAL_Driver/Src/stm32h7xx_hal_tim_ex.c ****     TIM_CCxNChannelCmd(htim->Instance, Channel, TIM_CCxN_ENABLE);
 4426              		.loc 1 1466 5
 4427 022a FB68     		ldr	r3, [r7, #12]
 4428 022c 1B68     		ldr	r3, [r3]
ARM GAS  /var/folders/d0/cymppscj10lcmm48h781wrc80000gn/T//ccIjALm5.s 			page 104


 4429 022e 0422     		movs	r2, #4
 4430 0230 B968     		ldr	r1, [r7, #8]
 4431 0232 1846     		mov	r0, r3
 4432 0234 FFF7FEFF 		bl	TIM_CCxNChannelCmd
1467:Drivers/STM32H7xx_HAL_Driver/Src/stm32h7xx_hal_tim_ex.c **** 
1468:Drivers/STM32H7xx_HAL_Driver/Src/stm32h7xx_hal_tim_ex.c ****     /* Enable the Main Output */
1469:Drivers/STM32H7xx_HAL_Driver/Src/stm32h7xx_hal_tim_ex.c ****     __HAL_TIM_MOE_ENABLE(htim);
 4433              		.loc 1 1469 5
 4434 0238 FB68     		ldr	r3, [r7, #12]
 4435 023a 1B68     		ldr	r3, [r3]
 4436 023c 5A6C     		ldr	r2, [r3, #68]
 4437 023e FB68     		ldr	r3, [r7, #12]
 4438 0240 1B68     		ldr	r3, [r3]
 4439 0242 42F40042 		orr	r2, r2, #32768
 4440 0246 5A64     		str	r2, [r3, #68]
1470:Drivers/STM32H7xx_HAL_Driver/Src/stm32h7xx_hal_tim_ex.c **** 
1471:Drivers/STM32H7xx_HAL_Driver/Src/stm32h7xx_hal_tim_ex.c ****     /* Enable the Peripheral, except in trigger mode where enable is automatically done with trigge
1472:Drivers/STM32H7xx_HAL_Driver/Src/stm32h7xx_hal_tim_ex.c ****     if (IS_TIM_SLAVE_INSTANCE(htim->Instance))
 4441              		.loc 1 1472 9
 4442 0248 FB68     		ldr	r3, [r7, #12]
 4443 024a 1B68     		ldr	r3, [r3]
 4444              		.loc 1 1472 8
 4445 024c 284A     		ldr	r2, .L303+12
 4446 024e 9342     		cmp	r3, r2
 4447 0250 22D0     		beq	.L299
 4448              		.loc 1 1472 9 discriminator 1
 4449 0252 FB68     		ldr	r3, [r7, #12]
 4450 0254 1B68     		ldr	r3, [r3]
 4451 0256 B3F1804F 		cmp	r3, #1073741824
 4452 025a 1DD0     		beq	.L299
 4453              		.loc 1 1472 9 is_stmt 0 discriminator 2
 4454 025c FB68     		ldr	r3, [r7, #12]
 4455 025e 1B68     		ldr	r3, [r3]
 4456 0260 244A     		ldr	r2, .L303+16
 4457 0262 9342     		cmp	r3, r2
 4458 0264 18D0     		beq	.L299
 4459              		.loc 1 1472 9 discriminator 3
 4460 0266 FB68     		ldr	r3, [r7, #12]
 4461 0268 1B68     		ldr	r3, [r3]
 4462 026a 234A     		ldr	r2, .L303+20
 4463 026c 9342     		cmp	r3, r2
 4464 026e 13D0     		beq	.L299
 4465              		.loc 1 1472 9 discriminator 4
 4466 0270 FB68     		ldr	r3, [r7, #12]
 4467 0272 1B68     		ldr	r3, [r3]
 4468 0274 214A     		ldr	r2, .L303+24
 4469 0276 9342     		cmp	r3, r2
 4470 0278 0ED0     		beq	.L299
 4471              		.loc 1 1472 9 discriminator 5
 4472 027a FB68     		ldr	r3, [r7, #12]
 4473 027c 1B68     		ldr	r3, [r3]
 4474 027e 204A     		ldr	r2, .L303+28
 4475 0280 9342     		cmp	r3, r2
 4476 0282 09D0     		beq	.L299
 4477              		.loc 1 1472 9 discriminator 6
 4478 0284 FB68     		ldr	r3, [r7, #12]
 4479 0286 1B68     		ldr	r3, [r3]
ARM GAS  /var/folders/d0/cymppscj10lcmm48h781wrc80000gn/T//ccIjALm5.s 			page 105


 4480 0288 1E4A     		ldr	r2, .L303+32
 4481 028a 9342     		cmp	r3, r2
 4482 028c 04D0     		beq	.L299
 4483              		.loc 1 1472 9 discriminator 7
 4484 028e FB68     		ldr	r3, [r7, #12]
 4485 0290 1B68     		ldr	r3, [r3]
 4486 0292 1D4A     		ldr	r2, .L303+36
 4487 0294 9342     		cmp	r3, r2
 4488 0296 15D1     		bne	.L300
 4489              	.L299:
1473:Drivers/STM32H7xx_HAL_Driver/Src/stm32h7xx_hal_tim_ex.c ****     {
1474:Drivers/STM32H7xx_HAL_Driver/Src/stm32h7xx_hal_tim_ex.c ****       tmpsmcr = htim->Instance->SMCR & TIM_SMCR_SMS;
 4490              		.loc 1 1474 21 is_stmt 1
 4491 0298 FB68     		ldr	r3, [r7, #12]
 4492 029a 1B68     		ldr	r3, [r3]
 4493              		.loc 1 1474 31
 4494 029c 9A68     		ldr	r2, [r3, #8]
 4495              		.loc 1 1474 15
 4496 029e 1B4B     		ldr	r3, .L303+40
 4497 02a0 1340     		ands	r3, r3, r2
 4498 02a2 3B61     		str	r3, [r7, #16]
1475:Drivers/STM32H7xx_HAL_Driver/Src/stm32h7xx_hal_tim_ex.c ****       if (!IS_TIM_SLAVEMODE_TRIGGER_ENABLED(tmpsmcr))
 4499              		.loc 1 1475 10
 4500 02a4 3B69     		ldr	r3, [r7, #16]
 4501 02a6 062B     		cmp	r3, #6
 4502 02a8 15D0     		beq	.L302
 4503              		.loc 1 1475 11 discriminator 1
 4504 02aa 3B69     		ldr	r3, [r7, #16]
 4505 02ac B3F5803F 		cmp	r3, #65536
 4506 02b0 11D0     		beq	.L302
1476:Drivers/STM32H7xx_HAL_Driver/Src/stm32h7xx_hal_tim_ex.c ****       {
1477:Drivers/STM32H7xx_HAL_Driver/Src/stm32h7xx_hal_tim_ex.c ****         __HAL_TIM_ENABLE(htim);
 4507              		.loc 1 1477 9
 4508 02b2 FB68     		ldr	r3, [r7, #12]
 4509 02b4 1B68     		ldr	r3, [r3]
 4510 02b6 1A68     		ldr	r2, [r3]
 4511 02b8 FB68     		ldr	r3, [r7, #12]
 4512 02ba 1B68     		ldr	r3, [r3]
 4513 02bc 42F00102 		orr	r2, r2, #1
 4514 02c0 1A60     		str	r2, [r3]
1475:Drivers/STM32H7xx_HAL_Driver/Src/stm32h7xx_hal_tim_ex.c ****       if (!IS_TIM_SLAVEMODE_TRIGGER_ENABLED(tmpsmcr))
 4515              		.loc 1 1475 10
 4516 02c2 08E0     		b	.L302
 4517              	.L300:
1478:Drivers/STM32H7xx_HAL_Driver/Src/stm32h7xx_hal_tim_ex.c ****       }
1479:Drivers/STM32H7xx_HAL_Driver/Src/stm32h7xx_hal_tim_ex.c ****     }
1480:Drivers/STM32H7xx_HAL_Driver/Src/stm32h7xx_hal_tim_ex.c ****     else
1481:Drivers/STM32H7xx_HAL_Driver/Src/stm32h7xx_hal_tim_ex.c ****     {
1482:Drivers/STM32H7xx_HAL_Driver/Src/stm32h7xx_hal_tim_ex.c ****       __HAL_TIM_ENABLE(htim);
 4518              		.loc 1 1482 7
 4519 02c4 FB68     		ldr	r3, [r7, #12]
 4520 02c6 1B68     		ldr	r3, [r3]
 4521 02c8 1A68     		ldr	r2, [r3]
 4522 02ca FB68     		ldr	r3, [r7, #12]
 4523 02cc 1B68     		ldr	r3, [r3]
 4524 02ce 42F00102 		orr	r2, r2, #1
 4525 02d2 1A60     		str	r2, [r3]
ARM GAS  /var/folders/d0/cymppscj10lcmm48h781wrc80000gn/T//ccIjALm5.s 			page 106


 4526 02d4 00E0     		b	.L298
 4527              	.L302:
1475:Drivers/STM32H7xx_HAL_Driver/Src/stm32h7xx_hal_tim_ex.c ****       {
 4528              		.loc 1 1475 10
 4529 02d6 00BF     		nop
 4530              	.L298:
1483:Drivers/STM32H7xx_HAL_Driver/Src/stm32h7xx_hal_tim_ex.c ****     }
1484:Drivers/STM32H7xx_HAL_Driver/Src/stm32h7xx_hal_tim_ex.c ****   }
1485:Drivers/STM32H7xx_HAL_Driver/Src/stm32h7xx_hal_tim_ex.c **** 
1486:Drivers/STM32H7xx_HAL_Driver/Src/stm32h7xx_hal_tim_ex.c ****   /* Return function status */
1487:Drivers/STM32H7xx_HAL_Driver/Src/stm32h7xx_hal_tim_ex.c ****   return status;
 4531              		.loc 1 1487 10
 4532 02d8 FB7D     		ldrb	r3, [r7, #23]	@ zero_extendqisi2
 4533              	.L275:
1488:Drivers/STM32H7xx_HAL_Driver/Src/stm32h7xx_hal_tim_ex.c **** }
 4534              		.loc 1 1488 1
 4535 02da 1846     		mov	r0, r3
 4536 02dc 1837     		adds	r7, r7, #24
 4537              	.LCFI105:
 4538              		.cfi_def_cfa_offset 8
 4539 02de BD46     		mov	sp, r7
 4540              	.LCFI106:
 4541              		.cfi_def_cfa_register 13
 4542              		@ sp needed
 4543 02e0 80BD     		pop	{r7, pc}
 4544              	.L304:
 4545 02e2 00BF     		.align	2
 4546              	.L303:
 4547 02e4 00000000 		.word	TIM_DMADelayPulseNCplt
 4548 02e8 00000000 		.word	TIM_DMADelayPulseHalfCplt
 4549 02ec 00000000 		.word	TIM_DMAErrorCCxN
 4550 02f0 00000140 		.word	1073807360
 4551 02f4 00040040 		.word	1073742848
 4552 02f8 00080040 		.word	1073743872
 4553 02fc 000C0040 		.word	1073744896
 4554 0300 00040140 		.word	1073808384
 4555 0304 00180040 		.word	1073747968
 4556 0308 00400140 		.word	1073823744
 4557 030c 07000100 		.word	65543
 4558              		.cfi_endproc
 4559              	.LFE353:
 4561              		.section	.text.HAL_TIMEx_PWMN_Stop_DMA,"ax",%progbits
 4562              		.align	1
 4563              		.global	HAL_TIMEx_PWMN_Stop_DMA
 4564              		.syntax unified
 4565              		.thumb
 4566              		.thumb_func
 4568              	HAL_TIMEx_PWMN_Stop_DMA:
 4569              	.LFB354:
1489:Drivers/STM32H7xx_HAL_Driver/Src/stm32h7xx_hal_tim_ex.c **** 
1490:Drivers/STM32H7xx_HAL_Driver/Src/stm32h7xx_hal_tim_ex.c **** /**
1491:Drivers/STM32H7xx_HAL_Driver/Src/stm32h7xx_hal_tim_ex.c ****   * @brief  Stops the TIM PWM signal generation in DMA mode on the complementary
1492:Drivers/STM32H7xx_HAL_Driver/Src/stm32h7xx_hal_tim_ex.c ****   *         output
1493:Drivers/STM32H7xx_HAL_Driver/Src/stm32h7xx_hal_tim_ex.c ****   * @param  htim TIM handle
1494:Drivers/STM32H7xx_HAL_Driver/Src/stm32h7xx_hal_tim_ex.c ****   * @param  Channel TIM Channel to be disabled
1495:Drivers/STM32H7xx_HAL_Driver/Src/stm32h7xx_hal_tim_ex.c ****   *          This parameter can be one of the following values:
1496:Drivers/STM32H7xx_HAL_Driver/Src/stm32h7xx_hal_tim_ex.c ****   *            @arg TIM_CHANNEL_1: TIM Channel 1 selected
ARM GAS  /var/folders/d0/cymppscj10lcmm48h781wrc80000gn/T//ccIjALm5.s 			page 107


1497:Drivers/STM32H7xx_HAL_Driver/Src/stm32h7xx_hal_tim_ex.c ****   *            @arg TIM_CHANNEL_2: TIM Channel 2 selected
1498:Drivers/STM32H7xx_HAL_Driver/Src/stm32h7xx_hal_tim_ex.c ****   *            @arg TIM_CHANNEL_3: TIM Channel 3 selected
1499:Drivers/STM32H7xx_HAL_Driver/Src/stm32h7xx_hal_tim_ex.c ****   * @retval HAL status
1500:Drivers/STM32H7xx_HAL_Driver/Src/stm32h7xx_hal_tim_ex.c ****   */
1501:Drivers/STM32H7xx_HAL_Driver/Src/stm32h7xx_hal_tim_ex.c **** HAL_StatusTypeDef HAL_TIMEx_PWMN_Stop_DMA(TIM_HandleTypeDef *htim, uint32_t Channel)
1502:Drivers/STM32H7xx_HAL_Driver/Src/stm32h7xx_hal_tim_ex.c **** {
 4570              		.loc 1 1502 1
 4571              		.cfi_startproc
 4572              		@ args = 0, pretend = 0, frame = 16
 4573              		@ frame_needed = 1, uses_anonymous_args = 0
 4574 0000 80B5     		push	{r7, lr}
 4575              	.LCFI107:
 4576              		.cfi_def_cfa_offset 8
 4577              		.cfi_offset 7, -8
 4578              		.cfi_offset 14, -4
 4579 0002 84B0     		sub	sp, sp, #16
 4580              	.LCFI108:
 4581              		.cfi_def_cfa_offset 24
 4582 0004 00AF     		add	r7, sp, #0
 4583              	.LCFI109:
 4584              		.cfi_def_cfa_register 7
 4585 0006 7860     		str	r0, [r7, #4]
 4586 0008 3960     		str	r1, [r7]
1503:Drivers/STM32H7xx_HAL_Driver/Src/stm32h7xx_hal_tim_ex.c ****   HAL_StatusTypeDef status = HAL_OK;
 4587              		.loc 1 1503 21
 4588 000a 0023     		movs	r3, #0
 4589 000c FB73     		strb	r3, [r7, #15]
1504:Drivers/STM32H7xx_HAL_Driver/Src/stm32h7xx_hal_tim_ex.c **** 
1505:Drivers/STM32H7xx_HAL_Driver/Src/stm32h7xx_hal_tim_ex.c ****   /* Check the parameters */
1506:Drivers/STM32H7xx_HAL_Driver/Src/stm32h7xx_hal_tim_ex.c ****   assert_param(IS_TIM_CCXN_INSTANCE(htim->Instance, Channel));
1507:Drivers/STM32H7xx_HAL_Driver/Src/stm32h7xx_hal_tim_ex.c **** 
1508:Drivers/STM32H7xx_HAL_Driver/Src/stm32h7xx_hal_tim_ex.c ****   switch (Channel)
 4590              		.loc 1 1508 3
 4591 000e 3B68     		ldr	r3, [r7]
 4592 0010 082B     		cmp	r3, #8
 4593 0012 25D0     		beq	.L306
 4594 0014 3B68     		ldr	r3, [r7]
 4595 0016 082B     		cmp	r3, #8
 4596 0018 30D8     		bhi	.L307
 4597 001a 3B68     		ldr	r3, [r7]
 4598 001c 002B     		cmp	r3, #0
 4599 001e 03D0     		beq	.L308
 4600 0020 3B68     		ldr	r3, [r7]
 4601 0022 042B     		cmp	r3, #4
 4602 0024 0ED0     		beq	.L309
 4603 0026 29E0     		b	.L307
 4604              	.L308:
1509:Drivers/STM32H7xx_HAL_Driver/Src/stm32h7xx_hal_tim_ex.c ****   {
1510:Drivers/STM32H7xx_HAL_Driver/Src/stm32h7xx_hal_tim_ex.c ****     case TIM_CHANNEL_1:
1511:Drivers/STM32H7xx_HAL_Driver/Src/stm32h7xx_hal_tim_ex.c ****     {
1512:Drivers/STM32H7xx_HAL_Driver/Src/stm32h7xx_hal_tim_ex.c ****       /* Disable the TIM Capture/Compare 1 DMA request */
1513:Drivers/STM32H7xx_HAL_Driver/Src/stm32h7xx_hal_tim_ex.c ****       __HAL_TIM_DISABLE_DMA(htim, TIM_DMA_CC1);
 4605              		.loc 1 1513 7
 4606 0028 7B68     		ldr	r3, [r7, #4]
 4607 002a 1B68     		ldr	r3, [r3]
 4608 002c DA68     		ldr	r2, [r3, #12]
 4609 002e 7B68     		ldr	r3, [r7, #4]
ARM GAS  /var/folders/d0/cymppscj10lcmm48h781wrc80000gn/T//ccIjALm5.s 			page 108


 4610 0030 1B68     		ldr	r3, [r3]
 4611 0032 22F40072 		bic	r2, r2, #512
 4612 0036 DA60     		str	r2, [r3, #12]
1514:Drivers/STM32H7xx_HAL_Driver/Src/stm32h7xx_hal_tim_ex.c ****       (void)HAL_DMA_Abort_IT(htim->hdma[TIM_DMA_ID_CC1]);
 4613              		.loc 1 1514 13
 4614 0038 7B68     		ldr	r3, [r7, #4]
 4615 003a 5B6A     		ldr	r3, [r3, #36]
 4616 003c 1846     		mov	r0, r3
 4617 003e FFF7FEFF 		bl	HAL_DMA_Abort_IT
1515:Drivers/STM32H7xx_HAL_Driver/Src/stm32h7xx_hal_tim_ex.c ****       break;
 4618              		.loc 1 1515 7
 4619 0042 1EE0     		b	.L310
 4620              	.L309:
1516:Drivers/STM32H7xx_HAL_Driver/Src/stm32h7xx_hal_tim_ex.c ****     }
1517:Drivers/STM32H7xx_HAL_Driver/Src/stm32h7xx_hal_tim_ex.c **** 
1518:Drivers/STM32H7xx_HAL_Driver/Src/stm32h7xx_hal_tim_ex.c ****     case TIM_CHANNEL_2:
1519:Drivers/STM32H7xx_HAL_Driver/Src/stm32h7xx_hal_tim_ex.c ****     {
1520:Drivers/STM32H7xx_HAL_Driver/Src/stm32h7xx_hal_tim_ex.c ****       /* Disable the TIM Capture/Compare 2 DMA request */
1521:Drivers/STM32H7xx_HAL_Driver/Src/stm32h7xx_hal_tim_ex.c ****       __HAL_TIM_DISABLE_DMA(htim, TIM_DMA_CC2);
 4621              		.loc 1 1521 7
 4622 0044 7B68     		ldr	r3, [r7, #4]
 4623 0046 1B68     		ldr	r3, [r3]
 4624 0048 DA68     		ldr	r2, [r3, #12]
 4625 004a 7B68     		ldr	r3, [r7, #4]
 4626 004c 1B68     		ldr	r3, [r3]
 4627 004e 22F48062 		bic	r2, r2, #1024
 4628 0052 DA60     		str	r2, [r3, #12]
1522:Drivers/STM32H7xx_HAL_Driver/Src/stm32h7xx_hal_tim_ex.c ****       (void)HAL_DMA_Abort_IT(htim->hdma[TIM_DMA_ID_CC2]);
 4629              		.loc 1 1522 13
 4630 0054 7B68     		ldr	r3, [r7, #4]
 4631 0056 9B6A     		ldr	r3, [r3, #40]
 4632 0058 1846     		mov	r0, r3
 4633 005a FFF7FEFF 		bl	HAL_DMA_Abort_IT
1523:Drivers/STM32H7xx_HAL_Driver/Src/stm32h7xx_hal_tim_ex.c ****       break;
 4634              		.loc 1 1523 7
 4635 005e 10E0     		b	.L310
 4636              	.L306:
1524:Drivers/STM32H7xx_HAL_Driver/Src/stm32h7xx_hal_tim_ex.c ****     }
1525:Drivers/STM32H7xx_HAL_Driver/Src/stm32h7xx_hal_tim_ex.c **** 
1526:Drivers/STM32H7xx_HAL_Driver/Src/stm32h7xx_hal_tim_ex.c ****     case TIM_CHANNEL_3:
1527:Drivers/STM32H7xx_HAL_Driver/Src/stm32h7xx_hal_tim_ex.c ****     {
1528:Drivers/STM32H7xx_HAL_Driver/Src/stm32h7xx_hal_tim_ex.c ****       /* Disable the TIM Capture/Compare 3 DMA request */
1529:Drivers/STM32H7xx_HAL_Driver/Src/stm32h7xx_hal_tim_ex.c ****       __HAL_TIM_DISABLE_DMA(htim, TIM_DMA_CC3);
 4637              		.loc 1 1529 7
 4638 0060 7B68     		ldr	r3, [r7, #4]
 4639 0062 1B68     		ldr	r3, [r3]
 4640 0064 DA68     		ldr	r2, [r3, #12]
 4641 0066 7B68     		ldr	r3, [r7, #4]
 4642 0068 1B68     		ldr	r3, [r3]
 4643 006a 22F40062 		bic	r2, r2, #2048
 4644 006e DA60     		str	r2, [r3, #12]
1530:Drivers/STM32H7xx_HAL_Driver/Src/stm32h7xx_hal_tim_ex.c ****       (void)HAL_DMA_Abort_IT(htim->hdma[TIM_DMA_ID_CC3]);
 4645              		.loc 1 1530 13
 4646 0070 7B68     		ldr	r3, [r7, #4]
 4647 0072 DB6A     		ldr	r3, [r3, #44]
 4648 0074 1846     		mov	r0, r3
 4649 0076 FFF7FEFF 		bl	HAL_DMA_Abort_IT
ARM GAS  /var/folders/d0/cymppscj10lcmm48h781wrc80000gn/T//ccIjALm5.s 			page 109


1531:Drivers/STM32H7xx_HAL_Driver/Src/stm32h7xx_hal_tim_ex.c ****       break;
 4650              		.loc 1 1531 7
 4651 007a 02E0     		b	.L310
 4652              	.L307:
1532:Drivers/STM32H7xx_HAL_Driver/Src/stm32h7xx_hal_tim_ex.c ****     }
1533:Drivers/STM32H7xx_HAL_Driver/Src/stm32h7xx_hal_tim_ex.c **** 
1534:Drivers/STM32H7xx_HAL_Driver/Src/stm32h7xx_hal_tim_ex.c ****     default:
1535:Drivers/STM32H7xx_HAL_Driver/Src/stm32h7xx_hal_tim_ex.c ****       status = HAL_ERROR;
 4653              		.loc 1 1535 14
 4654 007c 0123     		movs	r3, #1
 4655 007e FB73     		strb	r3, [r7, #15]
1536:Drivers/STM32H7xx_HAL_Driver/Src/stm32h7xx_hal_tim_ex.c ****       break;
 4656              		.loc 1 1536 7
 4657 0080 00BF     		nop
 4658              	.L310:
1537:Drivers/STM32H7xx_HAL_Driver/Src/stm32h7xx_hal_tim_ex.c ****   }
1538:Drivers/STM32H7xx_HAL_Driver/Src/stm32h7xx_hal_tim_ex.c **** 
1539:Drivers/STM32H7xx_HAL_Driver/Src/stm32h7xx_hal_tim_ex.c ****   if (status == HAL_OK)
 4659              		.loc 1 1539 6
 4660 0082 FB7B     		ldrb	r3, [r7, #15]	@ zero_extendqisi2
 4661 0084 002B     		cmp	r3, #0
 4662 0086 52D1     		bne	.L311
1540:Drivers/STM32H7xx_HAL_Driver/Src/stm32h7xx_hal_tim_ex.c ****   {
1541:Drivers/STM32H7xx_HAL_Driver/Src/stm32h7xx_hal_tim_ex.c ****     /* Disable the complementary PWM output */
1542:Drivers/STM32H7xx_HAL_Driver/Src/stm32h7xx_hal_tim_ex.c ****     TIM_CCxNChannelCmd(htim->Instance, Channel, TIM_CCxN_DISABLE);
 4663              		.loc 1 1542 5
 4664 0088 7B68     		ldr	r3, [r7, #4]
 4665 008a 1B68     		ldr	r3, [r3]
 4666 008c 0022     		movs	r2, #0
 4667 008e 3968     		ldr	r1, [r7]
 4668 0090 1846     		mov	r0, r3
 4669 0092 FFF7FEFF 		bl	TIM_CCxNChannelCmd
1543:Drivers/STM32H7xx_HAL_Driver/Src/stm32h7xx_hal_tim_ex.c **** 
1544:Drivers/STM32H7xx_HAL_Driver/Src/stm32h7xx_hal_tim_ex.c ****     /* Disable the Main Output */
1545:Drivers/STM32H7xx_HAL_Driver/Src/stm32h7xx_hal_tim_ex.c ****     __HAL_TIM_MOE_DISABLE(htim);
 4670              		.loc 1 1545 5
 4671 0096 7B68     		ldr	r3, [r7, #4]
 4672 0098 1B68     		ldr	r3, [r3]
 4673 009a 1A6A     		ldr	r2, [r3, #32]
 4674 009c 41F21113 		movw	r3, #4369
 4675 00a0 1340     		ands	r3, r3, r2
 4676 00a2 002B     		cmp	r3, #0
 4677 00a4 0FD1     		bne	.L312
 4678              		.loc 1 1545 5 is_stmt 0 discriminator 1
 4679 00a6 7B68     		ldr	r3, [r7, #4]
 4680 00a8 1B68     		ldr	r3, [r3]
 4681 00aa 1A6A     		ldr	r2, [r3, #32]
 4682 00ac 40F24443 		movw	r3, #1092
 4683 00b0 1340     		ands	r3, r3, r2
 4684 00b2 002B     		cmp	r3, #0
 4685 00b4 07D1     		bne	.L312
 4686              		.loc 1 1545 5 discriminator 2
 4687 00b6 7B68     		ldr	r3, [r7, #4]
 4688 00b8 1B68     		ldr	r3, [r3]
 4689 00ba 5A6C     		ldr	r2, [r3, #68]
 4690 00bc 7B68     		ldr	r3, [r7, #4]
 4691 00be 1B68     		ldr	r3, [r3]
ARM GAS  /var/folders/d0/cymppscj10lcmm48h781wrc80000gn/T//ccIjALm5.s 			page 110


 4692 00c0 22F40042 		bic	r2, r2, #32768
 4693 00c4 5A64     		str	r2, [r3, #68]
 4694              	.L312:
1546:Drivers/STM32H7xx_HAL_Driver/Src/stm32h7xx_hal_tim_ex.c **** 
1547:Drivers/STM32H7xx_HAL_Driver/Src/stm32h7xx_hal_tim_ex.c ****     /* Disable the Peripheral */
1548:Drivers/STM32H7xx_HAL_Driver/Src/stm32h7xx_hal_tim_ex.c ****     __HAL_TIM_DISABLE(htim);
 4695              		.loc 1 1548 5 is_stmt 1
 4696 00c6 7B68     		ldr	r3, [r7, #4]
 4697 00c8 1B68     		ldr	r3, [r3]
 4698 00ca 1A6A     		ldr	r2, [r3, #32]
 4699 00cc 41F21113 		movw	r3, #4369
 4700 00d0 1340     		ands	r3, r3, r2
 4701 00d2 002B     		cmp	r3, #0
 4702 00d4 0FD1     		bne	.L313
 4703              		.loc 1 1548 5 is_stmt 0 discriminator 1
 4704 00d6 7B68     		ldr	r3, [r7, #4]
 4705 00d8 1B68     		ldr	r3, [r3]
 4706 00da 1A6A     		ldr	r2, [r3, #32]
 4707 00dc 40F24443 		movw	r3, #1092
 4708 00e0 1340     		ands	r3, r3, r2
 4709 00e2 002B     		cmp	r3, #0
 4710 00e4 07D1     		bne	.L313
 4711              		.loc 1 1548 5 discriminator 2
 4712 00e6 7B68     		ldr	r3, [r7, #4]
 4713 00e8 1B68     		ldr	r3, [r3]
 4714 00ea 1A68     		ldr	r2, [r3]
 4715 00ec 7B68     		ldr	r3, [r7, #4]
 4716 00ee 1B68     		ldr	r3, [r3]
 4717 00f0 22F00102 		bic	r2, r2, #1
 4718 00f4 1A60     		str	r2, [r3]
 4719              	.L313:
1549:Drivers/STM32H7xx_HAL_Driver/Src/stm32h7xx_hal_tim_ex.c **** 
1550:Drivers/STM32H7xx_HAL_Driver/Src/stm32h7xx_hal_tim_ex.c ****     /* Set the TIM complementary channel state */
1551:Drivers/STM32H7xx_HAL_Driver/Src/stm32h7xx_hal_tim_ex.c ****     TIM_CHANNEL_N_STATE_SET(htim, Channel, HAL_TIM_CHANNEL_STATE_READY);
 4720              		.loc 1 1551 5 is_stmt 1
 4721 00f6 3B68     		ldr	r3, [r7]
 4722 00f8 002B     		cmp	r3, #0
 4723 00fa 04D1     		bne	.L314
 4724              		.loc 1 1551 5 is_stmt 0 discriminator 1
 4725 00fc 7B68     		ldr	r3, [r7, #4]
 4726 00fe 0122     		movs	r2, #1
 4727 0100 83F84420 		strb	r2, [r3, #68]
 4728 0104 13E0     		b	.L311
 4729              	.L314:
 4730              		.loc 1 1551 5 discriminator 2
 4731 0106 3B68     		ldr	r3, [r7]
 4732 0108 042B     		cmp	r3, #4
 4733 010a 04D1     		bne	.L315
 4734              		.loc 1 1551 5 discriminator 3
 4735 010c 7B68     		ldr	r3, [r7, #4]
 4736 010e 0122     		movs	r2, #1
 4737 0110 83F84520 		strb	r2, [r3, #69]
 4738 0114 0BE0     		b	.L311
 4739              	.L315:
 4740              		.loc 1 1551 5 discriminator 4
 4741 0116 3B68     		ldr	r3, [r7]
 4742 0118 082B     		cmp	r3, #8
ARM GAS  /var/folders/d0/cymppscj10lcmm48h781wrc80000gn/T//ccIjALm5.s 			page 111


 4743 011a 04D1     		bne	.L317
 4744              		.loc 1 1551 5 discriminator 6
 4745 011c 7B68     		ldr	r3, [r7, #4]
 4746 011e 0122     		movs	r2, #1
 4747 0120 83F84620 		strb	r2, [r3, #70]
 4748 0124 03E0     		b	.L311
 4749              	.L317:
 4750              		.loc 1 1551 5 discriminator 7
 4751 0126 7B68     		ldr	r3, [r7, #4]
 4752 0128 0122     		movs	r2, #1
 4753 012a 83F84720 		strb	r2, [r3, #71]
 4754              	.L311:
1552:Drivers/STM32H7xx_HAL_Driver/Src/stm32h7xx_hal_tim_ex.c ****   }
1553:Drivers/STM32H7xx_HAL_Driver/Src/stm32h7xx_hal_tim_ex.c **** 
1554:Drivers/STM32H7xx_HAL_Driver/Src/stm32h7xx_hal_tim_ex.c ****   /* Return function status */
1555:Drivers/STM32H7xx_HAL_Driver/Src/stm32h7xx_hal_tim_ex.c ****   return status;
 4755              		.loc 1 1555 10 is_stmt 1
 4756 012e FB7B     		ldrb	r3, [r7, #15]	@ zero_extendqisi2
1556:Drivers/STM32H7xx_HAL_Driver/Src/stm32h7xx_hal_tim_ex.c **** }
 4757              		.loc 1 1556 1
 4758 0130 1846     		mov	r0, r3
 4759 0132 1037     		adds	r7, r7, #16
 4760              	.LCFI110:
 4761              		.cfi_def_cfa_offset 8
 4762 0134 BD46     		mov	sp, r7
 4763              	.LCFI111:
 4764              		.cfi_def_cfa_register 13
 4765              		@ sp needed
 4766 0136 80BD     		pop	{r7, pc}
 4767              		.cfi_endproc
 4768              	.LFE354:
 4770              		.section	.text.HAL_TIMEx_OnePulseN_Start,"ax",%progbits
 4771              		.align	1
 4772              		.global	HAL_TIMEx_OnePulseN_Start
 4773              		.syntax unified
 4774              		.thumb
 4775              		.thumb_func
 4777              	HAL_TIMEx_OnePulseN_Start:
 4778              	.LFB355:
1557:Drivers/STM32H7xx_HAL_Driver/Src/stm32h7xx_hal_tim_ex.c **** 
1558:Drivers/STM32H7xx_HAL_Driver/Src/stm32h7xx_hal_tim_ex.c **** /**
1559:Drivers/STM32H7xx_HAL_Driver/Src/stm32h7xx_hal_tim_ex.c ****   * @}
1560:Drivers/STM32H7xx_HAL_Driver/Src/stm32h7xx_hal_tim_ex.c ****   */
1561:Drivers/STM32H7xx_HAL_Driver/Src/stm32h7xx_hal_tim_ex.c **** 
1562:Drivers/STM32H7xx_HAL_Driver/Src/stm32h7xx_hal_tim_ex.c **** /** @defgroup TIMEx_Exported_Functions_Group4 Extended Timer Complementary One Pulse functions
1563:Drivers/STM32H7xx_HAL_Driver/Src/stm32h7xx_hal_tim_ex.c ****   * @brief    Timer Complementary One Pulse functions
1564:Drivers/STM32H7xx_HAL_Driver/Src/stm32h7xx_hal_tim_ex.c ****   *
1565:Drivers/STM32H7xx_HAL_Driver/Src/stm32h7xx_hal_tim_ex.c **** @verbatim
1566:Drivers/STM32H7xx_HAL_Driver/Src/stm32h7xx_hal_tim_ex.c ****   ==============================================================================
1567:Drivers/STM32H7xx_HAL_Driver/Src/stm32h7xx_hal_tim_ex.c ****                 ##### Timer Complementary One Pulse functions #####
1568:Drivers/STM32H7xx_HAL_Driver/Src/stm32h7xx_hal_tim_ex.c ****   ==============================================================================
1569:Drivers/STM32H7xx_HAL_Driver/Src/stm32h7xx_hal_tim_ex.c ****   [..]
1570:Drivers/STM32H7xx_HAL_Driver/Src/stm32h7xx_hal_tim_ex.c ****     This section provides functions allowing to:
1571:Drivers/STM32H7xx_HAL_Driver/Src/stm32h7xx_hal_tim_ex.c ****     (+) Start the Complementary One Pulse generation.
1572:Drivers/STM32H7xx_HAL_Driver/Src/stm32h7xx_hal_tim_ex.c ****     (+) Stop the Complementary One Pulse.
1573:Drivers/STM32H7xx_HAL_Driver/Src/stm32h7xx_hal_tim_ex.c ****     (+) Start the Complementary One Pulse and enable interrupts.
1574:Drivers/STM32H7xx_HAL_Driver/Src/stm32h7xx_hal_tim_ex.c ****     (+) Stop the Complementary One Pulse and disable interrupts.
ARM GAS  /var/folders/d0/cymppscj10lcmm48h781wrc80000gn/T//ccIjALm5.s 			page 112


1575:Drivers/STM32H7xx_HAL_Driver/Src/stm32h7xx_hal_tim_ex.c **** 
1576:Drivers/STM32H7xx_HAL_Driver/Src/stm32h7xx_hal_tim_ex.c **** @endverbatim
1577:Drivers/STM32H7xx_HAL_Driver/Src/stm32h7xx_hal_tim_ex.c ****   * @{
1578:Drivers/STM32H7xx_HAL_Driver/Src/stm32h7xx_hal_tim_ex.c ****   */
1579:Drivers/STM32H7xx_HAL_Driver/Src/stm32h7xx_hal_tim_ex.c **** 
1580:Drivers/STM32H7xx_HAL_Driver/Src/stm32h7xx_hal_tim_ex.c **** /**
1581:Drivers/STM32H7xx_HAL_Driver/Src/stm32h7xx_hal_tim_ex.c ****   * @brief  Starts the TIM One Pulse signal generation on the complementary
1582:Drivers/STM32H7xx_HAL_Driver/Src/stm32h7xx_hal_tim_ex.c ****   *         output.
1583:Drivers/STM32H7xx_HAL_Driver/Src/stm32h7xx_hal_tim_ex.c ****   * @note OutputChannel must match the pulse output channel chosen when calling
1584:Drivers/STM32H7xx_HAL_Driver/Src/stm32h7xx_hal_tim_ex.c ****   *       @ref HAL_TIM_OnePulse_ConfigChannel().
1585:Drivers/STM32H7xx_HAL_Driver/Src/stm32h7xx_hal_tim_ex.c ****   * @param  htim TIM One Pulse handle
1586:Drivers/STM32H7xx_HAL_Driver/Src/stm32h7xx_hal_tim_ex.c ****   * @param  OutputChannel pulse output channel to enable
1587:Drivers/STM32H7xx_HAL_Driver/Src/stm32h7xx_hal_tim_ex.c ****   *          This parameter can be one of the following values:
1588:Drivers/STM32H7xx_HAL_Driver/Src/stm32h7xx_hal_tim_ex.c ****   *            @arg TIM_CHANNEL_1: TIM Channel 1 selected
1589:Drivers/STM32H7xx_HAL_Driver/Src/stm32h7xx_hal_tim_ex.c ****   *            @arg TIM_CHANNEL_2: TIM Channel 2 selected
1590:Drivers/STM32H7xx_HAL_Driver/Src/stm32h7xx_hal_tim_ex.c ****   * @retval HAL status
1591:Drivers/STM32H7xx_HAL_Driver/Src/stm32h7xx_hal_tim_ex.c ****   */
1592:Drivers/STM32H7xx_HAL_Driver/Src/stm32h7xx_hal_tim_ex.c **** HAL_StatusTypeDef HAL_TIMEx_OnePulseN_Start(TIM_HandleTypeDef *htim, uint32_t OutputChannel)
1593:Drivers/STM32H7xx_HAL_Driver/Src/stm32h7xx_hal_tim_ex.c **** {
 4779              		.loc 1 1593 1
 4780              		.cfi_startproc
 4781              		@ args = 0, pretend = 0, frame = 16
 4782              		@ frame_needed = 1, uses_anonymous_args = 0
 4783 0000 80B5     		push	{r7, lr}
 4784              	.LCFI112:
 4785              		.cfi_def_cfa_offset 8
 4786              		.cfi_offset 7, -8
 4787              		.cfi_offset 14, -4
 4788 0002 84B0     		sub	sp, sp, #16
 4789              	.LCFI113:
 4790              		.cfi_def_cfa_offset 24
 4791 0004 00AF     		add	r7, sp, #0
 4792              	.LCFI114:
 4793              		.cfi_def_cfa_register 7
 4794 0006 7860     		str	r0, [r7, #4]
 4795 0008 3960     		str	r1, [r7]
1594:Drivers/STM32H7xx_HAL_Driver/Src/stm32h7xx_hal_tim_ex.c ****   uint32_t input_channel = (OutputChannel == TIM_CHANNEL_1) ? TIM_CHANNEL_2 : TIM_CHANNEL_1;
 4796              		.loc 1 1594 77
 4797 000a 3B68     		ldr	r3, [r7]
 4798 000c 002B     		cmp	r3, #0
 4799 000e 01D1     		bne	.L321
 4800              		.loc 1 1594 77 is_stmt 0 discriminator 1
 4801 0010 0423     		movs	r3, #4
 4802 0012 00E0     		b	.L322
 4803              	.L321:
 4804              		.loc 1 1594 77 discriminator 2
 4805 0014 0023     		movs	r3, #0
 4806              	.L322:
 4807              		.loc 1 1594 12 is_stmt 1 discriminator 4
 4808 0016 FB60     		str	r3, [r7, #12]
1595:Drivers/STM32H7xx_HAL_Driver/Src/stm32h7xx_hal_tim_ex.c ****   HAL_TIM_ChannelStateTypeDef channel_1_state = TIM_CHANNEL_STATE_GET(htim, TIM_CHANNEL_1);
 4809              		.loc 1 1595 31 discriminator 4
 4810 0018 7B68     		ldr	r3, [r7, #4]
 4811 001a 93F83E30 		ldrb	r3, [r3, #62]
 4812 001e FB72     		strb	r3, [r7, #11]
1596:Drivers/STM32H7xx_HAL_Driver/Src/stm32h7xx_hal_tim_ex.c ****   HAL_TIM_ChannelStateTypeDef channel_2_state = TIM_CHANNEL_STATE_GET(htim, TIM_CHANNEL_2);
 4813              		.loc 1 1596 31 discriminator 4
ARM GAS  /var/folders/d0/cymppscj10lcmm48h781wrc80000gn/T//ccIjALm5.s 			page 113


 4814 0020 7B68     		ldr	r3, [r7, #4]
 4815 0022 93F83F30 		ldrb	r3, [r3, #63]
 4816 0026 BB72     		strb	r3, [r7, #10]
1597:Drivers/STM32H7xx_HAL_Driver/Src/stm32h7xx_hal_tim_ex.c ****   HAL_TIM_ChannelStateTypeDef complementary_channel_1_state = TIM_CHANNEL_N_STATE_GET(htim, TIM_CHA
 4817              		.loc 1 1597 31 discriminator 4
 4818 0028 7B68     		ldr	r3, [r7, #4]
 4819 002a 93F84430 		ldrb	r3, [r3, #68]
 4820 002e 7B72     		strb	r3, [r7, #9]
1598:Drivers/STM32H7xx_HAL_Driver/Src/stm32h7xx_hal_tim_ex.c ****   HAL_TIM_ChannelStateTypeDef complementary_channel_2_state = TIM_CHANNEL_N_STATE_GET(htim, TIM_CHA
 4821              		.loc 1 1598 31 discriminator 4
 4822 0030 7B68     		ldr	r3, [r7, #4]
 4823 0032 93F84530 		ldrb	r3, [r3, #69]
 4824 0036 3B72     		strb	r3, [r7, #8]
1599:Drivers/STM32H7xx_HAL_Driver/Src/stm32h7xx_hal_tim_ex.c **** 
1600:Drivers/STM32H7xx_HAL_Driver/Src/stm32h7xx_hal_tim_ex.c ****   /* Check the parameters */
1601:Drivers/STM32H7xx_HAL_Driver/Src/stm32h7xx_hal_tim_ex.c ****   assert_param(IS_TIM_CCXN_INSTANCE(htim->Instance, OutputChannel));
1602:Drivers/STM32H7xx_HAL_Driver/Src/stm32h7xx_hal_tim_ex.c **** 
1603:Drivers/STM32H7xx_HAL_Driver/Src/stm32h7xx_hal_tim_ex.c ****   /* Check the TIM channels state */
1604:Drivers/STM32H7xx_HAL_Driver/Src/stm32h7xx_hal_tim_ex.c ****   if ((channel_1_state != HAL_TIM_CHANNEL_STATE_READY)
 4825              		.loc 1 1604 6 discriminator 4
 4826 0038 FB7A     		ldrb	r3, [r7, #11]	@ zero_extendqisi2
 4827 003a 012B     		cmp	r3, #1
 4828 003c 08D1     		bne	.L323
1605:Drivers/STM32H7xx_HAL_Driver/Src/stm32h7xx_hal_tim_ex.c ****       || (channel_2_state != HAL_TIM_CHANNEL_STATE_READY)
 4829              		.loc 1 1605 7
 4830 003e BB7A     		ldrb	r3, [r7, #10]	@ zero_extendqisi2
 4831 0040 012B     		cmp	r3, #1
 4832 0042 05D1     		bne	.L323
1606:Drivers/STM32H7xx_HAL_Driver/Src/stm32h7xx_hal_tim_ex.c ****       || (complementary_channel_1_state != HAL_TIM_CHANNEL_STATE_READY)
 4833              		.loc 1 1606 7
 4834 0044 7B7A     		ldrb	r3, [r7, #9]	@ zero_extendqisi2
 4835 0046 012B     		cmp	r3, #1
 4836 0048 02D1     		bne	.L323
1607:Drivers/STM32H7xx_HAL_Driver/Src/stm32h7xx_hal_tim_ex.c ****       || (complementary_channel_2_state != HAL_TIM_CHANNEL_STATE_READY))
 4837              		.loc 1 1607 7
 4838 004a 3B7A     		ldrb	r3, [r7, #8]	@ zero_extendqisi2
 4839 004c 012B     		cmp	r3, #1
 4840 004e 01D0     		beq	.L324
 4841              	.L323:
1608:Drivers/STM32H7xx_HAL_Driver/Src/stm32h7xx_hal_tim_ex.c ****   {
1609:Drivers/STM32H7xx_HAL_Driver/Src/stm32h7xx_hal_tim_ex.c ****     return HAL_ERROR;
 4842              		.loc 1 1609 12
 4843 0050 0123     		movs	r3, #1
 4844 0052 26E0     		b	.L325
 4845              	.L324:
1610:Drivers/STM32H7xx_HAL_Driver/Src/stm32h7xx_hal_tim_ex.c ****   }
1611:Drivers/STM32H7xx_HAL_Driver/Src/stm32h7xx_hal_tim_ex.c **** 
1612:Drivers/STM32H7xx_HAL_Driver/Src/stm32h7xx_hal_tim_ex.c ****   /* Set the TIM channels state */
1613:Drivers/STM32H7xx_HAL_Driver/Src/stm32h7xx_hal_tim_ex.c ****   TIM_CHANNEL_STATE_SET(htim, TIM_CHANNEL_1, HAL_TIM_CHANNEL_STATE_BUSY);
 4846              		.loc 1 1613 3
 4847 0054 7B68     		ldr	r3, [r7, #4]
 4848 0056 0222     		movs	r2, #2
 4849 0058 83F83E20 		strb	r2, [r3, #62]
1614:Drivers/STM32H7xx_HAL_Driver/Src/stm32h7xx_hal_tim_ex.c ****   TIM_CHANNEL_STATE_SET(htim, TIM_CHANNEL_2, HAL_TIM_CHANNEL_STATE_BUSY);
 4850              		.loc 1 1614 3
 4851 005c 7B68     		ldr	r3, [r7, #4]
 4852 005e 0222     		movs	r2, #2
ARM GAS  /var/folders/d0/cymppscj10lcmm48h781wrc80000gn/T//ccIjALm5.s 			page 114


 4853 0060 83F83F20 		strb	r2, [r3, #63]
1615:Drivers/STM32H7xx_HAL_Driver/Src/stm32h7xx_hal_tim_ex.c ****   TIM_CHANNEL_N_STATE_SET(htim, TIM_CHANNEL_1, HAL_TIM_CHANNEL_STATE_BUSY);
 4854              		.loc 1 1615 3
 4855 0064 7B68     		ldr	r3, [r7, #4]
 4856 0066 0222     		movs	r2, #2
 4857 0068 83F84420 		strb	r2, [r3, #68]
1616:Drivers/STM32H7xx_HAL_Driver/Src/stm32h7xx_hal_tim_ex.c ****   TIM_CHANNEL_N_STATE_SET(htim, TIM_CHANNEL_2, HAL_TIM_CHANNEL_STATE_BUSY);
 4858              		.loc 1 1616 3
 4859 006c 7B68     		ldr	r3, [r7, #4]
 4860 006e 0222     		movs	r2, #2
 4861 0070 83F84520 		strb	r2, [r3, #69]
1617:Drivers/STM32H7xx_HAL_Driver/Src/stm32h7xx_hal_tim_ex.c **** 
1618:Drivers/STM32H7xx_HAL_Driver/Src/stm32h7xx_hal_tim_ex.c ****   /* Enable the complementary One Pulse output channel and the Input Capture channel */
1619:Drivers/STM32H7xx_HAL_Driver/Src/stm32h7xx_hal_tim_ex.c ****   TIM_CCxNChannelCmd(htim->Instance, OutputChannel, TIM_CCxN_ENABLE);
 4862              		.loc 1 1619 3
 4863 0074 7B68     		ldr	r3, [r7, #4]
 4864 0076 1B68     		ldr	r3, [r3]
 4865 0078 0422     		movs	r2, #4
 4866 007a 3968     		ldr	r1, [r7]
 4867 007c 1846     		mov	r0, r3
 4868 007e FFF7FEFF 		bl	TIM_CCxNChannelCmd
1620:Drivers/STM32H7xx_HAL_Driver/Src/stm32h7xx_hal_tim_ex.c ****   TIM_CCxChannelCmd(htim->Instance, input_channel, TIM_CCx_ENABLE);
 4869              		.loc 1 1620 3
 4870 0082 7B68     		ldr	r3, [r7, #4]
 4871 0084 1B68     		ldr	r3, [r3]
 4872 0086 0122     		movs	r2, #1
 4873 0088 F968     		ldr	r1, [r7, #12]
 4874 008a 1846     		mov	r0, r3
 4875 008c FFF7FEFF 		bl	TIM_CCxChannelCmd
1621:Drivers/STM32H7xx_HAL_Driver/Src/stm32h7xx_hal_tim_ex.c **** 
1622:Drivers/STM32H7xx_HAL_Driver/Src/stm32h7xx_hal_tim_ex.c ****   /* Enable the Main Output */
1623:Drivers/STM32H7xx_HAL_Driver/Src/stm32h7xx_hal_tim_ex.c ****   __HAL_TIM_MOE_ENABLE(htim);
 4876              		.loc 1 1623 3
 4877 0090 7B68     		ldr	r3, [r7, #4]
 4878 0092 1B68     		ldr	r3, [r3]
 4879 0094 5A6C     		ldr	r2, [r3, #68]
 4880 0096 7B68     		ldr	r3, [r7, #4]
 4881 0098 1B68     		ldr	r3, [r3]
 4882 009a 42F40042 		orr	r2, r2, #32768
 4883 009e 5A64     		str	r2, [r3, #68]
1624:Drivers/STM32H7xx_HAL_Driver/Src/stm32h7xx_hal_tim_ex.c **** 
1625:Drivers/STM32H7xx_HAL_Driver/Src/stm32h7xx_hal_tim_ex.c ****   /* Return function status */
1626:Drivers/STM32H7xx_HAL_Driver/Src/stm32h7xx_hal_tim_ex.c ****   return HAL_OK;
 4884              		.loc 1 1626 10
 4885 00a0 0023     		movs	r3, #0
 4886              	.L325:
1627:Drivers/STM32H7xx_HAL_Driver/Src/stm32h7xx_hal_tim_ex.c **** }
 4887              		.loc 1 1627 1
 4888 00a2 1846     		mov	r0, r3
 4889 00a4 1037     		adds	r7, r7, #16
 4890              	.LCFI115:
 4891              		.cfi_def_cfa_offset 8
 4892 00a6 BD46     		mov	sp, r7
 4893              	.LCFI116:
 4894              		.cfi_def_cfa_register 13
 4895              		@ sp needed
 4896 00a8 80BD     		pop	{r7, pc}
ARM GAS  /var/folders/d0/cymppscj10lcmm48h781wrc80000gn/T//ccIjALm5.s 			page 115


 4897              		.cfi_endproc
 4898              	.LFE355:
 4900              		.section	.text.HAL_TIMEx_OnePulseN_Stop,"ax",%progbits
 4901              		.align	1
 4902              		.global	HAL_TIMEx_OnePulseN_Stop
 4903              		.syntax unified
 4904              		.thumb
 4905              		.thumb_func
 4907              	HAL_TIMEx_OnePulseN_Stop:
 4908              	.LFB356:
1628:Drivers/STM32H7xx_HAL_Driver/Src/stm32h7xx_hal_tim_ex.c **** 
1629:Drivers/STM32H7xx_HAL_Driver/Src/stm32h7xx_hal_tim_ex.c **** /**
1630:Drivers/STM32H7xx_HAL_Driver/Src/stm32h7xx_hal_tim_ex.c ****   * @brief  Stops the TIM One Pulse signal generation on the complementary
1631:Drivers/STM32H7xx_HAL_Driver/Src/stm32h7xx_hal_tim_ex.c ****   *         output.
1632:Drivers/STM32H7xx_HAL_Driver/Src/stm32h7xx_hal_tim_ex.c ****   * @note OutputChannel must match the pulse output channel chosen when calling
1633:Drivers/STM32H7xx_HAL_Driver/Src/stm32h7xx_hal_tim_ex.c ****   *       @ref HAL_TIM_OnePulse_ConfigChannel().
1634:Drivers/STM32H7xx_HAL_Driver/Src/stm32h7xx_hal_tim_ex.c ****   * @param  htim TIM One Pulse handle
1635:Drivers/STM32H7xx_HAL_Driver/Src/stm32h7xx_hal_tim_ex.c ****   * @param  OutputChannel pulse output channel to disable
1636:Drivers/STM32H7xx_HAL_Driver/Src/stm32h7xx_hal_tim_ex.c ****   *          This parameter can be one of the following values:
1637:Drivers/STM32H7xx_HAL_Driver/Src/stm32h7xx_hal_tim_ex.c ****   *            @arg TIM_CHANNEL_1: TIM Channel 1 selected
1638:Drivers/STM32H7xx_HAL_Driver/Src/stm32h7xx_hal_tim_ex.c ****   *            @arg TIM_CHANNEL_2: TIM Channel 2 selected
1639:Drivers/STM32H7xx_HAL_Driver/Src/stm32h7xx_hal_tim_ex.c ****   * @retval HAL status
1640:Drivers/STM32H7xx_HAL_Driver/Src/stm32h7xx_hal_tim_ex.c ****   */
1641:Drivers/STM32H7xx_HAL_Driver/Src/stm32h7xx_hal_tim_ex.c **** HAL_StatusTypeDef HAL_TIMEx_OnePulseN_Stop(TIM_HandleTypeDef *htim, uint32_t OutputChannel)
1642:Drivers/STM32H7xx_HAL_Driver/Src/stm32h7xx_hal_tim_ex.c **** {
 4909              		.loc 1 1642 1
 4910              		.cfi_startproc
 4911              		@ args = 0, pretend = 0, frame = 16
 4912              		@ frame_needed = 1, uses_anonymous_args = 0
 4913 0000 80B5     		push	{r7, lr}
 4914              	.LCFI117:
 4915              		.cfi_def_cfa_offset 8
 4916              		.cfi_offset 7, -8
 4917              		.cfi_offset 14, -4
 4918 0002 84B0     		sub	sp, sp, #16
 4919              	.LCFI118:
 4920              		.cfi_def_cfa_offset 24
 4921 0004 00AF     		add	r7, sp, #0
 4922              	.LCFI119:
 4923              		.cfi_def_cfa_register 7
 4924 0006 7860     		str	r0, [r7, #4]
 4925 0008 3960     		str	r1, [r7]
1643:Drivers/STM32H7xx_HAL_Driver/Src/stm32h7xx_hal_tim_ex.c ****   uint32_t input_channel = (OutputChannel == TIM_CHANNEL_1) ? TIM_CHANNEL_2 : TIM_CHANNEL_1;
 4926              		.loc 1 1643 77
 4927 000a 3B68     		ldr	r3, [r7]
 4928 000c 002B     		cmp	r3, #0
 4929 000e 01D1     		bne	.L327
 4930              		.loc 1 1643 77 is_stmt 0 discriminator 1
 4931 0010 0423     		movs	r3, #4
 4932 0012 00E0     		b	.L328
 4933              	.L327:
 4934              		.loc 1 1643 77 discriminator 2
 4935 0014 0023     		movs	r3, #0
 4936              	.L328:
 4937              		.loc 1 1643 12 is_stmt 1 discriminator 4
 4938 0016 FB60     		str	r3, [r7, #12]
1644:Drivers/STM32H7xx_HAL_Driver/Src/stm32h7xx_hal_tim_ex.c **** 
ARM GAS  /var/folders/d0/cymppscj10lcmm48h781wrc80000gn/T//ccIjALm5.s 			page 116


1645:Drivers/STM32H7xx_HAL_Driver/Src/stm32h7xx_hal_tim_ex.c ****   /* Check the parameters */
1646:Drivers/STM32H7xx_HAL_Driver/Src/stm32h7xx_hal_tim_ex.c ****   assert_param(IS_TIM_CCXN_INSTANCE(htim->Instance, OutputChannel));
1647:Drivers/STM32H7xx_HAL_Driver/Src/stm32h7xx_hal_tim_ex.c **** 
1648:Drivers/STM32H7xx_HAL_Driver/Src/stm32h7xx_hal_tim_ex.c ****   /* Disable the complementary One Pulse output channel and the Input Capture channel */
1649:Drivers/STM32H7xx_HAL_Driver/Src/stm32h7xx_hal_tim_ex.c ****   TIM_CCxNChannelCmd(htim->Instance, OutputChannel, TIM_CCxN_DISABLE);
 4939              		.loc 1 1649 3 discriminator 4
 4940 0018 7B68     		ldr	r3, [r7, #4]
 4941 001a 1B68     		ldr	r3, [r3]
 4942 001c 0022     		movs	r2, #0
 4943 001e 3968     		ldr	r1, [r7]
 4944 0020 1846     		mov	r0, r3
 4945 0022 FFF7FEFF 		bl	TIM_CCxNChannelCmd
1650:Drivers/STM32H7xx_HAL_Driver/Src/stm32h7xx_hal_tim_ex.c ****   TIM_CCxChannelCmd(htim->Instance, input_channel, TIM_CCx_DISABLE);
 4946              		.loc 1 1650 3 discriminator 4
 4947 0026 7B68     		ldr	r3, [r7, #4]
 4948 0028 1B68     		ldr	r3, [r3]
 4949 002a 0022     		movs	r2, #0
 4950 002c F968     		ldr	r1, [r7, #12]
 4951 002e 1846     		mov	r0, r3
 4952 0030 FFF7FEFF 		bl	TIM_CCxChannelCmd
1651:Drivers/STM32H7xx_HAL_Driver/Src/stm32h7xx_hal_tim_ex.c **** 
1652:Drivers/STM32H7xx_HAL_Driver/Src/stm32h7xx_hal_tim_ex.c ****   /* Disable the Main Output */
1653:Drivers/STM32H7xx_HAL_Driver/Src/stm32h7xx_hal_tim_ex.c ****   __HAL_TIM_MOE_DISABLE(htim);
 4953              		.loc 1 1653 3 discriminator 4
 4954 0034 7B68     		ldr	r3, [r7, #4]
 4955 0036 1B68     		ldr	r3, [r3]
 4956 0038 1A6A     		ldr	r2, [r3, #32]
 4957 003a 41F21113 		movw	r3, #4369
 4958 003e 1340     		ands	r3, r3, r2
 4959 0040 002B     		cmp	r3, #0
 4960 0042 0FD1     		bne	.L329
 4961              		.loc 1 1653 3 is_stmt 0 discriminator 1
 4962 0044 7B68     		ldr	r3, [r7, #4]
 4963 0046 1B68     		ldr	r3, [r3]
 4964 0048 1A6A     		ldr	r2, [r3, #32]
 4965 004a 40F24443 		movw	r3, #1092
 4966 004e 1340     		ands	r3, r3, r2
 4967 0050 002B     		cmp	r3, #0
 4968 0052 07D1     		bne	.L329
 4969              		.loc 1 1653 3 discriminator 2
 4970 0054 7B68     		ldr	r3, [r7, #4]
 4971 0056 1B68     		ldr	r3, [r3]
 4972 0058 5A6C     		ldr	r2, [r3, #68]
 4973 005a 7B68     		ldr	r3, [r7, #4]
 4974 005c 1B68     		ldr	r3, [r3]
 4975 005e 22F40042 		bic	r2, r2, #32768
 4976 0062 5A64     		str	r2, [r3, #68]
 4977              	.L329:
1654:Drivers/STM32H7xx_HAL_Driver/Src/stm32h7xx_hal_tim_ex.c **** 
1655:Drivers/STM32H7xx_HAL_Driver/Src/stm32h7xx_hal_tim_ex.c ****   /* Disable the Peripheral */
1656:Drivers/STM32H7xx_HAL_Driver/Src/stm32h7xx_hal_tim_ex.c ****   __HAL_TIM_DISABLE(htim);
 4978              		.loc 1 1656 3 is_stmt 1
 4979 0064 7B68     		ldr	r3, [r7, #4]
 4980 0066 1B68     		ldr	r3, [r3]
 4981 0068 1A6A     		ldr	r2, [r3, #32]
 4982 006a 41F21113 		movw	r3, #4369
 4983 006e 1340     		ands	r3, r3, r2
ARM GAS  /var/folders/d0/cymppscj10lcmm48h781wrc80000gn/T//ccIjALm5.s 			page 117


 4984 0070 002B     		cmp	r3, #0
 4985 0072 0FD1     		bne	.L330
 4986              		.loc 1 1656 3 is_stmt 0 discriminator 1
 4987 0074 7B68     		ldr	r3, [r7, #4]
 4988 0076 1B68     		ldr	r3, [r3]
 4989 0078 1A6A     		ldr	r2, [r3, #32]
 4990 007a 40F24443 		movw	r3, #1092
 4991 007e 1340     		ands	r3, r3, r2
 4992 0080 002B     		cmp	r3, #0
 4993 0082 07D1     		bne	.L330
 4994              		.loc 1 1656 3 discriminator 2
 4995 0084 7B68     		ldr	r3, [r7, #4]
 4996 0086 1B68     		ldr	r3, [r3]
 4997 0088 1A68     		ldr	r2, [r3]
 4998 008a 7B68     		ldr	r3, [r7, #4]
 4999 008c 1B68     		ldr	r3, [r3]
 5000 008e 22F00102 		bic	r2, r2, #1
 5001 0092 1A60     		str	r2, [r3]
 5002              	.L330:
1657:Drivers/STM32H7xx_HAL_Driver/Src/stm32h7xx_hal_tim_ex.c **** 
1658:Drivers/STM32H7xx_HAL_Driver/Src/stm32h7xx_hal_tim_ex.c ****   /* Set the TIM  channels state */
1659:Drivers/STM32H7xx_HAL_Driver/Src/stm32h7xx_hal_tim_ex.c ****   TIM_CHANNEL_STATE_SET(htim, TIM_CHANNEL_1, HAL_TIM_CHANNEL_STATE_READY);
 5003              		.loc 1 1659 3 is_stmt 1
 5004 0094 7B68     		ldr	r3, [r7, #4]
 5005 0096 0122     		movs	r2, #1
 5006 0098 83F83E20 		strb	r2, [r3, #62]
1660:Drivers/STM32H7xx_HAL_Driver/Src/stm32h7xx_hal_tim_ex.c ****   TIM_CHANNEL_STATE_SET(htim, TIM_CHANNEL_2, HAL_TIM_CHANNEL_STATE_READY);
 5007              		.loc 1 1660 3
 5008 009c 7B68     		ldr	r3, [r7, #4]
 5009 009e 0122     		movs	r2, #1
 5010 00a0 83F83F20 		strb	r2, [r3, #63]
1661:Drivers/STM32H7xx_HAL_Driver/Src/stm32h7xx_hal_tim_ex.c ****   TIM_CHANNEL_N_STATE_SET(htim, TIM_CHANNEL_1, HAL_TIM_CHANNEL_STATE_READY);
 5011              		.loc 1 1661 3
 5012 00a4 7B68     		ldr	r3, [r7, #4]
 5013 00a6 0122     		movs	r2, #1
 5014 00a8 83F84420 		strb	r2, [r3, #68]
1662:Drivers/STM32H7xx_HAL_Driver/Src/stm32h7xx_hal_tim_ex.c ****   TIM_CHANNEL_N_STATE_SET(htim, TIM_CHANNEL_2, HAL_TIM_CHANNEL_STATE_READY);
 5015              		.loc 1 1662 3
 5016 00ac 7B68     		ldr	r3, [r7, #4]
 5017 00ae 0122     		movs	r2, #1
 5018 00b0 83F84520 		strb	r2, [r3, #69]
1663:Drivers/STM32H7xx_HAL_Driver/Src/stm32h7xx_hal_tim_ex.c **** 
1664:Drivers/STM32H7xx_HAL_Driver/Src/stm32h7xx_hal_tim_ex.c ****   /* Return function status */
1665:Drivers/STM32H7xx_HAL_Driver/Src/stm32h7xx_hal_tim_ex.c ****   return HAL_OK;
 5019              		.loc 1 1665 10
 5020 00b4 0023     		movs	r3, #0
1666:Drivers/STM32H7xx_HAL_Driver/Src/stm32h7xx_hal_tim_ex.c **** }
 5021              		.loc 1 1666 1
 5022 00b6 1846     		mov	r0, r3
 5023 00b8 1037     		adds	r7, r7, #16
 5024              	.LCFI120:
 5025              		.cfi_def_cfa_offset 8
 5026 00ba BD46     		mov	sp, r7
 5027              	.LCFI121:
 5028              		.cfi_def_cfa_register 13
 5029              		@ sp needed
 5030 00bc 80BD     		pop	{r7, pc}
ARM GAS  /var/folders/d0/cymppscj10lcmm48h781wrc80000gn/T//ccIjALm5.s 			page 118


 5031              		.cfi_endproc
 5032              	.LFE356:
 5034              		.section	.text.HAL_TIMEx_OnePulseN_Start_IT,"ax",%progbits
 5035              		.align	1
 5036              		.global	HAL_TIMEx_OnePulseN_Start_IT
 5037              		.syntax unified
 5038              		.thumb
 5039              		.thumb_func
 5041              	HAL_TIMEx_OnePulseN_Start_IT:
 5042              	.LFB357:
1667:Drivers/STM32H7xx_HAL_Driver/Src/stm32h7xx_hal_tim_ex.c **** 
1668:Drivers/STM32H7xx_HAL_Driver/Src/stm32h7xx_hal_tim_ex.c **** /**
1669:Drivers/STM32H7xx_HAL_Driver/Src/stm32h7xx_hal_tim_ex.c ****   * @brief  Starts the TIM One Pulse signal generation in interrupt mode on the
1670:Drivers/STM32H7xx_HAL_Driver/Src/stm32h7xx_hal_tim_ex.c ****   *         complementary channel.
1671:Drivers/STM32H7xx_HAL_Driver/Src/stm32h7xx_hal_tim_ex.c ****   * @note OutputChannel must match the pulse output channel chosen when calling
1672:Drivers/STM32H7xx_HAL_Driver/Src/stm32h7xx_hal_tim_ex.c ****   *       @ref HAL_TIM_OnePulse_ConfigChannel().
1673:Drivers/STM32H7xx_HAL_Driver/Src/stm32h7xx_hal_tim_ex.c ****   * @param  htim TIM One Pulse handle
1674:Drivers/STM32H7xx_HAL_Driver/Src/stm32h7xx_hal_tim_ex.c ****   * @param  OutputChannel pulse output channel to enable
1675:Drivers/STM32H7xx_HAL_Driver/Src/stm32h7xx_hal_tim_ex.c ****   *          This parameter can be one of the following values:
1676:Drivers/STM32H7xx_HAL_Driver/Src/stm32h7xx_hal_tim_ex.c ****   *            @arg TIM_CHANNEL_1: TIM Channel 1 selected
1677:Drivers/STM32H7xx_HAL_Driver/Src/stm32h7xx_hal_tim_ex.c ****   *            @arg TIM_CHANNEL_2: TIM Channel 2 selected
1678:Drivers/STM32H7xx_HAL_Driver/Src/stm32h7xx_hal_tim_ex.c ****   * @retval HAL status
1679:Drivers/STM32H7xx_HAL_Driver/Src/stm32h7xx_hal_tim_ex.c ****   */
1680:Drivers/STM32H7xx_HAL_Driver/Src/stm32h7xx_hal_tim_ex.c **** HAL_StatusTypeDef HAL_TIMEx_OnePulseN_Start_IT(TIM_HandleTypeDef *htim, uint32_t OutputChannel)
1681:Drivers/STM32H7xx_HAL_Driver/Src/stm32h7xx_hal_tim_ex.c **** {
 5043              		.loc 1 1681 1
 5044              		.cfi_startproc
 5045              		@ args = 0, pretend = 0, frame = 16
 5046              		@ frame_needed = 1, uses_anonymous_args = 0
 5047 0000 80B5     		push	{r7, lr}
 5048              	.LCFI122:
 5049              		.cfi_def_cfa_offset 8
 5050              		.cfi_offset 7, -8
 5051              		.cfi_offset 14, -4
 5052 0002 84B0     		sub	sp, sp, #16
 5053              	.LCFI123:
 5054              		.cfi_def_cfa_offset 24
 5055 0004 00AF     		add	r7, sp, #0
 5056              	.LCFI124:
 5057              		.cfi_def_cfa_register 7
 5058 0006 7860     		str	r0, [r7, #4]
 5059 0008 3960     		str	r1, [r7]
1682:Drivers/STM32H7xx_HAL_Driver/Src/stm32h7xx_hal_tim_ex.c ****   uint32_t input_channel = (OutputChannel == TIM_CHANNEL_1) ? TIM_CHANNEL_2 : TIM_CHANNEL_1;
 5060              		.loc 1 1682 77
 5061 000a 3B68     		ldr	r3, [r7]
 5062 000c 002B     		cmp	r3, #0
 5063 000e 01D1     		bne	.L333
 5064              		.loc 1 1682 77 is_stmt 0 discriminator 1
 5065 0010 0423     		movs	r3, #4
 5066 0012 00E0     		b	.L334
 5067              	.L333:
 5068              		.loc 1 1682 77 discriminator 2
 5069 0014 0023     		movs	r3, #0
 5070              	.L334:
 5071              		.loc 1 1682 12 is_stmt 1 discriminator 4
 5072 0016 FB60     		str	r3, [r7, #12]
1683:Drivers/STM32H7xx_HAL_Driver/Src/stm32h7xx_hal_tim_ex.c ****   HAL_TIM_ChannelStateTypeDef channel_1_state = TIM_CHANNEL_STATE_GET(htim, TIM_CHANNEL_1);
ARM GAS  /var/folders/d0/cymppscj10lcmm48h781wrc80000gn/T//ccIjALm5.s 			page 119


 5073              		.loc 1 1683 31 discriminator 4
 5074 0018 7B68     		ldr	r3, [r7, #4]
 5075 001a 93F83E30 		ldrb	r3, [r3, #62]
 5076 001e FB72     		strb	r3, [r7, #11]
1684:Drivers/STM32H7xx_HAL_Driver/Src/stm32h7xx_hal_tim_ex.c ****   HAL_TIM_ChannelStateTypeDef channel_2_state = TIM_CHANNEL_STATE_GET(htim, TIM_CHANNEL_2);
 5077              		.loc 1 1684 31 discriminator 4
 5078 0020 7B68     		ldr	r3, [r7, #4]
 5079 0022 93F83F30 		ldrb	r3, [r3, #63]
 5080 0026 BB72     		strb	r3, [r7, #10]
1685:Drivers/STM32H7xx_HAL_Driver/Src/stm32h7xx_hal_tim_ex.c ****   HAL_TIM_ChannelStateTypeDef complementary_channel_1_state = TIM_CHANNEL_N_STATE_GET(htim, TIM_CHA
 5081              		.loc 1 1685 31 discriminator 4
 5082 0028 7B68     		ldr	r3, [r7, #4]
 5083 002a 93F84430 		ldrb	r3, [r3, #68]
 5084 002e 7B72     		strb	r3, [r7, #9]
1686:Drivers/STM32H7xx_HAL_Driver/Src/stm32h7xx_hal_tim_ex.c ****   HAL_TIM_ChannelStateTypeDef complementary_channel_2_state = TIM_CHANNEL_N_STATE_GET(htim, TIM_CHA
 5085              		.loc 1 1686 31 discriminator 4
 5086 0030 7B68     		ldr	r3, [r7, #4]
 5087 0032 93F84530 		ldrb	r3, [r3, #69]
 5088 0036 3B72     		strb	r3, [r7, #8]
1687:Drivers/STM32H7xx_HAL_Driver/Src/stm32h7xx_hal_tim_ex.c **** 
1688:Drivers/STM32H7xx_HAL_Driver/Src/stm32h7xx_hal_tim_ex.c ****   /* Check the parameters */
1689:Drivers/STM32H7xx_HAL_Driver/Src/stm32h7xx_hal_tim_ex.c ****   assert_param(IS_TIM_CCXN_INSTANCE(htim->Instance, OutputChannel));
1690:Drivers/STM32H7xx_HAL_Driver/Src/stm32h7xx_hal_tim_ex.c **** 
1691:Drivers/STM32H7xx_HAL_Driver/Src/stm32h7xx_hal_tim_ex.c ****   /* Check the TIM channels state */
1692:Drivers/STM32H7xx_HAL_Driver/Src/stm32h7xx_hal_tim_ex.c ****   if ((channel_1_state != HAL_TIM_CHANNEL_STATE_READY)
 5089              		.loc 1 1692 6 discriminator 4
 5090 0038 FB7A     		ldrb	r3, [r7, #11]	@ zero_extendqisi2
 5091 003a 012B     		cmp	r3, #1
 5092 003c 08D1     		bne	.L335
1693:Drivers/STM32H7xx_HAL_Driver/Src/stm32h7xx_hal_tim_ex.c ****       || (channel_2_state != HAL_TIM_CHANNEL_STATE_READY)
 5093              		.loc 1 1693 7
 5094 003e BB7A     		ldrb	r3, [r7, #10]	@ zero_extendqisi2
 5095 0040 012B     		cmp	r3, #1
 5096 0042 05D1     		bne	.L335
1694:Drivers/STM32H7xx_HAL_Driver/Src/stm32h7xx_hal_tim_ex.c ****       || (complementary_channel_1_state != HAL_TIM_CHANNEL_STATE_READY)
 5097              		.loc 1 1694 7
 5098 0044 7B7A     		ldrb	r3, [r7, #9]	@ zero_extendqisi2
 5099 0046 012B     		cmp	r3, #1
 5100 0048 02D1     		bne	.L335
1695:Drivers/STM32H7xx_HAL_Driver/Src/stm32h7xx_hal_tim_ex.c ****       || (complementary_channel_2_state != HAL_TIM_CHANNEL_STATE_READY))
 5101              		.loc 1 1695 7
 5102 004a 3B7A     		ldrb	r3, [r7, #8]	@ zero_extendqisi2
 5103 004c 012B     		cmp	r3, #1
 5104 004e 01D0     		beq	.L336
 5105              	.L335:
1696:Drivers/STM32H7xx_HAL_Driver/Src/stm32h7xx_hal_tim_ex.c ****   {
1697:Drivers/STM32H7xx_HAL_Driver/Src/stm32h7xx_hal_tim_ex.c ****     return HAL_ERROR;
 5106              		.loc 1 1697 12
 5107 0050 0123     		movs	r3, #1
 5108 0052 36E0     		b	.L337
 5109              	.L336:
1698:Drivers/STM32H7xx_HAL_Driver/Src/stm32h7xx_hal_tim_ex.c ****   }
1699:Drivers/STM32H7xx_HAL_Driver/Src/stm32h7xx_hal_tim_ex.c **** 
1700:Drivers/STM32H7xx_HAL_Driver/Src/stm32h7xx_hal_tim_ex.c ****   /* Set the TIM channels state */
1701:Drivers/STM32H7xx_HAL_Driver/Src/stm32h7xx_hal_tim_ex.c ****   TIM_CHANNEL_STATE_SET(htim, TIM_CHANNEL_1, HAL_TIM_CHANNEL_STATE_BUSY);
 5110              		.loc 1 1701 3
 5111 0054 7B68     		ldr	r3, [r7, #4]
ARM GAS  /var/folders/d0/cymppscj10lcmm48h781wrc80000gn/T//ccIjALm5.s 			page 120


 5112 0056 0222     		movs	r2, #2
 5113 0058 83F83E20 		strb	r2, [r3, #62]
1702:Drivers/STM32H7xx_HAL_Driver/Src/stm32h7xx_hal_tim_ex.c ****   TIM_CHANNEL_STATE_SET(htim, TIM_CHANNEL_2, HAL_TIM_CHANNEL_STATE_BUSY);
 5114              		.loc 1 1702 3
 5115 005c 7B68     		ldr	r3, [r7, #4]
 5116 005e 0222     		movs	r2, #2
 5117 0060 83F83F20 		strb	r2, [r3, #63]
1703:Drivers/STM32H7xx_HAL_Driver/Src/stm32h7xx_hal_tim_ex.c ****   TIM_CHANNEL_N_STATE_SET(htim, TIM_CHANNEL_1, HAL_TIM_CHANNEL_STATE_BUSY);
 5118              		.loc 1 1703 3
 5119 0064 7B68     		ldr	r3, [r7, #4]
 5120 0066 0222     		movs	r2, #2
 5121 0068 83F84420 		strb	r2, [r3, #68]
1704:Drivers/STM32H7xx_HAL_Driver/Src/stm32h7xx_hal_tim_ex.c ****   TIM_CHANNEL_N_STATE_SET(htim, TIM_CHANNEL_2, HAL_TIM_CHANNEL_STATE_BUSY);
 5122              		.loc 1 1704 3
 5123 006c 7B68     		ldr	r3, [r7, #4]
 5124 006e 0222     		movs	r2, #2
 5125 0070 83F84520 		strb	r2, [r3, #69]
1705:Drivers/STM32H7xx_HAL_Driver/Src/stm32h7xx_hal_tim_ex.c **** 
1706:Drivers/STM32H7xx_HAL_Driver/Src/stm32h7xx_hal_tim_ex.c ****   /* Enable the TIM Capture/Compare 1 interrupt */
1707:Drivers/STM32H7xx_HAL_Driver/Src/stm32h7xx_hal_tim_ex.c ****   __HAL_TIM_ENABLE_IT(htim, TIM_IT_CC1);
 5126              		.loc 1 1707 3
 5127 0074 7B68     		ldr	r3, [r7, #4]
 5128 0076 1B68     		ldr	r3, [r3]
 5129 0078 DA68     		ldr	r2, [r3, #12]
 5130 007a 7B68     		ldr	r3, [r7, #4]
 5131 007c 1B68     		ldr	r3, [r3]
 5132 007e 42F00202 		orr	r2, r2, #2
 5133 0082 DA60     		str	r2, [r3, #12]
1708:Drivers/STM32H7xx_HAL_Driver/Src/stm32h7xx_hal_tim_ex.c **** 
1709:Drivers/STM32H7xx_HAL_Driver/Src/stm32h7xx_hal_tim_ex.c ****   /* Enable the TIM Capture/Compare 2 interrupt */
1710:Drivers/STM32H7xx_HAL_Driver/Src/stm32h7xx_hal_tim_ex.c ****   __HAL_TIM_ENABLE_IT(htim, TIM_IT_CC2);
 5134              		.loc 1 1710 3
 5135 0084 7B68     		ldr	r3, [r7, #4]
 5136 0086 1B68     		ldr	r3, [r3]
 5137 0088 DA68     		ldr	r2, [r3, #12]
 5138 008a 7B68     		ldr	r3, [r7, #4]
 5139 008c 1B68     		ldr	r3, [r3]
 5140 008e 42F00402 		orr	r2, r2, #4
 5141 0092 DA60     		str	r2, [r3, #12]
1711:Drivers/STM32H7xx_HAL_Driver/Src/stm32h7xx_hal_tim_ex.c **** 
1712:Drivers/STM32H7xx_HAL_Driver/Src/stm32h7xx_hal_tim_ex.c ****   /* Enable the complementary One Pulse output channel and the Input Capture channel */
1713:Drivers/STM32H7xx_HAL_Driver/Src/stm32h7xx_hal_tim_ex.c ****   TIM_CCxNChannelCmd(htim->Instance, OutputChannel, TIM_CCxN_ENABLE);
 5142              		.loc 1 1713 3
 5143 0094 7B68     		ldr	r3, [r7, #4]
 5144 0096 1B68     		ldr	r3, [r3]
 5145 0098 0422     		movs	r2, #4
 5146 009a 3968     		ldr	r1, [r7]
 5147 009c 1846     		mov	r0, r3
 5148 009e FFF7FEFF 		bl	TIM_CCxNChannelCmd
1714:Drivers/STM32H7xx_HAL_Driver/Src/stm32h7xx_hal_tim_ex.c ****   TIM_CCxChannelCmd(htim->Instance, input_channel, TIM_CCx_ENABLE);
 5149              		.loc 1 1714 3
 5150 00a2 7B68     		ldr	r3, [r7, #4]
 5151 00a4 1B68     		ldr	r3, [r3]
 5152 00a6 0122     		movs	r2, #1
 5153 00a8 F968     		ldr	r1, [r7, #12]
 5154 00aa 1846     		mov	r0, r3
 5155 00ac FFF7FEFF 		bl	TIM_CCxChannelCmd
ARM GAS  /var/folders/d0/cymppscj10lcmm48h781wrc80000gn/T//ccIjALm5.s 			page 121


1715:Drivers/STM32H7xx_HAL_Driver/Src/stm32h7xx_hal_tim_ex.c **** 
1716:Drivers/STM32H7xx_HAL_Driver/Src/stm32h7xx_hal_tim_ex.c ****   /* Enable the Main Output */
1717:Drivers/STM32H7xx_HAL_Driver/Src/stm32h7xx_hal_tim_ex.c ****   __HAL_TIM_MOE_ENABLE(htim);
 5156              		.loc 1 1717 3
 5157 00b0 7B68     		ldr	r3, [r7, #4]
 5158 00b2 1B68     		ldr	r3, [r3]
 5159 00b4 5A6C     		ldr	r2, [r3, #68]
 5160 00b6 7B68     		ldr	r3, [r7, #4]
 5161 00b8 1B68     		ldr	r3, [r3]
 5162 00ba 42F40042 		orr	r2, r2, #32768
 5163 00be 5A64     		str	r2, [r3, #68]
1718:Drivers/STM32H7xx_HAL_Driver/Src/stm32h7xx_hal_tim_ex.c **** 
1719:Drivers/STM32H7xx_HAL_Driver/Src/stm32h7xx_hal_tim_ex.c ****   /* Return function status */
1720:Drivers/STM32H7xx_HAL_Driver/Src/stm32h7xx_hal_tim_ex.c ****   return HAL_OK;
 5164              		.loc 1 1720 10
 5165 00c0 0023     		movs	r3, #0
 5166              	.L337:
1721:Drivers/STM32H7xx_HAL_Driver/Src/stm32h7xx_hal_tim_ex.c **** }
 5167              		.loc 1 1721 1
 5168 00c2 1846     		mov	r0, r3
 5169 00c4 1037     		adds	r7, r7, #16
 5170              	.LCFI125:
 5171              		.cfi_def_cfa_offset 8
 5172 00c6 BD46     		mov	sp, r7
 5173              	.LCFI126:
 5174              		.cfi_def_cfa_register 13
 5175              		@ sp needed
 5176 00c8 80BD     		pop	{r7, pc}
 5177              		.cfi_endproc
 5178              	.LFE357:
 5180              		.section	.text.HAL_TIMEx_OnePulseN_Stop_IT,"ax",%progbits
 5181              		.align	1
 5182              		.global	HAL_TIMEx_OnePulseN_Stop_IT
 5183              		.syntax unified
 5184              		.thumb
 5185              		.thumb_func
 5187              	HAL_TIMEx_OnePulseN_Stop_IT:
 5188              	.LFB358:
1722:Drivers/STM32H7xx_HAL_Driver/Src/stm32h7xx_hal_tim_ex.c **** 
1723:Drivers/STM32H7xx_HAL_Driver/Src/stm32h7xx_hal_tim_ex.c **** /**
1724:Drivers/STM32H7xx_HAL_Driver/Src/stm32h7xx_hal_tim_ex.c ****   * @brief  Stops the TIM One Pulse signal generation in interrupt mode on the
1725:Drivers/STM32H7xx_HAL_Driver/Src/stm32h7xx_hal_tim_ex.c ****   *         complementary channel.
1726:Drivers/STM32H7xx_HAL_Driver/Src/stm32h7xx_hal_tim_ex.c ****   * @note OutputChannel must match the pulse output channel chosen when calling
1727:Drivers/STM32H7xx_HAL_Driver/Src/stm32h7xx_hal_tim_ex.c ****   *       @ref HAL_TIM_OnePulse_ConfigChannel().
1728:Drivers/STM32H7xx_HAL_Driver/Src/stm32h7xx_hal_tim_ex.c ****   * @param  htim TIM One Pulse handle
1729:Drivers/STM32H7xx_HAL_Driver/Src/stm32h7xx_hal_tim_ex.c ****   * @param  OutputChannel pulse output channel to disable
1730:Drivers/STM32H7xx_HAL_Driver/Src/stm32h7xx_hal_tim_ex.c ****   *          This parameter can be one of the following values:
1731:Drivers/STM32H7xx_HAL_Driver/Src/stm32h7xx_hal_tim_ex.c ****   *            @arg TIM_CHANNEL_1: TIM Channel 1 selected
1732:Drivers/STM32H7xx_HAL_Driver/Src/stm32h7xx_hal_tim_ex.c ****   *            @arg TIM_CHANNEL_2: TIM Channel 2 selected
1733:Drivers/STM32H7xx_HAL_Driver/Src/stm32h7xx_hal_tim_ex.c ****   * @retval HAL status
1734:Drivers/STM32H7xx_HAL_Driver/Src/stm32h7xx_hal_tim_ex.c ****   */
1735:Drivers/STM32H7xx_HAL_Driver/Src/stm32h7xx_hal_tim_ex.c **** HAL_StatusTypeDef HAL_TIMEx_OnePulseN_Stop_IT(TIM_HandleTypeDef *htim, uint32_t OutputChannel)
1736:Drivers/STM32H7xx_HAL_Driver/Src/stm32h7xx_hal_tim_ex.c **** {
 5189              		.loc 1 1736 1
 5190              		.cfi_startproc
 5191              		@ args = 0, pretend = 0, frame = 16
 5192              		@ frame_needed = 1, uses_anonymous_args = 0
ARM GAS  /var/folders/d0/cymppscj10lcmm48h781wrc80000gn/T//ccIjALm5.s 			page 122


 5193 0000 80B5     		push	{r7, lr}
 5194              	.LCFI127:
 5195              		.cfi_def_cfa_offset 8
 5196              		.cfi_offset 7, -8
 5197              		.cfi_offset 14, -4
 5198 0002 84B0     		sub	sp, sp, #16
 5199              	.LCFI128:
 5200              		.cfi_def_cfa_offset 24
 5201 0004 00AF     		add	r7, sp, #0
 5202              	.LCFI129:
 5203              		.cfi_def_cfa_register 7
 5204 0006 7860     		str	r0, [r7, #4]
 5205 0008 3960     		str	r1, [r7]
1737:Drivers/STM32H7xx_HAL_Driver/Src/stm32h7xx_hal_tim_ex.c ****   uint32_t input_channel = (OutputChannel == TIM_CHANNEL_1) ? TIM_CHANNEL_2 : TIM_CHANNEL_1;
 5206              		.loc 1 1737 77
 5207 000a 3B68     		ldr	r3, [r7]
 5208 000c 002B     		cmp	r3, #0
 5209 000e 01D1     		bne	.L339
 5210              		.loc 1 1737 77 is_stmt 0 discriminator 1
 5211 0010 0423     		movs	r3, #4
 5212 0012 00E0     		b	.L340
 5213              	.L339:
 5214              		.loc 1 1737 77 discriminator 2
 5215 0014 0023     		movs	r3, #0
 5216              	.L340:
 5217              		.loc 1 1737 12 is_stmt 1 discriminator 4
 5218 0016 FB60     		str	r3, [r7, #12]
1738:Drivers/STM32H7xx_HAL_Driver/Src/stm32h7xx_hal_tim_ex.c **** 
1739:Drivers/STM32H7xx_HAL_Driver/Src/stm32h7xx_hal_tim_ex.c ****   /* Check the parameters */
1740:Drivers/STM32H7xx_HAL_Driver/Src/stm32h7xx_hal_tim_ex.c ****   assert_param(IS_TIM_CCXN_INSTANCE(htim->Instance, OutputChannel));
1741:Drivers/STM32H7xx_HAL_Driver/Src/stm32h7xx_hal_tim_ex.c **** 
1742:Drivers/STM32H7xx_HAL_Driver/Src/stm32h7xx_hal_tim_ex.c ****   /* Disable the TIM Capture/Compare 1 interrupt */
1743:Drivers/STM32H7xx_HAL_Driver/Src/stm32h7xx_hal_tim_ex.c ****   __HAL_TIM_DISABLE_IT(htim, TIM_IT_CC1);
 5219              		.loc 1 1743 3 discriminator 4
 5220 0018 7B68     		ldr	r3, [r7, #4]
 5221 001a 1B68     		ldr	r3, [r3]
 5222 001c DA68     		ldr	r2, [r3, #12]
 5223 001e 7B68     		ldr	r3, [r7, #4]
 5224 0020 1B68     		ldr	r3, [r3]
 5225 0022 22F00202 		bic	r2, r2, #2
 5226 0026 DA60     		str	r2, [r3, #12]
1744:Drivers/STM32H7xx_HAL_Driver/Src/stm32h7xx_hal_tim_ex.c **** 
1745:Drivers/STM32H7xx_HAL_Driver/Src/stm32h7xx_hal_tim_ex.c ****   /* Disable the TIM Capture/Compare 2 interrupt */
1746:Drivers/STM32H7xx_HAL_Driver/Src/stm32h7xx_hal_tim_ex.c ****   __HAL_TIM_DISABLE_IT(htim, TIM_IT_CC2);
 5227              		.loc 1 1746 3 discriminator 4
 5228 0028 7B68     		ldr	r3, [r7, #4]
 5229 002a 1B68     		ldr	r3, [r3]
 5230 002c DA68     		ldr	r2, [r3, #12]
 5231 002e 7B68     		ldr	r3, [r7, #4]
 5232 0030 1B68     		ldr	r3, [r3]
 5233 0032 22F00402 		bic	r2, r2, #4
 5234 0036 DA60     		str	r2, [r3, #12]
1747:Drivers/STM32H7xx_HAL_Driver/Src/stm32h7xx_hal_tim_ex.c **** 
1748:Drivers/STM32H7xx_HAL_Driver/Src/stm32h7xx_hal_tim_ex.c ****   /* Disable the complementary One Pulse output channel and the Input Capture channel */
1749:Drivers/STM32H7xx_HAL_Driver/Src/stm32h7xx_hal_tim_ex.c ****   TIM_CCxNChannelCmd(htim->Instance, OutputChannel, TIM_CCxN_DISABLE);
 5235              		.loc 1 1749 3 discriminator 4
 5236 0038 7B68     		ldr	r3, [r7, #4]
ARM GAS  /var/folders/d0/cymppscj10lcmm48h781wrc80000gn/T//ccIjALm5.s 			page 123


 5237 003a 1B68     		ldr	r3, [r3]
 5238 003c 0022     		movs	r2, #0
 5239 003e 3968     		ldr	r1, [r7]
 5240 0040 1846     		mov	r0, r3
 5241 0042 FFF7FEFF 		bl	TIM_CCxNChannelCmd
1750:Drivers/STM32H7xx_HAL_Driver/Src/stm32h7xx_hal_tim_ex.c ****   TIM_CCxChannelCmd(htim->Instance, input_channel, TIM_CCx_DISABLE);
 5242              		.loc 1 1750 3 discriminator 4
 5243 0046 7B68     		ldr	r3, [r7, #4]
 5244 0048 1B68     		ldr	r3, [r3]
 5245 004a 0022     		movs	r2, #0
 5246 004c F968     		ldr	r1, [r7, #12]
 5247 004e 1846     		mov	r0, r3
 5248 0050 FFF7FEFF 		bl	TIM_CCxChannelCmd
1751:Drivers/STM32H7xx_HAL_Driver/Src/stm32h7xx_hal_tim_ex.c **** 
1752:Drivers/STM32H7xx_HAL_Driver/Src/stm32h7xx_hal_tim_ex.c ****   /* Disable the Main Output */
1753:Drivers/STM32H7xx_HAL_Driver/Src/stm32h7xx_hal_tim_ex.c ****   __HAL_TIM_MOE_DISABLE(htim);
 5249              		.loc 1 1753 3 discriminator 4
 5250 0054 7B68     		ldr	r3, [r7, #4]
 5251 0056 1B68     		ldr	r3, [r3]
 5252 0058 1A6A     		ldr	r2, [r3, #32]
 5253 005a 41F21113 		movw	r3, #4369
 5254 005e 1340     		ands	r3, r3, r2
 5255 0060 002B     		cmp	r3, #0
 5256 0062 0FD1     		bne	.L341
 5257              		.loc 1 1753 3 is_stmt 0 discriminator 1
 5258 0064 7B68     		ldr	r3, [r7, #4]
 5259 0066 1B68     		ldr	r3, [r3]
 5260 0068 1A6A     		ldr	r2, [r3, #32]
 5261 006a 40F24443 		movw	r3, #1092
 5262 006e 1340     		ands	r3, r3, r2
 5263 0070 002B     		cmp	r3, #0
 5264 0072 07D1     		bne	.L341
 5265              		.loc 1 1753 3 discriminator 2
 5266 0074 7B68     		ldr	r3, [r7, #4]
 5267 0076 1B68     		ldr	r3, [r3]
 5268 0078 5A6C     		ldr	r2, [r3, #68]
 5269 007a 7B68     		ldr	r3, [r7, #4]
 5270 007c 1B68     		ldr	r3, [r3]
 5271 007e 22F40042 		bic	r2, r2, #32768
 5272 0082 5A64     		str	r2, [r3, #68]
 5273              	.L341:
1754:Drivers/STM32H7xx_HAL_Driver/Src/stm32h7xx_hal_tim_ex.c **** 
1755:Drivers/STM32H7xx_HAL_Driver/Src/stm32h7xx_hal_tim_ex.c ****   /* Disable the Peripheral */
1756:Drivers/STM32H7xx_HAL_Driver/Src/stm32h7xx_hal_tim_ex.c ****   __HAL_TIM_DISABLE(htim);
 5274              		.loc 1 1756 3 is_stmt 1
 5275 0084 7B68     		ldr	r3, [r7, #4]
 5276 0086 1B68     		ldr	r3, [r3]
 5277 0088 1A6A     		ldr	r2, [r3, #32]
 5278 008a 41F21113 		movw	r3, #4369
 5279 008e 1340     		ands	r3, r3, r2
 5280 0090 002B     		cmp	r3, #0
 5281 0092 0FD1     		bne	.L342
 5282              		.loc 1 1756 3 is_stmt 0 discriminator 1
 5283 0094 7B68     		ldr	r3, [r7, #4]
 5284 0096 1B68     		ldr	r3, [r3]
 5285 0098 1A6A     		ldr	r2, [r3, #32]
 5286 009a 40F24443 		movw	r3, #1092
ARM GAS  /var/folders/d0/cymppscj10lcmm48h781wrc80000gn/T//ccIjALm5.s 			page 124


 5287 009e 1340     		ands	r3, r3, r2
 5288 00a0 002B     		cmp	r3, #0
 5289 00a2 07D1     		bne	.L342
 5290              		.loc 1 1756 3 discriminator 2
 5291 00a4 7B68     		ldr	r3, [r7, #4]
 5292 00a6 1B68     		ldr	r3, [r3]
 5293 00a8 1A68     		ldr	r2, [r3]
 5294 00aa 7B68     		ldr	r3, [r7, #4]
 5295 00ac 1B68     		ldr	r3, [r3]
 5296 00ae 22F00102 		bic	r2, r2, #1
 5297 00b2 1A60     		str	r2, [r3]
 5298              	.L342:
1757:Drivers/STM32H7xx_HAL_Driver/Src/stm32h7xx_hal_tim_ex.c **** 
1758:Drivers/STM32H7xx_HAL_Driver/Src/stm32h7xx_hal_tim_ex.c ****   /* Set the TIM  channels state */
1759:Drivers/STM32H7xx_HAL_Driver/Src/stm32h7xx_hal_tim_ex.c ****   TIM_CHANNEL_STATE_SET(htim, TIM_CHANNEL_1, HAL_TIM_CHANNEL_STATE_READY);
 5299              		.loc 1 1759 3 is_stmt 1
 5300 00b4 7B68     		ldr	r3, [r7, #4]
 5301 00b6 0122     		movs	r2, #1
 5302 00b8 83F83E20 		strb	r2, [r3, #62]
1760:Drivers/STM32H7xx_HAL_Driver/Src/stm32h7xx_hal_tim_ex.c ****   TIM_CHANNEL_STATE_SET(htim, TIM_CHANNEL_2, HAL_TIM_CHANNEL_STATE_READY);
 5303              		.loc 1 1760 3
 5304 00bc 7B68     		ldr	r3, [r7, #4]
 5305 00be 0122     		movs	r2, #1
 5306 00c0 83F83F20 		strb	r2, [r3, #63]
1761:Drivers/STM32H7xx_HAL_Driver/Src/stm32h7xx_hal_tim_ex.c ****   TIM_CHANNEL_N_STATE_SET(htim, TIM_CHANNEL_1, HAL_TIM_CHANNEL_STATE_READY);
 5307              		.loc 1 1761 3
 5308 00c4 7B68     		ldr	r3, [r7, #4]
 5309 00c6 0122     		movs	r2, #1
 5310 00c8 83F84420 		strb	r2, [r3, #68]
1762:Drivers/STM32H7xx_HAL_Driver/Src/stm32h7xx_hal_tim_ex.c ****   TIM_CHANNEL_N_STATE_SET(htim, TIM_CHANNEL_2, HAL_TIM_CHANNEL_STATE_READY);
 5311              		.loc 1 1762 3
 5312 00cc 7B68     		ldr	r3, [r7, #4]
 5313 00ce 0122     		movs	r2, #1
 5314 00d0 83F84520 		strb	r2, [r3, #69]
1763:Drivers/STM32H7xx_HAL_Driver/Src/stm32h7xx_hal_tim_ex.c **** 
1764:Drivers/STM32H7xx_HAL_Driver/Src/stm32h7xx_hal_tim_ex.c ****   /* Return function status */
1765:Drivers/STM32H7xx_HAL_Driver/Src/stm32h7xx_hal_tim_ex.c ****   return HAL_OK;
 5315              		.loc 1 1765 10
 5316 00d4 0023     		movs	r3, #0
1766:Drivers/STM32H7xx_HAL_Driver/Src/stm32h7xx_hal_tim_ex.c **** }
 5317              		.loc 1 1766 1
 5318 00d6 1846     		mov	r0, r3
 5319 00d8 1037     		adds	r7, r7, #16
 5320              	.LCFI130:
 5321              		.cfi_def_cfa_offset 8
 5322 00da BD46     		mov	sp, r7
 5323              	.LCFI131:
 5324              		.cfi_def_cfa_register 13
 5325              		@ sp needed
 5326 00dc 80BD     		pop	{r7, pc}
 5327              		.cfi_endproc
 5328              	.LFE358:
 5330              		.section	.text.HAL_TIMEx_ConfigCommutEvent,"ax",%progbits
 5331              		.align	1
 5332              		.global	HAL_TIMEx_ConfigCommutEvent
 5333              		.syntax unified
 5334              		.thumb
ARM GAS  /var/folders/d0/cymppscj10lcmm48h781wrc80000gn/T//ccIjALm5.s 			page 125


 5335              		.thumb_func
 5337              	HAL_TIMEx_ConfigCommutEvent:
 5338              	.LFB359:
1767:Drivers/STM32H7xx_HAL_Driver/Src/stm32h7xx_hal_tim_ex.c **** 
1768:Drivers/STM32H7xx_HAL_Driver/Src/stm32h7xx_hal_tim_ex.c **** /**
1769:Drivers/STM32H7xx_HAL_Driver/Src/stm32h7xx_hal_tim_ex.c ****   * @}
1770:Drivers/STM32H7xx_HAL_Driver/Src/stm32h7xx_hal_tim_ex.c ****   */
1771:Drivers/STM32H7xx_HAL_Driver/Src/stm32h7xx_hal_tim_ex.c **** 
1772:Drivers/STM32H7xx_HAL_Driver/Src/stm32h7xx_hal_tim_ex.c **** /** @defgroup TIMEx_Exported_Functions_Group5 Extended Peripheral Control functions
1773:Drivers/STM32H7xx_HAL_Driver/Src/stm32h7xx_hal_tim_ex.c ****   * @brief    Peripheral Control functions
1774:Drivers/STM32H7xx_HAL_Driver/Src/stm32h7xx_hal_tim_ex.c ****   *
1775:Drivers/STM32H7xx_HAL_Driver/Src/stm32h7xx_hal_tim_ex.c **** @verbatim
1776:Drivers/STM32H7xx_HAL_Driver/Src/stm32h7xx_hal_tim_ex.c ****   ==============================================================================
1777:Drivers/STM32H7xx_HAL_Driver/Src/stm32h7xx_hal_tim_ex.c ****                     ##### Peripheral Control functions #####
1778:Drivers/STM32H7xx_HAL_Driver/Src/stm32h7xx_hal_tim_ex.c ****   ==============================================================================
1779:Drivers/STM32H7xx_HAL_Driver/Src/stm32h7xx_hal_tim_ex.c ****   [..]
1780:Drivers/STM32H7xx_HAL_Driver/Src/stm32h7xx_hal_tim_ex.c ****     This section provides functions allowing to:
1781:Drivers/STM32H7xx_HAL_Driver/Src/stm32h7xx_hal_tim_ex.c ****       (+) Configure the commutation event in case of use of the Hall sensor interface.
1782:Drivers/STM32H7xx_HAL_Driver/Src/stm32h7xx_hal_tim_ex.c ****       (+) Configure Output channels for OC and PWM mode.
1783:Drivers/STM32H7xx_HAL_Driver/Src/stm32h7xx_hal_tim_ex.c **** 
1784:Drivers/STM32H7xx_HAL_Driver/Src/stm32h7xx_hal_tim_ex.c ****       (+) Configure Complementary channels, break features and dead time.
1785:Drivers/STM32H7xx_HAL_Driver/Src/stm32h7xx_hal_tim_ex.c ****       (+) Configure Master synchronization.
1786:Drivers/STM32H7xx_HAL_Driver/Src/stm32h7xx_hal_tim_ex.c ****       (+) Configure timer remapping capabilities.
1787:Drivers/STM32H7xx_HAL_Driver/Src/stm32h7xx_hal_tim_ex.c ****       (+) Select timer input source.
1788:Drivers/STM32H7xx_HAL_Driver/Src/stm32h7xx_hal_tim_ex.c ****       (+) Enable or disable channel grouping.
1789:Drivers/STM32H7xx_HAL_Driver/Src/stm32h7xx_hal_tim_ex.c **** 
1790:Drivers/STM32H7xx_HAL_Driver/Src/stm32h7xx_hal_tim_ex.c **** @endverbatim
1791:Drivers/STM32H7xx_HAL_Driver/Src/stm32h7xx_hal_tim_ex.c ****   * @{
1792:Drivers/STM32H7xx_HAL_Driver/Src/stm32h7xx_hal_tim_ex.c ****   */
1793:Drivers/STM32H7xx_HAL_Driver/Src/stm32h7xx_hal_tim_ex.c **** 
1794:Drivers/STM32H7xx_HAL_Driver/Src/stm32h7xx_hal_tim_ex.c **** /**
1795:Drivers/STM32H7xx_HAL_Driver/Src/stm32h7xx_hal_tim_ex.c ****   * @brief  Configure the TIM commutation event sequence.
1796:Drivers/STM32H7xx_HAL_Driver/Src/stm32h7xx_hal_tim_ex.c ****   * @note  This function is mandatory to use the commutation event in order to
1797:Drivers/STM32H7xx_HAL_Driver/Src/stm32h7xx_hal_tim_ex.c ****   *        update the configuration at each commutation detection on the TRGI input of the Timer,
1798:Drivers/STM32H7xx_HAL_Driver/Src/stm32h7xx_hal_tim_ex.c ****   *        the typical use of this feature is with the use of another Timer(interface Timer)
1799:Drivers/STM32H7xx_HAL_Driver/Src/stm32h7xx_hal_tim_ex.c ****   *        configured in Hall sensor interface, this interface Timer will generate the
1800:Drivers/STM32H7xx_HAL_Driver/Src/stm32h7xx_hal_tim_ex.c ****   *        commutation at its TRGO output (connected to Timer used in this function) each time
1801:Drivers/STM32H7xx_HAL_Driver/Src/stm32h7xx_hal_tim_ex.c ****   *        the TI1 of the Interface Timer detect a commutation at its input TI1.
1802:Drivers/STM32H7xx_HAL_Driver/Src/stm32h7xx_hal_tim_ex.c ****   * @param  htim TIM handle
1803:Drivers/STM32H7xx_HAL_Driver/Src/stm32h7xx_hal_tim_ex.c ****   * @param  InputTrigger the Internal trigger corresponding to the Timer Interfacing with the Hall 
1804:Drivers/STM32H7xx_HAL_Driver/Src/stm32h7xx_hal_tim_ex.c ****   *          This parameter can be one of the following values:
1805:Drivers/STM32H7xx_HAL_Driver/Src/stm32h7xx_hal_tim_ex.c ****   *            @arg TIM_TS_ITR0: Internal trigger 0 selected
1806:Drivers/STM32H7xx_HAL_Driver/Src/stm32h7xx_hal_tim_ex.c ****   *            @arg TIM_TS_ITR1: Internal trigger 1 selected
1807:Drivers/STM32H7xx_HAL_Driver/Src/stm32h7xx_hal_tim_ex.c ****   *            @arg TIM_TS_ITR2: Internal trigger 2 selected
1808:Drivers/STM32H7xx_HAL_Driver/Src/stm32h7xx_hal_tim_ex.c ****   *            @arg TIM_TS_ITR3: Internal trigger 3 selected
1809:Drivers/STM32H7xx_HAL_Driver/Src/stm32h7xx_hal_tim_ex.c ****   *            @arg TIM_TS_ITR12: Internal trigger 12 selected (*)
1810:Drivers/STM32H7xx_HAL_Driver/Src/stm32h7xx_hal_tim_ex.c ****   *            @arg TIM_TS_ITR13: Internal trigger 13 selected (*)
1811:Drivers/STM32H7xx_HAL_Driver/Src/stm32h7xx_hal_tim_ex.c ****   *            @arg TIM_TS_NONE: No trigger is needed
1812:Drivers/STM32H7xx_HAL_Driver/Src/stm32h7xx_hal_tim_ex.c ****   * @param  CommutationSource the Commutation Event source
1813:Drivers/STM32H7xx_HAL_Driver/Src/stm32h7xx_hal_tim_ex.c ****   *          This parameter can be one of the following values:
1814:Drivers/STM32H7xx_HAL_Driver/Src/stm32h7xx_hal_tim_ex.c ****   *            @arg TIM_COMMUTATION_TRGI: Commutation source is the TRGI of the Interface Timer
1815:Drivers/STM32H7xx_HAL_Driver/Src/stm32h7xx_hal_tim_ex.c ****   *            @arg TIM_COMMUTATION_SOFTWARE:  Commutation source is set by software using the COMG
1816:Drivers/STM32H7xx_HAL_Driver/Src/stm32h7xx_hal_tim_ex.c ****   * @retval HAL status
1817:Drivers/STM32H7xx_HAL_Driver/Src/stm32h7xx_hal_tim_ex.c ****   */
1818:Drivers/STM32H7xx_HAL_Driver/Src/stm32h7xx_hal_tim_ex.c **** HAL_StatusTypeDef HAL_TIMEx_ConfigCommutEvent(TIM_HandleTypeDef *htim, uint32_t  InputTrigger,
1819:Drivers/STM32H7xx_HAL_Driver/Src/stm32h7xx_hal_tim_ex.c ****                                               uint32_t  CommutationSource)
1820:Drivers/STM32H7xx_HAL_Driver/Src/stm32h7xx_hal_tim_ex.c **** {
ARM GAS  /var/folders/d0/cymppscj10lcmm48h781wrc80000gn/T//ccIjALm5.s 			page 126


 5339              		.loc 1 1820 1
 5340              		.cfi_startproc
 5341              		@ args = 0, pretend = 0, frame = 16
 5342              		@ frame_needed = 1, uses_anonymous_args = 0
 5343              		@ link register save eliminated.
 5344 0000 80B4     		push	{r7}
 5345              	.LCFI132:
 5346              		.cfi_def_cfa_offset 4
 5347              		.cfi_offset 7, -4
 5348 0002 85B0     		sub	sp, sp, #20
 5349              	.LCFI133:
 5350              		.cfi_def_cfa_offset 24
 5351 0004 00AF     		add	r7, sp, #0
 5352              	.LCFI134:
 5353              		.cfi_def_cfa_register 7
 5354 0006 F860     		str	r0, [r7, #12]
 5355 0008 B960     		str	r1, [r7, #8]
 5356 000a 7A60     		str	r2, [r7, #4]
1821:Drivers/STM32H7xx_HAL_Driver/Src/stm32h7xx_hal_tim_ex.c ****   /* Check the parameters */
1822:Drivers/STM32H7xx_HAL_Driver/Src/stm32h7xx_hal_tim_ex.c ****   assert_param(IS_TIM_COMMUTATION_EVENT_INSTANCE(htim->Instance));
1823:Drivers/STM32H7xx_HAL_Driver/Src/stm32h7xx_hal_tim_ex.c ****   assert_param(IS_TIM_INTERNAL_TRIGGEREVENT_SELECTION(InputTrigger));
1824:Drivers/STM32H7xx_HAL_Driver/Src/stm32h7xx_hal_tim_ex.c **** 
1825:Drivers/STM32H7xx_HAL_Driver/Src/stm32h7xx_hal_tim_ex.c ****   __HAL_LOCK(htim);
 5357              		.loc 1 1825 3
 5358 000c FB68     		ldr	r3, [r7, #12]
 5359 000e 93F83C30 		ldrb	r3, [r3, #60]	@ zero_extendqisi2
 5360 0012 012B     		cmp	r3, #1
 5361 0014 01D1     		bne	.L345
 5362              		.loc 1 1825 3 is_stmt 0 discriminator 1
 5363 0016 0223     		movs	r3, #2
 5364 0018 54E0     		b	.L346
 5365              	.L345:
 5366              		.loc 1 1825 3 discriminator 2
 5367 001a FB68     		ldr	r3, [r7, #12]
 5368 001c 0122     		movs	r2, #1
 5369 001e 83F83C20 		strb	r2, [r3, #60]
1826:Drivers/STM32H7xx_HAL_Driver/Src/stm32h7xx_hal_tim_ex.c **** 
1827:Drivers/STM32H7xx_HAL_Driver/Src/stm32h7xx_hal_tim_ex.c ****   if ((InputTrigger == TIM_TS_ITR0)  || (InputTrigger == TIM_TS_ITR1) ||
 5370              		.loc 1 1827 6 is_stmt 1 discriminator 2
 5371 0022 BB68     		ldr	r3, [r7, #8]
 5372 0024 002B     		cmp	r3, #0
 5373 0026 10D0     		beq	.L347
 5374              		.loc 1 1827 38 discriminator 1
 5375 0028 BB68     		ldr	r3, [r7, #8]
 5376 002a 102B     		cmp	r3, #16
 5377 002c 0DD0     		beq	.L347
 5378              		.loc 1 1827 71 discriminator 2
 5379 002e BB68     		ldr	r3, [r7, #8]
 5380 0030 202B     		cmp	r3, #32
 5381 0032 0AD0     		beq	.L347
1828:Drivers/STM32H7xx_HAL_Driver/Src/stm32h7xx_hal_tim_ex.c ****       (InputTrigger == TIM_TS_ITR2)  || (InputTrigger == TIM_TS_ITR3) ||
 5382              		.loc 1 1828 38
 5383 0034 BB68     		ldr	r3, [r7, #8]
 5384 0036 302B     		cmp	r3, #48
 5385 0038 07D0     		beq	.L347
 5386              		.loc 1 1828 71 discriminator 1
 5387 003a BB68     		ldr	r3, [r7, #8]
ARM GAS  /var/folders/d0/cymppscj10lcmm48h781wrc80000gn/T//ccIjALm5.s 			page 127


 5388 003c B3F5001F 		cmp	r3, #2097152
 5389 0040 03D0     		beq	.L347
1829:Drivers/STM32H7xx_HAL_Driver/Src/stm32h7xx_hal_tim_ex.c ****       (InputTrigger == TIM_TS_ITR12)  || (InputTrigger == TIM_TS_ITR13))
 5390              		.loc 1 1829 39
 5391 0042 BB68     		ldr	r3, [r7, #8]
 5392 0044 224A     		ldr	r2, .L349
 5393 0046 9342     		cmp	r3, r2
 5394 0048 0FD1     		bne	.L348
 5395              	.L347:
1830:Drivers/STM32H7xx_HAL_Driver/Src/stm32h7xx_hal_tim_ex.c ****   {
1831:Drivers/STM32H7xx_HAL_Driver/Src/stm32h7xx_hal_tim_ex.c ****     /* Select the Input trigger */
1832:Drivers/STM32H7xx_HAL_Driver/Src/stm32h7xx_hal_tim_ex.c ****     htim->Instance->SMCR &= ~TIM_SMCR_TS;
 5396              		.loc 1 1832 9
 5397 004a FB68     		ldr	r3, [r7, #12]
 5398 004c 1B68     		ldr	r3, [r3]
 5399              		.loc 1 1832 26
 5400 004e 9968     		ldr	r1, [r3, #8]
 5401              		.loc 1 1832 9
 5402 0050 FB68     		ldr	r3, [r7, #12]
 5403 0052 1A68     		ldr	r2, [r3]
 5404              		.loc 1 1832 26
 5405 0054 1F4B     		ldr	r3, .L349+4
 5406 0056 0B40     		ands	r3, r3, r1
 5407 0058 9360     		str	r3, [r2, #8]
1833:Drivers/STM32H7xx_HAL_Driver/Src/stm32h7xx_hal_tim_ex.c ****     htim->Instance->SMCR |= InputTrigger;
 5408              		.loc 1 1833 9
 5409 005a FB68     		ldr	r3, [r7, #12]
 5410 005c 1B68     		ldr	r3, [r3]
 5411              		.loc 1 1833 26
 5412 005e 9968     		ldr	r1, [r3, #8]
 5413              		.loc 1 1833 9
 5414 0060 FB68     		ldr	r3, [r7, #12]
 5415 0062 1B68     		ldr	r3, [r3]
 5416              		.loc 1 1833 26
 5417 0064 BA68     		ldr	r2, [r7, #8]
 5418 0066 0A43     		orrs	r2, r2, r1
 5419 0068 9A60     		str	r2, [r3, #8]
 5420              	.L348:
1834:Drivers/STM32H7xx_HAL_Driver/Src/stm32h7xx_hal_tim_ex.c ****   }
1835:Drivers/STM32H7xx_HAL_Driver/Src/stm32h7xx_hal_tim_ex.c **** 
1836:Drivers/STM32H7xx_HAL_Driver/Src/stm32h7xx_hal_tim_ex.c ****   /* Select the Capture Compare preload feature */
1837:Drivers/STM32H7xx_HAL_Driver/Src/stm32h7xx_hal_tim_ex.c ****   htim->Instance->CR2 |= TIM_CR2_CCPC;
 5421              		.loc 1 1837 7
 5422 006a FB68     		ldr	r3, [r7, #12]
 5423 006c 1B68     		ldr	r3, [r3]
 5424              		.loc 1 1837 23
 5425 006e 5A68     		ldr	r2, [r3, #4]
 5426              		.loc 1 1837 7
 5427 0070 FB68     		ldr	r3, [r7, #12]
 5428 0072 1B68     		ldr	r3, [r3]
 5429              		.loc 1 1837 23
 5430 0074 42F00102 		orr	r2, r2, #1
 5431 0078 5A60     		str	r2, [r3, #4]
1838:Drivers/STM32H7xx_HAL_Driver/Src/stm32h7xx_hal_tim_ex.c ****   /* Select the Commutation event source */
1839:Drivers/STM32H7xx_HAL_Driver/Src/stm32h7xx_hal_tim_ex.c ****   htim->Instance->CR2 &= ~TIM_CR2_CCUS;
 5432              		.loc 1 1839 7
 5433 007a FB68     		ldr	r3, [r7, #12]
ARM GAS  /var/folders/d0/cymppscj10lcmm48h781wrc80000gn/T//ccIjALm5.s 			page 128


 5434 007c 1B68     		ldr	r3, [r3]
 5435              		.loc 1 1839 23
 5436 007e 5A68     		ldr	r2, [r3, #4]
 5437              		.loc 1 1839 7
 5438 0080 FB68     		ldr	r3, [r7, #12]
 5439 0082 1B68     		ldr	r3, [r3]
 5440              		.loc 1 1839 23
 5441 0084 22F00402 		bic	r2, r2, #4
 5442 0088 5A60     		str	r2, [r3, #4]
1840:Drivers/STM32H7xx_HAL_Driver/Src/stm32h7xx_hal_tim_ex.c ****   htim->Instance->CR2 |= CommutationSource;
 5443              		.loc 1 1840 7
 5444 008a FB68     		ldr	r3, [r7, #12]
 5445 008c 1B68     		ldr	r3, [r3]
 5446              		.loc 1 1840 23
 5447 008e 5968     		ldr	r1, [r3, #4]
 5448              		.loc 1 1840 7
 5449 0090 FB68     		ldr	r3, [r7, #12]
 5450 0092 1B68     		ldr	r3, [r3]
 5451              		.loc 1 1840 23
 5452 0094 7A68     		ldr	r2, [r7, #4]
 5453 0096 0A43     		orrs	r2, r2, r1
 5454 0098 5A60     		str	r2, [r3, #4]
1841:Drivers/STM32H7xx_HAL_Driver/Src/stm32h7xx_hal_tim_ex.c **** 
1842:Drivers/STM32H7xx_HAL_Driver/Src/stm32h7xx_hal_tim_ex.c ****   /* Disable Commutation Interrupt */
1843:Drivers/STM32H7xx_HAL_Driver/Src/stm32h7xx_hal_tim_ex.c ****   __HAL_TIM_DISABLE_IT(htim, TIM_IT_COM);
 5455              		.loc 1 1843 3
 5456 009a FB68     		ldr	r3, [r7, #12]
 5457 009c 1B68     		ldr	r3, [r3]
 5458 009e DA68     		ldr	r2, [r3, #12]
 5459 00a0 FB68     		ldr	r3, [r7, #12]
 5460 00a2 1B68     		ldr	r3, [r3]
 5461 00a4 22F02002 		bic	r2, r2, #32
 5462 00a8 DA60     		str	r2, [r3, #12]
1844:Drivers/STM32H7xx_HAL_Driver/Src/stm32h7xx_hal_tim_ex.c **** 
1845:Drivers/STM32H7xx_HAL_Driver/Src/stm32h7xx_hal_tim_ex.c ****   /* Disable Commutation DMA request */
1846:Drivers/STM32H7xx_HAL_Driver/Src/stm32h7xx_hal_tim_ex.c ****   __HAL_TIM_DISABLE_DMA(htim, TIM_DMA_COM);
 5463              		.loc 1 1846 3
 5464 00aa FB68     		ldr	r3, [r7, #12]
 5465 00ac 1B68     		ldr	r3, [r3]
 5466 00ae DA68     		ldr	r2, [r3, #12]
 5467 00b0 FB68     		ldr	r3, [r7, #12]
 5468 00b2 1B68     		ldr	r3, [r3]
 5469 00b4 22F40052 		bic	r2, r2, #8192
 5470 00b8 DA60     		str	r2, [r3, #12]
1847:Drivers/STM32H7xx_HAL_Driver/Src/stm32h7xx_hal_tim_ex.c **** 
1848:Drivers/STM32H7xx_HAL_Driver/Src/stm32h7xx_hal_tim_ex.c ****   __HAL_UNLOCK(htim);
 5471              		.loc 1 1848 3
 5472 00ba FB68     		ldr	r3, [r7, #12]
 5473 00bc 0022     		movs	r2, #0
 5474 00be 83F83C20 		strb	r2, [r3, #60]
1849:Drivers/STM32H7xx_HAL_Driver/Src/stm32h7xx_hal_tim_ex.c **** 
1850:Drivers/STM32H7xx_HAL_Driver/Src/stm32h7xx_hal_tim_ex.c ****   return HAL_OK;
 5475              		.loc 1 1850 10
 5476 00c2 0023     		movs	r3, #0
 5477              	.L346:
1851:Drivers/STM32H7xx_HAL_Driver/Src/stm32h7xx_hal_tim_ex.c **** }
 5478              		.loc 1 1851 1
ARM GAS  /var/folders/d0/cymppscj10lcmm48h781wrc80000gn/T//ccIjALm5.s 			page 129


 5479 00c4 1846     		mov	r0, r3
 5480 00c6 1437     		adds	r7, r7, #20
 5481              	.LCFI135:
 5482              		.cfi_def_cfa_offset 4
 5483 00c8 BD46     		mov	sp, r7
 5484              	.LCFI136:
 5485              		.cfi_def_cfa_register 13
 5486              		@ sp needed
 5487 00ca 5DF8047B 		ldr	r7, [sp], #4
 5488              	.LCFI137:
 5489              		.cfi_restore 7
 5490              		.cfi_def_cfa_offset 0
 5491 00ce 7047     		bx	lr
 5492              	.L350:
 5493              		.align	2
 5494              	.L349:
 5495 00d0 10002000 		.word	2097168
 5496 00d4 8FFFCFFF 		.word	-3145841
 5497              		.cfi_endproc
 5498              	.LFE359:
 5500              		.section	.text.HAL_TIMEx_ConfigCommutEvent_IT,"ax",%progbits
 5501              		.align	1
 5502              		.global	HAL_TIMEx_ConfigCommutEvent_IT
 5503              		.syntax unified
 5504              		.thumb
 5505              		.thumb_func
 5507              	HAL_TIMEx_ConfigCommutEvent_IT:
 5508              	.LFB360:
1852:Drivers/STM32H7xx_HAL_Driver/Src/stm32h7xx_hal_tim_ex.c **** 
1853:Drivers/STM32H7xx_HAL_Driver/Src/stm32h7xx_hal_tim_ex.c **** /**
1854:Drivers/STM32H7xx_HAL_Driver/Src/stm32h7xx_hal_tim_ex.c ****   * @brief  Configure the TIM commutation event sequence with interrupt.
1855:Drivers/STM32H7xx_HAL_Driver/Src/stm32h7xx_hal_tim_ex.c ****   * @note  This function is mandatory to use the commutation event in order to
1856:Drivers/STM32H7xx_HAL_Driver/Src/stm32h7xx_hal_tim_ex.c ****   *        update the configuration at each commutation detection on the TRGI input of the Timer,
1857:Drivers/STM32H7xx_HAL_Driver/Src/stm32h7xx_hal_tim_ex.c ****   *        the typical use of this feature is with the use of another Timer(interface Timer)
1858:Drivers/STM32H7xx_HAL_Driver/Src/stm32h7xx_hal_tim_ex.c ****   *        configured in Hall sensor interface, this interface Timer will generate the
1859:Drivers/STM32H7xx_HAL_Driver/Src/stm32h7xx_hal_tim_ex.c ****   *        commutation at its TRGO output (connected to Timer used in this function) each time
1860:Drivers/STM32H7xx_HAL_Driver/Src/stm32h7xx_hal_tim_ex.c ****   *        the TI1 of the Interface Timer detect a commutation at its input TI1.
1861:Drivers/STM32H7xx_HAL_Driver/Src/stm32h7xx_hal_tim_ex.c ****   * @param  htim TIM handle
1862:Drivers/STM32H7xx_HAL_Driver/Src/stm32h7xx_hal_tim_ex.c ****   * @param  InputTrigger the Internal trigger corresponding to the Timer Interfacing with the Hall 
1863:Drivers/STM32H7xx_HAL_Driver/Src/stm32h7xx_hal_tim_ex.c ****   *          This parameter can be one of the following values:
1864:Drivers/STM32H7xx_HAL_Driver/Src/stm32h7xx_hal_tim_ex.c ****   *            @arg TIM_TS_ITR0: Internal trigger 0 selected
1865:Drivers/STM32H7xx_HAL_Driver/Src/stm32h7xx_hal_tim_ex.c ****   *            @arg TIM_TS_ITR1: Internal trigger 1 selected
1866:Drivers/STM32H7xx_HAL_Driver/Src/stm32h7xx_hal_tim_ex.c ****   *            @arg TIM_TS_ITR2: Internal trigger 2 selected
1867:Drivers/STM32H7xx_HAL_Driver/Src/stm32h7xx_hal_tim_ex.c ****   *            @arg TIM_TS_ITR3: Internal trigger 3 selected
1868:Drivers/STM32H7xx_HAL_Driver/Src/stm32h7xx_hal_tim_ex.c ****   *            @arg TIM_TS_ITR2: Internal trigger 12 selected (*)
1869:Drivers/STM32H7xx_HAL_Driver/Src/stm32h7xx_hal_tim_ex.c ****   *            @arg TIM_TS_ITR3: Internal trigger 13 selected (*)
1870:Drivers/STM32H7xx_HAL_Driver/Src/stm32h7xx_hal_tim_ex.c ****   *            @arg TIM_TS_NONE: No trigger is needed
1871:Drivers/STM32H7xx_HAL_Driver/Src/stm32h7xx_hal_tim_ex.c ****   * @param  CommutationSource the Commutation Event source
1872:Drivers/STM32H7xx_HAL_Driver/Src/stm32h7xx_hal_tim_ex.c ****   *          This parameter can be one of the following values:
1873:Drivers/STM32H7xx_HAL_Driver/Src/stm32h7xx_hal_tim_ex.c ****   *            @arg TIM_COMMUTATION_TRGI: Commutation source is the TRGI of the Interface Timer
1874:Drivers/STM32H7xx_HAL_Driver/Src/stm32h7xx_hal_tim_ex.c ****   *            @arg TIM_COMMUTATION_SOFTWARE:  Commutation source is set by software using the COMG
1875:Drivers/STM32H7xx_HAL_Driver/Src/stm32h7xx_hal_tim_ex.c ****   * @retval HAL status
1876:Drivers/STM32H7xx_HAL_Driver/Src/stm32h7xx_hal_tim_ex.c ****   */
1877:Drivers/STM32H7xx_HAL_Driver/Src/stm32h7xx_hal_tim_ex.c **** HAL_StatusTypeDef HAL_TIMEx_ConfigCommutEvent_IT(TIM_HandleTypeDef *htim, uint32_t  InputTrigger,
1878:Drivers/STM32H7xx_HAL_Driver/Src/stm32h7xx_hal_tim_ex.c ****                                                  uint32_t  CommutationSource)
1879:Drivers/STM32H7xx_HAL_Driver/Src/stm32h7xx_hal_tim_ex.c **** {
 5509              		.loc 1 1879 1
ARM GAS  /var/folders/d0/cymppscj10lcmm48h781wrc80000gn/T//ccIjALm5.s 			page 130


 5510              		.cfi_startproc
 5511              		@ args = 0, pretend = 0, frame = 16
 5512              		@ frame_needed = 1, uses_anonymous_args = 0
 5513              		@ link register save eliminated.
 5514 0000 80B4     		push	{r7}
 5515              	.LCFI138:
 5516              		.cfi_def_cfa_offset 4
 5517              		.cfi_offset 7, -4
 5518 0002 85B0     		sub	sp, sp, #20
 5519              	.LCFI139:
 5520              		.cfi_def_cfa_offset 24
 5521 0004 00AF     		add	r7, sp, #0
 5522              	.LCFI140:
 5523              		.cfi_def_cfa_register 7
 5524 0006 F860     		str	r0, [r7, #12]
 5525 0008 B960     		str	r1, [r7, #8]
 5526 000a 7A60     		str	r2, [r7, #4]
1880:Drivers/STM32H7xx_HAL_Driver/Src/stm32h7xx_hal_tim_ex.c ****   /* Check the parameters */
1881:Drivers/STM32H7xx_HAL_Driver/Src/stm32h7xx_hal_tim_ex.c ****   assert_param(IS_TIM_COMMUTATION_EVENT_INSTANCE(htim->Instance));
1882:Drivers/STM32H7xx_HAL_Driver/Src/stm32h7xx_hal_tim_ex.c ****   assert_param(IS_TIM_INTERNAL_TRIGGEREVENT_SELECTION(InputTrigger));
1883:Drivers/STM32H7xx_HAL_Driver/Src/stm32h7xx_hal_tim_ex.c **** 
1884:Drivers/STM32H7xx_HAL_Driver/Src/stm32h7xx_hal_tim_ex.c ****   __HAL_LOCK(htim);
 5527              		.loc 1 1884 3
 5528 000c FB68     		ldr	r3, [r7, #12]
 5529 000e 93F83C30 		ldrb	r3, [r3, #60]	@ zero_extendqisi2
 5530 0012 012B     		cmp	r3, #1
 5531 0014 01D1     		bne	.L352
 5532              		.loc 1 1884 3 is_stmt 0 discriminator 1
 5533 0016 0223     		movs	r3, #2
 5534 0018 54E0     		b	.L353
 5535              	.L352:
 5536              		.loc 1 1884 3 discriminator 2
 5537 001a FB68     		ldr	r3, [r7, #12]
 5538 001c 0122     		movs	r2, #1
 5539 001e 83F83C20 		strb	r2, [r3, #60]
1885:Drivers/STM32H7xx_HAL_Driver/Src/stm32h7xx_hal_tim_ex.c **** 
1886:Drivers/STM32H7xx_HAL_Driver/Src/stm32h7xx_hal_tim_ex.c ****   if ((InputTrigger == TIM_TS_ITR0)  || (InputTrigger == TIM_TS_ITR1) ||
 5540              		.loc 1 1886 6 is_stmt 1 discriminator 2
 5541 0022 BB68     		ldr	r3, [r7, #8]
 5542 0024 002B     		cmp	r3, #0
 5543 0026 10D0     		beq	.L354
 5544              		.loc 1 1886 38 discriminator 1
 5545 0028 BB68     		ldr	r3, [r7, #8]
 5546 002a 102B     		cmp	r3, #16
 5547 002c 0DD0     		beq	.L354
 5548              		.loc 1 1886 71 discriminator 2
 5549 002e BB68     		ldr	r3, [r7, #8]
 5550 0030 202B     		cmp	r3, #32
 5551 0032 0AD0     		beq	.L354
1887:Drivers/STM32H7xx_HAL_Driver/Src/stm32h7xx_hal_tim_ex.c ****       (InputTrigger == TIM_TS_ITR2)  || (InputTrigger == TIM_TS_ITR3) ||
 5552              		.loc 1 1887 38
 5553 0034 BB68     		ldr	r3, [r7, #8]
 5554 0036 302B     		cmp	r3, #48
 5555 0038 07D0     		beq	.L354
 5556              		.loc 1 1887 71 discriminator 1
 5557 003a BB68     		ldr	r3, [r7, #8]
 5558 003c B3F5001F 		cmp	r3, #2097152
ARM GAS  /var/folders/d0/cymppscj10lcmm48h781wrc80000gn/T//ccIjALm5.s 			page 131


 5559 0040 03D0     		beq	.L354
1888:Drivers/STM32H7xx_HAL_Driver/Src/stm32h7xx_hal_tim_ex.c ****       (InputTrigger == TIM_TS_ITR12)  || (InputTrigger == TIM_TS_ITR13))
 5560              		.loc 1 1888 39
 5561 0042 BB68     		ldr	r3, [r7, #8]
 5562 0044 224A     		ldr	r2, .L356
 5563 0046 9342     		cmp	r3, r2
 5564 0048 0FD1     		bne	.L355
 5565              	.L354:
1889:Drivers/STM32H7xx_HAL_Driver/Src/stm32h7xx_hal_tim_ex.c ****   {
1890:Drivers/STM32H7xx_HAL_Driver/Src/stm32h7xx_hal_tim_ex.c ****     /* Select the Input trigger */
1891:Drivers/STM32H7xx_HAL_Driver/Src/stm32h7xx_hal_tim_ex.c ****     htim->Instance->SMCR &= ~TIM_SMCR_TS;
 5566              		.loc 1 1891 9
 5567 004a FB68     		ldr	r3, [r7, #12]
 5568 004c 1B68     		ldr	r3, [r3]
 5569              		.loc 1 1891 26
 5570 004e 9968     		ldr	r1, [r3, #8]
 5571              		.loc 1 1891 9
 5572 0050 FB68     		ldr	r3, [r7, #12]
 5573 0052 1A68     		ldr	r2, [r3]
 5574              		.loc 1 1891 26
 5575 0054 1F4B     		ldr	r3, .L356+4
 5576 0056 0B40     		ands	r3, r3, r1
 5577 0058 9360     		str	r3, [r2, #8]
1892:Drivers/STM32H7xx_HAL_Driver/Src/stm32h7xx_hal_tim_ex.c ****     htim->Instance->SMCR |= InputTrigger;
 5578              		.loc 1 1892 9
 5579 005a FB68     		ldr	r3, [r7, #12]
 5580 005c 1B68     		ldr	r3, [r3]
 5581              		.loc 1 1892 26
 5582 005e 9968     		ldr	r1, [r3, #8]
 5583              		.loc 1 1892 9
 5584 0060 FB68     		ldr	r3, [r7, #12]
 5585 0062 1B68     		ldr	r3, [r3]
 5586              		.loc 1 1892 26
 5587 0064 BA68     		ldr	r2, [r7, #8]
 5588 0066 0A43     		orrs	r2, r2, r1
 5589 0068 9A60     		str	r2, [r3, #8]
 5590              	.L355:
1893:Drivers/STM32H7xx_HAL_Driver/Src/stm32h7xx_hal_tim_ex.c ****   }
1894:Drivers/STM32H7xx_HAL_Driver/Src/stm32h7xx_hal_tim_ex.c **** 
1895:Drivers/STM32H7xx_HAL_Driver/Src/stm32h7xx_hal_tim_ex.c ****   /* Select the Capture Compare preload feature */
1896:Drivers/STM32H7xx_HAL_Driver/Src/stm32h7xx_hal_tim_ex.c ****   htim->Instance->CR2 |= TIM_CR2_CCPC;
 5591              		.loc 1 1896 7
 5592 006a FB68     		ldr	r3, [r7, #12]
 5593 006c 1B68     		ldr	r3, [r3]
 5594              		.loc 1 1896 23
 5595 006e 5A68     		ldr	r2, [r3, #4]
 5596              		.loc 1 1896 7
 5597 0070 FB68     		ldr	r3, [r7, #12]
 5598 0072 1B68     		ldr	r3, [r3]
 5599              		.loc 1 1896 23
 5600 0074 42F00102 		orr	r2, r2, #1
 5601 0078 5A60     		str	r2, [r3, #4]
1897:Drivers/STM32H7xx_HAL_Driver/Src/stm32h7xx_hal_tim_ex.c ****   /* Select the Commutation event source */
1898:Drivers/STM32H7xx_HAL_Driver/Src/stm32h7xx_hal_tim_ex.c ****   htim->Instance->CR2 &= ~TIM_CR2_CCUS;
 5602              		.loc 1 1898 7
 5603 007a FB68     		ldr	r3, [r7, #12]
 5604 007c 1B68     		ldr	r3, [r3]
ARM GAS  /var/folders/d0/cymppscj10lcmm48h781wrc80000gn/T//ccIjALm5.s 			page 132


 5605              		.loc 1 1898 23
 5606 007e 5A68     		ldr	r2, [r3, #4]
 5607              		.loc 1 1898 7
 5608 0080 FB68     		ldr	r3, [r7, #12]
 5609 0082 1B68     		ldr	r3, [r3]
 5610              		.loc 1 1898 23
 5611 0084 22F00402 		bic	r2, r2, #4
 5612 0088 5A60     		str	r2, [r3, #4]
1899:Drivers/STM32H7xx_HAL_Driver/Src/stm32h7xx_hal_tim_ex.c ****   htim->Instance->CR2 |= CommutationSource;
 5613              		.loc 1 1899 7
 5614 008a FB68     		ldr	r3, [r7, #12]
 5615 008c 1B68     		ldr	r3, [r3]
 5616              		.loc 1 1899 23
 5617 008e 5968     		ldr	r1, [r3, #4]
 5618              		.loc 1 1899 7
 5619 0090 FB68     		ldr	r3, [r7, #12]
 5620 0092 1B68     		ldr	r3, [r3]
 5621              		.loc 1 1899 23
 5622 0094 7A68     		ldr	r2, [r7, #4]
 5623 0096 0A43     		orrs	r2, r2, r1
 5624 0098 5A60     		str	r2, [r3, #4]
1900:Drivers/STM32H7xx_HAL_Driver/Src/stm32h7xx_hal_tim_ex.c **** 
1901:Drivers/STM32H7xx_HAL_Driver/Src/stm32h7xx_hal_tim_ex.c ****   /* Disable Commutation DMA request */
1902:Drivers/STM32H7xx_HAL_Driver/Src/stm32h7xx_hal_tim_ex.c ****   __HAL_TIM_DISABLE_DMA(htim, TIM_DMA_COM);
 5625              		.loc 1 1902 3
 5626 009a FB68     		ldr	r3, [r7, #12]
 5627 009c 1B68     		ldr	r3, [r3]
 5628 009e DA68     		ldr	r2, [r3, #12]
 5629 00a0 FB68     		ldr	r3, [r7, #12]
 5630 00a2 1B68     		ldr	r3, [r3]
 5631 00a4 22F40052 		bic	r2, r2, #8192
 5632 00a8 DA60     		str	r2, [r3, #12]
1903:Drivers/STM32H7xx_HAL_Driver/Src/stm32h7xx_hal_tim_ex.c **** 
1904:Drivers/STM32H7xx_HAL_Driver/Src/stm32h7xx_hal_tim_ex.c ****   /* Enable the Commutation Interrupt */
1905:Drivers/STM32H7xx_HAL_Driver/Src/stm32h7xx_hal_tim_ex.c ****   __HAL_TIM_ENABLE_IT(htim, TIM_IT_COM);
 5633              		.loc 1 1905 3
 5634 00aa FB68     		ldr	r3, [r7, #12]
 5635 00ac 1B68     		ldr	r3, [r3]
 5636 00ae DA68     		ldr	r2, [r3, #12]
 5637 00b0 FB68     		ldr	r3, [r7, #12]
 5638 00b2 1B68     		ldr	r3, [r3]
 5639 00b4 42F02002 		orr	r2, r2, #32
 5640 00b8 DA60     		str	r2, [r3, #12]
1906:Drivers/STM32H7xx_HAL_Driver/Src/stm32h7xx_hal_tim_ex.c **** 
1907:Drivers/STM32H7xx_HAL_Driver/Src/stm32h7xx_hal_tim_ex.c ****   __HAL_UNLOCK(htim);
 5641              		.loc 1 1907 3
 5642 00ba FB68     		ldr	r3, [r7, #12]
 5643 00bc 0022     		movs	r2, #0
 5644 00be 83F83C20 		strb	r2, [r3, #60]
1908:Drivers/STM32H7xx_HAL_Driver/Src/stm32h7xx_hal_tim_ex.c **** 
1909:Drivers/STM32H7xx_HAL_Driver/Src/stm32h7xx_hal_tim_ex.c ****   return HAL_OK;
 5645              		.loc 1 1909 10
 5646 00c2 0023     		movs	r3, #0
 5647              	.L353:
1910:Drivers/STM32H7xx_HAL_Driver/Src/stm32h7xx_hal_tim_ex.c **** }
 5648              		.loc 1 1910 1
 5649 00c4 1846     		mov	r0, r3
ARM GAS  /var/folders/d0/cymppscj10lcmm48h781wrc80000gn/T//ccIjALm5.s 			page 133


 5650 00c6 1437     		adds	r7, r7, #20
 5651              	.LCFI141:
 5652              		.cfi_def_cfa_offset 4
 5653 00c8 BD46     		mov	sp, r7
 5654              	.LCFI142:
 5655              		.cfi_def_cfa_register 13
 5656              		@ sp needed
 5657 00ca 5DF8047B 		ldr	r7, [sp], #4
 5658              	.LCFI143:
 5659              		.cfi_restore 7
 5660              		.cfi_def_cfa_offset 0
 5661 00ce 7047     		bx	lr
 5662              	.L357:
 5663              		.align	2
 5664              	.L356:
 5665 00d0 10002000 		.word	2097168
 5666 00d4 8FFFCFFF 		.word	-3145841
 5667              		.cfi_endproc
 5668              	.LFE360:
 5670              		.section	.text.HAL_TIMEx_ConfigCommutEvent_DMA,"ax",%progbits
 5671              		.align	1
 5672              		.global	HAL_TIMEx_ConfigCommutEvent_DMA
 5673              		.syntax unified
 5674              		.thumb
 5675              		.thumb_func
 5677              	HAL_TIMEx_ConfigCommutEvent_DMA:
 5678              	.LFB361:
1911:Drivers/STM32H7xx_HAL_Driver/Src/stm32h7xx_hal_tim_ex.c **** 
1912:Drivers/STM32H7xx_HAL_Driver/Src/stm32h7xx_hal_tim_ex.c **** /**
1913:Drivers/STM32H7xx_HAL_Driver/Src/stm32h7xx_hal_tim_ex.c ****   * @brief  Configure the TIM commutation event sequence with DMA.
1914:Drivers/STM32H7xx_HAL_Driver/Src/stm32h7xx_hal_tim_ex.c ****   * @note  This function is mandatory to use the commutation event in order to
1915:Drivers/STM32H7xx_HAL_Driver/Src/stm32h7xx_hal_tim_ex.c ****   *        update the configuration at each commutation detection on the TRGI input of the Timer,
1916:Drivers/STM32H7xx_HAL_Driver/Src/stm32h7xx_hal_tim_ex.c ****   *        the typical use of this feature is with the use of another Timer(interface Timer)
1917:Drivers/STM32H7xx_HAL_Driver/Src/stm32h7xx_hal_tim_ex.c ****   *        configured in Hall sensor interface, this interface Timer will generate the
1918:Drivers/STM32H7xx_HAL_Driver/Src/stm32h7xx_hal_tim_ex.c ****   *        commutation at its TRGO output (connected to Timer used in this function) each time
1919:Drivers/STM32H7xx_HAL_Driver/Src/stm32h7xx_hal_tim_ex.c ****   *        the TI1 of the Interface Timer detect a commutation at its input TI1.
1920:Drivers/STM32H7xx_HAL_Driver/Src/stm32h7xx_hal_tim_ex.c ****   * @note  The user should configure the DMA in his own software, in This function only the COMDE b
1921:Drivers/STM32H7xx_HAL_Driver/Src/stm32h7xx_hal_tim_ex.c ****   * @param  htim TIM handle
1922:Drivers/STM32H7xx_HAL_Driver/Src/stm32h7xx_hal_tim_ex.c ****   * @param  InputTrigger the Internal trigger corresponding to the Timer Interfacing with the Hall 
1923:Drivers/STM32H7xx_HAL_Driver/Src/stm32h7xx_hal_tim_ex.c ****   *          This parameter can be one of the following values:
1924:Drivers/STM32H7xx_HAL_Driver/Src/stm32h7xx_hal_tim_ex.c ****   *            @arg TIM_TS_ITR0: Internal trigger 0 selected
1925:Drivers/STM32H7xx_HAL_Driver/Src/stm32h7xx_hal_tim_ex.c ****   *            @arg TIM_TS_ITR1: Internal trigger 1 selected
1926:Drivers/STM32H7xx_HAL_Driver/Src/stm32h7xx_hal_tim_ex.c ****   *            @arg TIM_TS_ITR2: Internal trigger 2 selected
1927:Drivers/STM32H7xx_HAL_Driver/Src/stm32h7xx_hal_tim_ex.c ****   *            @arg TIM_TS_ITR3: Internal trigger 3 selected
1928:Drivers/STM32H7xx_HAL_Driver/Src/stm32h7xx_hal_tim_ex.c ****   *            @arg TIM_TS_ITR2: Internal trigger 12 selected (*)
1929:Drivers/STM32H7xx_HAL_Driver/Src/stm32h7xx_hal_tim_ex.c ****   *            @arg TIM_TS_ITR3: Internal trigger 13 selected (*)
1930:Drivers/STM32H7xx_HAL_Driver/Src/stm32h7xx_hal_tim_ex.c ****   *            @arg TIM_TS_NONE: No trigger is needed
1931:Drivers/STM32H7xx_HAL_Driver/Src/stm32h7xx_hal_tim_ex.c ****   *
1932:Drivers/STM32H7xx_HAL_Driver/Src/stm32h7xx_hal_tim_ex.c ****   *         (*)  Value not defined in all devices.
1933:Drivers/STM32H7xx_HAL_Driver/Src/stm32h7xx_hal_tim_ex.c ****   *
1934:Drivers/STM32H7xx_HAL_Driver/Src/stm32h7xx_hal_tim_ex.c ****   * @param  CommutationSource the Commutation Event source
1935:Drivers/STM32H7xx_HAL_Driver/Src/stm32h7xx_hal_tim_ex.c ****   *          This parameter can be one of the following values:
1936:Drivers/STM32H7xx_HAL_Driver/Src/stm32h7xx_hal_tim_ex.c ****   *            @arg TIM_COMMUTATION_TRGI: Commutation source is the TRGI of the Interface Timer
1937:Drivers/STM32H7xx_HAL_Driver/Src/stm32h7xx_hal_tim_ex.c ****   *            @arg TIM_COMMUTATION_SOFTWARE:  Commutation source is set by software using the COMG
1938:Drivers/STM32H7xx_HAL_Driver/Src/stm32h7xx_hal_tim_ex.c ****   * @retval HAL status
1939:Drivers/STM32H7xx_HAL_Driver/Src/stm32h7xx_hal_tim_ex.c ****   */
1940:Drivers/STM32H7xx_HAL_Driver/Src/stm32h7xx_hal_tim_ex.c **** HAL_StatusTypeDef HAL_TIMEx_ConfigCommutEvent_DMA(TIM_HandleTypeDef *htim, uint32_t  InputTrigger,
ARM GAS  /var/folders/d0/cymppscj10lcmm48h781wrc80000gn/T//ccIjALm5.s 			page 134


1941:Drivers/STM32H7xx_HAL_Driver/Src/stm32h7xx_hal_tim_ex.c ****                                                   uint32_t  CommutationSource)
1942:Drivers/STM32H7xx_HAL_Driver/Src/stm32h7xx_hal_tim_ex.c **** {
 5679              		.loc 1 1942 1
 5680              		.cfi_startproc
 5681              		@ args = 0, pretend = 0, frame = 16
 5682              		@ frame_needed = 1, uses_anonymous_args = 0
 5683              		@ link register save eliminated.
 5684 0000 80B4     		push	{r7}
 5685              	.LCFI144:
 5686              		.cfi_def_cfa_offset 4
 5687              		.cfi_offset 7, -4
 5688 0002 85B0     		sub	sp, sp, #20
 5689              	.LCFI145:
 5690              		.cfi_def_cfa_offset 24
 5691 0004 00AF     		add	r7, sp, #0
 5692              	.LCFI146:
 5693              		.cfi_def_cfa_register 7
 5694 0006 F860     		str	r0, [r7, #12]
 5695 0008 B960     		str	r1, [r7, #8]
 5696 000a 7A60     		str	r2, [r7, #4]
1943:Drivers/STM32H7xx_HAL_Driver/Src/stm32h7xx_hal_tim_ex.c ****   /* Check the parameters */
1944:Drivers/STM32H7xx_HAL_Driver/Src/stm32h7xx_hal_tim_ex.c ****   assert_param(IS_TIM_COMMUTATION_EVENT_INSTANCE(htim->Instance));
1945:Drivers/STM32H7xx_HAL_Driver/Src/stm32h7xx_hal_tim_ex.c ****   assert_param(IS_TIM_INTERNAL_TRIGGEREVENT_SELECTION(InputTrigger));
1946:Drivers/STM32H7xx_HAL_Driver/Src/stm32h7xx_hal_tim_ex.c **** 
1947:Drivers/STM32H7xx_HAL_Driver/Src/stm32h7xx_hal_tim_ex.c ****   __HAL_LOCK(htim);
 5697              		.loc 1 1947 3
 5698 000c FB68     		ldr	r3, [r7, #12]
 5699 000e 93F83C30 		ldrb	r3, [r3, #60]	@ zero_extendqisi2
 5700 0012 012B     		cmp	r3, #1
 5701 0014 01D1     		bne	.L359
 5702              		.loc 1 1947 3 is_stmt 0 discriminator 1
 5703 0016 0223     		movs	r3, #2
 5704 0018 60E0     		b	.L360
 5705              	.L359:
 5706              		.loc 1 1947 3 discriminator 2
 5707 001a FB68     		ldr	r3, [r7, #12]
 5708 001c 0122     		movs	r2, #1
 5709 001e 83F83C20 		strb	r2, [r3, #60]
1948:Drivers/STM32H7xx_HAL_Driver/Src/stm32h7xx_hal_tim_ex.c **** 
1949:Drivers/STM32H7xx_HAL_Driver/Src/stm32h7xx_hal_tim_ex.c ****   if ((InputTrigger == TIM_TS_ITR0)  || (InputTrigger == TIM_TS_ITR1) ||
 5710              		.loc 1 1949 6 is_stmt 1 discriminator 2
 5711 0022 BB68     		ldr	r3, [r7, #8]
 5712 0024 002B     		cmp	r3, #0
 5713 0026 10D0     		beq	.L361
 5714              		.loc 1 1949 38 discriminator 1
 5715 0028 BB68     		ldr	r3, [r7, #8]
 5716 002a 102B     		cmp	r3, #16
 5717 002c 0DD0     		beq	.L361
 5718              		.loc 1 1949 71 discriminator 2
 5719 002e BB68     		ldr	r3, [r7, #8]
 5720 0030 202B     		cmp	r3, #32
 5721 0032 0AD0     		beq	.L361
1950:Drivers/STM32H7xx_HAL_Driver/Src/stm32h7xx_hal_tim_ex.c ****       (InputTrigger == TIM_TS_ITR2)  || (InputTrigger == TIM_TS_ITR3) ||
 5722              		.loc 1 1950 38
 5723 0034 BB68     		ldr	r3, [r7, #8]
 5724 0036 302B     		cmp	r3, #48
 5725 0038 07D0     		beq	.L361
ARM GAS  /var/folders/d0/cymppscj10lcmm48h781wrc80000gn/T//ccIjALm5.s 			page 135


 5726              		.loc 1 1950 71 discriminator 1
 5727 003a BB68     		ldr	r3, [r7, #8]
 5728 003c B3F5001F 		cmp	r3, #2097152
 5729 0040 03D0     		beq	.L361
1951:Drivers/STM32H7xx_HAL_Driver/Src/stm32h7xx_hal_tim_ex.c ****       (InputTrigger == TIM_TS_ITR12)  || (InputTrigger == TIM_TS_ITR13))
 5730              		.loc 1 1951 39
 5731 0042 BB68     		ldr	r3, [r7, #8]
 5732 0044 284A     		ldr	r2, .L363
 5733 0046 9342     		cmp	r3, r2
 5734 0048 0FD1     		bne	.L362
 5735              	.L361:
1952:Drivers/STM32H7xx_HAL_Driver/Src/stm32h7xx_hal_tim_ex.c ****   {
1953:Drivers/STM32H7xx_HAL_Driver/Src/stm32h7xx_hal_tim_ex.c ****     /* Select the Input trigger */
1954:Drivers/STM32H7xx_HAL_Driver/Src/stm32h7xx_hal_tim_ex.c ****     htim->Instance->SMCR &= ~TIM_SMCR_TS;
 5736              		.loc 1 1954 9
 5737 004a FB68     		ldr	r3, [r7, #12]
 5738 004c 1B68     		ldr	r3, [r3]
 5739              		.loc 1 1954 26
 5740 004e 9968     		ldr	r1, [r3, #8]
 5741              		.loc 1 1954 9
 5742 0050 FB68     		ldr	r3, [r7, #12]
 5743 0052 1A68     		ldr	r2, [r3]
 5744              		.loc 1 1954 26
 5745 0054 254B     		ldr	r3, .L363+4
 5746 0056 0B40     		ands	r3, r3, r1
 5747 0058 9360     		str	r3, [r2, #8]
1955:Drivers/STM32H7xx_HAL_Driver/Src/stm32h7xx_hal_tim_ex.c ****     htim->Instance->SMCR |= InputTrigger;
 5748              		.loc 1 1955 9
 5749 005a FB68     		ldr	r3, [r7, #12]
 5750 005c 1B68     		ldr	r3, [r3]
 5751              		.loc 1 1955 26
 5752 005e 9968     		ldr	r1, [r3, #8]
 5753              		.loc 1 1955 9
 5754 0060 FB68     		ldr	r3, [r7, #12]
 5755 0062 1B68     		ldr	r3, [r3]
 5756              		.loc 1 1955 26
 5757 0064 BA68     		ldr	r2, [r7, #8]
 5758 0066 0A43     		orrs	r2, r2, r1
 5759 0068 9A60     		str	r2, [r3, #8]
 5760              	.L362:
1956:Drivers/STM32H7xx_HAL_Driver/Src/stm32h7xx_hal_tim_ex.c ****   }
1957:Drivers/STM32H7xx_HAL_Driver/Src/stm32h7xx_hal_tim_ex.c **** 
1958:Drivers/STM32H7xx_HAL_Driver/Src/stm32h7xx_hal_tim_ex.c ****   /* Select the Capture Compare preload feature */
1959:Drivers/STM32H7xx_HAL_Driver/Src/stm32h7xx_hal_tim_ex.c ****   htim->Instance->CR2 |= TIM_CR2_CCPC;
 5761              		.loc 1 1959 7
 5762 006a FB68     		ldr	r3, [r7, #12]
 5763 006c 1B68     		ldr	r3, [r3]
 5764              		.loc 1 1959 23
 5765 006e 5A68     		ldr	r2, [r3, #4]
 5766              		.loc 1 1959 7
 5767 0070 FB68     		ldr	r3, [r7, #12]
 5768 0072 1B68     		ldr	r3, [r3]
 5769              		.loc 1 1959 23
 5770 0074 42F00102 		orr	r2, r2, #1
 5771 0078 5A60     		str	r2, [r3, #4]
1960:Drivers/STM32H7xx_HAL_Driver/Src/stm32h7xx_hal_tim_ex.c ****   /* Select the Commutation event source */
1961:Drivers/STM32H7xx_HAL_Driver/Src/stm32h7xx_hal_tim_ex.c ****   htim->Instance->CR2 &= ~TIM_CR2_CCUS;
ARM GAS  /var/folders/d0/cymppscj10lcmm48h781wrc80000gn/T//ccIjALm5.s 			page 136


 5772              		.loc 1 1961 7
 5773 007a FB68     		ldr	r3, [r7, #12]
 5774 007c 1B68     		ldr	r3, [r3]
 5775              		.loc 1 1961 23
 5776 007e 5A68     		ldr	r2, [r3, #4]
 5777              		.loc 1 1961 7
 5778 0080 FB68     		ldr	r3, [r7, #12]
 5779 0082 1B68     		ldr	r3, [r3]
 5780              		.loc 1 1961 23
 5781 0084 22F00402 		bic	r2, r2, #4
 5782 0088 5A60     		str	r2, [r3, #4]
1962:Drivers/STM32H7xx_HAL_Driver/Src/stm32h7xx_hal_tim_ex.c ****   htim->Instance->CR2 |= CommutationSource;
 5783              		.loc 1 1962 7
 5784 008a FB68     		ldr	r3, [r7, #12]
 5785 008c 1B68     		ldr	r3, [r3]
 5786              		.loc 1 1962 23
 5787 008e 5968     		ldr	r1, [r3, #4]
 5788              		.loc 1 1962 7
 5789 0090 FB68     		ldr	r3, [r7, #12]
 5790 0092 1B68     		ldr	r3, [r3]
 5791              		.loc 1 1962 23
 5792 0094 7A68     		ldr	r2, [r7, #4]
 5793 0096 0A43     		orrs	r2, r2, r1
 5794 0098 5A60     		str	r2, [r3, #4]
1963:Drivers/STM32H7xx_HAL_Driver/Src/stm32h7xx_hal_tim_ex.c **** 
1964:Drivers/STM32H7xx_HAL_Driver/Src/stm32h7xx_hal_tim_ex.c ****   /* Enable the Commutation DMA Request */
1965:Drivers/STM32H7xx_HAL_Driver/Src/stm32h7xx_hal_tim_ex.c ****   /* Set the DMA Commutation Callback */
1966:Drivers/STM32H7xx_HAL_Driver/Src/stm32h7xx_hal_tim_ex.c ****   htim->hdma[TIM_DMA_ID_COMMUTATION]->XferCpltCallback = TIMEx_DMACommutationCplt;
 5795              		.loc 1 1966 13
 5796 009a FB68     		ldr	r3, [r7, #12]
 5797 009c 5B6B     		ldr	r3, [r3, #52]
 5798              		.loc 1 1966 56
 5799 009e 144A     		ldr	r2, .L363+8
 5800 00a0 DA63     		str	r2, [r3, #60]
1967:Drivers/STM32H7xx_HAL_Driver/Src/stm32h7xx_hal_tim_ex.c ****   htim->hdma[TIM_DMA_ID_COMMUTATION]->XferHalfCpltCallback = TIMEx_DMACommutationHalfCplt;
 5801              		.loc 1 1967 13
 5802 00a2 FB68     		ldr	r3, [r7, #12]
 5803 00a4 5B6B     		ldr	r3, [r3, #52]
 5804              		.loc 1 1967 60
 5805 00a6 134A     		ldr	r2, .L363+12
 5806 00a8 1A64     		str	r2, [r3, #64]
1968:Drivers/STM32H7xx_HAL_Driver/Src/stm32h7xx_hal_tim_ex.c ****   /* Set the DMA error callback */
1969:Drivers/STM32H7xx_HAL_Driver/Src/stm32h7xx_hal_tim_ex.c ****   htim->hdma[TIM_DMA_ID_COMMUTATION]->XferErrorCallback = TIM_DMAError;
 5807              		.loc 1 1969 13
 5808 00aa FB68     		ldr	r3, [r7, #12]
 5809 00ac 5B6B     		ldr	r3, [r3, #52]
 5810              		.loc 1 1969 57
 5811 00ae 124A     		ldr	r2, .L363+16
 5812 00b0 DA64     		str	r2, [r3, #76]
1970:Drivers/STM32H7xx_HAL_Driver/Src/stm32h7xx_hal_tim_ex.c **** 
1971:Drivers/STM32H7xx_HAL_Driver/Src/stm32h7xx_hal_tim_ex.c ****   /* Disable Commutation Interrupt */
1972:Drivers/STM32H7xx_HAL_Driver/Src/stm32h7xx_hal_tim_ex.c ****   __HAL_TIM_DISABLE_IT(htim, TIM_IT_COM);
 5813              		.loc 1 1972 3
 5814 00b2 FB68     		ldr	r3, [r7, #12]
 5815 00b4 1B68     		ldr	r3, [r3]
 5816 00b6 DA68     		ldr	r2, [r3, #12]
 5817 00b8 FB68     		ldr	r3, [r7, #12]
ARM GAS  /var/folders/d0/cymppscj10lcmm48h781wrc80000gn/T//ccIjALm5.s 			page 137


 5818 00ba 1B68     		ldr	r3, [r3]
 5819 00bc 22F02002 		bic	r2, r2, #32
 5820 00c0 DA60     		str	r2, [r3, #12]
1973:Drivers/STM32H7xx_HAL_Driver/Src/stm32h7xx_hal_tim_ex.c **** 
1974:Drivers/STM32H7xx_HAL_Driver/Src/stm32h7xx_hal_tim_ex.c ****   /* Enable the Commutation DMA Request */
1975:Drivers/STM32H7xx_HAL_Driver/Src/stm32h7xx_hal_tim_ex.c ****   __HAL_TIM_ENABLE_DMA(htim, TIM_DMA_COM);
 5821              		.loc 1 1975 3
 5822 00c2 FB68     		ldr	r3, [r7, #12]
 5823 00c4 1B68     		ldr	r3, [r3]
 5824 00c6 DA68     		ldr	r2, [r3, #12]
 5825 00c8 FB68     		ldr	r3, [r7, #12]
 5826 00ca 1B68     		ldr	r3, [r3]
 5827 00cc 42F40052 		orr	r2, r2, #8192
 5828 00d0 DA60     		str	r2, [r3, #12]
1976:Drivers/STM32H7xx_HAL_Driver/Src/stm32h7xx_hal_tim_ex.c **** 
1977:Drivers/STM32H7xx_HAL_Driver/Src/stm32h7xx_hal_tim_ex.c ****   __HAL_UNLOCK(htim);
 5829              		.loc 1 1977 3
 5830 00d2 FB68     		ldr	r3, [r7, #12]
 5831 00d4 0022     		movs	r2, #0
 5832 00d6 83F83C20 		strb	r2, [r3, #60]
1978:Drivers/STM32H7xx_HAL_Driver/Src/stm32h7xx_hal_tim_ex.c **** 
1979:Drivers/STM32H7xx_HAL_Driver/Src/stm32h7xx_hal_tim_ex.c ****   return HAL_OK;
 5833              		.loc 1 1979 10
 5834 00da 0023     		movs	r3, #0
 5835              	.L360:
1980:Drivers/STM32H7xx_HAL_Driver/Src/stm32h7xx_hal_tim_ex.c **** }
 5836              		.loc 1 1980 1
 5837 00dc 1846     		mov	r0, r3
 5838 00de 1437     		adds	r7, r7, #20
 5839              	.LCFI147:
 5840              		.cfi_def_cfa_offset 4
 5841 00e0 BD46     		mov	sp, r7
 5842              	.LCFI148:
 5843              		.cfi_def_cfa_register 13
 5844              		@ sp needed
 5845 00e2 5DF8047B 		ldr	r7, [sp], #4
 5846              	.LCFI149:
 5847              		.cfi_restore 7
 5848              		.cfi_def_cfa_offset 0
 5849 00e6 7047     		bx	lr
 5850              	.L364:
 5851              		.align	2
 5852              	.L363:
 5853 00e8 10002000 		.word	2097168
 5854 00ec 8FFFCFFF 		.word	-3145841
 5855 00f0 00000000 		.word	TIMEx_DMACommutationCplt
 5856 00f4 00000000 		.word	TIMEx_DMACommutationHalfCplt
 5857 00f8 00000000 		.word	TIM_DMAError
 5858              		.cfi_endproc
 5859              	.LFE361:
 5861              		.section	.text.HAL_TIMEx_MasterConfigSynchronization,"ax",%progbits
 5862              		.align	1
 5863              		.global	HAL_TIMEx_MasterConfigSynchronization
 5864              		.syntax unified
 5865              		.thumb
 5866              		.thumb_func
 5868              	HAL_TIMEx_MasterConfigSynchronization:
ARM GAS  /var/folders/d0/cymppscj10lcmm48h781wrc80000gn/T//ccIjALm5.s 			page 138


 5869              	.LFB362:
1981:Drivers/STM32H7xx_HAL_Driver/Src/stm32h7xx_hal_tim_ex.c **** 
1982:Drivers/STM32H7xx_HAL_Driver/Src/stm32h7xx_hal_tim_ex.c **** /**
1983:Drivers/STM32H7xx_HAL_Driver/Src/stm32h7xx_hal_tim_ex.c ****   * @brief  Configures the TIM in master mode.
1984:Drivers/STM32H7xx_HAL_Driver/Src/stm32h7xx_hal_tim_ex.c ****   * @param  htim TIM handle.
1985:Drivers/STM32H7xx_HAL_Driver/Src/stm32h7xx_hal_tim_ex.c ****   * @param  sMasterConfig pointer to a TIM_MasterConfigTypeDef structure that
1986:Drivers/STM32H7xx_HAL_Driver/Src/stm32h7xx_hal_tim_ex.c ****   *         contains the selected trigger output (TRGO) and the Master/Slave
1987:Drivers/STM32H7xx_HAL_Driver/Src/stm32h7xx_hal_tim_ex.c ****   *         mode.
1988:Drivers/STM32H7xx_HAL_Driver/Src/stm32h7xx_hal_tim_ex.c ****   * @retval HAL status
1989:Drivers/STM32H7xx_HAL_Driver/Src/stm32h7xx_hal_tim_ex.c ****   */
1990:Drivers/STM32H7xx_HAL_Driver/Src/stm32h7xx_hal_tim_ex.c **** HAL_StatusTypeDef HAL_TIMEx_MasterConfigSynchronization(TIM_HandleTypeDef *htim,
1991:Drivers/STM32H7xx_HAL_Driver/Src/stm32h7xx_hal_tim_ex.c ****                                                         TIM_MasterConfigTypeDef *sMasterConfig)
1992:Drivers/STM32H7xx_HAL_Driver/Src/stm32h7xx_hal_tim_ex.c **** {
 5870              		.loc 1 1992 1
 5871              		.cfi_startproc
 5872              		@ args = 0, pretend = 0, frame = 16
 5873              		@ frame_needed = 1, uses_anonymous_args = 0
 5874              		@ link register save eliminated.
 5875 0000 80B4     		push	{r7}
 5876              	.LCFI150:
 5877              		.cfi_def_cfa_offset 4
 5878              		.cfi_offset 7, -4
 5879 0002 85B0     		sub	sp, sp, #20
 5880              	.LCFI151:
 5881              		.cfi_def_cfa_offset 24
 5882 0004 00AF     		add	r7, sp, #0
 5883              	.LCFI152:
 5884              		.cfi_def_cfa_register 7
 5885 0006 7860     		str	r0, [r7, #4]
 5886 0008 3960     		str	r1, [r7]
1993:Drivers/STM32H7xx_HAL_Driver/Src/stm32h7xx_hal_tim_ex.c ****   uint32_t tmpcr2;
1994:Drivers/STM32H7xx_HAL_Driver/Src/stm32h7xx_hal_tim_ex.c ****   uint32_t tmpsmcr;
1995:Drivers/STM32H7xx_HAL_Driver/Src/stm32h7xx_hal_tim_ex.c **** 
1996:Drivers/STM32H7xx_HAL_Driver/Src/stm32h7xx_hal_tim_ex.c ****   /* Check the parameters */
1997:Drivers/STM32H7xx_HAL_Driver/Src/stm32h7xx_hal_tim_ex.c ****   assert_param(IS_TIM_MASTER_INSTANCE(htim->Instance));
1998:Drivers/STM32H7xx_HAL_Driver/Src/stm32h7xx_hal_tim_ex.c ****   assert_param(IS_TIM_TRGO_SOURCE(sMasterConfig->MasterOutputTrigger));
1999:Drivers/STM32H7xx_HAL_Driver/Src/stm32h7xx_hal_tim_ex.c ****   assert_param(IS_TIM_MSM_STATE(sMasterConfig->MasterSlaveMode));
2000:Drivers/STM32H7xx_HAL_Driver/Src/stm32h7xx_hal_tim_ex.c **** 
2001:Drivers/STM32H7xx_HAL_Driver/Src/stm32h7xx_hal_tim_ex.c ****   /* Check input state */
2002:Drivers/STM32H7xx_HAL_Driver/Src/stm32h7xx_hal_tim_ex.c ****   __HAL_LOCK(htim);
 5887              		.loc 1 2002 3
 5888 000a 7B68     		ldr	r3, [r7, #4]
 5889 000c 93F83C30 		ldrb	r3, [r3, #60]	@ zero_extendqisi2
 5890 0010 012B     		cmp	r3, #1
 5891 0012 01D1     		bne	.L366
 5892              		.loc 1 2002 3 is_stmt 0 discriminator 1
 5893 0014 0223     		movs	r3, #2
 5894 0016 6DE0     		b	.L367
 5895              	.L366:
 5896              		.loc 1 2002 3 discriminator 2
 5897 0018 7B68     		ldr	r3, [r7, #4]
 5898 001a 0122     		movs	r2, #1
 5899 001c 83F83C20 		strb	r2, [r3, #60]
2003:Drivers/STM32H7xx_HAL_Driver/Src/stm32h7xx_hal_tim_ex.c **** 
2004:Drivers/STM32H7xx_HAL_Driver/Src/stm32h7xx_hal_tim_ex.c ****   /* Change the handler state */
2005:Drivers/STM32H7xx_HAL_Driver/Src/stm32h7xx_hal_tim_ex.c ****   htim->State = HAL_TIM_STATE_BUSY;
 5900              		.loc 1 2005 15 is_stmt 1 discriminator 2
ARM GAS  /var/folders/d0/cymppscj10lcmm48h781wrc80000gn/T//ccIjALm5.s 			page 139


 5901 0020 7B68     		ldr	r3, [r7, #4]
 5902 0022 0222     		movs	r2, #2
 5903 0024 83F83D20 		strb	r2, [r3, #61]
2006:Drivers/STM32H7xx_HAL_Driver/Src/stm32h7xx_hal_tim_ex.c **** 
2007:Drivers/STM32H7xx_HAL_Driver/Src/stm32h7xx_hal_tim_ex.c ****   /* Get the TIMx CR2 register value */
2008:Drivers/STM32H7xx_HAL_Driver/Src/stm32h7xx_hal_tim_ex.c ****   tmpcr2 = htim->Instance->CR2;
 5904              		.loc 1 2008 16 discriminator 2
 5905 0028 7B68     		ldr	r3, [r7, #4]
 5906 002a 1B68     		ldr	r3, [r3]
 5907              		.loc 1 2008 10 discriminator 2
 5908 002c 5B68     		ldr	r3, [r3, #4]
 5909 002e FB60     		str	r3, [r7, #12]
2009:Drivers/STM32H7xx_HAL_Driver/Src/stm32h7xx_hal_tim_ex.c **** 
2010:Drivers/STM32H7xx_HAL_Driver/Src/stm32h7xx_hal_tim_ex.c ****   /* Get the TIMx SMCR register value */
2011:Drivers/STM32H7xx_HAL_Driver/Src/stm32h7xx_hal_tim_ex.c ****   tmpsmcr = htim->Instance->SMCR;
 5910              		.loc 1 2011 17 discriminator 2
 5911 0030 7B68     		ldr	r3, [r7, #4]
 5912 0032 1B68     		ldr	r3, [r3]
 5913              		.loc 1 2011 11 discriminator 2
 5914 0034 9B68     		ldr	r3, [r3, #8]
 5915 0036 BB60     		str	r3, [r7, #8]
2012:Drivers/STM32H7xx_HAL_Driver/Src/stm32h7xx_hal_tim_ex.c **** 
2013:Drivers/STM32H7xx_HAL_Driver/Src/stm32h7xx_hal_tim_ex.c ****   /* If the timer supports ADC synchronization through TRGO2, set the master mode selection 2 */
2014:Drivers/STM32H7xx_HAL_Driver/Src/stm32h7xx_hal_tim_ex.c ****   if (IS_TIM_TRGO2_INSTANCE(htim->Instance))
 5916              		.loc 1 2014 7 discriminator 2
 5917 0038 7B68     		ldr	r3, [r7, #4]
 5918 003a 1B68     		ldr	r3, [r3]
 5919              		.loc 1 2014 6 discriminator 2
 5920 003c 304A     		ldr	r2, .L372
 5921 003e 9342     		cmp	r3, r2
 5922 0040 04D0     		beq	.L368
 5923              		.loc 1 2014 7 discriminator 1
 5924 0042 7B68     		ldr	r3, [r7, #4]
 5925 0044 1B68     		ldr	r3, [r3]
 5926 0046 2F4A     		ldr	r2, .L372+4
 5927 0048 9342     		cmp	r3, r2
 5928 004a 08D1     		bne	.L369
 5929              	.L368:
2015:Drivers/STM32H7xx_HAL_Driver/Src/stm32h7xx_hal_tim_ex.c ****   {
2016:Drivers/STM32H7xx_HAL_Driver/Src/stm32h7xx_hal_tim_ex.c ****     /* Check the parameters */
2017:Drivers/STM32H7xx_HAL_Driver/Src/stm32h7xx_hal_tim_ex.c ****     assert_param(IS_TIM_TRGO2_SOURCE(sMasterConfig->MasterOutputTrigger2));
2018:Drivers/STM32H7xx_HAL_Driver/Src/stm32h7xx_hal_tim_ex.c **** 
2019:Drivers/STM32H7xx_HAL_Driver/Src/stm32h7xx_hal_tim_ex.c ****     /* Clear the MMS2 bits */
2020:Drivers/STM32H7xx_HAL_Driver/Src/stm32h7xx_hal_tim_ex.c ****     tmpcr2 &= ~TIM_CR2_MMS2;
 5930              		.loc 1 2020 12
 5931 004c FB68     		ldr	r3, [r7, #12]
 5932 004e 23F47003 		bic	r3, r3, #15728640
 5933 0052 FB60     		str	r3, [r7, #12]
2021:Drivers/STM32H7xx_HAL_Driver/Src/stm32h7xx_hal_tim_ex.c ****     /* Select the TRGO2 source*/
2022:Drivers/STM32H7xx_HAL_Driver/Src/stm32h7xx_hal_tim_ex.c ****     tmpcr2 |= sMasterConfig->MasterOutputTrigger2;
 5934              		.loc 1 2022 28
 5935 0054 3B68     		ldr	r3, [r7]
 5936 0056 5B68     		ldr	r3, [r3, #4]
 5937              		.loc 1 2022 12
 5938 0058 FA68     		ldr	r2, [r7, #12]
 5939 005a 1343     		orrs	r3, r3, r2
 5940 005c FB60     		str	r3, [r7, #12]
ARM GAS  /var/folders/d0/cymppscj10lcmm48h781wrc80000gn/T//ccIjALm5.s 			page 140


 5941              	.L369:
2023:Drivers/STM32H7xx_HAL_Driver/Src/stm32h7xx_hal_tim_ex.c ****   }
2024:Drivers/STM32H7xx_HAL_Driver/Src/stm32h7xx_hal_tim_ex.c **** 
2025:Drivers/STM32H7xx_HAL_Driver/Src/stm32h7xx_hal_tim_ex.c ****   /* Reset the MMS Bits */
2026:Drivers/STM32H7xx_HAL_Driver/Src/stm32h7xx_hal_tim_ex.c ****   tmpcr2 &= ~TIM_CR2_MMS;
 5942              		.loc 1 2026 10
 5943 005e FB68     		ldr	r3, [r7, #12]
 5944 0060 23F07003 		bic	r3, r3, #112
 5945 0064 FB60     		str	r3, [r7, #12]
2027:Drivers/STM32H7xx_HAL_Driver/Src/stm32h7xx_hal_tim_ex.c ****   /* Select the TRGO source */
2028:Drivers/STM32H7xx_HAL_Driver/Src/stm32h7xx_hal_tim_ex.c ****   tmpcr2 |=  sMasterConfig->MasterOutputTrigger;
 5946              		.loc 1 2028 27
 5947 0066 3B68     		ldr	r3, [r7]
 5948 0068 1B68     		ldr	r3, [r3]
 5949              		.loc 1 2028 10
 5950 006a FA68     		ldr	r2, [r7, #12]
 5951 006c 1343     		orrs	r3, r3, r2
 5952 006e FB60     		str	r3, [r7, #12]
2029:Drivers/STM32H7xx_HAL_Driver/Src/stm32h7xx_hal_tim_ex.c **** 
2030:Drivers/STM32H7xx_HAL_Driver/Src/stm32h7xx_hal_tim_ex.c ****   /* Update TIMx CR2 */
2031:Drivers/STM32H7xx_HAL_Driver/Src/stm32h7xx_hal_tim_ex.c ****   htim->Instance->CR2 = tmpcr2;
 5953              		.loc 1 2031 7
 5954 0070 7B68     		ldr	r3, [r7, #4]
 5955 0072 1B68     		ldr	r3, [r3]
 5956              		.loc 1 2031 23
 5957 0074 FA68     		ldr	r2, [r7, #12]
 5958 0076 5A60     		str	r2, [r3, #4]
2032:Drivers/STM32H7xx_HAL_Driver/Src/stm32h7xx_hal_tim_ex.c **** 
2033:Drivers/STM32H7xx_HAL_Driver/Src/stm32h7xx_hal_tim_ex.c ****   if (IS_TIM_SLAVE_INSTANCE(htim->Instance))
 5959              		.loc 1 2033 7
 5960 0078 7B68     		ldr	r3, [r7, #4]
 5961 007a 1B68     		ldr	r3, [r3]
 5962              		.loc 1 2033 6
 5963 007c 204A     		ldr	r2, .L372
 5964 007e 9342     		cmp	r3, r2
 5965 0080 22D0     		beq	.L370
 5966              		.loc 1 2033 7 discriminator 1
 5967 0082 7B68     		ldr	r3, [r7, #4]
 5968 0084 1B68     		ldr	r3, [r3]
 5969 0086 B3F1804F 		cmp	r3, #1073741824
 5970 008a 1DD0     		beq	.L370
 5971              		.loc 1 2033 7 is_stmt 0 discriminator 2
 5972 008c 7B68     		ldr	r3, [r7, #4]
 5973 008e 1B68     		ldr	r3, [r3]
 5974 0090 1D4A     		ldr	r2, .L372+8
 5975 0092 9342     		cmp	r3, r2
 5976 0094 18D0     		beq	.L370
 5977              		.loc 1 2033 7 discriminator 3
 5978 0096 7B68     		ldr	r3, [r7, #4]
 5979 0098 1B68     		ldr	r3, [r3]
 5980 009a 1C4A     		ldr	r2, .L372+12
 5981 009c 9342     		cmp	r3, r2
 5982 009e 13D0     		beq	.L370
 5983              		.loc 1 2033 7 discriminator 4
 5984 00a0 7B68     		ldr	r3, [r7, #4]
 5985 00a2 1B68     		ldr	r3, [r3]
 5986 00a4 1A4A     		ldr	r2, .L372+16
ARM GAS  /var/folders/d0/cymppscj10lcmm48h781wrc80000gn/T//ccIjALm5.s 			page 141


 5987 00a6 9342     		cmp	r3, r2
 5988 00a8 0ED0     		beq	.L370
 5989              		.loc 1 2033 7 discriminator 5
 5990 00aa 7B68     		ldr	r3, [r7, #4]
 5991 00ac 1B68     		ldr	r3, [r3]
 5992 00ae 154A     		ldr	r2, .L372+4
 5993 00b0 9342     		cmp	r3, r2
 5994 00b2 09D0     		beq	.L370
 5995              		.loc 1 2033 7 discriminator 6
 5996 00b4 7B68     		ldr	r3, [r7, #4]
 5997 00b6 1B68     		ldr	r3, [r3]
 5998 00b8 164A     		ldr	r2, .L372+20
 5999 00ba 9342     		cmp	r3, r2
 6000 00bc 04D0     		beq	.L370
 6001              		.loc 1 2033 7 discriminator 7
 6002 00be 7B68     		ldr	r3, [r7, #4]
 6003 00c0 1B68     		ldr	r3, [r3]
 6004 00c2 154A     		ldr	r2, .L372+24
 6005 00c4 9342     		cmp	r3, r2
 6006 00c6 0CD1     		bne	.L371
 6007              	.L370:
2034:Drivers/STM32H7xx_HAL_Driver/Src/stm32h7xx_hal_tim_ex.c ****   {
2035:Drivers/STM32H7xx_HAL_Driver/Src/stm32h7xx_hal_tim_ex.c ****     /* Reset the MSM Bit */
2036:Drivers/STM32H7xx_HAL_Driver/Src/stm32h7xx_hal_tim_ex.c ****     tmpsmcr &= ~TIM_SMCR_MSM;
 6008              		.loc 1 2036 13 is_stmt 1
 6009 00c8 BB68     		ldr	r3, [r7, #8]
 6010 00ca 23F08003 		bic	r3, r3, #128
 6011 00ce BB60     		str	r3, [r7, #8]
2037:Drivers/STM32H7xx_HAL_Driver/Src/stm32h7xx_hal_tim_ex.c ****     /* Set master mode */
2038:Drivers/STM32H7xx_HAL_Driver/Src/stm32h7xx_hal_tim_ex.c ****     tmpsmcr |= sMasterConfig->MasterSlaveMode;
 6012              		.loc 1 2038 29
 6013 00d0 3B68     		ldr	r3, [r7]
 6014 00d2 9B68     		ldr	r3, [r3, #8]
 6015              		.loc 1 2038 13
 6016 00d4 BA68     		ldr	r2, [r7, #8]
 6017 00d6 1343     		orrs	r3, r3, r2
 6018 00d8 BB60     		str	r3, [r7, #8]
2039:Drivers/STM32H7xx_HAL_Driver/Src/stm32h7xx_hal_tim_ex.c **** 
2040:Drivers/STM32H7xx_HAL_Driver/Src/stm32h7xx_hal_tim_ex.c ****     /* Update TIMx SMCR */
2041:Drivers/STM32H7xx_HAL_Driver/Src/stm32h7xx_hal_tim_ex.c ****     htim->Instance->SMCR = tmpsmcr;
 6019              		.loc 1 2041 9
 6020 00da 7B68     		ldr	r3, [r7, #4]
 6021 00dc 1B68     		ldr	r3, [r3]
 6022              		.loc 1 2041 26
 6023 00de BA68     		ldr	r2, [r7, #8]
 6024 00e0 9A60     		str	r2, [r3, #8]
 6025              	.L371:
2042:Drivers/STM32H7xx_HAL_Driver/Src/stm32h7xx_hal_tim_ex.c ****   }
2043:Drivers/STM32H7xx_HAL_Driver/Src/stm32h7xx_hal_tim_ex.c **** 
2044:Drivers/STM32H7xx_HAL_Driver/Src/stm32h7xx_hal_tim_ex.c ****   /* Change the htim state */
2045:Drivers/STM32H7xx_HAL_Driver/Src/stm32h7xx_hal_tim_ex.c ****   htim->State = HAL_TIM_STATE_READY;
 6026              		.loc 1 2045 15
 6027 00e2 7B68     		ldr	r3, [r7, #4]
 6028 00e4 0122     		movs	r2, #1
 6029 00e6 83F83D20 		strb	r2, [r3, #61]
2046:Drivers/STM32H7xx_HAL_Driver/Src/stm32h7xx_hal_tim_ex.c **** 
2047:Drivers/STM32H7xx_HAL_Driver/Src/stm32h7xx_hal_tim_ex.c ****   __HAL_UNLOCK(htim);
ARM GAS  /var/folders/d0/cymppscj10lcmm48h781wrc80000gn/T//ccIjALm5.s 			page 142


 6030              		.loc 1 2047 3
 6031 00ea 7B68     		ldr	r3, [r7, #4]
 6032 00ec 0022     		movs	r2, #0
 6033 00ee 83F83C20 		strb	r2, [r3, #60]
2048:Drivers/STM32H7xx_HAL_Driver/Src/stm32h7xx_hal_tim_ex.c **** 
2049:Drivers/STM32H7xx_HAL_Driver/Src/stm32h7xx_hal_tim_ex.c ****   return HAL_OK;
 6034              		.loc 1 2049 10
 6035 00f2 0023     		movs	r3, #0
 6036              	.L367:
2050:Drivers/STM32H7xx_HAL_Driver/Src/stm32h7xx_hal_tim_ex.c **** }
 6037              		.loc 1 2050 1
 6038 00f4 1846     		mov	r0, r3
 6039 00f6 1437     		adds	r7, r7, #20
 6040              	.LCFI153:
 6041              		.cfi_def_cfa_offset 4
 6042 00f8 BD46     		mov	sp, r7
 6043              	.LCFI154:
 6044              		.cfi_def_cfa_register 13
 6045              		@ sp needed
 6046 00fa 5DF8047B 		ldr	r7, [sp], #4
 6047              	.LCFI155:
 6048              		.cfi_restore 7
 6049              		.cfi_def_cfa_offset 0
 6050 00fe 7047     		bx	lr
 6051              	.L373:
 6052              		.align	2
 6053              	.L372:
 6054 0100 00000140 		.word	1073807360
 6055 0104 00040140 		.word	1073808384
 6056 0108 00040040 		.word	1073742848
 6057 010c 00080040 		.word	1073743872
 6058 0110 000C0040 		.word	1073744896
 6059 0114 00180040 		.word	1073747968
 6060 0118 00400140 		.word	1073823744
 6061              		.cfi_endproc
 6062              	.LFE362:
 6064              		.section	.text.HAL_TIMEx_ConfigBreakDeadTime,"ax",%progbits
 6065              		.align	1
 6066              		.global	HAL_TIMEx_ConfigBreakDeadTime
 6067              		.syntax unified
 6068              		.thumb
 6069              		.thumb_func
 6071              	HAL_TIMEx_ConfigBreakDeadTime:
 6072              	.LFB363:
2051:Drivers/STM32H7xx_HAL_Driver/Src/stm32h7xx_hal_tim_ex.c **** 
2052:Drivers/STM32H7xx_HAL_Driver/Src/stm32h7xx_hal_tim_ex.c **** /**
2053:Drivers/STM32H7xx_HAL_Driver/Src/stm32h7xx_hal_tim_ex.c ****   * @brief  Configures the Break feature, dead time, Lock level, OSSI/OSSR State
2054:Drivers/STM32H7xx_HAL_Driver/Src/stm32h7xx_hal_tim_ex.c ****   *         and the AOE(automatic output enable).
2055:Drivers/STM32H7xx_HAL_Driver/Src/stm32h7xx_hal_tim_ex.c ****   * @param  htim TIM handle
2056:Drivers/STM32H7xx_HAL_Driver/Src/stm32h7xx_hal_tim_ex.c ****   * @param  sBreakDeadTimeConfig pointer to a TIM_ConfigBreakDeadConfigTypeDef structure that
2057:Drivers/STM32H7xx_HAL_Driver/Src/stm32h7xx_hal_tim_ex.c ****   *         contains the BDTR Register configuration  information for the TIM peripheral.
2058:Drivers/STM32H7xx_HAL_Driver/Src/stm32h7xx_hal_tim_ex.c ****   * @note   Interrupts can be generated when an active level is detected on the
2059:Drivers/STM32H7xx_HAL_Driver/Src/stm32h7xx_hal_tim_ex.c ****   *         break input, the break 2 input or the system break input. Break
2060:Drivers/STM32H7xx_HAL_Driver/Src/stm32h7xx_hal_tim_ex.c ****   *         interrupt can be enabled by calling the @ref __HAL_TIM_ENABLE_IT macro.
2061:Drivers/STM32H7xx_HAL_Driver/Src/stm32h7xx_hal_tim_ex.c ****   * @retval HAL status
2062:Drivers/STM32H7xx_HAL_Driver/Src/stm32h7xx_hal_tim_ex.c ****   */
2063:Drivers/STM32H7xx_HAL_Driver/Src/stm32h7xx_hal_tim_ex.c **** HAL_StatusTypeDef HAL_TIMEx_ConfigBreakDeadTime(TIM_HandleTypeDef *htim,
ARM GAS  /var/folders/d0/cymppscj10lcmm48h781wrc80000gn/T//ccIjALm5.s 			page 143


2064:Drivers/STM32H7xx_HAL_Driver/Src/stm32h7xx_hal_tim_ex.c ****                                                 TIM_BreakDeadTimeConfigTypeDef *sBreakDeadTimeConfi
2065:Drivers/STM32H7xx_HAL_Driver/Src/stm32h7xx_hal_tim_ex.c **** {
 6073              		.loc 1 2065 1
 6074              		.cfi_startproc
 6075              		@ args = 0, pretend = 0, frame = 16
 6076              		@ frame_needed = 1, uses_anonymous_args = 0
 6077              		@ link register save eliminated.
 6078 0000 80B4     		push	{r7}
 6079              	.LCFI156:
 6080              		.cfi_def_cfa_offset 4
 6081              		.cfi_offset 7, -4
 6082 0002 85B0     		sub	sp, sp, #20
 6083              	.LCFI157:
 6084              		.cfi_def_cfa_offset 24
 6085 0004 00AF     		add	r7, sp, #0
 6086              	.LCFI158:
 6087              		.cfi_def_cfa_register 7
 6088 0006 7860     		str	r0, [r7, #4]
 6089 0008 3960     		str	r1, [r7]
2066:Drivers/STM32H7xx_HAL_Driver/Src/stm32h7xx_hal_tim_ex.c ****   /* Keep this variable initialized to 0 as it is used to configure BDTR register */
2067:Drivers/STM32H7xx_HAL_Driver/Src/stm32h7xx_hal_tim_ex.c ****   uint32_t tmpbdtr = 0U;
 6090              		.loc 1 2067 12
 6091 000a 0023     		movs	r3, #0
 6092 000c FB60     		str	r3, [r7, #12]
2068:Drivers/STM32H7xx_HAL_Driver/Src/stm32h7xx_hal_tim_ex.c **** 
2069:Drivers/STM32H7xx_HAL_Driver/Src/stm32h7xx_hal_tim_ex.c ****   /* Check the parameters */
2070:Drivers/STM32H7xx_HAL_Driver/Src/stm32h7xx_hal_tim_ex.c ****   assert_param(IS_TIM_BREAK_INSTANCE(htim->Instance));
2071:Drivers/STM32H7xx_HAL_Driver/Src/stm32h7xx_hal_tim_ex.c ****   assert_param(IS_TIM_OSSR_STATE(sBreakDeadTimeConfig->OffStateRunMode));
2072:Drivers/STM32H7xx_HAL_Driver/Src/stm32h7xx_hal_tim_ex.c ****   assert_param(IS_TIM_OSSI_STATE(sBreakDeadTimeConfig->OffStateIDLEMode));
2073:Drivers/STM32H7xx_HAL_Driver/Src/stm32h7xx_hal_tim_ex.c ****   assert_param(IS_TIM_LOCK_LEVEL(sBreakDeadTimeConfig->LockLevel));
2074:Drivers/STM32H7xx_HAL_Driver/Src/stm32h7xx_hal_tim_ex.c ****   assert_param(IS_TIM_DEADTIME(sBreakDeadTimeConfig->DeadTime));
2075:Drivers/STM32H7xx_HAL_Driver/Src/stm32h7xx_hal_tim_ex.c ****   assert_param(IS_TIM_BREAK_STATE(sBreakDeadTimeConfig->BreakState));
2076:Drivers/STM32H7xx_HAL_Driver/Src/stm32h7xx_hal_tim_ex.c ****   assert_param(IS_TIM_BREAK_POLARITY(sBreakDeadTimeConfig->BreakPolarity));
2077:Drivers/STM32H7xx_HAL_Driver/Src/stm32h7xx_hal_tim_ex.c ****   assert_param(IS_TIM_BREAK_FILTER(sBreakDeadTimeConfig->BreakFilter));
2078:Drivers/STM32H7xx_HAL_Driver/Src/stm32h7xx_hal_tim_ex.c ****   assert_param(IS_TIM_AUTOMATIC_OUTPUT_STATE(sBreakDeadTimeConfig->AutomaticOutput));
2079:Drivers/STM32H7xx_HAL_Driver/Src/stm32h7xx_hal_tim_ex.c **** 
2080:Drivers/STM32H7xx_HAL_Driver/Src/stm32h7xx_hal_tim_ex.c ****   /* Check input state */
2081:Drivers/STM32H7xx_HAL_Driver/Src/stm32h7xx_hal_tim_ex.c ****   __HAL_LOCK(htim);
 6093              		.loc 1 2081 3
 6094 000e 7B68     		ldr	r3, [r7, #4]
 6095 0010 93F83C30 		ldrb	r3, [r3, #60]	@ zero_extendqisi2
 6096 0014 012B     		cmp	r3, #1
 6097 0016 01D1     		bne	.L375
 6098              		.loc 1 2081 3 is_stmt 0 discriminator 1
 6099 0018 0223     		movs	r3, #2
 6100 001a 65E0     		b	.L376
 6101              	.L375:
 6102              		.loc 1 2081 3 discriminator 2
 6103 001c 7B68     		ldr	r3, [r7, #4]
 6104 001e 0122     		movs	r2, #1
 6105 0020 83F83C20 		strb	r2, [r3, #60]
2082:Drivers/STM32H7xx_HAL_Driver/Src/stm32h7xx_hal_tim_ex.c **** 
2083:Drivers/STM32H7xx_HAL_Driver/Src/stm32h7xx_hal_tim_ex.c ****   /* Set the Lock level, the Break enable Bit and the Polarity, the OSSR State,
2084:Drivers/STM32H7xx_HAL_Driver/Src/stm32h7xx_hal_tim_ex.c ****      the OSSI State, the dead time value and the Automatic Output Enable Bit */
2085:Drivers/STM32H7xx_HAL_Driver/Src/stm32h7xx_hal_tim_ex.c **** 
2086:Drivers/STM32H7xx_HAL_Driver/Src/stm32h7xx_hal_tim_ex.c ****   /* Set the BDTR bits */
2087:Drivers/STM32H7xx_HAL_Driver/Src/stm32h7xx_hal_tim_ex.c ****   MODIFY_REG(tmpbdtr, TIM_BDTR_DTG, sBreakDeadTimeConfig->DeadTime);
ARM GAS  /var/folders/d0/cymppscj10lcmm48h781wrc80000gn/T//ccIjALm5.s 			page 144


 6106              		.loc 1 2087 3 is_stmt 1 discriminator 2
 6107 0024 FB68     		ldr	r3, [r7, #12]
 6108 0026 23F0FF02 		bic	r2, r3, #255
 6109 002a 3B68     		ldr	r3, [r7]
 6110 002c DB68     		ldr	r3, [r3, #12]
 6111 002e 1343     		orrs	r3, r3, r2
 6112 0030 FB60     		str	r3, [r7, #12]
2088:Drivers/STM32H7xx_HAL_Driver/Src/stm32h7xx_hal_tim_ex.c ****   MODIFY_REG(tmpbdtr, TIM_BDTR_LOCK, sBreakDeadTimeConfig->LockLevel);
 6113              		.loc 1 2088 3 discriminator 2
 6114 0032 FB68     		ldr	r3, [r7, #12]
 6115 0034 23F44072 		bic	r2, r3, #768
 6116 0038 3B68     		ldr	r3, [r7]
 6117 003a 9B68     		ldr	r3, [r3, #8]
 6118 003c 1343     		orrs	r3, r3, r2
 6119 003e FB60     		str	r3, [r7, #12]
2089:Drivers/STM32H7xx_HAL_Driver/Src/stm32h7xx_hal_tim_ex.c ****   MODIFY_REG(tmpbdtr, TIM_BDTR_OSSI, sBreakDeadTimeConfig->OffStateIDLEMode);
 6120              		.loc 1 2089 3 discriminator 2
 6121 0040 FB68     		ldr	r3, [r7, #12]
 6122 0042 23F48062 		bic	r2, r3, #1024
 6123 0046 3B68     		ldr	r3, [r7]
 6124 0048 5B68     		ldr	r3, [r3, #4]
 6125 004a 1343     		orrs	r3, r3, r2
 6126 004c FB60     		str	r3, [r7, #12]
2090:Drivers/STM32H7xx_HAL_Driver/Src/stm32h7xx_hal_tim_ex.c ****   MODIFY_REG(tmpbdtr, TIM_BDTR_OSSR, sBreakDeadTimeConfig->OffStateRunMode);
 6127              		.loc 1 2090 3 discriminator 2
 6128 004e FB68     		ldr	r3, [r7, #12]
 6129 0050 23F40062 		bic	r2, r3, #2048
 6130 0054 3B68     		ldr	r3, [r7]
 6131 0056 1B68     		ldr	r3, [r3]
 6132 0058 1343     		orrs	r3, r3, r2
 6133 005a FB60     		str	r3, [r7, #12]
2091:Drivers/STM32H7xx_HAL_Driver/Src/stm32h7xx_hal_tim_ex.c ****   MODIFY_REG(tmpbdtr, TIM_BDTR_BKE, sBreakDeadTimeConfig->BreakState);
 6134              		.loc 1 2091 3 discriminator 2
 6135 005c FB68     		ldr	r3, [r7, #12]
 6136 005e 23F48052 		bic	r2, r3, #4096
 6137 0062 3B68     		ldr	r3, [r7]
 6138 0064 1B69     		ldr	r3, [r3, #16]
 6139 0066 1343     		orrs	r3, r3, r2
 6140 0068 FB60     		str	r3, [r7, #12]
2092:Drivers/STM32H7xx_HAL_Driver/Src/stm32h7xx_hal_tim_ex.c ****   MODIFY_REG(tmpbdtr, TIM_BDTR_BKP, sBreakDeadTimeConfig->BreakPolarity);
 6141              		.loc 1 2092 3 discriminator 2
 6142 006a FB68     		ldr	r3, [r7, #12]
 6143 006c 23F40052 		bic	r2, r3, #8192
 6144 0070 3B68     		ldr	r3, [r7]
 6145 0072 5B69     		ldr	r3, [r3, #20]
 6146 0074 1343     		orrs	r3, r3, r2
 6147 0076 FB60     		str	r3, [r7, #12]
2093:Drivers/STM32H7xx_HAL_Driver/Src/stm32h7xx_hal_tim_ex.c ****   MODIFY_REG(tmpbdtr, TIM_BDTR_AOE, sBreakDeadTimeConfig->AutomaticOutput);
 6148              		.loc 1 2093 3 discriminator 2
 6149 0078 FB68     		ldr	r3, [r7, #12]
 6150 007a 23F48042 		bic	r2, r3, #16384
 6151 007e 3B68     		ldr	r3, [r7]
 6152 0080 9B6A     		ldr	r3, [r3, #40]
 6153 0082 1343     		orrs	r3, r3, r2
 6154 0084 FB60     		str	r3, [r7, #12]
2094:Drivers/STM32H7xx_HAL_Driver/Src/stm32h7xx_hal_tim_ex.c ****   MODIFY_REG(tmpbdtr, TIM_BDTR_BKF, (sBreakDeadTimeConfig->BreakFilter << TIM_BDTR_BKF_Pos));
 6155              		.loc 1 2094 3 discriminator 2
ARM GAS  /var/folders/d0/cymppscj10lcmm48h781wrc80000gn/T//ccIjALm5.s 			page 145


 6156 0086 FB68     		ldr	r3, [r7, #12]
 6157 0088 23F47022 		bic	r2, r3, #983040
 6158 008c 3B68     		ldr	r3, [r7]
 6159 008e 9B69     		ldr	r3, [r3, #24]
 6160 0090 1B04     		lsls	r3, r3, #16
 6161 0092 1343     		orrs	r3, r3, r2
 6162 0094 FB60     		str	r3, [r7, #12]
2095:Drivers/STM32H7xx_HAL_Driver/Src/stm32h7xx_hal_tim_ex.c **** 
2096:Drivers/STM32H7xx_HAL_Driver/Src/stm32h7xx_hal_tim_ex.c **** #if defined(TIM_BDTR_BKBID)
2097:Drivers/STM32H7xx_HAL_Driver/Src/stm32h7xx_hal_tim_ex.c ****   if (IS_TIM_ADVANCED_INSTANCE(htim->Instance))
2098:Drivers/STM32H7xx_HAL_Driver/Src/stm32h7xx_hal_tim_ex.c ****   {
2099:Drivers/STM32H7xx_HAL_Driver/Src/stm32h7xx_hal_tim_ex.c ****     /* Check the parameters */
2100:Drivers/STM32H7xx_HAL_Driver/Src/stm32h7xx_hal_tim_ex.c ****     assert_param(IS_TIM_BREAK_AFMODE(sBreakDeadTimeConfig->BreakAFMode));
2101:Drivers/STM32H7xx_HAL_Driver/Src/stm32h7xx_hal_tim_ex.c **** 
2102:Drivers/STM32H7xx_HAL_Driver/Src/stm32h7xx_hal_tim_ex.c ****     /* Set BREAK AF mode */
2103:Drivers/STM32H7xx_HAL_Driver/Src/stm32h7xx_hal_tim_ex.c ****     MODIFY_REG(tmpbdtr, TIM_BDTR_BKBID, sBreakDeadTimeConfig->BreakAFMode);
2104:Drivers/STM32H7xx_HAL_Driver/Src/stm32h7xx_hal_tim_ex.c ****   }
2105:Drivers/STM32H7xx_HAL_Driver/Src/stm32h7xx_hal_tim_ex.c **** 
2106:Drivers/STM32H7xx_HAL_Driver/Src/stm32h7xx_hal_tim_ex.c **** #endif /* TIM_BDTR_BKBID */
2107:Drivers/STM32H7xx_HAL_Driver/Src/stm32h7xx_hal_tim_ex.c ****   if (IS_TIM_BKIN2_INSTANCE(htim->Instance))
 6163              		.loc 1 2107 7 discriminator 2
 6164 0096 7B68     		ldr	r3, [r7, #4]
 6165 0098 1B68     		ldr	r3, [r3]
 6166              		.loc 1 2107 6 discriminator 2
 6167 009a 164A     		ldr	r2, .L379
 6168 009c 9342     		cmp	r3, r2
 6169 009e 04D0     		beq	.L377
 6170              		.loc 1 2107 7 discriminator 1
 6171 00a0 7B68     		ldr	r3, [r7, #4]
 6172 00a2 1B68     		ldr	r3, [r3]
 6173 00a4 144A     		ldr	r2, .L379+4
 6174 00a6 9342     		cmp	r3, r2
 6175 00a8 15D1     		bne	.L378
 6176              	.L377:
2108:Drivers/STM32H7xx_HAL_Driver/Src/stm32h7xx_hal_tim_ex.c ****   {
2109:Drivers/STM32H7xx_HAL_Driver/Src/stm32h7xx_hal_tim_ex.c ****     /* Check the parameters */
2110:Drivers/STM32H7xx_HAL_Driver/Src/stm32h7xx_hal_tim_ex.c ****     assert_param(IS_TIM_BREAK2_STATE(sBreakDeadTimeConfig->Break2State));
2111:Drivers/STM32H7xx_HAL_Driver/Src/stm32h7xx_hal_tim_ex.c ****     assert_param(IS_TIM_BREAK2_POLARITY(sBreakDeadTimeConfig->Break2Polarity));
2112:Drivers/STM32H7xx_HAL_Driver/Src/stm32h7xx_hal_tim_ex.c ****     assert_param(IS_TIM_BREAK_FILTER(sBreakDeadTimeConfig->Break2Filter));
2113:Drivers/STM32H7xx_HAL_Driver/Src/stm32h7xx_hal_tim_ex.c **** 
2114:Drivers/STM32H7xx_HAL_Driver/Src/stm32h7xx_hal_tim_ex.c ****     /* Set the BREAK2 input related BDTR bits */
2115:Drivers/STM32H7xx_HAL_Driver/Src/stm32h7xx_hal_tim_ex.c ****     MODIFY_REG(tmpbdtr, TIM_BDTR_BK2F, (sBreakDeadTimeConfig->Break2Filter << TIM_BDTR_BK2F_Pos));
 6177              		.loc 1 2115 5
 6178 00aa FB68     		ldr	r3, [r7, #12]
 6179 00ac 23F47002 		bic	r2, r3, #15728640
 6180 00b0 3B68     		ldr	r3, [r7]
 6181 00b2 5B6A     		ldr	r3, [r3, #36]
 6182 00b4 1B05     		lsls	r3, r3, #20
 6183 00b6 1343     		orrs	r3, r3, r2
 6184 00b8 FB60     		str	r3, [r7, #12]
2116:Drivers/STM32H7xx_HAL_Driver/Src/stm32h7xx_hal_tim_ex.c ****     MODIFY_REG(tmpbdtr, TIM_BDTR_BK2E, sBreakDeadTimeConfig->Break2State);
 6185              		.loc 1 2116 5
 6186 00ba FB68     		ldr	r3, [r7, #12]
 6187 00bc 23F08072 		bic	r2, r3, #16777216
 6188 00c0 3B68     		ldr	r3, [r7]
 6189 00c2 DB69     		ldr	r3, [r3, #28]
 6190 00c4 1343     		orrs	r3, r3, r2
ARM GAS  /var/folders/d0/cymppscj10lcmm48h781wrc80000gn/T//ccIjALm5.s 			page 146


 6191 00c6 FB60     		str	r3, [r7, #12]
2117:Drivers/STM32H7xx_HAL_Driver/Src/stm32h7xx_hal_tim_ex.c ****     MODIFY_REG(tmpbdtr, TIM_BDTR_BK2P, sBreakDeadTimeConfig->Break2Polarity);
 6192              		.loc 1 2117 5
 6193 00c8 FB68     		ldr	r3, [r7, #12]
 6194 00ca 23F00072 		bic	r2, r3, #33554432
 6195 00ce 3B68     		ldr	r3, [r7]
 6196 00d0 1B6A     		ldr	r3, [r3, #32]
 6197 00d2 1343     		orrs	r3, r3, r2
 6198 00d4 FB60     		str	r3, [r7, #12]
 6199              	.L378:
2118:Drivers/STM32H7xx_HAL_Driver/Src/stm32h7xx_hal_tim_ex.c **** #if defined(TIM_BDTR_BKBID)
2119:Drivers/STM32H7xx_HAL_Driver/Src/stm32h7xx_hal_tim_ex.c **** 
2120:Drivers/STM32H7xx_HAL_Driver/Src/stm32h7xx_hal_tim_ex.c ****     if (IS_TIM_ADVANCED_INSTANCE(htim->Instance))
2121:Drivers/STM32H7xx_HAL_Driver/Src/stm32h7xx_hal_tim_ex.c ****     {
2122:Drivers/STM32H7xx_HAL_Driver/Src/stm32h7xx_hal_tim_ex.c ****       /* Check the parameters */
2123:Drivers/STM32H7xx_HAL_Driver/Src/stm32h7xx_hal_tim_ex.c ****       assert_param(IS_TIM_BREAK2_AFMODE(sBreakDeadTimeConfig->Break2AFMode));
2124:Drivers/STM32H7xx_HAL_Driver/Src/stm32h7xx_hal_tim_ex.c **** 
2125:Drivers/STM32H7xx_HAL_Driver/Src/stm32h7xx_hal_tim_ex.c ****       /* Set BREAK2 AF mode */
2126:Drivers/STM32H7xx_HAL_Driver/Src/stm32h7xx_hal_tim_ex.c ****       MODIFY_REG(tmpbdtr, TIM_BDTR_BK2BID, sBreakDeadTimeConfig->Break2AFMode);
2127:Drivers/STM32H7xx_HAL_Driver/Src/stm32h7xx_hal_tim_ex.c ****     }
2128:Drivers/STM32H7xx_HAL_Driver/Src/stm32h7xx_hal_tim_ex.c **** #endif /* TIM_BDTR_BKBID */
2129:Drivers/STM32H7xx_HAL_Driver/Src/stm32h7xx_hal_tim_ex.c ****   }
2130:Drivers/STM32H7xx_HAL_Driver/Src/stm32h7xx_hal_tim_ex.c **** 
2131:Drivers/STM32H7xx_HAL_Driver/Src/stm32h7xx_hal_tim_ex.c ****   /* Set TIMx_BDTR */
2132:Drivers/STM32H7xx_HAL_Driver/Src/stm32h7xx_hal_tim_ex.c ****   htim->Instance->BDTR = tmpbdtr;
 6200              		.loc 1 2132 7
 6201 00d6 7B68     		ldr	r3, [r7, #4]
 6202 00d8 1B68     		ldr	r3, [r3]
 6203              		.loc 1 2132 24
 6204 00da FA68     		ldr	r2, [r7, #12]
 6205 00dc 5A64     		str	r2, [r3, #68]
2133:Drivers/STM32H7xx_HAL_Driver/Src/stm32h7xx_hal_tim_ex.c **** 
2134:Drivers/STM32H7xx_HAL_Driver/Src/stm32h7xx_hal_tim_ex.c ****   __HAL_UNLOCK(htim);
 6206              		.loc 1 2134 3
 6207 00de 7B68     		ldr	r3, [r7, #4]
 6208 00e0 0022     		movs	r2, #0
 6209 00e2 83F83C20 		strb	r2, [r3, #60]
2135:Drivers/STM32H7xx_HAL_Driver/Src/stm32h7xx_hal_tim_ex.c **** 
2136:Drivers/STM32H7xx_HAL_Driver/Src/stm32h7xx_hal_tim_ex.c ****   return HAL_OK;
 6210              		.loc 1 2136 10
 6211 00e6 0023     		movs	r3, #0
 6212              	.L376:
2137:Drivers/STM32H7xx_HAL_Driver/Src/stm32h7xx_hal_tim_ex.c **** }
 6213              		.loc 1 2137 1
 6214 00e8 1846     		mov	r0, r3
 6215 00ea 1437     		adds	r7, r7, #20
 6216              	.LCFI159:
 6217              		.cfi_def_cfa_offset 4
 6218 00ec BD46     		mov	sp, r7
 6219              	.LCFI160:
 6220              		.cfi_def_cfa_register 13
 6221              		@ sp needed
 6222 00ee 5DF8047B 		ldr	r7, [sp], #4
 6223              	.LCFI161:
 6224              		.cfi_restore 7
 6225              		.cfi_def_cfa_offset 0
 6226 00f2 7047     		bx	lr
ARM GAS  /var/folders/d0/cymppscj10lcmm48h781wrc80000gn/T//ccIjALm5.s 			page 147


 6227              	.L380:
 6228              		.align	2
 6229              	.L379:
 6230 00f4 00000140 		.word	1073807360
 6231 00f8 00040140 		.word	1073808384
 6232              		.cfi_endproc
 6233              	.LFE363:
 6235              		.section	.text.HAL_TIMEx_ConfigBreakInput,"ax",%progbits
 6236              		.align	1
 6237              		.global	HAL_TIMEx_ConfigBreakInput
 6238              		.syntax unified
 6239              		.thumb
 6240              		.thumb_func
 6242              	HAL_TIMEx_ConfigBreakInput:
 6243              	.LFB364:
2138:Drivers/STM32H7xx_HAL_Driver/Src/stm32h7xx_hal_tim_ex.c **** #if defined(TIM_BREAK_INPUT_SUPPORT)
2139:Drivers/STM32H7xx_HAL_Driver/Src/stm32h7xx_hal_tim_ex.c **** 
2140:Drivers/STM32H7xx_HAL_Driver/Src/stm32h7xx_hal_tim_ex.c **** /**
2141:Drivers/STM32H7xx_HAL_Driver/Src/stm32h7xx_hal_tim_ex.c ****   * @brief  Configures the break input source.
2142:Drivers/STM32H7xx_HAL_Driver/Src/stm32h7xx_hal_tim_ex.c ****   * @param  htim TIM handle.
2143:Drivers/STM32H7xx_HAL_Driver/Src/stm32h7xx_hal_tim_ex.c ****   * @param  BreakInput Break input to configure
2144:Drivers/STM32H7xx_HAL_Driver/Src/stm32h7xx_hal_tim_ex.c ****   *          This parameter can be one of the following values:
2145:Drivers/STM32H7xx_HAL_Driver/Src/stm32h7xx_hal_tim_ex.c ****   *            @arg TIM_BREAKINPUT_BRK: Timer break input
2146:Drivers/STM32H7xx_HAL_Driver/Src/stm32h7xx_hal_tim_ex.c ****   *            @arg TIM_BREAKINPUT_BRK2: Timer break 2 input
2147:Drivers/STM32H7xx_HAL_Driver/Src/stm32h7xx_hal_tim_ex.c ****   * @param  sBreakInputConfig Break input source configuration
2148:Drivers/STM32H7xx_HAL_Driver/Src/stm32h7xx_hal_tim_ex.c ****   * @retval HAL status
2149:Drivers/STM32H7xx_HAL_Driver/Src/stm32h7xx_hal_tim_ex.c ****   */
2150:Drivers/STM32H7xx_HAL_Driver/Src/stm32h7xx_hal_tim_ex.c **** HAL_StatusTypeDef HAL_TIMEx_ConfigBreakInput(TIM_HandleTypeDef *htim,
2151:Drivers/STM32H7xx_HAL_Driver/Src/stm32h7xx_hal_tim_ex.c ****                                              uint32_t BreakInput,
2152:Drivers/STM32H7xx_HAL_Driver/Src/stm32h7xx_hal_tim_ex.c ****                                              TIMEx_BreakInputConfigTypeDef *sBreakInputConfig)
2153:Drivers/STM32H7xx_HAL_Driver/Src/stm32h7xx_hal_tim_ex.c **** 
2154:Drivers/STM32H7xx_HAL_Driver/Src/stm32h7xx_hal_tim_ex.c **** {
 6244              		.loc 1 2154 1
 6245              		.cfi_startproc
 6246              		@ args = 0, pretend = 0, frame = 40
 6247              		@ frame_needed = 1, uses_anonymous_args = 0
 6248              		@ link register save eliminated.
 6249 0000 80B4     		push	{r7}
 6250              	.LCFI162:
 6251              		.cfi_def_cfa_offset 4
 6252              		.cfi_offset 7, -4
 6253 0002 8BB0     		sub	sp, sp, #44
 6254              	.LCFI163:
 6255              		.cfi_def_cfa_offset 48
 6256 0004 00AF     		add	r7, sp, #0
 6257              	.LCFI164:
 6258              		.cfi_def_cfa_register 7
 6259 0006 F860     		str	r0, [r7, #12]
 6260 0008 B960     		str	r1, [r7, #8]
 6261 000a 7A60     		str	r2, [r7, #4]
2155:Drivers/STM32H7xx_HAL_Driver/Src/stm32h7xx_hal_tim_ex.c ****   HAL_StatusTypeDef status = HAL_OK;
 6262              		.loc 1 2155 21
 6263 000c 0023     		movs	r3, #0
 6264 000e 87F82730 		strb	r3, [r7, #39]
2156:Drivers/STM32H7xx_HAL_Driver/Src/stm32h7xx_hal_tim_ex.c ****   uint32_t tmporx;
2157:Drivers/STM32H7xx_HAL_Driver/Src/stm32h7xx_hal_tim_ex.c ****   uint32_t bkin_enable_mask;
2158:Drivers/STM32H7xx_HAL_Driver/Src/stm32h7xx_hal_tim_ex.c ****   uint32_t bkin_polarity_mask;
ARM GAS  /var/folders/d0/cymppscj10lcmm48h781wrc80000gn/T//ccIjALm5.s 			page 148


2159:Drivers/STM32H7xx_HAL_Driver/Src/stm32h7xx_hal_tim_ex.c ****   uint32_t bkin_enable_bitpos;
2160:Drivers/STM32H7xx_HAL_Driver/Src/stm32h7xx_hal_tim_ex.c ****   uint32_t bkin_polarity_bitpos;
2161:Drivers/STM32H7xx_HAL_Driver/Src/stm32h7xx_hal_tim_ex.c **** 
2162:Drivers/STM32H7xx_HAL_Driver/Src/stm32h7xx_hal_tim_ex.c ****   /* Check the parameters */
2163:Drivers/STM32H7xx_HAL_Driver/Src/stm32h7xx_hal_tim_ex.c ****   assert_param(IS_TIM_BREAK_INSTANCE(htim->Instance));
2164:Drivers/STM32H7xx_HAL_Driver/Src/stm32h7xx_hal_tim_ex.c ****   assert_param(IS_TIM_BREAKINPUT(BreakInput));
2165:Drivers/STM32H7xx_HAL_Driver/Src/stm32h7xx_hal_tim_ex.c ****   assert_param(IS_TIM_BREAKINPUTSOURCE(sBreakInputConfig->Source));
2166:Drivers/STM32H7xx_HAL_Driver/Src/stm32h7xx_hal_tim_ex.c ****   assert_param(IS_TIM_BREAKINPUTSOURCE_STATE(sBreakInputConfig->Enable));
2167:Drivers/STM32H7xx_HAL_Driver/Src/stm32h7xx_hal_tim_ex.c ****   if (sBreakInputConfig->Source != TIM_BREAKINPUTSOURCE_DFSDM1)
2168:Drivers/STM32H7xx_HAL_Driver/Src/stm32h7xx_hal_tim_ex.c ****   {
2169:Drivers/STM32H7xx_HAL_Driver/Src/stm32h7xx_hal_tim_ex.c ****     assert_param(IS_TIM_BREAKINPUTSOURCE_POLARITY(sBreakInputConfig->Polarity));
2170:Drivers/STM32H7xx_HAL_Driver/Src/stm32h7xx_hal_tim_ex.c ****   }
2171:Drivers/STM32H7xx_HAL_Driver/Src/stm32h7xx_hal_tim_ex.c **** 
2172:Drivers/STM32H7xx_HAL_Driver/Src/stm32h7xx_hal_tim_ex.c ****   /* Check input state */
2173:Drivers/STM32H7xx_HAL_Driver/Src/stm32h7xx_hal_tim_ex.c ****   __HAL_LOCK(htim);
 6265              		.loc 1 2173 3
 6266 0012 FB68     		ldr	r3, [r7, #12]
 6267 0014 93F83C30 		ldrb	r3, [r3, #60]	@ zero_extendqisi2
 6268 0018 012B     		cmp	r3, #1
 6269 001a 01D1     		bne	.L382
 6270              		.loc 1 2173 3 is_stmt 0 discriminator 1
 6271 001c 0223     		movs	r3, #2
 6272 001e AFE0     		b	.L383
 6273              	.L382:
 6274              		.loc 1 2173 3 discriminator 2
 6275 0020 FB68     		ldr	r3, [r7, #12]
 6276 0022 0122     		movs	r2, #1
 6277 0024 83F83C20 		strb	r2, [r3, #60]
2174:Drivers/STM32H7xx_HAL_Driver/Src/stm32h7xx_hal_tim_ex.c **** 
2175:Drivers/STM32H7xx_HAL_Driver/Src/stm32h7xx_hal_tim_ex.c ****   switch (sBreakInputConfig->Source)
 6278              		.loc 1 2175 28 is_stmt 1 discriminator 2
 6279 0028 7B68     		ldr	r3, [r7, #4]
 6280 002a 1B68     		ldr	r3, [r3]
 6281              		.loc 1 2175 3 discriminator 2
 6282 002c 013B     		subs	r3, r3, #1
 6283 002e 072B     		cmp	r3, #7
 6284 0030 3AD8     		bhi	.L384
 6285 0032 01A2     		adr	r2, .L386
 6286 0034 52F823F0 		ldr	pc, [r2, r3, lsl #2]
 6287              		.p2align 2
 6288              	.L386:
 6289 0038 59000000 		.word	.L389+1
 6290 003c 6D000000 		.word	.L388+1
 6291 0040 A9000000 		.word	.L384+1
 6292 0044 81000000 		.word	.L387+1
 6293 0048 A9000000 		.word	.L384+1
 6294 004c A9000000 		.word	.L384+1
 6295 0050 A9000000 		.word	.L384+1
 6296 0054 95000000 		.word	.L385+1
 6297              		.p2align 1
 6298              	.L389:
2176:Drivers/STM32H7xx_HAL_Driver/Src/stm32h7xx_hal_tim_ex.c ****   {
2177:Drivers/STM32H7xx_HAL_Driver/Src/stm32h7xx_hal_tim_ex.c ****     case TIM_BREAKINPUTSOURCE_BKIN:
2178:Drivers/STM32H7xx_HAL_Driver/Src/stm32h7xx_hal_tim_ex.c ****     {
2179:Drivers/STM32H7xx_HAL_Driver/Src/stm32h7xx_hal_tim_ex.c ****       bkin_enable_mask = TIM1_AF1_BKINE;
 6299              		.loc 1 2179 24
 6300 0058 0123     		movs	r3, #1
ARM GAS  /var/folders/d0/cymppscj10lcmm48h781wrc80000gn/T//ccIjALm5.s 			page 149


 6301 005a FB61     		str	r3, [r7, #28]
2180:Drivers/STM32H7xx_HAL_Driver/Src/stm32h7xx_hal_tim_ex.c ****       bkin_enable_bitpos = TIM1_AF1_BKINE_Pos;
 6302              		.loc 1 2180 26
 6303 005c 0023     		movs	r3, #0
 6304 005e 7B61     		str	r3, [r7, #20]
2181:Drivers/STM32H7xx_HAL_Driver/Src/stm32h7xx_hal_tim_ex.c ****       bkin_polarity_mask = TIM1_AF1_BKINP;
 6305              		.loc 1 2181 26
 6306 0060 4FF40073 		mov	r3, #512
 6307 0064 BB61     		str	r3, [r7, #24]
2182:Drivers/STM32H7xx_HAL_Driver/Src/stm32h7xx_hal_tim_ex.c ****       bkin_polarity_bitpos = TIM1_AF1_BKINP_Pos;
 6308              		.loc 1 2182 28
 6309 0066 0923     		movs	r3, #9
 6310 0068 3B61     		str	r3, [r7, #16]
2183:Drivers/STM32H7xx_HAL_Driver/Src/stm32h7xx_hal_tim_ex.c ****       break;
 6311              		.loc 1 2183 7
 6312 006a 26E0     		b	.L390
 6313              	.L388:
2184:Drivers/STM32H7xx_HAL_Driver/Src/stm32h7xx_hal_tim_ex.c ****     }
2185:Drivers/STM32H7xx_HAL_Driver/Src/stm32h7xx_hal_tim_ex.c ****     case TIM_BREAKINPUTSOURCE_COMP1:
2186:Drivers/STM32H7xx_HAL_Driver/Src/stm32h7xx_hal_tim_ex.c ****     {
2187:Drivers/STM32H7xx_HAL_Driver/Src/stm32h7xx_hal_tim_ex.c ****       bkin_enable_mask = TIM1_AF1_BKCMP1E;
 6314              		.loc 1 2187 24
 6315 006c 0223     		movs	r3, #2
 6316 006e FB61     		str	r3, [r7, #28]
2188:Drivers/STM32H7xx_HAL_Driver/Src/stm32h7xx_hal_tim_ex.c ****       bkin_enable_bitpos = TIM1_AF1_BKCMP1E_Pos;
 6317              		.loc 1 2188 26
 6318 0070 0123     		movs	r3, #1
 6319 0072 7B61     		str	r3, [r7, #20]
2189:Drivers/STM32H7xx_HAL_Driver/Src/stm32h7xx_hal_tim_ex.c ****       bkin_polarity_mask = TIM1_AF1_BKCMP1P;
 6320              		.loc 1 2189 26
 6321 0074 4FF48063 		mov	r3, #1024
 6322 0078 BB61     		str	r3, [r7, #24]
2190:Drivers/STM32H7xx_HAL_Driver/Src/stm32h7xx_hal_tim_ex.c ****       bkin_polarity_bitpos = TIM1_AF1_BKCMP1P_Pos;
 6323              		.loc 1 2190 28
 6324 007a 0A23     		movs	r3, #10
 6325 007c 3B61     		str	r3, [r7, #16]
2191:Drivers/STM32H7xx_HAL_Driver/Src/stm32h7xx_hal_tim_ex.c ****       break;
 6326              		.loc 1 2191 7
 6327 007e 1CE0     		b	.L390
 6328              	.L387:
2192:Drivers/STM32H7xx_HAL_Driver/Src/stm32h7xx_hal_tim_ex.c ****     }
2193:Drivers/STM32H7xx_HAL_Driver/Src/stm32h7xx_hal_tim_ex.c ****     case TIM_BREAKINPUTSOURCE_COMP2:
2194:Drivers/STM32H7xx_HAL_Driver/Src/stm32h7xx_hal_tim_ex.c ****     {
2195:Drivers/STM32H7xx_HAL_Driver/Src/stm32h7xx_hal_tim_ex.c ****       bkin_enable_mask = TIM1_AF1_BKCMP2E;
 6329              		.loc 1 2195 24
 6330 0080 0423     		movs	r3, #4
 6331 0082 FB61     		str	r3, [r7, #28]
2196:Drivers/STM32H7xx_HAL_Driver/Src/stm32h7xx_hal_tim_ex.c ****       bkin_enable_bitpos = TIM1_AF1_BKCMP2E_Pos;
 6332              		.loc 1 2196 26
 6333 0084 0223     		movs	r3, #2
 6334 0086 7B61     		str	r3, [r7, #20]
2197:Drivers/STM32H7xx_HAL_Driver/Src/stm32h7xx_hal_tim_ex.c ****       bkin_polarity_mask = TIM1_AF1_BKCMP2P;
 6335              		.loc 1 2197 26
 6336 0088 4FF40063 		mov	r3, #2048
 6337 008c BB61     		str	r3, [r7, #24]
2198:Drivers/STM32H7xx_HAL_Driver/Src/stm32h7xx_hal_tim_ex.c ****       bkin_polarity_bitpos = TIM1_AF1_BKCMP2P_Pos;
 6338              		.loc 1 2198 28
ARM GAS  /var/folders/d0/cymppscj10lcmm48h781wrc80000gn/T//ccIjALm5.s 			page 150


 6339 008e 0B23     		movs	r3, #11
 6340 0090 3B61     		str	r3, [r7, #16]
2199:Drivers/STM32H7xx_HAL_Driver/Src/stm32h7xx_hal_tim_ex.c ****       break;
 6341              		.loc 1 2199 7
 6342 0092 12E0     		b	.L390
 6343              	.L385:
2200:Drivers/STM32H7xx_HAL_Driver/Src/stm32h7xx_hal_tim_ex.c ****     }
2201:Drivers/STM32H7xx_HAL_Driver/Src/stm32h7xx_hal_tim_ex.c ****     case TIM_BREAKINPUTSOURCE_DFSDM1:
2202:Drivers/STM32H7xx_HAL_Driver/Src/stm32h7xx_hal_tim_ex.c ****     {
2203:Drivers/STM32H7xx_HAL_Driver/Src/stm32h7xx_hal_tim_ex.c ****       bkin_enable_mask = TIM1_AF1_BKDF1BK0E;
 6344              		.loc 1 2203 24
 6345 0094 4FF48073 		mov	r3, #256
 6346 0098 FB61     		str	r3, [r7, #28]
2204:Drivers/STM32H7xx_HAL_Driver/Src/stm32h7xx_hal_tim_ex.c ****       bkin_enable_bitpos = TIM1_AF1_BKDF1BK0E_Pos;
 6347              		.loc 1 2204 26
 6348 009a 0823     		movs	r3, #8
 6349 009c 7B61     		str	r3, [r7, #20]
2205:Drivers/STM32H7xx_HAL_Driver/Src/stm32h7xx_hal_tim_ex.c ****       bkin_polarity_mask = 0U;
 6350              		.loc 1 2205 26
 6351 009e 0023     		movs	r3, #0
 6352 00a0 BB61     		str	r3, [r7, #24]
2206:Drivers/STM32H7xx_HAL_Driver/Src/stm32h7xx_hal_tim_ex.c ****       bkin_polarity_bitpos = 0U;
 6353              		.loc 1 2206 28
 6354 00a2 0023     		movs	r3, #0
 6355 00a4 3B61     		str	r3, [r7, #16]
2207:Drivers/STM32H7xx_HAL_Driver/Src/stm32h7xx_hal_tim_ex.c ****       break;
 6356              		.loc 1 2207 7
 6357 00a6 08E0     		b	.L390
 6358              	.L384:
2208:Drivers/STM32H7xx_HAL_Driver/Src/stm32h7xx_hal_tim_ex.c ****     }
2209:Drivers/STM32H7xx_HAL_Driver/Src/stm32h7xx_hal_tim_ex.c **** 
2210:Drivers/STM32H7xx_HAL_Driver/Src/stm32h7xx_hal_tim_ex.c ****     default:
2211:Drivers/STM32H7xx_HAL_Driver/Src/stm32h7xx_hal_tim_ex.c ****     {
2212:Drivers/STM32H7xx_HAL_Driver/Src/stm32h7xx_hal_tim_ex.c ****       bkin_enable_mask = 0U;
 6359              		.loc 1 2212 24
 6360 00a8 0023     		movs	r3, #0
 6361 00aa FB61     		str	r3, [r7, #28]
2213:Drivers/STM32H7xx_HAL_Driver/Src/stm32h7xx_hal_tim_ex.c ****       bkin_polarity_mask = 0U;
 6362              		.loc 1 2213 26
 6363 00ac 0023     		movs	r3, #0
 6364 00ae BB61     		str	r3, [r7, #24]
2214:Drivers/STM32H7xx_HAL_Driver/Src/stm32h7xx_hal_tim_ex.c ****       bkin_enable_bitpos = 0U;
 6365              		.loc 1 2214 26
 6366 00b0 0023     		movs	r3, #0
 6367 00b2 7B61     		str	r3, [r7, #20]
2215:Drivers/STM32H7xx_HAL_Driver/Src/stm32h7xx_hal_tim_ex.c ****       bkin_polarity_bitpos = 0U;
 6368              		.loc 1 2215 28
 6369 00b4 0023     		movs	r3, #0
 6370 00b6 3B61     		str	r3, [r7, #16]
2216:Drivers/STM32H7xx_HAL_Driver/Src/stm32h7xx_hal_tim_ex.c ****       break;
 6371              		.loc 1 2216 7
 6372 00b8 00BF     		nop
 6373              	.L390:
2217:Drivers/STM32H7xx_HAL_Driver/Src/stm32h7xx_hal_tim_ex.c ****     }
2218:Drivers/STM32H7xx_HAL_Driver/Src/stm32h7xx_hal_tim_ex.c ****   }
2219:Drivers/STM32H7xx_HAL_Driver/Src/stm32h7xx_hal_tim_ex.c **** 
2220:Drivers/STM32H7xx_HAL_Driver/Src/stm32h7xx_hal_tim_ex.c ****   switch (BreakInput)
ARM GAS  /var/folders/d0/cymppscj10lcmm48h781wrc80000gn/T//ccIjALm5.s 			page 151


 6374              		.loc 1 2220 3
 6375 00ba BB68     		ldr	r3, [r7, #8]
 6376 00bc 012B     		cmp	r3, #1
 6377 00be 03D0     		beq	.L391
 6378 00c0 BB68     		ldr	r3, [r7, #8]
 6379 00c2 022B     		cmp	r3, #2
 6380 00c4 29D0     		beq	.L392
 6381 00c6 51E0     		b	.L397
 6382              	.L391:
2221:Drivers/STM32H7xx_HAL_Driver/Src/stm32h7xx_hal_tim_ex.c ****   {
2222:Drivers/STM32H7xx_HAL_Driver/Src/stm32h7xx_hal_tim_ex.c ****     case TIM_BREAKINPUT_BRK:
2223:Drivers/STM32H7xx_HAL_Driver/Src/stm32h7xx_hal_tim_ex.c ****     {
2224:Drivers/STM32H7xx_HAL_Driver/Src/stm32h7xx_hal_tim_ex.c ****       /* Get the TIMx_AF1 register value */
2225:Drivers/STM32H7xx_HAL_Driver/Src/stm32h7xx_hal_tim_ex.c ****       tmporx = htim->Instance->AF1;
 6383              		.loc 1 2225 20
 6384 00c8 FB68     		ldr	r3, [r7, #12]
 6385 00ca 1B68     		ldr	r3, [r3]
 6386              		.loc 1 2225 14
 6387 00cc 1B6E     		ldr	r3, [r3, #96]
 6388 00ce 3B62     		str	r3, [r7, #32]
2226:Drivers/STM32H7xx_HAL_Driver/Src/stm32h7xx_hal_tim_ex.c **** 
2227:Drivers/STM32H7xx_HAL_Driver/Src/stm32h7xx_hal_tim_ex.c ****       /* Enable the break input */
2228:Drivers/STM32H7xx_HAL_Driver/Src/stm32h7xx_hal_tim_ex.c ****       tmporx &= ~bkin_enable_mask;
 6389              		.loc 1 2228 17
 6390 00d0 FB69     		ldr	r3, [r7, #28]
 6391 00d2 DB43     		mvns	r3, r3
 6392              		.loc 1 2228 14
 6393 00d4 3A6A     		ldr	r2, [r7, #32]
 6394 00d6 1340     		ands	r3, r3, r2
 6395 00d8 3B62     		str	r3, [r7, #32]
2229:Drivers/STM32H7xx_HAL_Driver/Src/stm32h7xx_hal_tim_ex.c ****       tmporx |= (sBreakInputConfig->Enable << bkin_enable_bitpos) & bkin_enable_mask;
 6396              		.loc 1 2229 35
 6397 00da 7B68     		ldr	r3, [r7, #4]
 6398 00dc 5A68     		ldr	r2, [r3, #4]
 6399              		.loc 1 2229 44
 6400 00de 7B69     		ldr	r3, [r7, #20]
 6401 00e0 9A40     		lsls	r2, r2, r3
 6402              		.loc 1 2229 67
 6403 00e2 FB69     		ldr	r3, [r7, #28]
 6404 00e4 1340     		ands	r3, r3, r2
 6405              		.loc 1 2229 14
 6406 00e6 3A6A     		ldr	r2, [r7, #32]
 6407 00e8 1343     		orrs	r3, r3, r2
 6408 00ea 3B62     		str	r3, [r7, #32]
2230:Drivers/STM32H7xx_HAL_Driver/Src/stm32h7xx_hal_tim_ex.c **** 
2231:Drivers/STM32H7xx_HAL_Driver/Src/stm32h7xx_hal_tim_ex.c ****       /* Set the break input polarity */
2232:Drivers/STM32H7xx_HAL_Driver/Src/stm32h7xx_hal_tim_ex.c ****       if (sBreakInputConfig->Source != TIM_BREAKINPUTSOURCE_DFSDM1)
 6409              		.loc 1 2232 28
 6410 00ec 7B68     		ldr	r3, [r7, #4]
 6411 00ee 1B68     		ldr	r3, [r3]
 6412              		.loc 1 2232 10
 6413 00f0 082B     		cmp	r3, #8
 6414 00f2 0DD0     		beq	.L394
2233:Drivers/STM32H7xx_HAL_Driver/Src/stm32h7xx_hal_tim_ex.c ****       {
2234:Drivers/STM32H7xx_HAL_Driver/Src/stm32h7xx_hal_tim_ex.c ****         tmporx &= ~bkin_polarity_mask;
 6415              		.loc 1 2234 19
 6416 00f4 BB69     		ldr	r3, [r7, #24]
ARM GAS  /var/folders/d0/cymppscj10lcmm48h781wrc80000gn/T//ccIjALm5.s 			page 152


 6417 00f6 DB43     		mvns	r3, r3
 6418              		.loc 1 2234 16
 6419 00f8 3A6A     		ldr	r2, [r7, #32]
 6420 00fa 1340     		ands	r3, r3, r2
 6421 00fc 3B62     		str	r3, [r7, #32]
2235:Drivers/STM32H7xx_HAL_Driver/Src/stm32h7xx_hal_tim_ex.c ****         tmporx |= (sBreakInputConfig->Polarity << bkin_polarity_bitpos) & bkin_polarity_mask;
 6422              		.loc 1 2235 37
 6423 00fe 7B68     		ldr	r3, [r7, #4]
 6424 0100 9A68     		ldr	r2, [r3, #8]
 6425              		.loc 1 2235 48
 6426 0102 3B69     		ldr	r3, [r7, #16]
 6427 0104 9A40     		lsls	r2, r2, r3
 6428              		.loc 1 2235 73
 6429 0106 BB69     		ldr	r3, [r7, #24]
 6430 0108 1340     		ands	r3, r3, r2
 6431              		.loc 1 2235 16
 6432 010a 3A6A     		ldr	r2, [r7, #32]
 6433 010c 1343     		orrs	r3, r3, r2
 6434 010e 3B62     		str	r3, [r7, #32]
 6435              	.L394:
2236:Drivers/STM32H7xx_HAL_Driver/Src/stm32h7xx_hal_tim_ex.c ****       }
2237:Drivers/STM32H7xx_HAL_Driver/Src/stm32h7xx_hal_tim_ex.c **** 
2238:Drivers/STM32H7xx_HAL_Driver/Src/stm32h7xx_hal_tim_ex.c ****       /* Set TIMx_AF1 */
2239:Drivers/STM32H7xx_HAL_Driver/Src/stm32h7xx_hal_tim_ex.c ****       htim->Instance->AF1 = tmporx;
 6436              		.loc 1 2239 11
 6437 0110 FB68     		ldr	r3, [r7, #12]
 6438 0112 1B68     		ldr	r3, [r3]
 6439              		.loc 1 2239 27
 6440 0114 3A6A     		ldr	r2, [r7, #32]
 6441 0116 1A66     		str	r2, [r3, #96]
2240:Drivers/STM32H7xx_HAL_Driver/Src/stm32h7xx_hal_tim_ex.c ****       break;
 6442              		.loc 1 2240 7
 6443 0118 2CE0     		b	.L395
 6444              	.L392:
2241:Drivers/STM32H7xx_HAL_Driver/Src/stm32h7xx_hal_tim_ex.c ****     }
2242:Drivers/STM32H7xx_HAL_Driver/Src/stm32h7xx_hal_tim_ex.c ****     case TIM_BREAKINPUT_BRK2:
2243:Drivers/STM32H7xx_HAL_Driver/Src/stm32h7xx_hal_tim_ex.c ****     {
2244:Drivers/STM32H7xx_HAL_Driver/Src/stm32h7xx_hal_tim_ex.c ****       /* Get the TIMx_AF2 register value */
2245:Drivers/STM32H7xx_HAL_Driver/Src/stm32h7xx_hal_tim_ex.c ****       tmporx = htim->Instance->AF2;
 6445              		.loc 1 2245 20
 6446 011a FB68     		ldr	r3, [r7, #12]
 6447 011c 1B68     		ldr	r3, [r3]
 6448              		.loc 1 2245 14
 6449 011e 5B6E     		ldr	r3, [r3, #100]
 6450 0120 3B62     		str	r3, [r7, #32]
2246:Drivers/STM32H7xx_HAL_Driver/Src/stm32h7xx_hal_tim_ex.c **** 
2247:Drivers/STM32H7xx_HAL_Driver/Src/stm32h7xx_hal_tim_ex.c ****       /* Enable the break input */
2248:Drivers/STM32H7xx_HAL_Driver/Src/stm32h7xx_hal_tim_ex.c ****       tmporx &= ~bkin_enable_mask;
 6451              		.loc 1 2248 17
 6452 0122 FB69     		ldr	r3, [r7, #28]
 6453 0124 DB43     		mvns	r3, r3
 6454              		.loc 1 2248 14
 6455 0126 3A6A     		ldr	r2, [r7, #32]
 6456 0128 1340     		ands	r3, r3, r2
 6457 012a 3B62     		str	r3, [r7, #32]
2249:Drivers/STM32H7xx_HAL_Driver/Src/stm32h7xx_hal_tim_ex.c ****       tmporx |= (sBreakInputConfig->Enable << bkin_enable_bitpos) & bkin_enable_mask;
 6458              		.loc 1 2249 35
ARM GAS  /var/folders/d0/cymppscj10lcmm48h781wrc80000gn/T//ccIjALm5.s 			page 153


 6459 012c 7B68     		ldr	r3, [r7, #4]
 6460 012e 5A68     		ldr	r2, [r3, #4]
 6461              		.loc 1 2249 44
 6462 0130 7B69     		ldr	r3, [r7, #20]
 6463 0132 9A40     		lsls	r2, r2, r3
 6464              		.loc 1 2249 67
 6465 0134 FB69     		ldr	r3, [r7, #28]
 6466 0136 1340     		ands	r3, r3, r2
 6467              		.loc 1 2249 14
 6468 0138 3A6A     		ldr	r2, [r7, #32]
 6469 013a 1343     		orrs	r3, r3, r2
 6470 013c 3B62     		str	r3, [r7, #32]
2250:Drivers/STM32H7xx_HAL_Driver/Src/stm32h7xx_hal_tim_ex.c **** 
2251:Drivers/STM32H7xx_HAL_Driver/Src/stm32h7xx_hal_tim_ex.c ****       /* Set the break input polarity */
2252:Drivers/STM32H7xx_HAL_Driver/Src/stm32h7xx_hal_tim_ex.c ****       if (sBreakInputConfig->Source != TIM_BREAKINPUTSOURCE_DFSDM1)
 6471              		.loc 1 2252 28
 6472 013e 7B68     		ldr	r3, [r7, #4]
 6473 0140 1B68     		ldr	r3, [r3]
 6474              		.loc 1 2252 10
 6475 0142 082B     		cmp	r3, #8
 6476 0144 0DD0     		beq	.L396
2253:Drivers/STM32H7xx_HAL_Driver/Src/stm32h7xx_hal_tim_ex.c ****       {
2254:Drivers/STM32H7xx_HAL_Driver/Src/stm32h7xx_hal_tim_ex.c ****         tmporx &= ~bkin_polarity_mask;
 6477              		.loc 1 2254 19
 6478 0146 BB69     		ldr	r3, [r7, #24]
 6479 0148 DB43     		mvns	r3, r3
 6480              		.loc 1 2254 16
 6481 014a 3A6A     		ldr	r2, [r7, #32]
 6482 014c 1340     		ands	r3, r3, r2
 6483 014e 3B62     		str	r3, [r7, #32]
2255:Drivers/STM32H7xx_HAL_Driver/Src/stm32h7xx_hal_tim_ex.c ****         tmporx |= (sBreakInputConfig->Polarity << bkin_polarity_bitpos) & bkin_polarity_mask;
 6484              		.loc 1 2255 37
 6485 0150 7B68     		ldr	r3, [r7, #4]
 6486 0152 9A68     		ldr	r2, [r3, #8]
 6487              		.loc 1 2255 48
 6488 0154 3B69     		ldr	r3, [r7, #16]
 6489 0156 9A40     		lsls	r2, r2, r3
 6490              		.loc 1 2255 73
 6491 0158 BB69     		ldr	r3, [r7, #24]
 6492 015a 1340     		ands	r3, r3, r2
 6493              		.loc 1 2255 16
 6494 015c 3A6A     		ldr	r2, [r7, #32]
 6495 015e 1343     		orrs	r3, r3, r2
 6496 0160 3B62     		str	r3, [r7, #32]
 6497              	.L396:
2256:Drivers/STM32H7xx_HAL_Driver/Src/stm32h7xx_hal_tim_ex.c ****       }
2257:Drivers/STM32H7xx_HAL_Driver/Src/stm32h7xx_hal_tim_ex.c **** 
2258:Drivers/STM32H7xx_HAL_Driver/Src/stm32h7xx_hal_tim_ex.c ****       /* Set TIMx_AF2 */
2259:Drivers/STM32H7xx_HAL_Driver/Src/stm32h7xx_hal_tim_ex.c ****       htim->Instance->AF2 = tmporx;
 6498              		.loc 1 2259 11
 6499 0162 FB68     		ldr	r3, [r7, #12]
 6500 0164 1B68     		ldr	r3, [r3]
 6501              		.loc 1 2259 27
 6502 0166 3A6A     		ldr	r2, [r7, #32]
 6503 0168 5A66     		str	r2, [r3, #100]
2260:Drivers/STM32H7xx_HAL_Driver/Src/stm32h7xx_hal_tim_ex.c ****       break;
 6504              		.loc 1 2260 7
ARM GAS  /var/folders/d0/cymppscj10lcmm48h781wrc80000gn/T//ccIjALm5.s 			page 154


 6505 016a 03E0     		b	.L395
 6506              	.L397:
2261:Drivers/STM32H7xx_HAL_Driver/Src/stm32h7xx_hal_tim_ex.c ****     }
2262:Drivers/STM32H7xx_HAL_Driver/Src/stm32h7xx_hal_tim_ex.c ****     default:
2263:Drivers/STM32H7xx_HAL_Driver/Src/stm32h7xx_hal_tim_ex.c ****       status = HAL_ERROR;
 6507              		.loc 1 2263 14
 6508 016c 0123     		movs	r3, #1
 6509 016e 87F82730 		strb	r3, [r7, #39]
2264:Drivers/STM32H7xx_HAL_Driver/Src/stm32h7xx_hal_tim_ex.c ****       break;
 6510              		.loc 1 2264 7
 6511 0172 00BF     		nop
 6512              	.L395:
2265:Drivers/STM32H7xx_HAL_Driver/Src/stm32h7xx_hal_tim_ex.c ****   }
2266:Drivers/STM32H7xx_HAL_Driver/Src/stm32h7xx_hal_tim_ex.c **** 
2267:Drivers/STM32H7xx_HAL_Driver/Src/stm32h7xx_hal_tim_ex.c ****   __HAL_UNLOCK(htim);
 6513              		.loc 1 2267 3
 6514 0174 FB68     		ldr	r3, [r7, #12]
 6515 0176 0022     		movs	r2, #0
 6516 0178 83F83C20 		strb	r2, [r3, #60]
2268:Drivers/STM32H7xx_HAL_Driver/Src/stm32h7xx_hal_tim_ex.c **** 
2269:Drivers/STM32H7xx_HAL_Driver/Src/stm32h7xx_hal_tim_ex.c ****   return status;
 6517              		.loc 1 2269 10
 6518 017c 97F82730 		ldrb	r3, [r7, #39]	@ zero_extendqisi2
 6519              	.L383:
2270:Drivers/STM32H7xx_HAL_Driver/Src/stm32h7xx_hal_tim_ex.c **** }
 6520              		.loc 1 2270 1
 6521 0180 1846     		mov	r0, r3
 6522 0182 2C37     		adds	r7, r7, #44
 6523              	.LCFI165:
 6524              		.cfi_def_cfa_offset 4
 6525 0184 BD46     		mov	sp, r7
 6526              	.LCFI166:
 6527              		.cfi_def_cfa_register 13
 6528              		@ sp needed
 6529 0186 5DF8047B 		ldr	r7, [sp], #4
 6530              	.LCFI167:
 6531              		.cfi_restore 7
 6532              		.cfi_def_cfa_offset 0
 6533 018a 7047     		bx	lr
 6534              		.cfi_endproc
 6535              	.LFE364:
 6537              		.section	.text.HAL_TIMEx_RemapConfig,"ax",%progbits
 6538              		.align	1
 6539              		.global	HAL_TIMEx_RemapConfig
 6540              		.syntax unified
 6541              		.thumb
 6542              		.thumb_func
 6544              	HAL_TIMEx_RemapConfig:
 6545              	.LFB365:
2271:Drivers/STM32H7xx_HAL_Driver/Src/stm32h7xx_hal_tim_ex.c **** #endif /*TIM_BREAK_INPUT_SUPPORT */
2272:Drivers/STM32H7xx_HAL_Driver/Src/stm32h7xx_hal_tim_ex.c **** 
2273:Drivers/STM32H7xx_HAL_Driver/Src/stm32h7xx_hal_tim_ex.c **** /**
2274:Drivers/STM32H7xx_HAL_Driver/Src/stm32h7xx_hal_tim_ex.c ****   * @brief  Configures the TIMx Remapping input capabilities.
2275:Drivers/STM32H7xx_HAL_Driver/Src/stm32h7xx_hal_tim_ex.c ****   * @param  htim TIM handle.
2276:Drivers/STM32H7xx_HAL_Driver/Src/stm32h7xx_hal_tim_ex.c ****   * @param  Remap specifies the TIM remapping source.
2277:Drivers/STM32H7xx_HAL_Driver/Src/stm32h7xx_hal_tim_ex.c ****   *         For TIM1, the parameter is one of the following values:
2278:Drivers/STM32H7xx_HAL_Driver/Src/stm32h7xx_hal_tim_ex.c ****   *            @arg TIM_TIM1_ETR_GPIO:               TIM1_ETR is connected to GPIO
ARM GAS  /var/folders/d0/cymppscj10lcmm48h781wrc80000gn/T//ccIjALm5.s 			page 155


2279:Drivers/STM32H7xx_HAL_Driver/Src/stm32h7xx_hal_tim_ex.c ****   *            @arg TIM_TIM1_ETR_COMP1:              TIM1_ETR is connected to COMP1 output
2280:Drivers/STM32H7xx_HAL_Driver/Src/stm32h7xx_hal_tim_ex.c ****   *            @arg TIM_TIM1_ETR_COMP2:              TIM1_ETR is connected to COMP2 output
2281:Drivers/STM32H7xx_HAL_Driver/Src/stm32h7xx_hal_tim_ex.c ****   *            @arg TIM_TIM1_ETR_ADC1_AWD1:          TIM1_ETR is connected to ADC1 AWD1
2282:Drivers/STM32H7xx_HAL_Driver/Src/stm32h7xx_hal_tim_ex.c ****   *            @arg TIM_TIM1_ETR_ADC1_AWD2:          TIM1_ETR is connected to ADC1 AWD2
2283:Drivers/STM32H7xx_HAL_Driver/Src/stm32h7xx_hal_tim_ex.c ****   *            @arg TIM_TIM1_ETR_ADC1_AWD3:          TIM1_ETR is connected to ADC1 AWD3
2284:Drivers/STM32H7xx_HAL_Driver/Src/stm32h7xx_hal_tim_ex.c ****   *            @arg TIM_TIM1_ETR_ADC3_AWD1:          TIM1_ETR is connected to ADC3 AWD1
2285:Drivers/STM32H7xx_HAL_Driver/Src/stm32h7xx_hal_tim_ex.c ****   *            @arg TIM_TIM1_ETR_ADC3_AWD2:          TIM1_ETR is connected to ADC3 AWD2
2286:Drivers/STM32H7xx_HAL_Driver/Src/stm32h7xx_hal_tim_ex.c ****   *            @arg TIM_TIM1_ETR_ADC3_AWD3:          TIM1_ETR is connected to ADC3 AWD3
2287:Drivers/STM32H7xx_HAL_Driver/Src/stm32h7xx_hal_tim_ex.c ****   *
2288:Drivers/STM32H7xx_HAL_Driver/Src/stm32h7xx_hal_tim_ex.c ****   *         For TIM2, the parameter is one of the following values:
2289:Drivers/STM32H7xx_HAL_Driver/Src/stm32h7xx_hal_tim_ex.c ****   *            @arg TIM_TIM2_ETR_GPIO:               TIM2_ETR is connected to GPIO
2290:Drivers/STM32H7xx_HAL_Driver/Src/stm32h7xx_hal_tim_ex.c ****   *            @arg TIM_TIM2_ETR_COMP1:              TIM2_ETR is connected to COMP1 output
2291:Drivers/STM32H7xx_HAL_Driver/Src/stm32h7xx_hal_tim_ex.c ****   *            @arg TIM_TIM2_ETR_COMP2:              TIM2_ETR is connected to COMP2 output
2292:Drivers/STM32H7xx_HAL_Driver/Src/stm32h7xx_hal_tim_ex.c ****   *            @arg TIM_TIM2_ETR_LSE:                TIM2_ETR is connected to LSE
2293:Drivers/STM32H7xx_HAL_Driver/Src/stm32h7xx_hal_tim_ex.c ****   *            @arg TIM_TIM2_ETR_SAI1_FSA:           TIM2_ETR is connected to SAI1 FS_A
2294:Drivers/STM32H7xx_HAL_Driver/Src/stm32h7xx_hal_tim_ex.c ****   *            @arg TIM_TIM2_ETR_SAI1_FSB:           TIM2_ETR is connected to SAI1 FS_B
2295:Drivers/STM32H7xx_HAL_Driver/Src/stm32h7xx_hal_tim_ex.c ****   *
2296:Drivers/STM32H7xx_HAL_Driver/Src/stm32h7xx_hal_tim_ex.c ****   *         For TIM3, the parameter is one of the following values:
2297:Drivers/STM32H7xx_HAL_Driver/Src/stm32h7xx_hal_tim_ex.c ****   *            @arg TIM_TIM3_ETR_GPIO:               TIM3_ETR is connected to GPIO
2298:Drivers/STM32H7xx_HAL_Driver/Src/stm32h7xx_hal_tim_ex.c ****   *            @arg TIM_TIM3_ETR_COMP1:              TIM3_ETR is connected to COMP1 output
2299:Drivers/STM32H7xx_HAL_Driver/Src/stm32h7xx_hal_tim_ex.c ****   *
2300:Drivers/STM32H7xx_HAL_Driver/Src/stm32h7xx_hal_tim_ex.c ****   *         For TIM5, the parameter is one of the following values:
2301:Drivers/STM32H7xx_HAL_Driver/Src/stm32h7xx_hal_tim_ex.c ****   *            @arg TIM_TIM5_ETR_GPIO:               TIM5_ETR is connected to GPIO
2302:Drivers/STM32H7xx_HAL_Driver/Src/stm32h7xx_hal_tim_ex.c ****   *            @arg TIM_TIM5_ETR_SAI2_FSA:           TIM5_ETR is connected to SAI2 FS_A (*)
2303:Drivers/STM32H7xx_HAL_Driver/Src/stm32h7xx_hal_tim_ex.c ****   *            @arg TIM_TIM5_ETR_SAI2_FSB:           TIM5_ETR is connected to SAI2 FS_B (*)
2304:Drivers/STM32H7xx_HAL_Driver/Src/stm32h7xx_hal_tim_ex.c ****   *            @arg TIM_TIM5_ETR_SAI4_FSA:           TIM5_ETR is connected to SAI2 FS_A (*)
2305:Drivers/STM32H7xx_HAL_Driver/Src/stm32h7xx_hal_tim_ex.c ****   *            @arg TIM_TIM5_ETR_SAI4_FSB:           TIM5_ETR is connected to SAI2 FS_B (*)
2306:Drivers/STM32H7xx_HAL_Driver/Src/stm32h7xx_hal_tim_ex.c ****   *
2307:Drivers/STM32H7xx_HAL_Driver/Src/stm32h7xx_hal_tim_ex.c ****   *         For TIM8, the parameter is one of the following values:
2308:Drivers/STM32H7xx_HAL_Driver/Src/stm32h7xx_hal_tim_ex.c ****   *            @arg TIM_TIM8_ETR_GPIO:               TIM8_ETR is connected to GPIO
2309:Drivers/STM32H7xx_HAL_Driver/Src/stm32h7xx_hal_tim_ex.c ****   *            @arg TIM_TIM8_ETR_COMP1:              TIM8_ETR is connected to COMP1 output
2310:Drivers/STM32H7xx_HAL_Driver/Src/stm32h7xx_hal_tim_ex.c ****   *            @arg TIM_TIM8_ETR_COMP2:              TIM8_ETR is connected to COMP2 output
2311:Drivers/STM32H7xx_HAL_Driver/Src/stm32h7xx_hal_tim_ex.c ****   *            @arg TIM_TIM8_ETR_ADC2_AWD1:          TIM8_ETR is connected to ADC2 AWD1
2312:Drivers/STM32H7xx_HAL_Driver/Src/stm32h7xx_hal_tim_ex.c ****   *            @arg TIM_TIM8_ETR_ADC2_AWD2:          TIM8_ETR is connected to ADC2 AWD2
2313:Drivers/STM32H7xx_HAL_Driver/Src/stm32h7xx_hal_tim_ex.c ****   *            @arg TIM_TIM8_ETR_ADC2_AWD3:          TIM8_ETR is connected to ADC2 AWD3
2314:Drivers/STM32H7xx_HAL_Driver/Src/stm32h7xx_hal_tim_ex.c ****   *            @arg TIM_TIM8_ETR_ADC3_AWD1:          TIM8_ETR is connected to ADC3 AWD1
2315:Drivers/STM32H7xx_HAL_Driver/Src/stm32h7xx_hal_tim_ex.c ****   *            @arg TIM_TIM8_ETR_ADC3_AWD2:          TIM8_ETR is connected to ADC3 AWD2
2316:Drivers/STM32H7xx_HAL_Driver/Src/stm32h7xx_hal_tim_ex.c ****   *            @arg TIM_TIM8_ETR_ADC3_AWD3:          TIM8_ETR is connected to ADC3 AWD3
2317:Drivers/STM32H7xx_HAL_Driver/Src/stm32h7xx_hal_tim_ex.c ****   *
2318:Drivers/STM32H7xx_HAL_Driver/Src/stm32h7xx_hal_tim_ex.c ****   *         For TIM23, the parameter is one of the following values: (*)
2319:Drivers/STM32H7xx_HAL_Driver/Src/stm32h7xx_hal_tim_ex.c ****   *            @arg TIM_TIM23_ETR_GPIO               TIM23_ETR is connected to GPIO
2320:Drivers/STM32H7xx_HAL_Driver/Src/stm32h7xx_hal_tim_ex.c ****   *            @arg TIM_TIM23_ETR_COMP1              TIM23_ETR is connected to COMP1 output
2321:Drivers/STM32H7xx_HAL_Driver/Src/stm32h7xx_hal_tim_ex.c ****   *            @arg TIM_TIM23_ETR_COMP2              TIM23_ETR is connected to COMP2 output
2322:Drivers/STM32H7xx_HAL_Driver/Src/stm32h7xx_hal_tim_ex.c ****   *
2323:Drivers/STM32H7xx_HAL_Driver/Src/stm32h7xx_hal_tim_ex.c ****   *         For TIM24, the parameter is one of the following values: (*)
2324:Drivers/STM32H7xx_HAL_Driver/Src/stm32h7xx_hal_tim_ex.c ****   *           @arg TIM_TIM24_ETR_GPIO                TIM24_ETR is connected to GPIO
2325:Drivers/STM32H7xx_HAL_Driver/Src/stm32h7xx_hal_tim_ex.c ****   *           @arg TIM_TIM24_ETR_SAI4_FSA            TIM24_ETR is connected to SAI4 FS_A
2326:Drivers/STM32H7xx_HAL_Driver/Src/stm32h7xx_hal_tim_ex.c ****   *           @arg TIM_TIM24_ETR_SAI4_FSB            TIM24_ETR is connected to SAI4 FS_B
2327:Drivers/STM32H7xx_HAL_Driver/Src/stm32h7xx_hal_tim_ex.c ****   *           @arg TIM_TIM24_ETR_SAI1_FSA            TIM24_ETR is connected to SAI1 FS_A
2328:Drivers/STM32H7xx_HAL_Driver/Src/stm32h7xx_hal_tim_ex.c ****   *           @arg TIM_TIM24_ETR_SAI1_FSB            TIM24_ETR is connected to SAI1 FS_B
2329:Drivers/STM32H7xx_HAL_Driver/Src/stm32h7xx_hal_tim_ex.c ****   *
2330:Drivers/STM32H7xx_HAL_Driver/Src/stm32h7xx_hal_tim_ex.c ****   *         (*)  Value not defined in all devices.
2331:Drivers/STM32H7xx_HAL_Driver/Src/stm32h7xx_hal_tim_ex.c ****   *
2332:Drivers/STM32H7xx_HAL_Driver/Src/stm32h7xx_hal_tim_ex.c ****   * @retval HAL status
2333:Drivers/STM32H7xx_HAL_Driver/Src/stm32h7xx_hal_tim_ex.c ****   */
2334:Drivers/STM32H7xx_HAL_Driver/Src/stm32h7xx_hal_tim_ex.c **** HAL_StatusTypeDef HAL_TIMEx_RemapConfig(TIM_HandleTypeDef *htim, uint32_t Remap)
2335:Drivers/STM32H7xx_HAL_Driver/Src/stm32h7xx_hal_tim_ex.c **** {
ARM GAS  /var/folders/d0/cymppscj10lcmm48h781wrc80000gn/T//ccIjALm5.s 			page 156


 6546              		.loc 1 2335 1
 6547              		.cfi_startproc
 6548              		@ args = 0, pretend = 0, frame = 8
 6549              		@ frame_needed = 1, uses_anonymous_args = 0
 6550              		@ link register save eliminated.
 6551 0000 80B4     		push	{r7}
 6552              	.LCFI168:
 6553              		.cfi_def_cfa_offset 4
 6554              		.cfi_offset 7, -4
 6555 0002 83B0     		sub	sp, sp, #12
 6556              	.LCFI169:
 6557              		.cfi_def_cfa_offset 16
 6558 0004 00AF     		add	r7, sp, #0
 6559              	.LCFI170:
 6560              		.cfi_def_cfa_register 7
 6561 0006 7860     		str	r0, [r7, #4]
 6562 0008 3960     		str	r1, [r7]
2336:Drivers/STM32H7xx_HAL_Driver/Src/stm32h7xx_hal_tim_ex.c ****   /* Check parameters */
2337:Drivers/STM32H7xx_HAL_Driver/Src/stm32h7xx_hal_tim_ex.c ****   assert_param(IS_TIM_REMAP_INSTANCE(htim->Instance));
2338:Drivers/STM32H7xx_HAL_Driver/Src/stm32h7xx_hal_tim_ex.c ****   assert_param(IS_TIM_REMAP(Remap));
2339:Drivers/STM32H7xx_HAL_Driver/Src/stm32h7xx_hal_tim_ex.c **** 
2340:Drivers/STM32H7xx_HAL_Driver/Src/stm32h7xx_hal_tim_ex.c ****   __HAL_LOCK(htim);
 6563              		.loc 1 2340 3
 6564 000a 7B68     		ldr	r3, [r7, #4]
 6565 000c 93F83C30 		ldrb	r3, [r3, #60]	@ zero_extendqisi2
 6566 0010 012B     		cmp	r3, #1
 6567 0012 01D1     		bne	.L399
 6568              		.loc 1 2340 3 is_stmt 0 discriminator 1
 6569 0014 0223     		movs	r3, #2
 6570 0016 12E0     		b	.L400
 6571              	.L399:
 6572              		.loc 1 2340 3 discriminator 2
 6573 0018 7B68     		ldr	r3, [r7, #4]
 6574 001a 0122     		movs	r2, #1
 6575 001c 83F83C20 		strb	r2, [r3, #60]
2341:Drivers/STM32H7xx_HAL_Driver/Src/stm32h7xx_hal_tim_ex.c **** 
2342:Drivers/STM32H7xx_HAL_Driver/Src/stm32h7xx_hal_tim_ex.c ****   MODIFY_REG(htim->Instance->AF1, TIM1_AF1_ETRSEL_Msk, Remap);
 6576              		.loc 1 2342 3 is_stmt 1 discriminator 2
 6577 0020 7B68     		ldr	r3, [r7, #4]
 6578 0022 1B68     		ldr	r3, [r3]
 6579 0024 1B6E     		ldr	r3, [r3, #96]
 6580 0026 23F47031 		bic	r1, r3, #245760
 6581 002a 7B68     		ldr	r3, [r7, #4]
 6582 002c 1B68     		ldr	r3, [r3]
 6583 002e 3A68     		ldr	r2, [r7]
 6584 0030 0A43     		orrs	r2, r2, r1
 6585 0032 1A66     		str	r2, [r3, #96]
2343:Drivers/STM32H7xx_HAL_Driver/Src/stm32h7xx_hal_tim_ex.c **** 
2344:Drivers/STM32H7xx_HAL_Driver/Src/stm32h7xx_hal_tim_ex.c ****   __HAL_UNLOCK(htim);
 6586              		.loc 1 2344 3 discriminator 2
 6587 0034 7B68     		ldr	r3, [r7, #4]
 6588 0036 0022     		movs	r2, #0
 6589 0038 83F83C20 		strb	r2, [r3, #60]
2345:Drivers/STM32H7xx_HAL_Driver/Src/stm32h7xx_hal_tim_ex.c **** 
2346:Drivers/STM32H7xx_HAL_Driver/Src/stm32h7xx_hal_tim_ex.c ****   return HAL_OK;
 6590              		.loc 1 2346 10 discriminator 2
 6591 003c 0023     		movs	r3, #0
ARM GAS  /var/folders/d0/cymppscj10lcmm48h781wrc80000gn/T//ccIjALm5.s 			page 157


 6592              	.L400:
2347:Drivers/STM32H7xx_HAL_Driver/Src/stm32h7xx_hal_tim_ex.c **** }
 6593              		.loc 1 2347 1
 6594 003e 1846     		mov	r0, r3
 6595 0040 0C37     		adds	r7, r7, #12
 6596              	.LCFI171:
 6597              		.cfi_def_cfa_offset 4
 6598 0042 BD46     		mov	sp, r7
 6599              	.LCFI172:
 6600              		.cfi_def_cfa_register 13
 6601              		@ sp needed
 6602 0044 5DF8047B 		ldr	r7, [sp], #4
 6603              	.LCFI173:
 6604              		.cfi_restore 7
 6605              		.cfi_def_cfa_offset 0
 6606 0048 7047     		bx	lr
 6607              		.cfi_endproc
 6608              	.LFE365:
 6610              		.section	.text.HAL_TIMEx_TISelection,"ax",%progbits
 6611              		.align	1
 6612              		.global	HAL_TIMEx_TISelection
 6613              		.syntax unified
 6614              		.thumb
 6615              		.thumb_func
 6617              	HAL_TIMEx_TISelection:
 6618              	.LFB366:
2348:Drivers/STM32H7xx_HAL_Driver/Src/stm32h7xx_hal_tim_ex.c **** 
2349:Drivers/STM32H7xx_HAL_Driver/Src/stm32h7xx_hal_tim_ex.c **** /**
2350:Drivers/STM32H7xx_HAL_Driver/Src/stm32h7xx_hal_tim_ex.c ****   * @brief  Select the timer input source
2351:Drivers/STM32H7xx_HAL_Driver/Src/stm32h7xx_hal_tim_ex.c ****   * @param  htim TIM handle.
2352:Drivers/STM32H7xx_HAL_Driver/Src/stm32h7xx_hal_tim_ex.c ****   * @param  Channel specifies the TIM Channel
2353:Drivers/STM32H7xx_HAL_Driver/Src/stm32h7xx_hal_tim_ex.c ****   *          This parameter can be one of the following values:
2354:Drivers/STM32H7xx_HAL_Driver/Src/stm32h7xx_hal_tim_ex.c ****   *            @arg TIM_CHANNEL_1: TI1 input channel
2355:Drivers/STM32H7xx_HAL_Driver/Src/stm32h7xx_hal_tim_ex.c ****   *            @arg TIM_CHANNEL_2: TI2 input channel
2356:Drivers/STM32H7xx_HAL_Driver/Src/stm32h7xx_hal_tim_ex.c ****   *            @arg TIM_CHANNEL_3: TIM Channel 3
2357:Drivers/STM32H7xx_HAL_Driver/Src/stm32h7xx_hal_tim_ex.c ****   *            @arg TIM_CHANNEL_4: TIM Channel 4
2358:Drivers/STM32H7xx_HAL_Driver/Src/stm32h7xx_hal_tim_ex.c ****   * @param  TISelection parameter of the TIM_TISelectionStruct structure is detailed as follows:
2359:Drivers/STM32H7xx_HAL_Driver/Src/stm32h7xx_hal_tim_ex.c ****   *         For TIM1, the parameter is one of the following values:
2360:Drivers/STM32H7xx_HAL_Driver/Src/stm32h7xx_hal_tim_ex.c ****   *            @arg TIM_TIM1_TI1_GPIO:                TIM1 TI1 is connected to GPIO
2361:Drivers/STM32H7xx_HAL_Driver/Src/stm32h7xx_hal_tim_ex.c ****   *            @arg TIM_TIM1_TI1_COMP1:               TIM1 TI1 is connected to COMP1 output
2362:Drivers/STM32H7xx_HAL_Driver/Src/stm32h7xx_hal_tim_ex.c ****   *
2363:Drivers/STM32H7xx_HAL_Driver/Src/stm32h7xx_hal_tim_ex.c ****   *         For TIM2, the parameter is one of the following values:
2364:Drivers/STM32H7xx_HAL_Driver/Src/stm32h7xx_hal_tim_ex.c ****   *            @arg TIM_TIM2_TI4_GPIO:                TIM2 TI4 is connected to GPIO
2365:Drivers/STM32H7xx_HAL_Driver/Src/stm32h7xx_hal_tim_ex.c ****   *            @arg TIM_TIM2_TI4_COMP1:               TIM2 TI4 is connected to COMP1 output
2366:Drivers/STM32H7xx_HAL_Driver/Src/stm32h7xx_hal_tim_ex.c ****   *            @arg TIM_TIM2_TI4_COMP2:               TIM2 TI4 is connected to COMP2 output
2367:Drivers/STM32H7xx_HAL_Driver/Src/stm32h7xx_hal_tim_ex.c ****   *            @arg TIM_TIM2_TI4_COMP1_COMP2:         TIM2 TI4 is connected to logical OR between C
2368:Drivers/STM32H7xx_HAL_Driver/Src/stm32h7xx_hal_tim_ex.c ****   *
2369:Drivers/STM32H7xx_HAL_Driver/Src/stm32h7xx_hal_tim_ex.c ****   *         For TIM3, the parameter is one of the following values:
2370:Drivers/STM32H7xx_HAL_Driver/Src/stm32h7xx_hal_tim_ex.c ****   *            @arg TIM_TIM3_TI1_GPIO:                TIM3 TI1 is connected to GPIO
2371:Drivers/STM32H7xx_HAL_Driver/Src/stm32h7xx_hal_tim_ex.c ****   *            @arg TIM_TIM3_TI1_COMP1:               TIM3 TI1 is connected to COMP1 output
2372:Drivers/STM32H7xx_HAL_Driver/Src/stm32h7xx_hal_tim_ex.c ****   *            @arg TIM_TIM3_TI1_COMP2:               TIM3 TI1 is connected to COMP2 output
2373:Drivers/STM32H7xx_HAL_Driver/Src/stm32h7xx_hal_tim_ex.c ****   *            @arg TIM_TIM3_TI1_COMP1_COMP2:         TIM3 TI1 is connected to logical OR between C
2374:Drivers/STM32H7xx_HAL_Driver/Src/stm32h7xx_hal_tim_ex.c ****   *
2375:Drivers/STM32H7xx_HAL_Driver/Src/stm32h7xx_hal_tim_ex.c ****   *         For TIM5, the parameter is one of the following values:
2376:Drivers/STM32H7xx_HAL_Driver/Src/stm32h7xx_hal_tim_ex.c ****   *            @arg TIM_TIM5_TI1_GPIO:                TIM5 TI1 is connected to GPIO
2377:Drivers/STM32H7xx_HAL_Driver/Src/stm32h7xx_hal_tim_ex.c ****   *            @arg TIM_TIM5_TI1_CAN_TMP:             TIM5 TI1 is connected to CAN TMP
2378:Drivers/STM32H7xx_HAL_Driver/Src/stm32h7xx_hal_tim_ex.c ****   *            @arg TIM_TIM5_TI1_CAN_RTP:             TIM5 TI1 is connected to CAN RTP
ARM GAS  /var/folders/d0/cymppscj10lcmm48h781wrc80000gn/T//ccIjALm5.s 			page 158


2379:Drivers/STM32H7xx_HAL_Driver/Src/stm32h7xx_hal_tim_ex.c ****   *
2380:Drivers/STM32H7xx_HAL_Driver/Src/stm32h7xx_hal_tim_ex.c ****   *         For TIM8, the parameter is one of the following values:
2381:Drivers/STM32H7xx_HAL_Driver/Src/stm32h7xx_hal_tim_ex.c ****   *            @arg TIM_TIM8_TI1_GPIO:               TIM8 TI1 is connected to GPIO
2382:Drivers/STM32H7xx_HAL_Driver/Src/stm32h7xx_hal_tim_ex.c ****   *            @arg TIM_TIM8_TI1_COMP2:              TIM8 TI1 is connected to COMP2 output
2383:Drivers/STM32H7xx_HAL_Driver/Src/stm32h7xx_hal_tim_ex.c ****   *
2384:Drivers/STM32H7xx_HAL_Driver/Src/stm32h7xx_hal_tim_ex.c ****   *         For TIM12, the parameter can have the following values: (*)
2385:Drivers/STM32H7xx_HAL_Driver/Src/stm32h7xx_hal_tim_ex.c ****   *            @arg TIM_TIM12_TI1_GPIO:              TIM12 TI1 is connected to GPIO
2386:Drivers/STM32H7xx_HAL_Driver/Src/stm32h7xx_hal_tim_ex.c ****   *            @arg TIM_TIM12_TI1_SPDIF_FS:          TIM12 TI1 is connected to SPDIF FS
2387:Drivers/STM32H7xx_HAL_Driver/Src/stm32h7xx_hal_tim_ex.c ****   *
2388:Drivers/STM32H7xx_HAL_Driver/Src/stm32h7xx_hal_tim_ex.c ****   *         For TIM15, the parameter is one of the following values:
2389:Drivers/STM32H7xx_HAL_Driver/Src/stm32h7xx_hal_tim_ex.c ****   *            @arg TIM_TIM15_TI1_GPIO:              TIM15 TI1 is connected to GPIO
2390:Drivers/STM32H7xx_HAL_Driver/Src/stm32h7xx_hal_tim_ex.c ****   *            @arg TIM_TIM15_TI1_TIM2:              TIM15 TI1 is connected to TIM2 CH1
2391:Drivers/STM32H7xx_HAL_Driver/Src/stm32h7xx_hal_tim_ex.c ****   *            @arg TIM_TIM15_TI1_TIM3:              TIM15 TI1 is connected to TIM3 CH1
2392:Drivers/STM32H7xx_HAL_Driver/Src/stm32h7xx_hal_tim_ex.c ****   *            @arg TIM_TIM15_TI1_TIM4:              TIM15 TI1 is connected to TIM4 CH1
2393:Drivers/STM32H7xx_HAL_Driver/Src/stm32h7xx_hal_tim_ex.c ****   *            @arg TIM_TIM15_TI1_LSE:               TIM15 TI1 is connected to LSE
2394:Drivers/STM32H7xx_HAL_Driver/Src/stm32h7xx_hal_tim_ex.c ****   *            @arg TIM_TIM15_TI1_CSI:               TIM15 TI1 is connected to CSI
2395:Drivers/STM32H7xx_HAL_Driver/Src/stm32h7xx_hal_tim_ex.c ****   *            @arg TIM_TIM15_TI1_MCO2:              TIM15 TI1 is connected to MCO2
2396:Drivers/STM32H7xx_HAL_Driver/Src/stm32h7xx_hal_tim_ex.c ****   *            @arg TIM_TIM15_TI2_GPIO:              TIM15 TI2 is connected to GPIO
2397:Drivers/STM32H7xx_HAL_Driver/Src/stm32h7xx_hal_tim_ex.c ****   *            @arg TIM_TIM15_TI2_TIM2:              TIM15 TI2 is connected to TIM2 CH2
2398:Drivers/STM32H7xx_HAL_Driver/Src/stm32h7xx_hal_tim_ex.c ****   *            @arg TIM_TIM15_TI2_TIM3:              TIM15 TI2 is connected to TIM3 CH2
2399:Drivers/STM32H7xx_HAL_Driver/Src/stm32h7xx_hal_tim_ex.c ****   *            @arg TIM_TIM15_TI2_TIM4:              TIM15 TI2 is connected to TIM4 CH2
2400:Drivers/STM32H7xx_HAL_Driver/Src/stm32h7xx_hal_tim_ex.c ****   *
2401:Drivers/STM32H7xx_HAL_Driver/Src/stm32h7xx_hal_tim_ex.c ****   *         For TIM16, the parameter can have the following values:
2402:Drivers/STM32H7xx_HAL_Driver/Src/stm32h7xx_hal_tim_ex.c ****   *            @arg TIM_TIM16_TI1_GPIO:              TIM16 TI1 is connected to GPIO
2403:Drivers/STM32H7xx_HAL_Driver/Src/stm32h7xx_hal_tim_ex.c ****   *            @arg TIM_TIM16_TI1_LSI:               TIM16 TI1 is connected to LSI
2404:Drivers/STM32H7xx_HAL_Driver/Src/stm32h7xx_hal_tim_ex.c ****   *            @arg TIM_TIM16_TI1_LSE:               TIM16 TI1 is connected to LSE
2405:Drivers/STM32H7xx_HAL_Driver/Src/stm32h7xx_hal_tim_ex.c ****   *            @arg TIM_TIM16_TI1_RTC:               TIM16 TI1 is connected to RTC wakeup interrupt
2406:Drivers/STM32H7xx_HAL_Driver/Src/stm32h7xx_hal_tim_ex.c ****   *
2407:Drivers/STM32H7xx_HAL_Driver/Src/stm32h7xx_hal_tim_ex.c ****   *         For TIM17, the parameter can have the following values:
2408:Drivers/STM32H7xx_HAL_Driver/Src/stm32h7xx_hal_tim_ex.c ****   *            @arg TIM_TIM17_TI1_GPIO:              TIM17 TI1 is connected to GPIO
2409:Drivers/STM32H7xx_HAL_Driver/Src/stm32h7xx_hal_tim_ex.c ****   *            @arg TIM_TIM17_TI1_SPDIF_FS:          TIM17 TI1 is connected to SPDIF FS (*)
2410:Drivers/STM32H7xx_HAL_Driver/Src/stm32h7xx_hal_tim_ex.c ****   *            @arg TIM_TIM17_TI1_HSE_1MHZ:          TIM17 TI1 is connected to HSE 1MHz
2411:Drivers/STM32H7xx_HAL_Driver/Src/stm32h7xx_hal_tim_ex.c ****   *            @arg TIM_TIM17_TI1_MCO1:              TIM17 TI1 is connected to MCO1
2412:Drivers/STM32H7xx_HAL_Driver/Src/stm32h7xx_hal_tim_ex.c ****   *
2413:Drivers/STM32H7xx_HAL_Driver/Src/stm32h7xx_hal_tim_ex.c ****   *         For TIM23, the parameter can have the following values: (*)
2414:Drivers/STM32H7xx_HAL_Driver/Src/stm32h7xx_hal_tim_ex.c ****   *            @arg TIM_TIM23_TI4_GPIO               TIM23_TI4 is connected to GPIO
2415:Drivers/STM32H7xx_HAL_Driver/Src/stm32h7xx_hal_tim_ex.c ****   *            @arg TIM_TIM23_TI4_COMP1              TIM23_TI4 is connected to COMP1 output
2416:Drivers/STM32H7xx_HAL_Driver/Src/stm32h7xx_hal_tim_ex.c ****   *            @arg TIM_TIM23_TI4_COMP2              TIM23_TI4 is connected to COMP2 output
2417:Drivers/STM32H7xx_HAL_Driver/Src/stm32h7xx_hal_tim_ex.c ****   *            @arg TIM_TIM23_TI4_COMP1_COMP2        TIM23_TI4 is connected to COMP2 output
2418:Drivers/STM32H7xx_HAL_Driver/Src/stm32h7xx_hal_tim_ex.c ****   *
2419:Drivers/STM32H7xx_HAL_Driver/Src/stm32h7xx_hal_tim_ex.c ****   *         For TIM24, the parameter can have the following values: (*)
2420:Drivers/STM32H7xx_HAL_Driver/Src/stm32h7xx_hal_tim_ex.c ****   *            @arg TIM_TIM24_TI1_GPIO               TIM24_TI1 is connected to GPIO
2421:Drivers/STM32H7xx_HAL_Driver/Src/stm32h7xx_hal_tim_ex.c ****   *            @arg TIM_TIM24_TI1_CAN_TMP            TIM24_TI1 is connected to CAN_TMP
2422:Drivers/STM32H7xx_HAL_Driver/Src/stm32h7xx_hal_tim_ex.c ****   *            @arg TIM_TIM24_TI1_CAN_RTP            TIM24_TI1 is connected to CAN_RTP
2423:Drivers/STM32H7xx_HAL_Driver/Src/stm32h7xx_hal_tim_ex.c ****   *            @arg TIM_TIM24_TI1_CAN_SOC            TIM24_TI1 is connected to CAN_SOC
2424:Drivers/STM32H7xx_HAL_Driver/Src/stm32h7xx_hal_tim_ex.c ****   *
2425:Drivers/STM32H7xx_HAL_Driver/Src/stm32h7xx_hal_tim_ex.c ****   *         (*)  Value not defined in all devices. \n
2426:Drivers/STM32H7xx_HAL_Driver/Src/stm32h7xx_hal_tim_ex.c ****   * @retval HAL status
2427:Drivers/STM32H7xx_HAL_Driver/Src/stm32h7xx_hal_tim_ex.c ****   */
2428:Drivers/STM32H7xx_HAL_Driver/Src/stm32h7xx_hal_tim_ex.c **** HAL_StatusTypeDef  HAL_TIMEx_TISelection(TIM_HandleTypeDef *htim, uint32_t TISelection, uint32_t Ch
2429:Drivers/STM32H7xx_HAL_Driver/Src/stm32h7xx_hal_tim_ex.c **** {
 6619              		.loc 1 2429 1
 6620              		.cfi_startproc
 6621              		@ args = 0, pretend = 0, frame = 24
 6622              		@ frame_needed = 1, uses_anonymous_args = 0
 6623              		@ link register save eliminated.
 6624 0000 80B4     		push	{r7}
ARM GAS  /var/folders/d0/cymppscj10lcmm48h781wrc80000gn/T//ccIjALm5.s 			page 159


 6625              	.LCFI174:
 6626              		.cfi_def_cfa_offset 4
 6627              		.cfi_offset 7, -4
 6628 0002 87B0     		sub	sp, sp, #28
 6629              	.LCFI175:
 6630              		.cfi_def_cfa_offset 32
 6631 0004 00AF     		add	r7, sp, #0
 6632              	.LCFI176:
 6633              		.cfi_def_cfa_register 7
 6634 0006 F860     		str	r0, [r7, #12]
 6635 0008 B960     		str	r1, [r7, #8]
 6636 000a 7A60     		str	r2, [r7, #4]
2430:Drivers/STM32H7xx_HAL_Driver/Src/stm32h7xx_hal_tim_ex.c ****   HAL_StatusTypeDef status = HAL_OK;
 6637              		.loc 1 2430 21
 6638 000c 0023     		movs	r3, #0
 6639 000e FB75     		strb	r3, [r7, #23]
2431:Drivers/STM32H7xx_HAL_Driver/Src/stm32h7xx_hal_tim_ex.c **** 
2432:Drivers/STM32H7xx_HAL_Driver/Src/stm32h7xx_hal_tim_ex.c ****   /* Check parameters */
2433:Drivers/STM32H7xx_HAL_Driver/Src/stm32h7xx_hal_tim_ex.c ****   assert_param(IS_TIM_TISEL_INSTANCE(htim->Instance));
2434:Drivers/STM32H7xx_HAL_Driver/Src/stm32h7xx_hal_tim_ex.c ****   assert_param(IS_TIM_TISEL(TISelection));
2435:Drivers/STM32H7xx_HAL_Driver/Src/stm32h7xx_hal_tim_ex.c **** 
2436:Drivers/STM32H7xx_HAL_Driver/Src/stm32h7xx_hal_tim_ex.c ****   __HAL_LOCK(htim);
 6640              		.loc 1 2436 3
 6641 0010 FB68     		ldr	r3, [r7, #12]
 6642 0012 93F83C30 		ldrb	r3, [r3, #60]	@ zero_extendqisi2
 6643 0016 012B     		cmp	r3, #1
 6644 0018 01D1     		bne	.L402
 6645              		.loc 1 2436 3 is_stmt 0 discriminator 1
 6646 001a 0223     		movs	r3, #2
 6647 001c 58E0     		b	.L403
 6648              	.L402:
 6649              		.loc 1 2436 3 discriminator 2
 6650 001e FB68     		ldr	r3, [r7, #12]
 6651 0020 0122     		movs	r2, #1
 6652 0022 83F83C20 		strb	r2, [r3, #60]
2437:Drivers/STM32H7xx_HAL_Driver/Src/stm32h7xx_hal_tim_ex.c **** 
2438:Drivers/STM32H7xx_HAL_Driver/Src/stm32h7xx_hal_tim_ex.c ****   switch (Channel)
 6653              		.loc 1 2438 3 is_stmt 1 discriminator 2
 6654 0026 7B68     		ldr	r3, [r7, #4]
 6655 0028 0C2B     		cmp	r3, #12
 6656 002a 49D8     		bhi	.L404
 6657 002c 01A2     		adr	r2, .L406
 6658 002e 52F823F0 		ldr	pc, [r2, r3, lsl #2]
 6659 0032 00BF     		.p2align 2
 6660              	.L406:
 6661 0034 69000000 		.word	.L409+1
 6662 0038 C1000000 		.word	.L404+1
 6663 003c C1000000 		.word	.L404+1
 6664 0040 C1000000 		.word	.L404+1
 6665 0044 7F000000 		.word	.L408+1
 6666 0048 C1000000 		.word	.L404+1
 6667 004c C1000000 		.word	.L404+1
 6668 0050 C1000000 		.word	.L404+1
 6669 0054 95000000 		.word	.L407+1
 6670 0058 C1000000 		.word	.L404+1
 6671 005c C1000000 		.word	.L404+1
 6672 0060 C1000000 		.word	.L404+1
ARM GAS  /var/folders/d0/cymppscj10lcmm48h781wrc80000gn/T//ccIjALm5.s 			page 160


 6673 0064 AB000000 		.word	.L405+1
 6674              		.p2align 1
 6675              	.L409:
2439:Drivers/STM32H7xx_HAL_Driver/Src/stm32h7xx_hal_tim_ex.c ****   {
2440:Drivers/STM32H7xx_HAL_Driver/Src/stm32h7xx_hal_tim_ex.c ****     case TIM_CHANNEL_1:
2441:Drivers/STM32H7xx_HAL_Driver/Src/stm32h7xx_hal_tim_ex.c ****       MODIFY_REG(htim->Instance->TISEL, TIM_TISEL_TI1SEL, TISelection);
 6676              		.loc 1 2441 7
 6677 0068 FB68     		ldr	r3, [r7, #12]
 6678 006a 1B68     		ldr	r3, [r3]
 6679 006c 9B6E     		ldr	r3, [r3, #104]
 6680 006e 23F00F01 		bic	r1, r3, #15
 6681 0072 FB68     		ldr	r3, [r7, #12]
 6682 0074 1B68     		ldr	r3, [r3]
 6683 0076 BA68     		ldr	r2, [r7, #8]
 6684 0078 0A43     		orrs	r2, r2, r1
 6685 007a 9A66     		str	r2, [r3, #104]
2442:Drivers/STM32H7xx_HAL_Driver/Src/stm32h7xx_hal_tim_ex.c ****       break;
 6686              		.loc 1 2442 7
 6687 007c 23E0     		b	.L410
 6688              	.L408:
2443:Drivers/STM32H7xx_HAL_Driver/Src/stm32h7xx_hal_tim_ex.c ****     case TIM_CHANNEL_2:
2444:Drivers/STM32H7xx_HAL_Driver/Src/stm32h7xx_hal_tim_ex.c ****       MODIFY_REG(htim->Instance->TISEL, TIM_TISEL_TI2SEL, TISelection);
 6689              		.loc 1 2444 7
 6690 007e FB68     		ldr	r3, [r7, #12]
 6691 0080 1B68     		ldr	r3, [r3]
 6692 0082 9B6E     		ldr	r3, [r3, #104]
 6693 0084 23F47061 		bic	r1, r3, #3840
 6694 0088 FB68     		ldr	r3, [r7, #12]
 6695 008a 1B68     		ldr	r3, [r3]
 6696 008c BA68     		ldr	r2, [r7, #8]
 6697 008e 0A43     		orrs	r2, r2, r1
 6698 0090 9A66     		str	r2, [r3, #104]
2445:Drivers/STM32H7xx_HAL_Driver/Src/stm32h7xx_hal_tim_ex.c ****       break;
 6699              		.loc 1 2445 7
 6700 0092 18E0     		b	.L410
 6701              	.L407:
2446:Drivers/STM32H7xx_HAL_Driver/Src/stm32h7xx_hal_tim_ex.c ****     case TIM_CHANNEL_3:
2447:Drivers/STM32H7xx_HAL_Driver/Src/stm32h7xx_hal_tim_ex.c ****       MODIFY_REG(htim->Instance->TISEL, TIM_TISEL_TI3SEL, TISelection);
 6702              		.loc 1 2447 7
 6703 0094 FB68     		ldr	r3, [r7, #12]
 6704 0096 1B68     		ldr	r3, [r3]
 6705 0098 9B6E     		ldr	r3, [r3, #104]
 6706 009a 23F47021 		bic	r1, r3, #983040
 6707 009e FB68     		ldr	r3, [r7, #12]
 6708 00a0 1B68     		ldr	r3, [r3]
 6709 00a2 BA68     		ldr	r2, [r7, #8]
 6710 00a4 0A43     		orrs	r2, r2, r1
 6711 00a6 9A66     		str	r2, [r3, #104]
2448:Drivers/STM32H7xx_HAL_Driver/Src/stm32h7xx_hal_tim_ex.c ****       break;
 6712              		.loc 1 2448 7
 6713 00a8 0DE0     		b	.L410
 6714              	.L405:
2449:Drivers/STM32H7xx_HAL_Driver/Src/stm32h7xx_hal_tim_ex.c ****     case TIM_CHANNEL_4:
2450:Drivers/STM32H7xx_HAL_Driver/Src/stm32h7xx_hal_tim_ex.c ****       MODIFY_REG(htim->Instance->TISEL, TIM_TISEL_TI4SEL, TISelection);
 6715              		.loc 1 2450 7
 6716 00aa FB68     		ldr	r3, [r7, #12]
 6717 00ac 1B68     		ldr	r3, [r3]
ARM GAS  /var/folders/d0/cymppscj10lcmm48h781wrc80000gn/T//ccIjALm5.s 			page 161


 6718 00ae 9B6E     		ldr	r3, [r3, #104]
 6719 00b0 23F07061 		bic	r1, r3, #251658240
 6720 00b4 FB68     		ldr	r3, [r7, #12]
 6721 00b6 1B68     		ldr	r3, [r3]
 6722 00b8 BA68     		ldr	r2, [r7, #8]
 6723 00ba 0A43     		orrs	r2, r2, r1
 6724 00bc 9A66     		str	r2, [r3, #104]
2451:Drivers/STM32H7xx_HAL_Driver/Src/stm32h7xx_hal_tim_ex.c ****       break;
 6725              		.loc 1 2451 7
 6726 00be 02E0     		b	.L410
 6727              	.L404:
2452:Drivers/STM32H7xx_HAL_Driver/Src/stm32h7xx_hal_tim_ex.c ****     default:
2453:Drivers/STM32H7xx_HAL_Driver/Src/stm32h7xx_hal_tim_ex.c ****       status = HAL_ERROR;
 6728              		.loc 1 2453 14
 6729 00c0 0123     		movs	r3, #1
 6730 00c2 FB75     		strb	r3, [r7, #23]
2454:Drivers/STM32H7xx_HAL_Driver/Src/stm32h7xx_hal_tim_ex.c ****       break;
 6731              		.loc 1 2454 7
 6732 00c4 00BF     		nop
 6733              	.L410:
2455:Drivers/STM32H7xx_HAL_Driver/Src/stm32h7xx_hal_tim_ex.c ****   }
2456:Drivers/STM32H7xx_HAL_Driver/Src/stm32h7xx_hal_tim_ex.c **** 
2457:Drivers/STM32H7xx_HAL_Driver/Src/stm32h7xx_hal_tim_ex.c ****   __HAL_UNLOCK(htim);
 6734              		.loc 1 2457 3
 6735 00c6 FB68     		ldr	r3, [r7, #12]
 6736 00c8 0022     		movs	r2, #0
 6737 00ca 83F83C20 		strb	r2, [r3, #60]
2458:Drivers/STM32H7xx_HAL_Driver/Src/stm32h7xx_hal_tim_ex.c **** 
2459:Drivers/STM32H7xx_HAL_Driver/Src/stm32h7xx_hal_tim_ex.c ****   return status;
 6738              		.loc 1 2459 10
 6739 00ce FB7D     		ldrb	r3, [r7, #23]	@ zero_extendqisi2
 6740              	.L403:
2460:Drivers/STM32H7xx_HAL_Driver/Src/stm32h7xx_hal_tim_ex.c **** }
 6741              		.loc 1 2460 1
 6742 00d0 1846     		mov	r0, r3
 6743 00d2 1C37     		adds	r7, r7, #28
 6744              	.LCFI177:
 6745              		.cfi_def_cfa_offset 4
 6746 00d4 BD46     		mov	sp, r7
 6747              	.LCFI178:
 6748              		.cfi_def_cfa_register 13
 6749              		@ sp needed
 6750 00d6 5DF8047B 		ldr	r7, [sp], #4
 6751              	.LCFI179:
 6752              		.cfi_restore 7
 6753              		.cfi_def_cfa_offset 0
 6754 00da 7047     		bx	lr
 6755              		.cfi_endproc
 6756              	.LFE366:
 6758              		.section	.text.HAL_TIMEx_GroupChannel5,"ax",%progbits
 6759              		.align	1
 6760              		.global	HAL_TIMEx_GroupChannel5
 6761              		.syntax unified
 6762              		.thumb
 6763              		.thumb_func
 6765              	HAL_TIMEx_GroupChannel5:
 6766              	.LFB367:
ARM GAS  /var/folders/d0/cymppscj10lcmm48h781wrc80000gn/T//ccIjALm5.s 			page 162


2461:Drivers/STM32H7xx_HAL_Driver/Src/stm32h7xx_hal_tim_ex.c **** 
2462:Drivers/STM32H7xx_HAL_Driver/Src/stm32h7xx_hal_tim_ex.c **** /**
2463:Drivers/STM32H7xx_HAL_Driver/Src/stm32h7xx_hal_tim_ex.c ****   * @brief  Group channel 5 and channel 1, 2 or 3
2464:Drivers/STM32H7xx_HAL_Driver/Src/stm32h7xx_hal_tim_ex.c ****   * @param  htim TIM handle.
2465:Drivers/STM32H7xx_HAL_Driver/Src/stm32h7xx_hal_tim_ex.c ****   * @param  Channels specifies the reference signal(s) the OC5REF is combined with.
2466:Drivers/STM32H7xx_HAL_Driver/Src/stm32h7xx_hal_tim_ex.c ****   *         This parameter can be any combination of the following values:
2467:Drivers/STM32H7xx_HAL_Driver/Src/stm32h7xx_hal_tim_ex.c ****   *         TIM_GROUPCH5_NONE: No effect of OC5REF on OC1REFC, OC2REFC and OC3REFC
2468:Drivers/STM32H7xx_HAL_Driver/Src/stm32h7xx_hal_tim_ex.c ****   *         TIM_GROUPCH5_OC1REFC: OC1REFC is the logical AND of OC1REFC and OC5REF
2469:Drivers/STM32H7xx_HAL_Driver/Src/stm32h7xx_hal_tim_ex.c ****   *         TIM_GROUPCH5_OC2REFC: OC2REFC is the logical AND of OC2REFC and OC5REF
2470:Drivers/STM32H7xx_HAL_Driver/Src/stm32h7xx_hal_tim_ex.c ****   *         TIM_GROUPCH5_OC3REFC: OC3REFC is the logical AND of OC3REFC and OC5REF
2471:Drivers/STM32H7xx_HAL_Driver/Src/stm32h7xx_hal_tim_ex.c ****   * @retval HAL status
2472:Drivers/STM32H7xx_HAL_Driver/Src/stm32h7xx_hal_tim_ex.c ****   */
2473:Drivers/STM32H7xx_HAL_Driver/Src/stm32h7xx_hal_tim_ex.c **** HAL_StatusTypeDef HAL_TIMEx_GroupChannel5(TIM_HandleTypeDef *htim, uint32_t Channels)
2474:Drivers/STM32H7xx_HAL_Driver/Src/stm32h7xx_hal_tim_ex.c **** {
 6767              		.loc 1 2474 1
 6768              		.cfi_startproc
 6769              		@ args = 0, pretend = 0, frame = 8
 6770              		@ frame_needed = 1, uses_anonymous_args = 0
 6771              		@ link register save eliminated.
 6772 0000 80B4     		push	{r7}
 6773              	.LCFI180:
 6774              		.cfi_def_cfa_offset 4
 6775              		.cfi_offset 7, -4
 6776 0002 83B0     		sub	sp, sp, #12
 6777              	.LCFI181:
 6778              		.cfi_def_cfa_offset 16
 6779 0004 00AF     		add	r7, sp, #0
 6780              	.LCFI182:
 6781              		.cfi_def_cfa_register 7
 6782 0006 7860     		str	r0, [r7, #4]
 6783 0008 3960     		str	r1, [r7]
2475:Drivers/STM32H7xx_HAL_Driver/Src/stm32h7xx_hal_tim_ex.c ****   /* Check parameters */
2476:Drivers/STM32H7xx_HAL_Driver/Src/stm32h7xx_hal_tim_ex.c ****   assert_param(IS_TIM_COMBINED3PHASEPWM_INSTANCE(htim->Instance));
2477:Drivers/STM32H7xx_HAL_Driver/Src/stm32h7xx_hal_tim_ex.c ****   assert_param(IS_TIM_GROUPCH5(Channels));
2478:Drivers/STM32H7xx_HAL_Driver/Src/stm32h7xx_hal_tim_ex.c **** 
2479:Drivers/STM32H7xx_HAL_Driver/Src/stm32h7xx_hal_tim_ex.c ****   /* Process Locked */
2480:Drivers/STM32H7xx_HAL_Driver/Src/stm32h7xx_hal_tim_ex.c ****   __HAL_LOCK(htim);
 6784              		.loc 1 2480 3
 6785 000a 7B68     		ldr	r3, [r7, #4]
 6786 000c 93F83C30 		ldrb	r3, [r3, #60]	@ zero_extendqisi2
 6787 0010 012B     		cmp	r3, #1
 6788 0012 01D1     		bne	.L412
 6789              		.loc 1 2480 3 is_stmt 0 discriminator 1
 6790 0014 0223     		movs	r3, #2
 6791 0016 20E0     		b	.L413
 6792              	.L412:
 6793              		.loc 1 2480 3 discriminator 2
 6794 0018 7B68     		ldr	r3, [r7, #4]
 6795 001a 0122     		movs	r2, #1
 6796 001c 83F83C20 		strb	r2, [r3, #60]
2481:Drivers/STM32H7xx_HAL_Driver/Src/stm32h7xx_hal_tim_ex.c **** 
2482:Drivers/STM32H7xx_HAL_Driver/Src/stm32h7xx_hal_tim_ex.c ****   htim->State = HAL_TIM_STATE_BUSY;
 6797              		.loc 1 2482 15 is_stmt 1 discriminator 2
 6798 0020 7B68     		ldr	r3, [r7, #4]
 6799 0022 0222     		movs	r2, #2
 6800 0024 83F83D20 		strb	r2, [r3, #61]
2483:Drivers/STM32H7xx_HAL_Driver/Src/stm32h7xx_hal_tim_ex.c **** 
ARM GAS  /var/folders/d0/cymppscj10lcmm48h781wrc80000gn/T//ccIjALm5.s 			page 163


2484:Drivers/STM32H7xx_HAL_Driver/Src/stm32h7xx_hal_tim_ex.c ****   /* Clear GC5Cx bit fields */
2485:Drivers/STM32H7xx_HAL_Driver/Src/stm32h7xx_hal_tim_ex.c ****   htim->Instance->CCR5 &= ~(TIM_CCR5_GC5C3 | TIM_CCR5_GC5C2 | TIM_CCR5_GC5C1);
 6801              		.loc 1 2485 7 discriminator 2
 6802 0028 7B68     		ldr	r3, [r7, #4]
 6803 002a 1B68     		ldr	r3, [r3]
 6804              		.loc 1 2485 24 discriminator 2
 6805 002c 9A6D     		ldr	r2, [r3, #88]
 6806              		.loc 1 2485 7 discriminator 2
 6807 002e 7B68     		ldr	r3, [r7, #4]
 6808 0030 1B68     		ldr	r3, [r3]
 6809              		.loc 1 2485 24 discriminator 2
 6810 0032 22F06042 		bic	r2, r2, #-536870912
 6811 0036 9A65     		str	r2, [r3, #88]
2486:Drivers/STM32H7xx_HAL_Driver/Src/stm32h7xx_hal_tim_ex.c **** 
2487:Drivers/STM32H7xx_HAL_Driver/Src/stm32h7xx_hal_tim_ex.c ****   /* Set GC5Cx bit fields */
2488:Drivers/STM32H7xx_HAL_Driver/Src/stm32h7xx_hal_tim_ex.c ****   htim->Instance->CCR5 |= Channels;
 6812              		.loc 1 2488 7 discriminator 2
 6813 0038 7B68     		ldr	r3, [r7, #4]
 6814 003a 1B68     		ldr	r3, [r3]
 6815              		.loc 1 2488 24 discriminator 2
 6816 003c 996D     		ldr	r1, [r3, #88]
 6817              		.loc 1 2488 7 discriminator 2
 6818 003e 7B68     		ldr	r3, [r7, #4]
 6819 0040 1B68     		ldr	r3, [r3]
 6820              		.loc 1 2488 24 discriminator 2
 6821 0042 3A68     		ldr	r2, [r7]
 6822 0044 0A43     		orrs	r2, r2, r1
 6823 0046 9A65     		str	r2, [r3, #88]
2489:Drivers/STM32H7xx_HAL_Driver/Src/stm32h7xx_hal_tim_ex.c **** 
2490:Drivers/STM32H7xx_HAL_Driver/Src/stm32h7xx_hal_tim_ex.c ****   /* Change the htim state */
2491:Drivers/STM32H7xx_HAL_Driver/Src/stm32h7xx_hal_tim_ex.c ****   htim->State = HAL_TIM_STATE_READY;
 6824              		.loc 1 2491 15 discriminator 2
 6825 0048 7B68     		ldr	r3, [r7, #4]
 6826 004a 0122     		movs	r2, #1
 6827 004c 83F83D20 		strb	r2, [r3, #61]
2492:Drivers/STM32H7xx_HAL_Driver/Src/stm32h7xx_hal_tim_ex.c **** 
2493:Drivers/STM32H7xx_HAL_Driver/Src/stm32h7xx_hal_tim_ex.c ****   __HAL_UNLOCK(htim);
 6828              		.loc 1 2493 3 discriminator 2
 6829 0050 7B68     		ldr	r3, [r7, #4]
 6830 0052 0022     		movs	r2, #0
 6831 0054 83F83C20 		strb	r2, [r3, #60]
2494:Drivers/STM32H7xx_HAL_Driver/Src/stm32h7xx_hal_tim_ex.c **** 
2495:Drivers/STM32H7xx_HAL_Driver/Src/stm32h7xx_hal_tim_ex.c ****   return HAL_OK;
 6832              		.loc 1 2495 10 discriminator 2
 6833 0058 0023     		movs	r3, #0
 6834              	.L413:
2496:Drivers/STM32H7xx_HAL_Driver/Src/stm32h7xx_hal_tim_ex.c **** }
 6835              		.loc 1 2496 1
 6836 005a 1846     		mov	r0, r3
 6837 005c 0C37     		adds	r7, r7, #12
 6838              	.LCFI183:
 6839              		.cfi_def_cfa_offset 4
 6840 005e BD46     		mov	sp, r7
 6841              	.LCFI184:
 6842              		.cfi_def_cfa_register 13
 6843              		@ sp needed
 6844 0060 5DF8047B 		ldr	r7, [sp], #4
ARM GAS  /var/folders/d0/cymppscj10lcmm48h781wrc80000gn/T//ccIjALm5.s 			page 164


 6845              	.LCFI185:
 6846              		.cfi_restore 7
 6847              		.cfi_def_cfa_offset 0
 6848 0064 7047     		bx	lr
 6849              		.cfi_endproc
 6850              	.LFE367:
 6852              		.section	.text.HAL_TIMEx_CommutCallback,"ax",%progbits
 6853              		.align	1
 6854              		.weak	HAL_TIMEx_CommutCallback
 6855              		.syntax unified
 6856              		.thumb
 6857              		.thumb_func
 6859              	HAL_TIMEx_CommutCallback:
 6860              	.LFB368:
2497:Drivers/STM32H7xx_HAL_Driver/Src/stm32h7xx_hal_tim_ex.c **** #if defined(TIM_BDTR_BKBID)
2498:Drivers/STM32H7xx_HAL_Driver/Src/stm32h7xx_hal_tim_ex.c **** 
2499:Drivers/STM32H7xx_HAL_Driver/Src/stm32h7xx_hal_tim_ex.c **** /**
2500:Drivers/STM32H7xx_HAL_Driver/Src/stm32h7xx_hal_tim_ex.c ****   * @brief  Disarm the designated break input (when it operates in bidirectional mode).
2501:Drivers/STM32H7xx_HAL_Driver/Src/stm32h7xx_hal_tim_ex.c ****   * @param  htim TIM handle.
2502:Drivers/STM32H7xx_HAL_Driver/Src/stm32h7xx_hal_tim_ex.c ****   * @param  BreakInput Break input to disarm
2503:Drivers/STM32H7xx_HAL_Driver/Src/stm32h7xx_hal_tim_ex.c ****   *          This parameter can be one of the following values:
2504:Drivers/STM32H7xx_HAL_Driver/Src/stm32h7xx_hal_tim_ex.c ****   *            @arg TIM_BREAKINPUT_BRK: Timer break input
2505:Drivers/STM32H7xx_HAL_Driver/Src/stm32h7xx_hal_tim_ex.c ****   *            @arg TIM_BREAKINPUT_BRK2: Timer break 2 input
2506:Drivers/STM32H7xx_HAL_Driver/Src/stm32h7xx_hal_tim_ex.c ****   * @note  The break input can be disarmed only when it is configured in
2507:Drivers/STM32H7xx_HAL_Driver/Src/stm32h7xx_hal_tim_ex.c ****   *        bidirectional mode and when when MOE is reset.
2508:Drivers/STM32H7xx_HAL_Driver/Src/stm32h7xx_hal_tim_ex.c ****   * @note  Purpose is to be able to have the input voltage back to high-state,
2509:Drivers/STM32H7xx_HAL_Driver/Src/stm32h7xx_hal_tim_ex.c ****   *        whatever the time constant on the output .
2510:Drivers/STM32H7xx_HAL_Driver/Src/stm32h7xx_hal_tim_ex.c ****   * @retval HAL status
2511:Drivers/STM32H7xx_HAL_Driver/Src/stm32h7xx_hal_tim_ex.c ****   */
2512:Drivers/STM32H7xx_HAL_Driver/Src/stm32h7xx_hal_tim_ex.c **** HAL_StatusTypeDef HAL_TIMEx_DisarmBreakInput(TIM_HandleTypeDef *htim, uint32_t BreakInput)
2513:Drivers/STM32H7xx_HAL_Driver/Src/stm32h7xx_hal_tim_ex.c **** {
2514:Drivers/STM32H7xx_HAL_Driver/Src/stm32h7xx_hal_tim_ex.c ****   HAL_StatusTypeDef status = HAL_OK;
2515:Drivers/STM32H7xx_HAL_Driver/Src/stm32h7xx_hal_tim_ex.c ****   uint32_t tmpbdtr;
2516:Drivers/STM32H7xx_HAL_Driver/Src/stm32h7xx_hal_tim_ex.c **** 
2517:Drivers/STM32H7xx_HAL_Driver/Src/stm32h7xx_hal_tim_ex.c ****   /* Check the parameters */
2518:Drivers/STM32H7xx_HAL_Driver/Src/stm32h7xx_hal_tim_ex.c ****   assert_param(IS_TIM_ADVANCED_INSTANCE(htim->Instance));
2519:Drivers/STM32H7xx_HAL_Driver/Src/stm32h7xx_hal_tim_ex.c ****   assert_param(IS_TIM_BREAKINPUT(BreakInput));
2520:Drivers/STM32H7xx_HAL_Driver/Src/stm32h7xx_hal_tim_ex.c **** 
2521:Drivers/STM32H7xx_HAL_Driver/Src/stm32h7xx_hal_tim_ex.c ****   switch (BreakInput)
2522:Drivers/STM32H7xx_HAL_Driver/Src/stm32h7xx_hal_tim_ex.c ****   {
2523:Drivers/STM32H7xx_HAL_Driver/Src/stm32h7xx_hal_tim_ex.c ****     case TIM_BREAKINPUT_BRK:
2524:Drivers/STM32H7xx_HAL_Driver/Src/stm32h7xx_hal_tim_ex.c ****     {
2525:Drivers/STM32H7xx_HAL_Driver/Src/stm32h7xx_hal_tim_ex.c ****       /* Check initial conditions */
2526:Drivers/STM32H7xx_HAL_Driver/Src/stm32h7xx_hal_tim_ex.c ****       tmpbdtr = READ_REG(htim->Instance->BDTR);
2527:Drivers/STM32H7xx_HAL_Driver/Src/stm32h7xx_hal_tim_ex.c ****       if ((READ_BIT(tmpbdtr, TIM_BDTR_BKBID) == TIM_BDTR_BKBID) &&
2528:Drivers/STM32H7xx_HAL_Driver/Src/stm32h7xx_hal_tim_ex.c ****           (READ_BIT(tmpbdtr, TIM_BDTR_MOE) == 0U))
2529:Drivers/STM32H7xx_HAL_Driver/Src/stm32h7xx_hal_tim_ex.c ****       {
2530:Drivers/STM32H7xx_HAL_Driver/Src/stm32h7xx_hal_tim_ex.c ****         /* Break input BRK is disarmed */
2531:Drivers/STM32H7xx_HAL_Driver/Src/stm32h7xx_hal_tim_ex.c ****         SET_BIT(htim->Instance->BDTR, TIM_BDTR_BKDSRM);
2532:Drivers/STM32H7xx_HAL_Driver/Src/stm32h7xx_hal_tim_ex.c ****       }
2533:Drivers/STM32H7xx_HAL_Driver/Src/stm32h7xx_hal_tim_ex.c ****       break;
2534:Drivers/STM32H7xx_HAL_Driver/Src/stm32h7xx_hal_tim_ex.c ****     }
2535:Drivers/STM32H7xx_HAL_Driver/Src/stm32h7xx_hal_tim_ex.c **** 
2536:Drivers/STM32H7xx_HAL_Driver/Src/stm32h7xx_hal_tim_ex.c ****     case TIM_BREAKINPUT_BRK2:
2537:Drivers/STM32H7xx_HAL_Driver/Src/stm32h7xx_hal_tim_ex.c ****     {
2538:Drivers/STM32H7xx_HAL_Driver/Src/stm32h7xx_hal_tim_ex.c ****       /* Check initial conditions */
2539:Drivers/STM32H7xx_HAL_Driver/Src/stm32h7xx_hal_tim_ex.c ****       tmpbdtr = READ_REG(htim->Instance->BDTR);
ARM GAS  /var/folders/d0/cymppscj10lcmm48h781wrc80000gn/T//ccIjALm5.s 			page 165


2540:Drivers/STM32H7xx_HAL_Driver/Src/stm32h7xx_hal_tim_ex.c ****       if ((READ_BIT(tmpbdtr, TIM_BDTR_BK2BID) == TIM_BDTR_BK2BID) &&
2541:Drivers/STM32H7xx_HAL_Driver/Src/stm32h7xx_hal_tim_ex.c ****           (READ_BIT(tmpbdtr, TIM_BDTR_MOE) == 0U))
2542:Drivers/STM32H7xx_HAL_Driver/Src/stm32h7xx_hal_tim_ex.c ****       {
2543:Drivers/STM32H7xx_HAL_Driver/Src/stm32h7xx_hal_tim_ex.c ****         /* Break input BRK is disarmed */
2544:Drivers/STM32H7xx_HAL_Driver/Src/stm32h7xx_hal_tim_ex.c ****         SET_BIT(htim->Instance->BDTR, TIM_BDTR_BK2DSRM);
2545:Drivers/STM32H7xx_HAL_Driver/Src/stm32h7xx_hal_tim_ex.c ****       }
2546:Drivers/STM32H7xx_HAL_Driver/Src/stm32h7xx_hal_tim_ex.c ****       break;
2547:Drivers/STM32H7xx_HAL_Driver/Src/stm32h7xx_hal_tim_ex.c ****     }
2548:Drivers/STM32H7xx_HAL_Driver/Src/stm32h7xx_hal_tim_ex.c ****     default:
2549:Drivers/STM32H7xx_HAL_Driver/Src/stm32h7xx_hal_tim_ex.c ****       status = HAL_ERROR;
2550:Drivers/STM32H7xx_HAL_Driver/Src/stm32h7xx_hal_tim_ex.c ****       break;
2551:Drivers/STM32H7xx_HAL_Driver/Src/stm32h7xx_hal_tim_ex.c ****   }
2552:Drivers/STM32H7xx_HAL_Driver/Src/stm32h7xx_hal_tim_ex.c **** 
2553:Drivers/STM32H7xx_HAL_Driver/Src/stm32h7xx_hal_tim_ex.c ****   return status;
2554:Drivers/STM32H7xx_HAL_Driver/Src/stm32h7xx_hal_tim_ex.c **** }
2555:Drivers/STM32H7xx_HAL_Driver/Src/stm32h7xx_hal_tim_ex.c **** 
2556:Drivers/STM32H7xx_HAL_Driver/Src/stm32h7xx_hal_tim_ex.c **** /**
2557:Drivers/STM32H7xx_HAL_Driver/Src/stm32h7xx_hal_tim_ex.c ****   * @brief  Arm the designated break input (when it operates in bidirectional mode).
2558:Drivers/STM32H7xx_HAL_Driver/Src/stm32h7xx_hal_tim_ex.c ****   * @param  htim TIM handle.
2559:Drivers/STM32H7xx_HAL_Driver/Src/stm32h7xx_hal_tim_ex.c ****   * @param  BreakInput Break input to arm
2560:Drivers/STM32H7xx_HAL_Driver/Src/stm32h7xx_hal_tim_ex.c ****   *          This parameter can be one of the following values:
2561:Drivers/STM32H7xx_HAL_Driver/Src/stm32h7xx_hal_tim_ex.c ****   *            @arg TIM_BREAKINPUT_BRK: Timer break input
2562:Drivers/STM32H7xx_HAL_Driver/Src/stm32h7xx_hal_tim_ex.c ****   *            @arg TIM_BREAKINPUT_BRK2: Timer break 2 input
2563:Drivers/STM32H7xx_HAL_Driver/Src/stm32h7xx_hal_tim_ex.c ****   * @note  Arming is possible at anytime, even if fault is present.
2564:Drivers/STM32H7xx_HAL_Driver/Src/stm32h7xx_hal_tim_ex.c ****   * @note  Break input is automatically armed as soon as MOE bit is set.
2565:Drivers/STM32H7xx_HAL_Driver/Src/stm32h7xx_hal_tim_ex.c ****   * @retval HAL status
2566:Drivers/STM32H7xx_HAL_Driver/Src/stm32h7xx_hal_tim_ex.c ****   */
2567:Drivers/STM32H7xx_HAL_Driver/Src/stm32h7xx_hal_tim_ex.c **** HAL_StatusTypeDef HAL_TIMEx_ReArmBreakInput(TIM_HandleTypeDef *htim, uint32_t BreakInput)
2568:Drivers/STM32H7xx_HAL_Driver/Src/stm32h7xx_hal_tim_ex.c **** {
2569:Drivers/STM32H7xx_HAL_Driver/Src/stm32h7xx_hal_tim_ex.c ****   HAL_StatusTypeDef status = HAL_OK;
2570:Drivers/STM32H7xx_HAL_Driver/Src/stm32h7xx_hal_tim_ex.c ****   uint32_t tickstart;
2571:Drivers/STM32H7xx_HAL_Driver/Src/stm32h7xx_hal_tim_ex.c **** 
2572:Drivers/STM32H7xx_HAL_Driver/Src/stm32h7xx_hal_tim_ex.c ****   /* Check the parameters */
2573:Drivers/STM32H7xx_HAL_Driver/Src/stm32h7xx_hal_tim_ex.c ****   assert_param(IS_TIM_ADVANCED_INSTANCE(htim->Instance));
2574:Drivers/STM32H7xx_HAL_Driver/Src/stm32h7xx_hal_tim_ex.c ****   assert_param(IS_TIM_BREAKINPUT(BreakInput));
2575:Drivers/STM32H7xx_HAL_Driver/Src/stm32h7xx_hal_tim_ex.c **** 
2576:Drivers/STM32H7xx_HAL_Driver/Src/stm32h7xx_hal_tim_ex.c ****   switch (BreakInput)
2577:Drivers/STM32H7xx_HAL_Driver/Src/stm32h7xx_hal_tim_ex.c ****   {
2578:Drivers/STM32H7xx_HAL_Driver/Src/stm32h7xx_hal_tim_ex.c ****     case TIM_BREAKINPUT_BRK:
2579:Drivers/STM32H7xx_HAL_Driver/Src/stm32h7xx_hal_tim_ex.c ****     {
2580:Drivers/STM32H7xx_HAL_Driver/Src/stm32h7xx_hal_tim_ex.c ****       /* Check initial conditions */
2581:Drivers/STM32H7xx_HAL_Driver/Src/stm32h7xx_hal_tim_ex.c ****       if (READ_BIT(htim->Instance->BDTR, TIM_BDTR_BKBID) == TIM_BDTR_BKBID)
2582:Drivers/STM32H7xx_HAL_Driver/Src/stm32h7xx_hal_tim_ex.c ****       {
2583:Drivers/STM32H7xx_HAL_Driver/Src/stm32h7xx_hal_tim_ex.c ****         /* Break input BRK is re-armed automatically by hardware. Poll to check whether fault condi
2584:Drivers/STM32H7xx_HAL_Driver/Src/stm32h7xx_hal_tim_ex.c ****         /* Init tickstart for timeout management */
2585:Drivers/STM32H7xx_HAL_Driver/Src/stm32h7xx_hal_tim_ex.c ****         tickstart = HAL_GetTick();
2586:Drivers/STM32H7xx_HAL_Driver/Src/stm32h7xx_hal_tim_ex.c ****         while (READ_BIT(htim->Instance->BDTR, TIM_BDTR_BKDSRM) != 0UL)
2587:Drivers/STM32H7xx_HAL_Driver/Src/stm32h7xx_hal_tim_ex.c ****         {
2588:Drivers/STM32H7xx_HAL_Driver/Src/stm32h7xx_hal_tim_ex.c ****           if ((HAL_GetTick() - tickstart) > TIM_BREAKINPUT_REARM_TIMEOUT)
2589:Drivers/STM32H7xx_HAL_Driver/Src/stm32h7xx_hal_tim_ex.c ****           {
2590:Drivers/STM32H7xx_HAL_Driver/Src/stm32h7xx_hal_tim_ex.c ****             /* New check to avoid false timeout detection in case of preemption */
2591:Drivers/STM32H7xx_HAL_Driver/Src/stm32h7xx_hal_tim_ex.c ****             if (READ_BIT(htim->Instance->BDTR, TIM_BDTR_BKDSRM) != 0UL)
2592:Drivers/STM32H7xx_HAL_Driver/Src/stm32h7xx_hal_tim_ex.c ****             {
2593:Drivers/STM32H7xx_HAL_Driver/Src/stm32h7xx_hal_tim_ex.c ****               return HAL_TIMEOUT;
2594:Drivers/STM32H7xx_HAL_Driver/Src/stm32h7xx_hal_tim_ex.c ****             }
2595:Drivers/STM32H7xx_HAL_Driver/Src/stm32h7xx_hal_tim_ex.c ****           }
2596:Drivers/STM32H7xx_HAL_Driver/Src/stm32h7xx_hal_tim_ex.c ****         }
ARM GAS  /var/folders/d0/cymppscj10lcmm48h781wrc80000gn/T//ccIjALm5.s 			page 166


2597:Drivers/STM32H7xx_HAL_Driver/Src/stm32h7xx_hal_tim_ex.c ****       }
2598:Drivers/STM32H7xx_HAL_Driver/Src/stm32h7xx_hal_tim_ex.c ****       break;
2599:Drivers/STM32H7xx_HAL_Driver/Src/stm32h7xx_hal_tim_ex.c ****     }
2600:Drivers/STM32H7xx_HAL_Driver/Src/stm32h7xx_hal_tim_ex.c **** 
2601:Drivers/STM32H7xx_HAL_Driver/Src/stm32h7xx_hal_tim_ex.c ****     case TIM_BREAKINPUT_BRK2:
2602:Drivers/STM32H7xx_HAL_Driver/Src/stm32h7xx_hal_tim_ex.c ****     {
2603:Drivers/STM32H7xx_HAL_Driver/Src/stm32h7xx_hal_tim_ex.c ****       /* Check initial conditions */
2604:Drivers/STM32H7xx_HAL_Driver/Src/stm32h7xx_hal_tim_ex.c ****       if (READ_BIT(htim->Instance->BDTR, TIM_BDTR_BK2BID) == TIM_BDTR_BK2BID)
2605:Drivers/STM32H7xx_HAL_Driver/Src/stm32h7xx_hal_tim_ex.c ****       {
2606:Drivers/STM32H7xx_HAL_Driver/Src/stm32h7xx_hal_tim_ex.c ****         /* Break input BRK2 is re-armed automatically by hardware. Poll to check whether fault cond
2607:Drivers/STM32H7xx_HAL_Driver/Src/stm32h7xx_hal_tim_ex.c ****         /* Init tickstart for timeout management */
2608:Drivers/STM32H7xx_HAL_Driver/Src/stm32h7xx_hal_tim_ex.c ****         tickstart = HAL_GetTick();
2609:Drivers/STM32H7xx_HAL_Driver/Src/stm32h7xx_hal_tim_ex.c ****         while (READ_BIT(htim->Instance->BDTR, TIM_BDTR_BK2DSRM) != 0UL)
2610:Drivers/STM32H7xx_HAL_Driver/Src/stm32h7xx_hal_tim_ex.c ****         {
2611:Drivers/STM32H7xx_HAL_Driver/Src/stm32h7xx_hal_tim_ex.c ****           if ((HAL_GetTick() - tickstart) > TIM_BREAKINPUT_REARM_TIMEOUT)
2612:Drivers/STM32H7xx_HAL_Driver/Src/stm32h7xx_hal_tim_ex.c ****           {
2613:Drivers/STM32H7xx_HAL_Driver/Src/stm32h7xx_hal_tim_ex.c ****             /* New check to avoid false timeout detection in case of preemption */
2614:Drivers/STM32H7xx_HAL_Driver/Src/stm32h7xx_hal_tim_ex.c ****             if (READ_BIT(htim->Instance->BDTR, TIM_BDTR_BK2DSRM) != 0UL)
2615:Drivers/STM32H7xx_HAL_Driver/Src/stm32h7xx_hal_tim_ex.c ****             {
2616:Drivers/STM32H7xx_HAL_Driver/Src/stm32h7xx_hal_tim_ex.c ****               return HAL_TIMEOUT;
2617:Drivers/STM32H7xx_HAL_Driver/Src/stm32h7xx_hal_tim_ex.c ****             }
2618:Drivers/STM32H7xx_HAL_Driver/Src/stm32h7xx_hal_tim_ex.c ****           }
2619:Drivers/STM32H7xx_HAL_Driver/Src/stm32h7xx_hal_tim_ex.c ****         }
2620:Drivers/STM32H7xx_HAL_Driver/Src/stm32h7xx_hal_tim_ex.c ****       }
2621:Drivers/STM32H7xx_HAL_Driver/Src/stm32h7xx_hal_tim_ex.c ****       break;
2622:Drivers/STM32H7xx_HAL_Driver/Src/stm32h7xx_hal_tim_ex.c ****     }
2623:Drivers/STM32H7xx_HAL_Driver/Src/stm32h7xx_hal_tim_ex.c ****     default:
2624:Drivers/STM32H7xx_HAL_Driver/Src/stm32h7xx_hal_tim_ex.c ****       status = HAL_ERROR;
2625:Drivers/STM32H7xx_HAL_Driver/Src/stm32h7xx_hal_tim_ex.c ****       break;
2626:Drivers/STM32H7xx_HAL_Driver/Src/stm32h7xx_hal_tim_ex.c ****   }
2627:Drivers/STM32H7xx_HAL_Driver/Src/stm32h7xx_hal_tim_ex.c **** 
2628:Drivers/STM32H7xx_HAL_Driver/Src/stm32h7xx_hal_tim_ex.c ****   return status;
2629:Drivers/STM32H7xx_HAL_Driver/Src/stm32h7xx_hal_tim_ex.c **** }
2630:Drivers/STM32H7xx_HAL_Driver/Src/stm32h7xx_hal_tim_ex.c **** #endif /* TIM_BDTR_BKBID */
2631:Drivers/STM32H7xx_HAL_Driver/Src/stm32h7xx_hal_tim_ex.c **** 
2632:Drivers/STM32H7xx_HAL_Driver/Src/stm32h7xx_hal_tim_ex.c **** /**
2633:Drivers/STM32H7xx_HAL_Driver/Src/stm32h7xx_hal_tim_ex.c ****   * @}
2634:Drivers/STM32H7xx_HAL_Driver/Src/stm32h7xx_hal_tim_ex.c ****   */
2635:Drivers/STM32H7xx_HAL_Driver/Src/stm32h7xx_hal_tim_ex.c **** 
2636:Drivers/STM32H7xx_HAL_Driver/Src/stm32h7xx_hal_tim_ex.c **** /** @defgroup TIMEx_Exported_Functions_Group6 Extended Callbacks functions
2637:Drivers/STM32H7xx_HAL_Driver/Src/stm32h7xx_hal_tim_ex.c ****   * @brief    Extended Callbacks functions
2638:Drivers/STM32H7xx_HAL_Driver/Src/stm32h7xx_hal_tim_ex.c ****   *
2639:Drivers/STM32H7xx_HAL_Driver/Src/stm32h7xx_hal_tim_ex.c **** @verbatim
2640:Drivers/STM32H7xx_HAL_Driver/Src/stm32h7xx_hal_tim_ex.c ****   ==============================================================================
2641:Drivers/STM32H7xx_HAL_Driver/Src/stm32h7xx_hal_tim_ex.c ****                     ##### Extended Callbacks functions #####
2642:Drivers/STM32H7xx_HAL_Driver/Src/stm32h7xx_hal_tim_ex.c ****   ==============================================================================
2643:Drivers/STM32H7xx_HAL_Driver/Src/stm32h7xx_hal_tim_ex.c ****   [..]
2644:Drivers/STM32H7xx_HAL_Driver/Src/stm32h7xx_hal_tim_ex.c ****     This section provides Extended TIM callback functions:
2645:Drivers/STM32H7xx_HAL_Driver/Src/stm32h7xx_hal_tim_ex.c ****     (+) Timer Commutation callback
2646:Drivers/STM32H7xx_HAL_Driver/Src/stm32h7xx_hal_tim_ex.c ****     (+) Timer Break callback
2647:Drivers/STM32H7xx_HAL_Driver/Src/stm32h7xx_hal_tim_ex.c **** 
2648:Drivers/STM32H7xx_HAL_Driver/Src/stm32h7xx_hal_tim_ex.c **** @endverbatim
2649:Drivers/STM32H7xx_HAL_Driver/Src/stm32h7xx_hal_tim_ex.c ****   * @{
2650:Drivers/STM32H7xx_HAL_Driver/Src/stm32h7xx_hal_tim_ex.c ****   */
2651:Drivers/STM32H7xx_HAL_Driver/Src/stm32h7xx_hal_tim_ex.c **** 
2652:Drivers/STM32H7xx_HAL_Driver/Src/stm32h7xx_hal_tim_ex.c **** /**
2653:Drivers/STM32H7xx_HAL_Driver/Src/stm32h7xx_hal_tim_ex.c ****   * @brief  Hall commutation changed callback in non-blocking mode
ARM GAS  /var/folders/d0/cymppscj10lcmm48h781wrc80000gn/T//ccIjALm5.s 			page 167


2654:Drivers/STM32H7xx_HAL_Driver/Src/stm32h7xx_hal_tim_ex.c ****   * @param  htim TIM handle
2655:Drivers/STM32H7xx_HAL_Driver/Src/stm32h7xx_hal_tim_ex.c ****   * @retval None
2656:Drivers/STM32H7xx_HAL_Driver/Src/stm32h7xx_hal_tim_ex.c ****   */
2657:Drivers/STM32H7xx_HAL_Driver/Src/stm32h7xx_hal_tim_ex.c **** __weak void HAL_TIMEx_CommutCallback(TIM_HandleTypeDef *htim)
2658:Drivers/STM32H7xx_HAL_Driver/Src/stm32h7xx_hal_tim_ex.c **** {
 6861              		.loc 1 2658 1
 6862              		.cfi_startproc
 6863              		@ args = 0, pretend = 0, frame = 8
 6864              		@ frame_needed = 1, uses_anonymous_args = 0
 6865              		@ link register save eliminated.
 6866 0000 80B4     		push	{r7}
 6867              	.LCFI186:
 6868              		.cfi_def_cfa_offset 4
 6869              		.cfi_offset 7, -4
 6870 0002 83B0     		sub	sp, sp, #12
 6871              	.LCFI187:
 6872              		.cfi_def_cfa_offset 16
 6873 0004 00AF     		add	r7, sp, #0
 6874              	.LCFI188:
 6875              		.cfi_def_cfa_register 7
 6876 0006 7860     		str	r0, [r7, #4]
2659:Drivers/STM32H7xx_HAL_Driver/Src/stm32h7xx_hal_tim_ex.c ****   /* Prevent unused argument(s) compilation warning */
2660:Drivers/STM32H7xx_HAL_Driver/Src/stm32h7xx_hal_tim_ex.c ****   UNUSED(htim);
2661:Drivers/STM32H7xx_HAL_Driver/Src/stm32h7xx_hal_tim_ex.c **** 
2662:Drivers/STM32H7xx_HAL_Driver/Src/stm32h7xx_hal_tim_ex.c ****   /* NOTE : This function should not be modified, when the callback is needed,
2663:Drivers/STM32H7xx_HAL_Driver/Src/stm32h7xx_hal_tim_ex.c ****             the HAL_TIMEx_CommutCallback could be implemented in the user file
2664:Drivers/STM32H7xx_HAL_Driver/Src/stm32h7xx_hal_tim_ex.c ****    */
2665:Drivers/STM32H7xx_HAL_Driver/Src/stm32h7xx_hal_tim_ex.c **** }
 6877              		.loc 1 2665 1
 6878 0008 00BF     		nop
 6879 000a 0C37     		adds	r7, r7, #12
 6880              	.LCFI189:
 6881              		.cfi_def_cfa_offset 4
 6882 000c BD46     		mov	sp, r7
 6883              	.LCFI190:
 6884              		.cfi_def_cfa_register 13
 6885              		@ sp needed
 6886 000e 5DF8047B 		ldr	r7, [sp], #4
 6887              	.LCFI191:
 6888              		.cfi_restore 7
 6889              		.cfi_def_cfa_offset 0
 6890 0012 7047     		bx	lr
 6891              		.cfi_endproc
 6892              	.LFE368:
 6894              		.section	.text.HAL_TIMEx_CommutHalfCpltCallback,"ax",%progbits
 6895              		.align	1
 6896              		.weak	HAL_TIMEx_CommutHalfCpltCallback
 6897              		.syntax unified
 6898              		.thumb
 6899              		.thumb_func
 6901              	HAL_TIMEx_CommutHalfCpltCallback:
 6902              	.LFB369:
2666:Drivers/STM32H7xx_HAL_Driver/Src/stm32h7xx_hal_tim_ex.c **** /**
2667:Drivers/STM32H7xx_HAL_Driver/Src/stm32h7xx_hal_tim_ex.c ****   * @brief  Hall commutation changed half complete callback in non-blocking mode
2668:Drivers/STM32H7xx_HAL_Driver/Src/stm32h7xx_hal_tim_ex.c ****   * @param  htim TIM handle
2669:Drivers/STM32H7xx_HAL_Driver/Src/stm32h7xx_hal_tim_ex.c ****   * @retval None
2670:Drivers/STM32H7xx_HAL_Driver/Src/stm32h7xx_hal_tim_ex.c ****   */
ARM GAS  /var/folders/d0/cymppscj10lcmm48h781wrc80000gn/T//ccIjALm5.s 			page 168


2671:Drivers/STM32H7xx_HAL_Driver/Src/stm32h7xx_hal_tim_ex.c **** __weak void HAL_TIMEx_CommutHalfCpltCallback(TIM_HandleTypeDef *htim)
2672:Drivers/STM32H7xx_HAL_Driver/Src/stm32h7xx_hal_tim_ex.c **** {
 6903              		.loc 1 2672 1
 6904              		.cfi_startproc
 6905              		@ args = 0, pretend = 0, frame = 8
 6906              		@ frame_needed = 1, uses_anonymous_args = 0
 6907              		@ link register save eliminated.
 6908 0000 80B4     		push	{r7}
 6909              	.LCFI192:
 6910              		.cfi_def_cfa_offset 4
 6911              		.cfi_offset 7, -4
 6912 0002 83B0     		sub	sp, sp, #12
 6913              	.LCFI193:
 6914              		.cfi_def_cfa_offset 16
 6915 0004 00AF     		add	r7, sp, #0
 6916              	.LCFI194:
 6917              		.cfi_def_cfa_register 7
 6918 0006 7860     		str	r0, [r7, #4]
2673:Drivers/STM32H7xx_HAL_Driver/Src/stm32h7xx_hal_tim_ex.c ****   /* Prevent unused argument(s) compilation warning */
2674:Drivers/STM32H7xx_HAL_Driver/Src/stm32h7xx_hal_tim_ex.c ****   UNUSED(htim);
2675:Drivers/STM32H7xx_HAL_Driver/Src/stm32h7xx_hal_tim_ex.c **** 
2676:Drivers/STM32H7xx_HAL_Driver/Src/stm32h7xx_hal_tim_ex.c ****   /* NOTE : This function should not be modified, when the callback is needed,
2677:Drivers/STM32H7xx_HAL_Driver/Src/stm32h7xx_hal_tim_ex.c ****             the HAL_TIMEx_CommutHalfCpltCallback could be implemented in the user file
2678:Drivers/STM32H7xx_HAL_Driver/Src/stm32h7xx_hal_tim_ex.c ****    */
2679:Drivers/STM32H7xx_HAL_Driver/Src/stm32h7xx_hal_tim_ex.c **** }
 6919              		.loc 1 2679 1
 6920 0008 00BF     		nop
 6921 000a 0C37     		adds	r7, r7, #12
 6922              	.LCFI195:
 6923              		.cfi_def_cfa_offset 4
 6924 000c BD46     		mov	sp, r7
 6925              	.LCFI196:
 6926              		.cfi_def_cfa_register 13
 6927              		@ sp needed
 6928 000e 5DF8047B 		ldr	r7, [sp], #4
 6929              	.LCFI197:
 6930              		.cfi_restore 7
 6931              		.cfi_def_cfa_offset 0
 6932 0012 7047     		bx	lr
 6933              		.cfi_endproc
 6934              	.LFE369:
 6936              		.section	.text.HAL_TIMEx_BreakCallback,"ax",%progbits
 6937              		.align	1
 6938              		.weak	HAL_TIMEx_BreakCallback
 6939              		.syntax unified
 6940              		.thumb
 6941              		.thumb_func
 6943              	HAL_TIMEx_BreakCallback:
 6944              	.LFB370:
2680:Drivers/STM32H7xx_HAL_Driver/Src/stm32h7xx_hal_tim_ex.c **** 
2681:Drivers/STM32H7xx_HAL_Driver/Src/stm32h7xx_hal_tim_ex.c **** /**
2682:Drivers/STM32H7xx_HAL_Driver/Src/stm32h7xx_hal_tim_ex.c ****   * @brief  Hall Break detection callback in non-blocking mode
2683:Drivers/STM32H7xx_HAL_Driver/Src/stm32h7xx_hal_tim_ex.c ****   * @param  htim TIM handle
2684:Drivers/STM32H7xx_HAL_Driver/Src/stm32h7xx_hal_tim_ex.c ****   * @retval None
2685:Drivers/STM32H7xx_HAL_Driver/Src/stm32h7xx_hal_tim_ex.c ****   */
2686:Drivers/STM32H7xx_HAL_Driver/Src/stm32h7xx_hal_tim_ex.c **** __weak void HAL_TIMEx_BreakCallback(TIM_HandleTypeDef *htim)
2687:Drivers/STM32H7xx_HAL_Driver/Src/stm32h7xx_hal_tim_ex.c **** {
ARM GAS  /var/folders/d0/cymppscj10lcmm48h781wrc80000gn/T//ccIjALm5.s 			page 169


 6945              		.loc 1 2687 1
 6946              		.cfi_startproc
 6947              		@ args = 0, pretend = 0, frame = 8
 6948              		@ frame_needed = 1, uses_anonymous_args = 0
 6949              		@ link register save eliminated.
 6950 0000 80B4     		push	{r7}
 6951              	.LCFI198:
 6952              		.cfi_def_cfa_offset 4
 6953              		.cfi_offset 7, -4
 6954 0002 83B0     		sub	sp, sp, #12
 6955              	.LCFI199:
 6956              		.cfi_def_cfa_offset 16
 6957 0004 00AF     		add	r7, sp, #0
 6958              	.LCFI200:
 6959              		.cfi_def_cfa_register 7
 6960 0006 7860     		str	r0, [r7, #4]
2688:Drivers/STM32H7xx_HAL_Driver/Src/stm32h7xx_hal_tim_ex.c ****   /* Prevent unused argument(s) compilation warning */
2689:Drivers/STM32H7xx_HAL_Driver/Src/stm32h7xx_hal_tim_ex.c ****   UNUSED(htim);
2690:Drivers/STM32H7xx_HAL_Driver/Src/stm32h7xx_hal_tim_ex.c **** 
2691:Drivers/STM32H7xx_HAL_Driver/Src/stm32h7xx_hal_tim_ex.c ****   /* NOTE : This function should not be modified, when the callback is needed,
2692:Drivers/STM32H7xx_HAL_Driver/Src/stm32h7xx_hal_tim_ex.c ****             the HAL_TIMEx_BreakCallback could be implemented in the user file
2693:Drivers/STM32H7xx_HAL_Driver/Src/stm32h7xx_hal_tim_ex.c ****    */
2694:Drivers/STM32H7xx_HAL_Driver/Src/stm32h7xx_hal_tim_ex.c **** }
 6961              		.loc 1 2694 1
 6962 0008 00BF     		nop
 6963 000a 0C37     		adds	r7, r7, #12
 6964              	.LCFI201:
 6965              		.cfi_def_cfa_offset 4
 6966 000c BD46     		mov	sp, r7
 6967              	.LCFI202:
 6968              		.cfi_def_cfa_register 13
 6969              		@ sp needed
 6970 000e 5DF8047B 		ldr	r7, [sp], #4
 6971              	.LCFI203:
 6972              		.cfi_restore 7
 6973              		.cfi_def_cfa_offset 0
 6974 0012 7047     		bx	lr
 6975              		.cfi_endproc
 6976              	.LFE370:
 6978              		.section	.text.HAL_TIMEx_Break2Callback,"ax",%progbits
 6979              		.align	1
 6980              		.weak	HAL_TIMEx_Break2Callback
 6981              		.syntax unified
 6982              		.thumb
 6983              		.thumb_func
 6985              	HAL_TIMEx_Break2Callback:
 6986              	.LFB371:
2695:Drivers/STM32H7xx_HAL_Driver/Src/stm32h7xx_hal_tim_ex.c **** 
2696:Drivers/STM32H7xx_HAL_Driver/Src/stm32h7xx_hal_tim_ex.c **** /**
2697:Drivers/STM32H7xx_HAL_Driver/Src/stm32h7xx_hal_tim_ex.c ****   * @brief  Hall Break2 detection callback in non blocking mode
2698:Drivers/STM32H7xx_HAL_Driver/Src/stm32h7xx_hal_tim_ex.c ****   * @param  htim: TIM handle
2699:Drivers/STM32H7xx_HAL_Driver/Src/stm32h7xx_hal_tim_ex.c ****   * @retval None
2700:Drivers/STM32H7xx_HAL_Driver/Src/stm32h7xx_hal_tim_ex.c ****   */
2701:Drivers/STM32H7xx_HAL_Driver/Src/stm32h7xx_hal_tim_ex.c **** __weak void HAL_TIMEx_Break2Callback(TIM_HandleTypeDef *htim)
2702:Drivers/STM32H7xx_HAL_Driver/Src/stm32h7xx_hal_tim_ex.c **** {
 6987              		.loc 1 2702 1
 6988              		.cfi_startproc
ARM GAS  /var/folders/d0/cymppscj10lcmm48h781wrc80000gn/T//ccIjALm5.s 			page 170


 6989              		@ args = 0, pretend = 0, frame = 8
 6990              		@ frame_needed = 1, uses_anonymous_args = 0
 6991              		@ link register save eliminated.
 6992 0000 80B4     		push	{r7}
 6993              	.LCFI204:
 6994              		.cfi_def_cfa_offset 4
 6995              		.cfi_offset 7, -4
 6996 0002 83B0     		sub	sp, sp, #12
 6997              	.LCFI205:
 6998              		.cfi_def_cfa_offset 16
 6999 0004 00AF     		add	r7, sp, #0
 7000              	.LCFI206:
 7001              		.cfi_def_cfa_register 7
 7002 0006 7860     		str	r0, [r7, #4]
2703:Drivers/STM32H7xx_HAL_Driver/Src/stm32h7xx_hal_tim_ex.c ****   /* Prevent unused argument(s) compilation warning */
2704:Drivers/STM32H7xx_HAL_Driver/Src/stm32h7xx_hal_tim_ex.c ****   UNUSED(htim);
2705:Drivers/STM32H7xx_HAL_Driver/Src/stm32h7xx_hal_tim_ex.c **** 
2706:Drivers/STM32H7xx_HAL_Driver/Src/stm32h7xx_hal_tim_ex.c ****   /* NOTE : This function Should not be modified, when the callback is needed,
2707:Drivers/STM32H7xx_HAL_Driver/Src/stm32h7xx_hal_tim_ex.c ****             the HAL_TIMEx_Break2Callback could be implemented in the user file
2708:Drivers/STM32H7xx_HAL_Driver/Src/stm32h7xx_hal_tim_ex.c ****    */
2709:Drivers/STM32H7xx_HAL_Driver/Src/stm32h7xx_hal_tim_ex.c **** }
 7003              		.loc 1 2709 1
 7004 0008 00BF     		nop
 7005 000a 0C37     		adds	r7, r7, #12
 7006              	.LCFI207:
 7007              		.cfi_def_cfa_offset 4
 7008 000c BD46     		mov	sp, r7
 7009              	.LCFI208:
 7010              		.cfi_def_cfa_register 13
 7011              		@ sp needed
 7012 000e 5DF8047B 		ldr	r7, [sp], #4
 7013              	.LCFI209:
 7014              		.cfi_restore 7
 7015              		.cfi_def_cfa_offset 0
 7016 0012 7047     		bx	lr
 7017              		.cfi_endproc
 7018              	.LFE371:
 7020              		.section	.text.HAL_TIMEx_HallSensor_GetState,"ax",%progbits
 7021              		.align	1
 7022              		.global	HAL_TIMEx_HallSensor_GetState
 7023              		.syntax unified
 7024              		.thumb
 7025              		.thumb_func
 7027              	HAL_TIMEx_HallSensor_GetState:
 7028              	.LFB372:
2710:Drivers/STM32H7xx_HAL_Driver/Src/stm32h7xx_hal_tim_ex.c **** /**
2711:Drivers/STM32H7xx_HAL_Driver/Src/stm32h7xx_hal_tim_ex.c ****   * @}
2712:Drivers/STM32H7xx_HAL_Driver/Src/stm32h7xx_hal_tim_ex.c ****   */
2713:Drivers/STM32H7xx_HAL_Driver/Src/stm32h7xx_hal_tim_ex.c **** 
2714:Drivers/STM32H7xx_HAL_Driver/Src/stm32h7xx_hal_tim_ex.c **** /** @defgroup TIMEx_Exported_Functions_Group7 Extended Peripheral State functions
2715:Drivers/STM32H7xx_HAL_Driver/Src/stm32h7xx_hal_tim_ex.c ****   * @brief    Extended Peripheral State functions
2716:Drivers/STM32H7xx_HAL_Driver/Src/stm32h7xx_hal_tim_ex.c ****   *
2717:Drivers/STM32H7xx_HAL_Driver/Src/stm32h7xx_hal_tim_ex.c **** @verbatim
2718:Drivers/STM32H7xx_HAL_Driver/Src/stm32h7xx_hal_tim_ex.c ****   ==============================================================================
2719:Drivers/STM32H7xx_HAL_Driver/Src/stm32h7xx_hal_tim_ex.c ****                 ##### Extended Peripheral State functions #####
2720:Drivers/STM32H7xx_HAL_Driver/Src/stm32h7xx_hal_tim_ex.c ****   ==============================================================================
2721:Drivers/STM32H7xx_HAL_Driver/Src/stm32h7xx_hal_tim_ex.c ****   [..]
ARM GAS  /var/folders/d0/cymppscj10lcmm48h781wrc80000gn/T//ccIjALm5.s 			page 171


2722:Drivers/STM32H7xx_HAL_Driver/Src/stm32h7xx_hal_tim_ex.c ****     This subsection permits to get in run-time the status of the peripheral
2723:Drivers/STM32H7xx_HAL_Driver/Src/stm32h7xx_hal_tim_ex.c ****     and the data flow.
2724:Drivers/STM32H7xx_HAL_Driver/Src/stm32h7xx_hal_tim_ex.c **** 
2725:Drivers/STM32H7xx_HAL_Driver/Src/stm32h7xx_hal_tim_ex.c **** @endverbatim
2726:Drivers/STM32H7xx_HAL_Driver/Src/stm32h7xx_hal_tim_ex.c ****   * @{
2727:Drivers/STM32H7xx_HAL_Driver/Src/stm32h7xx_hal_tim_ex.c ****   */
2728:Drivers/STM32H7xx_HAL_Driver/Src/stm32h7xx_hal_tim_ex.c **** 
2729:Drivers/STM32H7xx_HAL_Driver/Src/stm32h7xx_hal_tim_ex.c **** /**
2730:Drivers/STM32H7xx_HAL_Driver/Src/stm32h7xx_hal_tim_ex.c ****   * @brief  Return the TIM Hall Sensor interface handle state.
2731:Drivers/STM32H7xx_HAL_Driver/Src/stm32h7xx_hal_tim_ex.c ****   * @param  htim TIM Hall Sensor handle
2732:Drivers/STM32H7xx_HAL_Driver/Src/stm32h7xx_hal_tim_ex.c ****   * @retval HAL state
2733:Drivers/STM32H7xx_HAL_Driver/Src/stm32h7xx_hal_tim_ex.c ****   */
2734:Drivers/STM32H7xx_HAL_Driver/Src/stm32h7xx_hal_tim_ex.c **** HAL_TIM_StateTypeDef HAL_TIMEx_HallSensor_GetState(TIM_HandleTypeDef *htim)
2735:Drivers/STM32H7xx_HAL_Driver/Src/stm32h7xx_hal_tim_ex.c **** {
 7029              		.loc 1 2735 1
 7030              		.cfi_startproc
 7031              		@ args = 0, pretend = 0, frame = 8
 7032              		@ frame_needed = 1, uses_anonymous_args = 0
 7033              		@ link register save eliminated.
 7034 0000 80B4     		push	{r7}
 7035              	.LCFI210:
 7036              		.cfi_def_cfa_offset 4
 7037              		.cfi_offset 7, -4
 7038 0002 83B0     		sub	sp, sp, #12
 7039              	.LCFI211:
 7040              		.cfi_def_cfa_offset 16
 7041 0004 00AF     		add	r7, sp, #0
 7042              	.LCFI212:
 7043              		.cfi_def_cfa_register 7
 7044 0006 7860     		str	r0, [r7, #4]
2736:Drivers/STM32H7xx_HAL_Driver/Src/stm32h7xx_hal_tim_ex.c ****   return htim->State;
 7045              		.loc 1 2736 14
 7046 0008 7B68     		ldr	r3, [r7, #4]
 7047 000a 93F83D30 		ldrb	r3, [r3, #61]
 7048 000e DBB2     		uxtb	r3, r3
2737:Drivers/STM32H7xx_HAL_Driver/Src/stm32h7xx_hal_tim_ex.c **** }
 7049              		.loc 1 2737 1
 7050 0010 1846     		mov	r0, r3
 7051 0012 0C37     		adds	r7, r7, #12
 7052              	.LCFI213:
 7053              		.cfi_def_cfa_offset 4
 7054 0014 BD46     		mov	sp, r7
 7055              	.LCFI214:
 7056              		.cfi_def_cfa_register 13
 7057              		@ sp needed
 7058 0016 5DF8047B 		ldr	r7, [sp], #4
 7059              	.LCFI215:
 7060              		.cfi_restore 7
 7061              		.cfi_def_cfa_offset 0
 7062 001a 7047     		bx	lr
 7063              		.cfi_endproc
 7064              	.LFE372:
 7066              		.section	.text.HAL_TIMEx_GetChannelNState,"ax",%progbits
 7067              		.align	1
 7068              		.global	HAL_TIMEx_GetChannelNState
 7069              		.syntax unified
 7070              		.thumb
ARM GAS  /var/folders/d0/cymppscj10lcmm48h781wrc80000gn/T//ccIjALm5.s 			page 172


 7071              		.thumb_func
 7073              	HAL_TIMEx_GetChannelNState:
 7074              	.LFB373:
2738:Drivers/STM32H7xx_HAL_Driver/Src/stm32h7xx_hal_tim_ex.c **** 
2739:Drivers/STM32H7xx_HAL_Driver/Src/stm32h7xx_hal_tim_ex.c **** /**
2740:Drivers/STM32H7xx_HAL_Driver/Src/stm32h7xx_hal_tim_ex.c ****   * @brief  Return actual state of the TIM complementary channel.
2741:Drivers/STM32H7xx_HAL_Driver/Src/stm32h7xx_hal_tim_ex.c ****   * @param  htim TIM handle
2742:Drivers/STM32H7xx_HAL_Driver/Src/stm32h7xx_hal_tim_ex.c ****   * @param  ChannelN TIM Complementary channel
2743:Drivers/STM32H7xx_HAL_Driver/Src/stm32h7xx_hal_tim_ex.c ****   *          This parameter can be one of the following values:
2744:Drivers/STM32H7xx_HAL_Driver/Src/stm32h7xx_hal_tim_ex.c ****   *            @arg TIM_CHANNEL_1: TIM Channel 1
2745:Drivers/STM32H7xx_HAL_Driver/Src/stm32h7xx_hal_tim_ex.c ****   *            @arg TIM_CHANNEL_2: TIM Channel 2
2746:Drivers/STM32H7xx_HAL_Driver/Src/stm32h7xx_hal_tim_ex.c ****   *            @arg TIM_CHANNEL_3: TIM Channel 3
2747:Drivers/STM32H7xx_HAL_Driver/Src/stm32h7xx_hal_tim_ex.c ****   * @retval TIM Complementary channel state
2748:Drivers/STM32H7xx_HAL_Driver/Src/stm32h7xx_hal_tim_ex.c ****   */
2749:Drivers/STM32H7xx_HAL_Driver/Src/stm32h7xx_hal_tim_ex.c **** HAL_TIM_ChannelStateTypeDef HAL_TIMEx_GetChannelNState(TIM_HandleTypeDef *htim,  uint32_t ChannelN)
2750:Drivers/STM32H7xx_HAL_Driver/Src/stm32h7xx_hal_tim_ex.c **** {
 7075              		.loc 1 2750 1
 7076              		.cfi_startproc
 7077              		@ args = 0, pretend = 0, frame = 16
 7078              		@ frame_needed = 1, uses_anonymous_args = 0
 7079              		@ link register save eliminated.
 7080 0000 80B4     		push	{r7}
 7081              	.LCFI216:
 7082              		.cfi_def_cfa_offset 4
 7083              		.cfi_offset 7, -4
 7084 0002 85B0     		sub	sp, sp, #20
 7085              	.LCFI217:
 7086              		.cfi_def_cfa_offset 24
 7087 0004 00AF     		add	r7, sp, #0
 7088              	.LCFI218:
 7089              		.cfi_def_cfa_register 7
 7090 0006 7860     		str	r0, [r7, #4]
 7091 0008 3960     		str	r1, [r7]
2751:Drivers/STM32H7xx_HAL_Driver/Src/stm32h7xx_hal_tim_ex.c ****   HAL_TIM_ChannelStateTypeDef channel_state;
2752:Drivers/STM32H7xx_HAL_Driver/Src/stm32h7xx_hal_tim_ex.c **** 
2753:Drivers/STM32H7xx_HAL_Driver/Src/stm32h7xx_hal_tim_ex.c ****   /* Check the parameters */
2754:Drivers/STM32H7xx_HAL_Driver/Src/stm32h7xx_hal_tim_ex.c ****   assert_param(IS_TIM_CCXN_INSTANCE(htim->Instance, ChannelN));
2755:Drivers/STM32H7xx_HAL_Driver/Src/stm32h7xx_hal_tim_ex.c **** 
2756:Drivers/STM32H7xx_HAL_Driver/Src/stm32h7xx_hal_tim_ex.c ****   channel_state = TIM_CHANNEL_N_STATE_GET(htim, ChannelN);
 7092              		.loc 1 2756 19
 7093 000a 3B68     		ldr	r3, [r7]
 7094 000c 002B     		cmp	r3, #0
 7095 000e 04D1     		bne	.L421
 7096              		.loc 1 2756 19 is_stmt 0 discriminator 1
 7097 0010 7B68     		ldr	r3, [r7, #4]
 7098 0012 93F84430 		ldrb	r3, [r3, #68]
 7099 0016 DBB2     		uxtb	r3, r3
 7100 0018 13E0     		b	.L422
 7101              	.L421:
 7102              		.loc 1 2756 19 discriminator 2
 7103 001a 3B68     		ldr	r3, [r7]
 7104 001c 042B     		cmp	r3, #4
 7105 001e 04D1     		bne	.L423
 7106              		.loc 1 2756 19 discriminator 4
 7107 0020 7B68     		ldr	r3, [r7, #4]
 7108 0022 93F84530 		ldrb	r3, [r3, #69]
 7109 0026 DBB2     		uxtb	r3, r3
ARM GAS  /var/folders/d0/cymppscj10lcmm48h781wrc80000gn/T//ccIjALm5.s 			page 173


 7110 0028 0BE0     		b	.L422
 7111              	.L423:
 7112              		.loc 1 2756 19 discriminator 5
 7113 002a 3B68     		ldr	r3, [r7]
 7114 002c 082B     		cmp	r3, #8
 7115 002e 04D1     		bne	.L425
 7116              		.loc 1 2756 19 discriminator 7
 7117 0030 7B68     		ldr	r3, [r7, #4]
 7118 0032 93F84630 		ldrb	r3, [r3, #70]
 7119 0036 DBB2     		uxtb	r3, r3
 7120 0038 03E0     		b	.L422
 7121              	.L425:
 7122              		.loc 1 2756 19 discriminator 8
 7123 003a 7B68     		ldr	r3, [r7, #4]
 7124 003c 93F84730 		ldrb	r3, [r3, #71]
 7125 0040 DBB2     		uxtb	r3, r3
 7126              	.L422:
 7127              		.loc 1 2756 17 is_stmt 1 discriminator 12
 7128 0042 FB73     		strb	r3, [r7, #15]
2757:Drivers/STM32H7xx_HAL_Driver/Src/stm32h7xx_hal_tim_ex.c **** 
2758:Drivers/STM32H7xx_HAL_Driver/Src/stm32h7xx_hal_tim_ex.c ****   return channel_state;
 7129              		.loc 1 2758 10 discriminator 12
 7130 0044 FB7B     		ldrb	r3, [r7, #15]	@ zero_extendqisi2
2759:Drivers/STM32H7xx_HAL_Driver/Src/stm32h7xx_hal_tim_ex.c **** }
 7131              		.loc 1 2759 1 discriminator 12
 7132 0046 1846     		mov	r0, r3
 7133 0048 1437     		adds	r7, r7, #20
 7134              	.LCFI219:
 7135              		.cfi_def_cfa_offset 4
 7136 004a BD46     		mov	sp, r7
 7137              	.LCFI220:
 7138              		.cfi_def_cfa_register 13
 7139              		@ sp needed
 7140 004c 5DF8047B 		ldr	r7, [sp], #4
 7141              	.LCFI221:
 7142              		.cfi_restore 7
 7143              		.cfi_def_cfa_offset 0
 7144 0050 7047     		bx	lr
 7145              		.cfi_endproc
 7146              	.LFE373:
 7148              		.section	.text.TIMEx_DMACommutationCplt,"ax",%progbits
 7149              		.align	1
 7150              		.global	TIMEx_DMACommutationCplt
 7151              		.syntax unified
 7152              		.thumb
 7153              		.thumb_func
 7155              	TIMEx_DMACommutationCplt:
 7156              	.LFB374:
2760:Drivers/STM32H7xx_HAL_Driver/Src/stm32h7xx_hal_tim_ex.c **** /**
2761:Drivers/STM32H7xx_HAL_Driver/Src/stm32h7xx_hal_tim_ex.c ****   * @}
2762:Drivers/STM32H7xx_HAL_Driver/Src/stm32h7xx_hal_tim_ex.c ****   */
2763:Drivers/STM32H7xx_HAL_Driver/Src/stm32h7xx_hal_tim_ex.c **** 
2764:Drivers/STM32H7xx_HAL_Driver/Src/stm32h7xx_hal_tim_ex.c **** /**
2765:Drivers/STM32H7xx_HAL_Driver/Src/stm32h7xx_hal_tim_ex.c ****   * @}
2766:Drivers/STM32H7xx_HAL_Driver/Src/stm32h7xx_hal_tim_ex.c ****   */
2767:Drivers/STM32H7xx_HAL_Driver/Src/stm32h7xx_hal_tim_ex.c **** 
2768:Drivers/STM32H7xx_HAL_Driver/Src/stm32h7xx_hal_tim_ex.c **** /* Private functions ---------------------------------------------------------*/
ARM GAS  /var/folders/d0/cymppscj10lcmm48h781wrc80000gn/T//ccIjALm5.s 			page 174


2769:Drivers/STM32H7xx_HAL_Driver/Src/stm32h7xx_hal_tim_ex.c **** /** @defgroup TIMEx_Private_Functions TIM Extended Private Functions
2770:Drivers/STM32H7xx_HAL_Driver/Src/stm32h7xx_hal_tim_ex.c ****   * @{
2771:Drivers/STM32H7xx_HAL_Driver/Src/stm32h7xx_hal_tim_ex.c ****   */
2772:Drivers/STM32H7xx_HAL_Driver/Src/stm32h7xx_hal_tim_ex.c **** 
2773:Drivers/STM32H7xx_HAL_Driver/Src/stm32h7xx_hal_tim_ex.c **** /**
2774:Drivers/STM32H7xx_HAL_Driver/Src/stm32h7xx_hal_tim_ex.c ****   * @brief  TIM DMA Commutation callback.
2775:Drivers/STM32H7xx_HAL_Driver/Src/stm32h7xx_hal_tim_ex.c ****   * @param  hdma pointer to DMA handle.
2776:Drivers/STM32H7xx_HAL_Driver/Src/stm32h7xx_hal_tim_ex.c ****   * @retval None
2777:Drivers/STM32H7xx_HAL_Driver/Src/stm32h7xx_hal_tim_ex.c ****   */
2778:Drivers/STM32H7xx_HAL_Driver/Src/stm32h7xx_hal_tim_ex.c **** void TIMEx_DMACommutationCplt(DMA_HandleTypeDef *hdma)
2779:Drivers/STM32H7xx_HAL_Driver/Src/stm32h7xx_hal_tim_ex.c **** {
 7157              		.loc 1 2779 1
 7158              		.cfi_startproc
 7159              		@ args = 0, pretend = 0, frame = 16
 7160              		@ frame_needed = 1, uses_anonymous_args = 0
 7161 0000 80B5     		push	{r7, lr}
 7162              	.LCFI222:
 7163              		.cfi_def_cfa_offset 8
 7164              		.cfi_offset 7, -8
 7165              		.cfi_offset 14, -4
 7166 0002 84B0     		sub	sp, sp, #16
 7167              	.LCFI223:
 7168              		.cfi_def_cfa_offset 24
 7169 0004 00AF     		add	r7, sp, #0
 7170              	.LCFI224:
 7171              		.cfi_def_cfa_register 7
 7172 0006 7860     		str	r0, [r7, #4]
2780:Drivers/STM32H7xx_HAL_Driver/Src/stm32h7xx_hal_tim_ex.c ****   TIM_HandleTypeDef *htim = (TIM_HandleTypeDef *)((DMA_HandleTypeDef *)hdma)->Parent;
 7173              		.loc 1 2780 22
 7174 0008 7B68     		ldr	r3, [r7, #4]
 7175 000a 9B6B     		ldr	r3, [r3, #56]
 7176 000c FB60     		str	r3, [r7, #12]
2781:Drivers/STM32H7xx_HAL_Driver/Src/stm32h7xx_hal_tim_ex.c **** 
2782:Drivers/STM32H7xx_HAL_Driver/Src/stm32h7xx_hal_tim_ex.c ****   /* Change the htim state */
2783:Drivers/STM32H7xx_HAL_Driver/Src/stm32h7xx_hal_tim_ex.c ****   htim->State = HAL_TIM_STATE_READY;
 7177              		.loc 1 2783 15
 7178 000e FB68     		ldr	r3, [r7, #12]
 7179 0010 0122     		movs	r2, #1
 7180 0012 83F83D20 		strb	r2, [r3, #61]
2784:Drivers/STM32H7xx_HAL_Driver/Src/stm32h7xx_hal_tim_ex.c **** 
2785:Drivers/STM32H7xx_HAL_Driver/Src/stm32h7xx_hal_tim_ex.c **** #if (USE_HAL_TIM_REGISTER_CALLBACKS == 1)
2786:Drivers/STM32H7xx_HAL_Driver/Src/stm32h7xx_hal_tim_ex.c ****   htim->CommutationCallback(htim);
 7181              		.loc 1 2786 7
 7182 0016 FB68     		ldr	r3, [r7, #12]
 7183 0018 D3F8AC30 		ldr	r3, [r3, #172]
 7184              		.loc 1 2786 3
 7185 001c F868     		ldr	r0, [r7, #12]
 7186 001e 9847     		blx	r3
 7187              	.LVL2:
2787:Drivers/STM32H7xx_HAL_Driver/Src/stm32h7xx_hal_tim_ex.c **** #else
2788:Drivers/STM32H7xx_HAL_Driver/Src/stm32h7xx_hal_tim_ex.c ****   HAL_TIMEx_CommutCallback(htim);
2789:Drivers/STM32H7xx_HAL_Driver/Src/stm32h7xx_hal_tim_ex.c **** #endif /* USE_HAL_TIM_REGISTER_CALLBACKS */
2790:Drivers/STM32H7xx_HAL_Driver/Src/stm32h7xx_hal_tim_ex.c **** }
 7188              		.loc 1 2790 1
 7189 0020 00BF     		nop
 7190 0022 1037     		adds	r7, r7, #16
 7191              	.LCFI225:
ARM GAS  /var/folders/d0/cymppscj10lcmm48h781wrc80000gn/T//ccIjALm5.s 			page 175


 7192              		.cfi_def_cfa_offset 8
 7193 0024 BD46     		mov	sp, r7
 7194              	.LCFI226:
 7195              		.cfi_def_cfa_register 13
 7196              		@ sp needed
 7197 0026 80BD     		pop	{r7, pc}
 7198              		.cfi_endproc
 7199              	.LFE374:
 7201              		.section	.text.TIMEx_DMACommutationHalfCplt,"ax",%progbits
 7202              		.align	1
 7203              		.global	TIMEx_DMACommutationHalfCplt
 7204              		.syntax unified
 7205              		.thumb
 7206              		.thumb_func
 7208              	TIMEx_DMACommutationHalfCplt:
 7209              	.LFB375:
2791:Drivers/STM32H7xx_HAL_Driver/Src/stm32h7xx_hal_tim_ex.c **** 
2792:Drivers/STM32H7xx_HAL_Driver/Src/stm32h7xx_hal_tim_ex.c **** /**
2793:Drivers/STM32H7xx_HAL_Driver/Src/stm32h7xx_hal_tim_ex.c ****   * @brief  TIM DMA Commutation half complete callback.
2794:Drivers/STM32H7xx_HAL_Driver/Src/stm32h7xx_hal_tim_ex.c ****   * @param  hdma pointer to DMA handle.
2795:Drivers/STM32H7xx_HAL_Driver/Src/stm32h7xx_hal_tim_ex.c ****   * @retval None
2796:Drivers/STM32H7xx_HAL_Driver/Src/stm32h7xx_hal_tim_ex.c ****   */
2797:Drivers/STM32H7xx_HAL_Driver/Src/stm32h7xx_hal_tim_ex.c **** void TIMEx_DMACommutationHalfCplt(DMA_HandleTypeDef *hdma)
2798:Drivers/STM32H7xx_HAL_Driver/Src/stm32h7xx_hal_tim_ex.c **** {
 7210              		.loc 1 2798 1
 7211              		.cfi_startproc
 7212              		@ args = 0, pretend = 0, frame = 16
 7213              		@ frame_needed = 1, uses_anonymous_args = 0
 7214 0000 80B5     		push	{r7, lr}
 7215              	.LCFI227:
 7216              		.cfi_def_cfa_offset 8
 7217              		.cfi_offset 7, -8
 7218              		.cfi_offset 14, -4
 7219 0002 84B0     		sub	sp, sp, #16
 7220              	.LCFI228:
 7221              		.cfi_def_cfa_offset 24
 7222 0004 00AF     		add	r7, sp, #0
 7223              	.LCFI229:
 7224              		.cfi_def_cfa_register 7
 7225 0006 7860     		str	r0, [r7, #4]
2799:Drivers/STM32H7xx_HAL_Driver/Src/stm32h7xx_hal_tim_ex.c ****   TIM_HandleTypeDef *htim = (TIM_HandleTypeDef *)((DMA_HandleTypeDef *)hdma)->Parent;
 7226              		.loc 1 2799 22
 7227 0008 7B68     		ldr	r3, [r7, #4]
 7228 000a 9B6B     		ldr	r3, [r3, #56]
 7229 000c FB60     		str	r3, [r7, #12]
2800:Drivers/STM32H7xx_HAL_Driver/Src/stm32h7xx_hal_tim_ex.c **** 
2801:Drivers/STM32H7xx_HAL_Driver/Src/stm32h7xx_hal_tim_ex.c ****   /* Change the htim state */
2802:Drivers/STM32H7xx_HAL_Driver/Src/stm32h7xx_hal_tim_ex.c ****   htim->State = HAL_TIM_STATE_READY;
 7230              		.loc 1 2802 15
 7231 000e FB68     		ldr	r3, [r7, #12]
 7232 0010 0122     		movs	r2, #1
 7233 0012 83F83D20 		strb	r2, [r3, #61]
2803:Drivers/STM32H7xx_HAL_Driver/Src/stm32h7xx_hal_tim_ex.c **** 
2804:Drivers/STM32H7xx_HAL_Driver/Src/stm32h7xx_hal_tim_ex.c **** #if (USE_HAL_TIM_REGISTER_CALLBACKS == 1)
2805:Drivers/STM32H7xx_HAL_Driver/Src/stm32h7xx_hal_tim_ex.c ****   htim->CommutationHalfCpltCallback(htim);
 7234              		.loc 1 2805 7
 7235 0016 FB68     		ldr	r3, [r7, #12]
ARM GAS  /var/folders/d0/cymppscj10lcmm48h781wrc80000gn/T//ccIjALm5.s 			page 176


 7236 0018 D3F8B030 		ldr	r3, [r3, #176]
 7237              		.loc 1 2805 3
 7238 001c F868     		ldr	r0, [r7, #12]
 7239 001e 9847     		blx	r3
 7240              	.LVL3:
2806:Drivers/STM32H7xx_HAL_Driver/Src/stm32h7xx_hal_tim_ex.c **** #else
2807:Drivers/STM32H7xx_HAL_Driver/Src/stm32h7xx_hal_tim_ex.c ****   HAL_TIMEx_CommutHalfCpltCallback(htim);
2808:Drivers/STM32H7xx_HAL_Driver/Src/stm32h7xx_hal_tim_ex.c **** #endif /* USE_HAL_TIM_REGISTER_CALLBACKS */
2809:Drivers/STM32H7xx_HAL_Driver/Src/stm32h7xx_hal_tim_ex.c **** }
 7241              		.loc 1 2809 1
 7242 0020 00BF     		nop
 7243 0022 1037     		adds	r7, r7, #16
 7244              	.LCFI230:
 7245              		.cfi_def_cfa_offset 8
 7246 0024 BD46     		mov	sp, r7
 7247              	.LCFI231:
 7248              		.cfi_def_cfa_register 13
 7249              		@ sp needed
 7250 0026 80BD     		pop	{r7, pc}
 7251              		.cfi_endproc
 7252              	.LFE375:
 7254              		.section	.text.TIM_DMADelayPulseNCplt,"ax",%progbits
 7255              		.align	1
 7256              		.syntax unified
 7257              		.thumb
 7258              		.thumb_func
 7260              	TIM_DMADelayPulseNCplt:
 7261              	.LFB376:
2810:Drivers/STM32H7xx_HAL_Driver/Src/stm32h7xx_hal_tim_ex.c **** 
2811:Drivers/STM32H7xx_HAL_Driver/Src/stm32h7xx_hal_tim_ex.c **** 
2812:Drivers/STM32H7xx_HAL_Driver/Src/stm32h7xx_hal_tim_ex.c **** /**
2813:Drivers/STM32H7xx_HAL_Driver/Src/stm32h7xx_hal_tim_ex.c ****   * @brief  TIM DMA Delay Pulse complete callback (complementary channel).
2814:Drivers/STM32H7xx_HAL_Driver/Src/stm32h7xx_hal_tim_ex.c ****   * @param  hdma pointer to DMA handle.
2815:Drivers/STM32H7xx_HAL_Driver/Src/stm32h7xx_hal_tim_ex.c ****   * @retval None
2816:Drivers/STM32H7xx_HAL_Driver/Src/stm32h7xx_hal_tim_ex.c ****   */
2817:Drivers/STM32H7xx_HAL_Driver/Src/stm32h7xx_hal_tim_ex.c **** static void TIM_DMADelayPulseNCplt(DMA_HandleTypeDef *hdma)
2818:Drivers/STM32H7xx_HAL_Driver/Src/stm32h7xx_hal_tim_ex.c **** {
 7262              		.loc 1 2818 1
 7263              		.cfi_startproc
 7264              		@ args = 0, pretend = 0, frame = 16
 7265              		@ frame_needed = 1, uses_anonymous_args = 0
 7266 0000 80B5     		push	{r7, lr}
 7267              	.LCFI232:
 7268              		.cfi_def_cfa_offset 8
 7269              		.cfi_offset 7, -8
 7270              		.cfi_offset 14, -4
 7271 0002 84B0     		sub	sp, sp, #16
 7272              	.LCFI233:
 7273              		.cfi_def_cfa_offset 24
 7274 0004 00AF     		add	r7, sp, #0
 7275              	.LCFI234:
 7276              		.cfi_def_cfa_register 7
 7277 0006 7860     		str	r0, [r7, #4]
2819:Drivers/STM32H7xx_HAL_Driver/Src/stm32h7xx_hal_tim_ex.c ****   TIM_HandleTypeDef *htim = (TIM_HandleTypeDef *)((DMA_HandleTypeDef *)hdma)->Parent;
 7278              		.loc 1 2819 22
 7279 0008 7B68     		ldr	r3, [r7, #4]
 7280 000a 9B6B     		ldr	r3, [r3, #56]
ARM GAS  /var/folders/d0/cymppscj10lcmm48h781wrc80000gn/T//ccIjALm5.s 			page 177


 7281 000c FB60     		str	r3, [r7, #12]
2820:Drivers/STM32H7xx_HAL_Driver/Src/stm32h7xx_hal_tim_ex.c **** 
2821:Drivers/STM32H7xx_HAL_Driver/Src/stm32h7xx_hal_tim_ex.c ****   if (hdma == htim->hdma[TIM_DMA_ID_CC1])
 7282              		.loc 1 2821 25
 7283 000e FB68     		ldr	r3, [r7, #12]
 7284 0010 5B6A     		ldr	r3, [r3, #36]
 7285              		.loc 1 2821 6
 7286 0012 7A68     		ldr	r2, [r7, #4]
 7287 0014 9A42     		cmp	r2, r3
 7288 0016 0BD1     		bne	.L431
2822:Drivers/STM32H7xx_HAL_Driver/Src/stm32h7xx_hal_tim_ex.c ****   {
2823:Drivers/STM32H7xx_HAL_Driver/Src/stm32h7xx_hal_tim_ex.c ****     htim->Channel = HAL_TIM_ACTIVE_CHANNEL_1;
 7289              		.loc 1 2823 19
 7290 0018 FB68     		ldr	r3, [r7, #12]
 7291 001a 0122     		movs	r2, #1
 7292 001c 1A77     		strb	r2, [r3, #28]
2824:Drivers/STM32H7xx_HAL_Driver/Src/stm32h7xx_hal_tim_ex.c **** 
2825:Drivers/STM32H7xx_HAL_Driver/Src/stm32h7xx_hal_tim_ex.c ****     if (hdma->Init.Mode == DMA_NORMAL)
 7293              		.loc 1 2825 19
 7294 001e 7B68     		ldr	r3, [r7, #4]
 7295 0020 DB69     		ldr	r3, [r3, #28]
 7296              		.loc 1 2825 8
 7297 0022 002B     		cmp	r3, #0
 7298 0024 36D1     		bne	.L432
2826:Drivers/STM32H7xx_HAL_Driver/Src/stm32h7xx_hal_tim_ex.c ****     {
2827:Drivers/STM32H7xx_HAL_Driver/Src/stm32h7xx_hal_tim_ex.c ****       TIM_CHANNEL_N_STATE_SET(htim, TIM_CHANNEL_1, HAL_TIM_CHANNEL_STATE_READY);
 7299              		.loc 1 2827 7
 7300 0026 FB68     		ldr	r3, [r7, #12]
 7301 0028 0122     		movs	r2, #1
 7302 002a 83F84420 		strb	r2, [r3, #68]
 7303 002e 31E0     		b	.L432
 7304              	.L431:
2828:Drivers/STM32H7xx_HAL_Driver/Src/stm32h7xx_hal_tim_ex.c ****     }
2829:Drivers/STM32H7xx_HAL_Driver/Src/stm32h7xx_hal_tim_ex.c ****   }
2830:Drivers/STM32H7xx_HAL_Driver/Src/stm32h7xx_hal_tim_ex.c ****   else if (hdma == htim->hdma[TIM_DMA_ID_CC2])
 7305              		.loc 1 2830 30
 7306 0030 FB68     		ldr	r3, [r7, #12]
 7307 0032 9B6A     		ldr	r3, [r3, #40]
 7308              		.loc 1 2830 11
 7309 0034 7A68     		ldr	r2, [r7, #4]
 7310 0036 9A42     		cmp	r2, r3
 7311 0038 0BD1     		bne	.L433
2831:Drivers/STM32H7xx_HAL_Driver/Src/stm32h7xx_hal_tim_ex.c ****   {
2832:Drivers/STM32H7xx_HAL_Driver/Src/stm32h7xx_hal_tim_ex.c ****     htim->Channel = HAL_TIM_ACTIVE_CHANNEL_2;
 7312              		.loc 1 2832 19
 7313 003a FB68     		ldr	r3, [r7, #12]
 7314 003c 0222     		movs	r2, #2
 7315 003e 1A77     		strb	r2, [r3, #28]
2833:Drivers/STM32H7xx_HAL_Driver/Src/stm32h7xx_hal_tim_ex.c **** 
2834:Drivers/STM32H7xx_HAL_Driver/Src/stm32h7xx_hal_tim_ex.c ****     if (hdma->Init.Mode == DMA_NORMAL)
 7316              		.loc 1 2834 19
 7317 0040 7B68     		ldr	r3, [r7, #4]
 7318 0042 DB69     		ldr	r3, [r3, #28]
 7319              		.loc 1 2834 8
 7320 0044 002B     		cmp	r3, #0
 7321 0046 25D1     		bne	.L432
2835:Drivers/STM32H7xx_HAL_Driver/Src/stm32h7xx_hal_tim_ex.c ****     {
ARM GAS  /var/folders/d0/cymppscj10lcmm48h781wrc80000gn/T//ccIjALm5.s 			page 178


2836:Drivers/STM32H7xx_HAL_Driver/Src/stm32h7xx_hal_tim_ex.c ****       TIM_CHANNEL_N_STATE_SET(htim, TIM_CHANNEL_2, HAL_TIM_CHANNEL_STATE_READY);
 7322              		.loc 1 2836 7
 7323 0048 FB68     		ldr	r3, [r7, #12]
 7324 004a 0122     		movs	r2, #1
 7325 004c 83F84520 		strb	r2, [r3, #69]
 7326 0050 20E0     		b	.L432
 7327              	.L433:
2837:Drivers/STM32H7xx_HAL_Driver/Src/stm32h7xx_hal_tim_ex.c ****     }
2838:Drivers/STM32H7xx_HAL_Driver/Src/stm32h7xx_hal_tim_ex.c ****   }
2839:Drivers/STM32H7xx_HAL_Driver/Src/stm32h7xx_hal_tim_ex.c ****   else if (hdma == htim->hdma[TIM_DMA_ID_CC3])
 7328              		.loc 1 2839 30
 7329 0052 FB68     		ldr	r3, [r7, #12]
 7330 0054 DB6A     		ldr	r3, [r3, #44]
 7331              		.loc 1 2839 11
 7332 0056 7A68     		ldr	r2, [r7, #4]
 7333 0058 9A42     		cmp	r2, r3
 7334 005a 0BD1     		bne	.L434
2840:Drivers/STM32H7xx_HAL_Driver/Src/stm32h7xx_hal_tim_ex.c ****   {
2841:Drivers/STM32H7xx_HAL_Driver/Src/stm32h7xx_hal_tim_ex.c ****     htim->Channel = HAL_TIM_ACTIVE_CHANNEL_3;
 7335              		.loc 1 2841 19
 7336 005c FB68     		ldr	r3, [r7, #12]
 7337 005e 0422     		movs	r2, #4
 7338 0060 1A77     		strb	r2, [r3, #28]
2842:Drivers/STM32H7xx_HAL_Driver/Src/stm32h7xx_hal_tim_ex.c **** 
2843:Drivers/STM32H7xx_HAL_Driver/Src/stm32h7xx_hal_tim_ex.c ****     if (hdma->Init.Mode == DMA_NORMAL)
 7339              		.loc 1 2843 19
 7340 0062 7B68     		ldr	r3, [r7, #4]
 7341 0064 DB69     		ldr	r3, [r3, #28]
 7342              		.loc 1 2843 8
 7343 0066 002B     		cmp	r3, #0
 7344 0068 14D1     		bne	.L432
2844:Drivers/STM32H7xx_HAL_Driver/Src/stm32h7xx_hal_tim_ex.c ****     {
2845:Drivers/STM32H7xx_HAL_Driver/Src/stm32h7xx_hal_tim_ex.c ****       TIM_CHANNEL_N_STATE_SET(htim, TIM_CHANNEL_3, HAL_TIM_CHANNEL_STATE_READY);
 7345              		.loc 1 2845 7
 7346 006a FB68     		ldr	r3, [r7, #12]
 7347 006c 0122     		movs	r2, #1
 7348 006e 83F84620 		strb	r2, [r3, #70]
 7349 0072 0FE0     		b	.L432
 7350              	.L434:
2846:Drivers/STM32H7xx_HAL_Driver/Src/stm32h7xx_hal_tim_ex.c ****     }
2847:Drivers/STM32H7xx_HAL_Driver/Src/stm32h7xx_hal_tim_ex.c ****   }
2848:Drivers/STM32H7xx_HAL_Driver/Src/stm32h7xx_hal_tim_ex.c ****   else if (hdma == htim->hdma[TIM_DMA_ID_CC4])
 7351              		.loc 1 2848 30
 7352 0074 FB68     		ldr	r3, [r7, #12]
 7353 0076 1B6B     		ldr	r3, [r3, #48]
 7354              		.loc 1 2848 11
 7355 0078 7A68     		ldr	r2, [r7, #4]
 7356 007a 9A42     		cmp	r2, r3
 7357 007c 0AD1     		bne	.L432
2849:Drivers/STM32H7xx_HAL_Driver/Src/stm32h7xx_hal_tim_ex.c ****   {
2850:Drivers/STM32H7xx_HAL_Driver/Src/stm32h7xx_hal_tim_ex.c ****     htim->Channel = HAL_TIM_ACTIVE_CHANNEL_4;
 7358              		.loc 1 2850 19
 7359 007e FB68     		ldr	r3, [r7, #12]
 7360 0080 0822     		movs	r2, #8
 7361 0082 1A77     		strb	r2, [r3, #28]
2851:Drivers/STM32H7xx_HAL_Driver/Src/stm32h7xx_hal_tim_ex.c **** 
2852:Drivers/STM32H7xx_HAL_Driver/Src/stm32h7xx_hal_tim_ex.c ****     if (hdma->Init.Mode == DMA_NORMAL)
ARM GAS  /var/folders/d0/cymppscj10lcmm48h781wrc80000gn/T//ccIjALm5.s 			page 179


 7362              		.loc 1 2852 19
 7363 0084 7B68     		ldr	r3, [r7, #4]
 7364 0086 DB69     		ldr	r3, [r3, #28]
 7365              		.loc 1 2852 8
 7366 0088 002B     		cmp	r3, #0
 7367 008a 03D1     		bne	.L432
2853:Drivers/STM32H7xx_HAL_Driver/Src/stm32h7xx_hal_tim_ex.c ****     {
2854:Drivers/STM32H7xx_HAL_Driver/Src/stm32h7xx_hal_tim_ex.c ****       TIM_CHANNEL_N_STATE_SET(htim, TIM_CHANNEL_4, HAL_TIM_CHANNEL_STATE_READY);
 7368              		.loc 1 2854 7
 7369 008c FB68     		ldr	r3, [r7, #12]
 7370 008e 0122     		movs	r2, #1
 7371 0090 83F84720 		strb	r2, [r3, #71]
 7372              	.L432:
2855:Drivers/STM32H7xx_HAL_Driver/Src/stm32h7xx_hal_tim_ex.c ****     }
2856:Drivers/STM32H7xx_HAL_Driver/Src/stm32h7xx_hal_tim_ex.c ****   }
2857:Drivers/STM32H7xx_HAL_Driver/Src/stm32h7xx_hal_tim_ex.c ****   else
2858:Drivers/STM32H7xx_HAL_Driver/Src/stm32h7xx_hal_tim_ex.c ****   {
2859:Drivers/STM32H7xx_HAL_Driver/Src/stm32h7xx_hal_tim_ex.c ****     /* nothing to do */
2860:Drivers/STM32H7xx_HAL_Driver/Src/stm32h7xx_hal_tim_ex.c ****   }
2861:Drivers/STM32H7xx_HAL_Driver/Src/stm32h7xx_hal_tim_ex.c **** 
2862:Drivers/STM32H7xx_HAL_Driver/Src/stm32h7xx_hal_tim_ex.c **** #if (USE_HAL_TIM_REGISTER_CALLBACKS == 1)
2863:Drivers/STM32H7xx_HAL_Driver/Src/stm32h7xx_hal_tim_ex.c ****   htim->PWM_PulseFinishedCallback(htim);
 7373              		.loc 1 2863 7
 7374 0094 FB68     		ldr	r3, [r7, #12]
 7375 0096 D3F8A030 		ldr	r3, [r3, #160]
 7376              		.loc 1 2863 3
 7377 009a F868     		ldr	r0, [r7, #12]
 7378 009c 9847     		blx	r3
 7379              	.LVL4:
2864:Drivers/STM32H7xx_HAL_Driver/Src/stm32h7xx_hal_tim_ex.c **** #else
2865:Drivers/STM32H7xx_HAL_Driver/Src/stm32h7xx_hal_tim_ex.c ****   HAL_TIM_PWM_PulseFinishedCallback(htim);
2866:Drivers/STM32H7xx_HAL_Driver/Src/stm32h7xx_hal_tim_ex.c **** #endif /* USE_HAL_TIM_REGISTER_CALLBACKS */
2867:Drivers/STM32H7xx_HAL_Driver/Src/stm32h7xx_hal_tim_ex.c **** 
2868:Drivers/STM32H7xx_HAL_Driver/Src/stm32h7xx_hal_tim_ex.c ****   htim->Channel = HAL_TIM_ACTIVE_CHANNEL_CLEARED;
 7380              		.loc 1 2868 17
 7381 009e FB68     		ldr	r3, [r7, #12]
 7382 00a0 0022     		movs	r2, #0
 7383 00a2 1A77     		strb	r2, [r3, #28]
2869:Drivers/STM32H7xx_HAL_Driver/Src/stm32h7xx_hal_tim_ex.c **** }
 7384              		.loc 1 2869 1
 7385 00a4 00BF     		nop
 7386 00a6 1037     		adds	r7, r7, #16
 7387              	.LCFI235:
 7388              		.cfi_def_cfa_offset 8
 7389 00a8 BD46     		mov	sp, r7
 7390              	.LCFI236:
 7391              		.cfi_def_cfa_register 13
 7392              		@ sp needed
 7393 00aa 80BD     		pop	{r7, pc}
 7394              		.cfi_endproc
 7395              	.LFE376:
 7397              		.section	.text.TIM_DMAErrorCCxN,"ax",%progbits
 7398              		.align	1
 7399              		.syntax unified
 7400              		.thumb
 7401              		.thumb_func
 7403              	TIM_DMAErrorCCxN:
ARM GAS  /var/folders/d0/cymppscj10lcmm48h781wrc80000gn/T//ccIjALm5.s 			page 180


 7404              	.LFB377:
2870:Drivers/STM32H7xx_HAL_Driver/Src/stm32h7xx_hal_tim_ex.c **** 
2871:Drivers/STM32H7xx_HAL_Driver/Src/stm32h7xx_hal_tim_ex.c **** /**
2872:Drivers/STM32H7xx_HAL_Driver/Src/stm32h7xx_hal_tim_ex.c ****   * @brief  TIM DMA error callback (complementary channel)
2873:Drivers/STM32H7xx_HAL_Driver/Src/stm32h7xx_hal_tim_ex.c ****   * @param  hdma pointer to DMA handle.
2874:Drivers/STM32H7xx_HAL_Driver/Src/stm32h7xx_hal_tim_ex.c ****   * @retval None
2875:Drivers/STM32H7xx_HAL_Driver/Src/stm32h7xx_hal_tim_ex.c ****   */
2876:Drivers/STM32H7xx_HAL_Driver/Src/stm32h7xx_hal_tim_ex.c **** static void TIM_DMAErrorCCxN(DMA_HandleTypeDef *hdma)
2877:Drivers/STM32H7xx_HAL_Driver/Src/stm32h7xx_hal_tim_ex.c **** {
 7405              		.loc 1 2877 1
 7406              		.cfi_startproc
 7407              		@ args = 0, pretend = 0, frame = 16
 7408              		@ frame_needed = 1, uses_anonymous_args = 0
 7409 0000 80B5     		push	{r7, lr}
 7410              	.LCFI237:
 7411              		.cfi_def_cfa_offset 8
 7412              		.cfi_offset 7, -8
 7413              		.cfi_offset 14, -4
 7414 0002 84B0     		sub	sp, sp, #16
 7415              	.LCFI238:
 7416              		.cfi_def_cfa_offset 24
 7417 0004 00AF     		add	r7, sp, #0
 7418              	.LCFI239:
 7419              		.cfi_def_cfa_register 7
 7420 0006 7860     		str	r0, [r7, #4]
2878:Drivers/STM32H7xx_HAL_Driver/Src/stm32h7xx_hal_tim_ex.c ****   TIM_HandleTypeDef *htim = (TIM_HandleTypeDef *)((DMA_HandleTypeDef *)hdma)->Parent;
 7421              		.loc 1 2878 22
 7422 0008 7B68     		ldr	r3, [r7, #4]
 7423 000a 9B6B     		ldr	r3, [r3, #56]
 7424 000c FB60     		str	r3, [r7, #12]
2879:Drivers/STM32H7xx_HAL_Driver/Src/stm32h7xx_hal_tim_ex.c **** 
2880:Drivers/STM32H7xx_HAL_Driver/Src/stm32h7xx_hal_tim_ex.c ****   if (hdma == htim->hdma[TIM_DMA_ID_CC1])
 7425              		.loc 1 2880 25
 7426 000e FB68     		ldr	r3, [r7, #12]
 7427 0010 5B6A     		ldr	r3, [r3, #36]
 7428              		.loc 1 2880 6
 7429 0012 7A68     		ldr	r2, [r7, #4]
 7430 0014 9A42     		cmp	r2, r3
 7431 0016 07D1     		bne	.L436
2881:Drivers/STM32H7xx_HAL_Driver/Src/stm32h7xx_hal_tim_ex.c ****   {
2882:Drivers/STM32H7xx_HAL_Driver/Src/stm32h7xx_hal_tim_ex.c ****     htim->Channel = HAL_TIM_ACTIVE_CHANNEL_1;
 7432              		.loc 1 2882 19
 7433 0018 FB68     		ldr	r3, [r7, #12]
 7434 001a 0122     		movs	r2, #1
 7435 001c 1A77     		strb	r2, [r3, #28]
2883:Drivers/STM32H7xx_HAL_Driver/Src/stm32h7xx_hal_tim_ex.c ****     TIM_CHANNEL_N_STATE_SET(htim, TIM_CHANNEL_1, HAL_TIM_CHANNEL_STATE_READY);
 7436              		.loc 1 2883 5
 7437 001e FB68     		ldr	r3, [r7, #12]
 7438 0020 0122     		movs	r2, #1
 7439 0022 83F84420 		strb	r2, [r3, #68]
 7440 0026 18E0     		b	.L437
 7441              	.L436:
2884:Drivers/STM32H7xx_HAL_Driver/Src/stm32h7xx_hal_tim_ex.c ****   }
2885:Drivers/STM32H7xx_HAL_Driver/Src/stm32h7xx_hal_tim_ex.c ****   else if (hdma == htim->hdma[TIM_DMA_ID_CC2])
 7442              		.loc 1 2885 30
 7443 0028 FB68     		ldr	r3, [r7, #12]
 7444 002a 9B6A     		ldr	r3, [r3, #40]
ARM GAS  /var/folders/d0/cymppscj10lcmm48h781wrc80000gn/T//ccIjALm5.s 			page 181


 7445              		.loc 1 2885 11
 7446 002c 7A68     		ldr	r2, [r7, #4]
 7447 002e 9A42     		cmp	r2, r3
 7448 0030 07D1     		bne	.L438
2886:Drivers/STM32H7xx_HAL_Driver/Src/stm32h7xx_hal_tim_ex.c ****   {
2887:Drivers/STM32H7xx_HAL_Driver/Src/stm32h7xx_hal_tim_ex.c ****     htim->Channel = HAL_TIM_ACTIVE_CHANNEL_2;
 7449              		.loc 1 2887 19
 7450 0032 FB68     		ldr	r3, [r7, #12]
 7451 0034 0222     		movs	r2, #2
 7452 0036 1A77     		strb	r2, [r3, #28]
2888:Drivers/STM32H7xx_HAL_Driver/Src/stm32h7xx_hal_tim_ex.c ****     TIM_CHANNEL_N_STATE_SET(htim, TIM_CHANNEL_2, HAL_TIM_CHANNEL_STATE_READY);
 7453              		.loc 1 2888 5
 7454 0038 FB68     		ldr	r3, [r7, #12]
 7455 003a 0122     		movs	r2, #1
 7456 003c 83F84520 		strb	r2, [r3, #69]
 7457 0040 0BE0     		b	.L437
 7458              	.L438:
2889:Drivers/STM32H7xx_HAL_Driver/Src/stm32h7xx_hal_tim_ex.c ****   }
2890:Drivers/STM32H7xx_HAL_Driver/Src/stm32h7xx_hal_tim_ex.c ****   else if (hdma == htim->hdma[TIM_DMA_ID_CC3])
 7459              		.loc 1 2890 30
 7460 0042 FB68     		ldr	r3, [r7, #12]
 7461 0044 DB6A     		ldr	r3, [r3, #44]
 7462              		.loc 1 2890 11
 7463 0046 7A68     		ldr	r2, [r7, #4]
 7464 0048 9A42     		cmp	r2, r3
 7465 004a 06D1     		bne	.L437
2891:Drivers/STM32H7xx_HAL_Driver/Src/stm32h7xx_hal_tim_ex.c ****   {
2892:Drivers/STM32H7xx_HAL_Driver/Src/stm32h7xx_hal_tim_ex.c ****     htim->Channel = HAL_TIM_ACTIVE_CHANNEL_3;
 7466              		.loc 1 2892 19
 7467 004c FB68     		ldr	r3, [r7, #12]
 7468 004e 0422     		movs	r2, #4
 7469 0050 1A77     		strb	r2, [r3, #28]
2893:Drivers/STM32H7xx_HAL_Driver/Src/stm32h7xx_hal_tim_ex.c ****     TIM_CHANNEL_N_STATE_SET(htim, TIM_CHANNEL_3, HAL_TIM_CHANNEL_STATE_READY);
 7470              		.loc 1 2893 5
 7471 0052 FB68     		ldr	r3, [r7, #12]
 7472 0054 0122     		movs	r2, #1
 7473 0056 83F84620 		strb	r2, [r3, #70]
 7474              	.L437:
2894:Drivers/STM32H7xx_HAL_Driver/Src/stm32h7xx_hal_tim_ex.c ****   }
2895:Drivers/STM32H7xx_HAL_Driver/Src/stm32h7xx_hal_tim_ex.c ****   else
2896:Drivers/STM32H7xx_HAL_Driver/Src/stm32h7xx_hal_tim_ex.c ****   {
2897:Drivers/STM32H7xx_HAL_Driver/Src/stm32h7xx_hal_tim_ex.c ****     /* nothing to do */
2898:Drivers/STM32H7xx_HAL_Driver/Src/stm32h7xx_hal_tim_ex.c ****   }
2899:Drivers/STM32H7xx_HAL_Driver/Src/stm32h7xx_hal_tim_ex.c **** 
2900:Drivers/STM32H7xx_HAL_Driver/Src/stm32h7xx_hal_tim_ex.c **** #if (USE_HAL_TIM_REGISTER_CALLBACKS == 1)
2901:Drivers/STM32H7xx_HAL_Driver/Src/stm32h7xx_hal_tim_ex.c ****   htim->ErrorCallback(htim);
 7475              		.loc 1 2901 7
 7476 005a FB68     		ldr	r3, [r7, #12]
 7477 005c D3F8A830 		ldr	r3, [r3, #168]
 7478              		.loc 1 2901 3
 7479 0060 F868     		ldr	r0, [r7, #12]
 7480 0062 9847     		blx	r3
 7481              	.LVL5:
2902:Drivers/STM32H7xx_HAL_Driver/Src/stm32h7xx_hal_tim_ex.c **** #else
2903:Drivers/STM32H7xx_HAL_Driver/Src/stm32h7xx_hal_tim_ex.c ****   HAL_TIM_ErrorCallback(htim);
2904:Drivers/STM32H7xx_HAL_Driver/Src/stm32h7xx_hal_tim_ex.c **** #endif /* USE_HAL_TIM_REGISTER_CALLBACKS */
2905:Drivers/STM32H7xx_HAL_Driver/Src/stm32h7xx_hal_tim_ex.c **** 
ARM GAS  /var/folders/d0/cymppscj10lcmm48h781wrc80000gn/T//ccIjALm5.s 			page 182


2906:Drivers/STM32H7xx_HAL_Driver/Src/stm32h7xx_hal_tim_ex.c ****   htim->Channel = HAL_TIM_ACTIVE_CHANNEL_CLEARED;
 7482              		.loc 1 2906 17
 7483 0064 FB68     		ldr	r3, [r7, #12]
 7484 0066 0022     		movs	r2, #0
 7485 0068 1A77     		strb	r2, [r3, #28]
2907:Drivers/STM32H7xx_HAL_Driver/Src/stm32h7xx_hal_tim_ex.c **** }
 7486              		.loc 1 2907 1
 7487 006a 00BF     		nop
 7488 006c 1037     		adds	r7, r7, #16
 7489              	.LCFI240:
 7490              		.cfi_def_cfa_offset 8
 7491 006e BD46     		mov	sp, r7
 7492              	.LCFI241:
 7493              		.cfi_def_cfa_register 13
 7494              		@ sp needed
 7495 0070 80BD     		pop	{r7, pc}
 7496              		.cfi_endproc
 7497              	.LFE377:
 7499              		.section	.text.TIM_CCxNChannelCmd,"ax",%progbits
 7500              		.align	1
 7501              		.syntax unified
 7502              		.thumb
 7503              		.thumb_func
 7505              	TIM_CCxNChannelCmd:
 7506              	.LFB378:
2908:Drivers/STM32H7xx_HAL_Driver/Src/stm32h7xx_hal_tim_ex.c **** 
2909:Drivers/STM32H7xx_HAL_Driver/Src/stm32h7xx_hal_tim_ex.c **** /**
2910:Drivers/STM32H7xx_HAL_Driver/Src/stm32h7xx_hal_tim_ex.c ****   * @brief  Enables or disables the TIM Capture Compare Channel xN.
2911:Drivers/STM32H7xx_HAL_Driver/Src/stm32h7xx_hal_tim_ex.c ****   * @param  TIMx to select the TIM peripheral
2912:Drivers/STM32H7xx_HAL_Driver/Src/stm32h7xx_hal_tim_ex.c ****   * @param  Channel specifies the TIM Channel
2913:Drivers/STM32H7xx_HAL_Driver/Src/stm32h7xx_hal_tim_ex.c ****   *          This parameter can be one of the following values:
2914:Drivers/STM32H7xx_HAL_Driver/Src/stm32h7xx_hal_tim_ex.c ****   *            @arg TIM_CHANNEL_1: TIM Channel 1
2915:Drivers/STM32H7xx_HAL_Driver/Src/stm32h7xx_hal_tim_ex.c ****   *            @arg TIM_CHANNEL_2: TIM Channel 2
2916:Drivers/STM32H7xx_HAL_Driver/Src/stm32h7xx_hal_tim_ex.c ****   *            @arg TIM_CHANNEL_3: TIM Channel 3
2917:Drivers/STM32H7xx_HAL_Driver/Src/stm32h7xx_hal_tim_ex.c ****   * @param  ChannelNState specifies the TIM Channel CCxNE bit new state.
2918:Drivers/STM32H7xx_HAL_Driver/Src/stm32h7xx_hal_tim_ex.c ****   *          This parameter can be: TIM_CCxN_ENABLE or TIM_CCxN_Disable.
2919:Drivers/STM32H7xx_HAL_Driver/Src/stm32h7xx_hal_tim_ex.c ****   * @retval None
2920:Drivers/STM32H7xx_HAL_Driver/Src/stm32h7xx_hal_tim_ex.c ****   */
2921:Drivers/STM32H7xx_HAL_Driver/Src/stm32h7xx_hal_tim_ex.c **** static void TIM_CCxNChannelCmd(TIM_TypeDef *TIMx, uint32_t Channel, uint32_t ChannelNState)
2922:Drivers/STM32H7xx_HAL_Driver/Src/stm32h7xx_hal_tim_ex.c **** {
 7507              		.loc 1 2922 1
 7508              		.cfi_startproc
 7509              		@ args = 0, pretend = 0, frame = 24
 7510              		@ frame_needed = 1, uses_anonymous_args = 0
 7511              		@ link register save eliminated.
 7512 0000 80B4     		push	{r7}
 7513              	.LCFI242:
 7514              		.cfi_def_cfa_offset 4
 7515              		.cfi_offset 7, -4
 7516 0002 87B0     		sub	sp, sp, #28
 7517              	.LCFI243:
 7518              		.cfi_def_cfa_offset 32
 7519 0004 00AF     		add	r7, sp, #0
 7520              	.LCFI244:
 7521              		.cfi_def_cfa_register 7
 7522 0006 F860     		str	r0, [r7, #12]
 7523 0008 B960     		str	r1, [r7, #8]
ARM GAS  /var/folders/d0/cymppscj10lcmm48h781wrc80000gn/T//ccIjALm5.s 			page 183


 7524 000a 7A60     		str	r2, [r7, #4]
2923:Drivers/STM32H7xx_HAL_Driver/Src/stm32h7xx_hal_tim_ex.c ****   uint32_t tmp;
2924:Drivers/STM32H7xx_HAL_Driver/Src/stm32h7xx_hal_tim_ex.c **** 
2925:Drivers/STM32H7xx_HAL_Driver/Src/stm32h7xx_hal_tim_ex.c ****   tmp = TIM_CCER_CC1NE << (Channel & 0x1FU); /* 0x1FU = 31 bits max shift */
 7525              		.loc 1 2925 36
 7526 000c BB68     		ldr	r3, [r7, #8]
 7527 000e 03F01F03 		and	r3, r3, #31
 7528              		.loc 1 2925 7
 7529 0012 0422     		movs	r2, #4
 7530 0014 02FA03F3 		lsl	r3, r2, r3
 7531 0018 7B61     		str	r3, [r7, #20]
2926:Drivers/STM32H7xx_HAL_Driver/Src/stm32h7xx_hal_tim_ex.c **** 
2927:Drivers/STM32H7xx_HAL_Driver/Src/stm32h7xx_hal_tim_ex.c ****   /* Reset the CCxNE Bit */
2928:Drivers/STM32H7xx_HAL_Driver/Src/stm32h7xx_hal_tim_ex.c ****   TIMx->CCER &=  ~tmp;
 7532              		.loc 1 2928 14
 7533 001a FB68     		ldr	r3, [r7, #12]
 7534 001c 1A6A     		ldr	r2, [r3, #32]
 7535              		.loc 1 2928 18
 7536 001e 7B69     		ldr	r3, [r7, #20]
 7537 0020 DB43     		mvns	r3, r3
 7538              		.loc 1 2928 14
 7539 0022 1A40     		ands	r2, r2, r3
 7540 0024 FB68     		ldr	r3, [r7, #12]
 7541 0026 1A62     		str	r2, [r3, #32]
2929:Drivers/STM32H7xx_HAL_Driver/Src/stm32h7xx_hal_tim_ex.c **** 
2930:Drivers/STM32H7xx_HAL_Driver/Src/stm32h7xx_hal_tim_ex.c ****   /* Set or reset the CCxNE Bit */
2931:Drivers/STM32H7xx_HAL_Driver/Src/stm32h7xx_hal_tim_ex.c ****   TIMx->CCER |= (uint32_t)(ChannelNState << (Channel & 0x1FU)); /* 0x1FU = 31 bits max shift */
 7542              		.loc 1 2931 14
 7543 0028 FB68     		ldr	r3, [r7, #12]
 7544 002a 1A6A     		ldr	r2, [r3, #32]
 7545              		.loc 1 2931 54
 7546 002c BB68     		ldr	r3, [r7, #8]
 7547 002e 03F01F03 		and	r3, r3, #31
 7548              		.loc 1 2931 42
 7549 0032 7968     		ldr	r1, [r7, #4]
 7550 0034 01FA03F3 		lsl	r3, r1, r3
 7551              		.loc 1 2931 14
 7552 0038 1A43     		orrs	r2, r2, r3
 7553 003a FB68     		ldr	r3, [r7, #12]
 7554 003c 1A62     		str	r2, [r3, #32]
2932:Drivers/STM32H7xx_HAL_Driver/Src/stm32h7xx_hal_tim_ex.c **** }
 7555              		.loc 1 2932 1
 7556 003e 00BF     		nop
 7557 0040 1C37     		adds	r7, r7, #28
 7558              	.LCFI245:
 7559              		.cfi_def_cfa_offset 4
 7560 0042 BD46     		mov	sp, r7
 7561              	.LCFI246:
 7562              		.cfi_def_cfa_register 13
 7563              		@ sp needed
 7564 0044 5DF8047B 		ldr	r7, [sp], #4
 7565              	.LCFI247:
 7566              		.cfi_restore 7
 7567              		.cfi_def_cfa_offset 0
 7568 0048 7047     		bx	lr
 7569              		.cfi_endproc
 7570              	.LFE378:
ARM GAS  /var/folders/d0/cymppscj10lcmm48h781wrc80000gn/T//ccIjALm5.s 			page 184


 7572              		.text
 7573              	.Letext0:
 7574              		.file 2 "/Users/seojisu/Library/Arm-GCC-xPack/arm-none-eabi/include/machine/_default_types.h"
 7575              		.file 3 "/Users/seojisu/Library/Arm-GCC-xPack/arm-none-eabi/include/sys/_stdint.h"
 7576              		.file 4 "Drivers/CMSIS/Device/ST/STM32H7xx/Include/stm32h743xx.h"
 7577              		.file 5 "Drivers/CMSIS/Device/ST/STM32H7xx/Include/stm32h7xx.h"
 7578              		.file 6 "Drivers/STM32H7xx_HAL_Driver/Inc/stm32h7xx_hal_def.h"
 7579              		.file 7 "Drivers/STM32H7xx_HAL_Driver/Inc/stm32h7xx_hal_dma.h"
 7580              		.file 8 "Drivers/STM32H7xx_HAL_Driver/Inc/stm32h7xx_hal_tim.h"
 7581              		.file 9 "Drivers/STM32H7xx_HAL_Driver/Inc/stm32h7xx_hal_tim_ex.h"
ARM GAS  /var/folders/d0/cymppscj10lcmm48h781wrc80000gn/T//ccIjALm5.s 			page 185


DEFINED SYMBOLS
                            *ABS*:0000000000000000 stm32h7xx_hal_tim_ex.c
/var/folders/d0/cymppscj10lcmm48h781wrc80000gn/T//ccIjALm5.s:19     .text.HAL_TIMEx_HallSensor_Init:0000000000000000 $t
/var/folders/d0/cymppscj10lcmm48h781wrc80000gn/T//ccIjALm5.s:25     .text.HAL_TIMEx_HallSensor_Init:0000000000000000 HAL_TIMEx_HallSensor_Init
/var/folders/d0/cymppscj10lcmm48h781wrc80000gn/T//ccIjALm5.s:281    .text.HAL_TIMEx_HallSensor_Init:0000000000000168 $d
/var/folders/d0/cymppscj10lcmm48h781wrc80000gn/T//ccIjALm5.s:413    .text.HAL_TIMEx_HallSensor_MspInit:0000000000000000 HAL_TIMEx_HallSensor_MspInit
/var/folders/d0/cymppscj10lcmm48h781wrc80000gn/T//ccIjALm5.s:288    .text.HAL_TIMEx_HallSensor_DeInit:0000000000000000 $t
/var/folders/d0/cymppscj10lcmm48h781wrc80000gn/T//ccIjALm5.s:294    .text.HAL_TIMEx_HallSensor_DeInit:0000000000000000 HAL_TIMEx_HallSensor_DeInit
/var/folders/d0/cymppscj10lcmm48h781wrc80000gn/T//ccIjALm5.s:402    .text.HAL_TIMEx_HallSensor_DeInit:00000000000000a0 $d
/var/folders/d0/cymppscj10lcmm48h781wrc80000gn/T//ccIjALm5.s:455    .text.HAL_TIMEx_HallSensor_MspDeInit:0000000000000000 HAL_TIMEx_HallSensor_MspDeInit
/var/folders/d0/cymppscj10lcmm48h781wrc80000gn/T//ccIjALm5.s:407    .text.HAL_TIMEx_HallSensor_MspInit:0000000000000000 $t
/var/folders/d0/cymppscj10lcmm48h781wrc80000gn/T//ccIjALm5.s:449    .text.HAL_TIMEx_HallSensor_MspDeInit:0000000000000000 $t
/var/folders/d0/cymppscj10lcmm48h781wrc80000gn/T//ccIjALm5.s:491    .text.HAL_TIMEx_HallSensor_Start:0000000000000000 $t
/var/folders/d0/cymppscj10lcmm48h781wrc80000gn/T//ccIjALm5.s:497    .text.HAL_TIMEx_HallSensor_Start:0000000000000000 HAL_TIMEx_HallSensor_Start
/var/folders/d0/cymppscj10lcmm48h781wrc80000gn/T//ccIjALm5.s:681    .text.HAL_TIMEx_HallSensor_Start:000000000000010c $d
/var/folders/d0/cymppscj10lcmm48h781wrc80000gn/T//ccIjALm5.s:693    .text.HAL_TIMEx_HallSensor_Stop:0000000000000000 $t
/var/folders/d0/cymppscj10lcmm48h781wrc80000gn/T//ccIjALm5.s:699    .text.HAL_TIMEx_HallSensor_Stop:0000000000000000 HAL_TIMEx_HallSensor_Stop
/var/folders/d0/cymppscj10lcmm48h781wrc80000gn/T//ccIjALm5.s:781    .text.HAL_TIMEx_HallSensor_Start_IT:0000000000000000 $t
/var/folders/d0/cymppscj10lcmm48h781wrc80000gn/T//ccIjALm5.s:787    .text.HAL_TIMEx_HallSensor_Start_IT:0000000000000000 HAL_TIMEx_HallSensor_Start_IT
/var/folders/d0/cymppscj10lcmm48h781wrc80000gn/T//ccIjALm5.s:979    .text.HAL_TIMEx_HallSensor_Start_IT:000000000000011c $d
/var/folders/d0/cymppscj10lcmm48h781wrc80000gn/T//ccIjALm5.s:991    .text.HAL_TIMEx_HallSensor_Stop_IT:0000000000000000 $t
/var/folders/d0/cymppscj10lcmm48h781wrc80000gn/T//ccIjALm5.s:997    .text.HAL_TIMEx_HallSensor_Stop_IT:0000000000000000 HAL_TIMEx_HallSensor_Stop_IT
/var/folders/d0/cymppscj10lcmm48h781wrc80000gn/T//ccIjALm5.s:1087   .text.HAL_TIMEx_HallSensor_Start_DMA:0000000000000000 $t
/var/folders/d0/cymppscj10lcmm48h781wrc80000gn/T//ccIjALm5.s:1093   .text.HAL_TIMEx_HallSensor_Start_DMA:0000000000000000 HAL_TIMEx_HallSensor_Start_DMA
/var/folders/d0/cymppscj10lcmm48h781wrc80000gn/T//ccIjALm5.s:1331   .text.HAL_TIMEx_HallSensor_Start_DMA:0000000000000150 $d
/var/folders/d0/cymppscj10lcmm48h781wrc80000gn/T//ccIjALm5.s:1346   .text.HAL_TIMEx_HallSensor_Stop_DMA:0000000000000000 $t
/var/folders/d0/cymppscj10lcmm48h781wrc80000gn/T//ccIjALm5.s:1352   .text.HAL_TIMEx_HallSensor_Stop_DMA:0000000000000000 HAL_TIMEx_HallSensor_Stop_DMA
/var/folders/d0/cymppscj10lcmm48h781wrc80000gn/T//ccIjALm5.s:1439   .text.HAL_TIMEx_OCN_Start:0000000000000000 $t
/var/folders/d0/cymppscj10lcmm48h781wrc80000gn/T//ccIjALm5.s:1445   .text.HAL_TIMEx_OCN_Start:0000000000000000 HAL_TIMEx_OCN_Start
/var/folders/d0/cymppscj10lcmm48h781wrc80000gn/T//ccIjALm5.s:7505   .text.TIM_CCxNChannelCmd:0000000000000000 TIM_CCxNChannelCmd
/var/folders/d0/cymppscj10lcmm48h781wrc80000gn/T//ccIjALm5.s:1686   .text.HAL_TIMEx_OCN_Start:0000000000000164 $d
/var/folders/d0/cymppscj10lcmm48h781wrc80000gn/T//ccIjALm5.s:1698   .text.HAL_TIMEx_OCN_Stop:0000000000000000 $t
/var/folders/d0/cymppscj10lcmm48h781wrc80000gn/T//ccIjALm5.s:1704   .text.HAL_TIMEx_OCN_Stop:0000000000000000 HAL_TIMEx_OCN_Stop
/var/folders/d0/cymppscj10lcmm48h781wrc80000gn/T//ccIjALm5.s:1831   .text.HAL_TIMEx_OCN_Start_IT:0000000000000000 $t
/var/folders/d0/cymppscj10lcmm48h781wrc80000gn/T//ccIjALm5.s:1837   .text.HAL_TIMEx_OCN_Start_IT:0000000000000000 HAL_TIMEx_OCN_Start_IT
/var/folders/d0/cymppscj10lcmm48h781wrc80000gn/T//ccIjALm5.s:2147   .text.HAL_TIMEx_OCN_Start_IT:00000000000001d4 $d
/var/folders/d0/cymppscj10lcmm48h781wrc80000gn/T//ccIjALm5.s:2159   .text.HAL_TIMEx_OCN_Stop_IT:0000000000000000 $t
/var/folders/d0/cymppscj10lcmm48h781wrc80000gn/T//ccIjALm5.s:2165   .text.HAL_TIMEx_OCN_Stop_IT:0000000000000000 HAL_TIMEx_OCN_Stop_IT
/var/folders/d0/cymppscj10lcmm48h781wrc80000gn/T//ccIjALm5.s:2375   .text.HAL_TIMEx_OCN_Start_DMA:0000000000000000 $t
/var/folders/d0/cymppscj10lcmm48h781wrc80000gn/T//ccIjALm5.s:2381   .text.HAL_TIMEx_OCN_Start_DMA:0000000000000000 HAL_TIMEx_OCN_Start_DMA
/var/folders/d0/cymppscj10lcmm48h781wrc80000gn/T//ccIjALm5.s:2881   .text.HAL_TIMEx_OCN_Start_DMA:00000000000002e4 $d
/var/folders/d0/cymppscj10lcmm48h781wrc80000gn/T//ccIjALm5.s:7260   .text.TIM_DMADelayPulseNCplt:0000000000000000 TIM_DMADelayPulseNCplt
/var/folders/d0/cymppscj10lcmm48h781wrc80000gn/T//ccIjALm5.s:7403   .text.TIM_DMAErrorCCxN:0000000000000000 TIM_DMAErrorCCxN
/var/folders/d0/cymppscj10lcmm48h781wrc80000gn/T//ccIjALm5.s:2896   .text.HAL_TIMEx_OCN_Stop_DMA:0000000000000000 $t
/var/folders/d0/cymppscj10lcmm48h781wrc80000gn/T//ccIjALm5.s:2902   .text.HAL_TIMEx_OCN_Stop_DMA:0000000000000000 HAL_TIMEx_OCN_Stop_DMA
/var/folders/d0/cymppscj10lcmm48h781wrc80000gn/T//ccIjALm5.s:3105   .text.HAL_TIMEx_PWMN_Start:0000000000000000 $t
/var/folders/d0/cymppscj10lcmm48h781wrc80000gn/T//ccIjALm5.s:3111   .text.HAL_TIMEx_PWMN_Start:0000000000000000 HAL_TIMEx_PWMN_Start
/var/folders/d0/cymppscj10lcmm48h781wrc80000gn/T//ccIjALm5.s:3352   .text.HAL_TIMEx_PWMN_Start:0000000000000164 $d
/var/folders/d0/cymppscj10lcmm48h781wrc80000gn/T//ccIjALm5.s:3364   .text.HAL_TIMEx_PWMN_Stop:0000000000000000 $t
/var/folders/d0/cymppscj10lcmm48h781wrc80000gn/T//ccIjALm5.s:3370   .text.HAL_TIMEx_PWMN_Stop:0000000000000000 HAL_TIMEx_PWMN_Stop
/var/folders/d0/cymppscj10lcmm48h781wrc80000gn/T//ccIjALm5.s:3497   .text.HAL_TIMEx_PWMN_Start_IT:0000000000000000 $t
/var/folders/d0/cymppscj10lcmm48h781wrc80000gn/T//ccIjALm5.s:3503   .text.HAL_TIMEx_PWMN_Start_IT:0000000000000000 HAL_TIMEx_PWMN_Start_IT
/var/folders/d0/cymppscj10lcmm48h781wrc80000gn/T//ccIjALm5.s:3813   .text.HAL_TIMEx_PWMN_Start_IT:00000000000001d4 $d
/var/folders/d0/cymppscj10lcmm48h781wrc80000gn/T//ccIjALm5.s:3825   .text.HAL_TIMEx_PWMN_Stop_IT:0000000000000000 $t
/var/folders/d0/cymppscj10lcmm48h781wrc80000gn/T//ccIjALm5.s:3831   .text.HAL_TIMEx_PWMN_Stop_IT:0000000000000000 HAL_TIMEx_PWMN_Stop_IT
/var/folders/d0/cymppscj10lcmm48h781wrc80000gn/T//ccIjALm5.s:4041   .text.HAL_TIMEx_PWMN_Start_DMA:0000000000000000 $t
/var/folders/d0/cymppscj10lcmm48h781wrc80000gn/T//ccIjALm5.s:4047   .text.HAL_TIMEx_PWMN_Start_DMA:0000000000000000 HAL_TIMEx_PWMN_Start_DMA
ARM GAS  /var/folders/d0/cymppscj10lcmm48h781wrc80000gn/T//ccIjALm5.s 			page 186


/var/folders/d0/cymppscj10lcmm48h781wrc80000gn/T//ccIjALm5.s:4547   .text.HAL_TIMEx_PWMN_Start_DMA:00000000000002e4 $d
/var/folders/d0/cymppscj10lcmm48h781wrc80000gn/T//ccIjALm5.s:4562   .text.HAL_TIMEx_PWMN_Stop_DMA:0000000000000000 $t
/var/folders/d0/cymppscj10lcmm48h781wrc80000gn/T//ccIjALm5.s:4568   .text.HAL_TIMEx_PWMN_Stop_DMA:0000000000000000 HAL_TIMEx_PWMN_Stop_DMA
/var/folders/d0/cymppscj10lcmm48h781wrc80000gn/T//ccIjALm5.s:4771   .text.HAL_TIMEx_OnePulseN_Start:0000000000000000 $t
/var/folders/d0/cymppscj10lcmm48h781wrc80000gn/T//ccIjALm5.s:4777   .text.HAL_TIMEx_OnePulseN_Start:0000000000000000 HAL_TIMEx_OnePulseN_Start
/var/folders/d0/cymppscj10lcmm48h781wrc80000gn/T//ccIjALm5.s:4901   .text.HAL_TIMEx_OnePulseN_Stop:0000000000000000 $t
/var/folders/d0/cymppscj10lcmm48h781wrc80000gn/T//ccIjALm5.s:4907   .text.HAL_TIMEx_OnePulseN_Stop:0000000000000000 HAL_TIMEx_OnePulseN_Stop
/var/folders/d0/cymppscj10lcmm48h781wrc80000gn/T//ccIjALm5.s:5035   .text.HAL_TIMEx_OnePulseN_Start_IT:0000000000000000 $t
/var/folders/d0/cymppscj10lcmm48h781wrc80000gn/T//ccIjALm5.s:5041   .text.HAL_TIMEx_OnePulseN_Start_IT:0000000000000000 HAL_TIMEx_OnePulseN_Start_IT
/var/folders/d0/cymppscj10lcmm48h781wrc80000gn/T//ccIjALm5.s:5181   .text.HAL_TIMEx_OnePulseN_Stop_IT:0000000000000000 $t
/var/folders/d0/cymppscj10lcmm48h781wrc80000gn/T//ccIjALm5.s:5187   .text.HAL_TIMEx_OnePulseN_Stop_IT:0000000000000000 HAL_TIMEx_OnePulseN_Stop_IT
/var/folders/d0/cymppscj10lcmm48h781wrc80000gn/T//ccIjALm5.s:5331   .text.HAL_TIMEx_ConfigCommutEvent:0000000000000000 $t
/var/folders/d0/cymppscj10lcmm48h781wrc80000gn/T//ccIjALm5.s:5337   .text.HAL_TIMEx_ConfigCommutEvent:0000000000000000 HAL_TIMEx_ConfigCommutEvent
/var/folders/d0/cymppscj10lcmm48h781wrc80000gn/T//ccIjALm5.s:5495   .text.HAL_TIMEx_ConfigCommutEvent:00000000000000d0 $d
/var/folders/d0/cymppscj10lcmm48h781wrc80000gn/T//ccIjALm5.s:5501   .text.HAL_TIMEx_ConfigCommutEvent_IT:0000000000000000 $t
/var/folders/d0/cymppscj10lcmm48h781wrc80000gn/T//ccIjALm5.s:5507   .text.HAL_TIMEx_ConfigCommutEvent_IT:0000000000000000 HAL_TIMEx_ConfigCommutEvent_IT
/var/folders/d0/cymppscj10lcmm48h781wrc80000gn/T//ccIjALm5.s:5665   .text.HAL_TIMEx_ConfigCommutEvent_IT:00000000000000d0 $d
/var/folders/d0/cymppscj10lcmm48h781wrc80000gn/T//ccIjALm5.s:5671   .text.HAL_TIMEx_ConfigCommutEvent_DMA:0000000000000000 $t
/var/folders/d0/cymppscj10lcmm48h781wrc80000gn/T//ccIjALm5.s:5677   .text.HAL_TIMEx_ConfigCommutEvent_DMA:0000000000000000 HAL_TIMEx_ConfigCommutEvent_DMA
/var/folders/d0/cymppscj10lcmm48h781wrc80000gn/T//ccIjALm5.s:5853   .text.HAL_TIMEx_ConfigCommutEvent_DMA:00000000000000e8 $d
/var/folders/d0/cymppscj10lcmm48h781wrc80000gn/T//ccIjALm5.s:7155   .text.TIMEx_DMACommutationCplt:0000000000000000 TIMEx_DMACommutationCplt
/var/folders/d0/cymppscj10lcmm48h781wrc80000gn/T//ccIjALm5.s:7208   .text.TIMEx_DMACommutationHalfCplt:0000000000000000 TIMEx_DMACommutationHalfCplt
/var/folders/d0/cymppscj10lcmm48h781wrc80000gn/T//ccIjALm5.s:5862   .text.HAL_TIMEx_MasterConfigSynchronization:0000000000000000 $t
/var/folders/d0/cymppscj10lcmm48h781wrc80000gn/T//ccIjALm5.s:5868   .text.HAL_TIMEx_MasterConfigSynchronization:0000000000000000 HAL_TIMEx_MasterConfigSynchronization
/var/folders/d0/cymppscj10lcmm48h781wrc80000gn/T//ccIjALm5.s:6054   .text.HAL_TIMEx_MasterConfigSynchronization:0000000000000100 $d
/var/folders/d0/cymppscj10lcmm48h781wrc80000gn/T//ccIjALm5.s:6065   .text.HAL_TIMEx_ConfigBreakDeadTime:0000000000000000 $t
/var/folders/d0/cymppscj10lcmm48h781wrc80000gn/T//ccIjALm5.s:6071   .text.HAL_TIMEx_ConfigBreakDeadTime:0000000000000000 HAL_TIMEx_ConfigBreakDeadTime
/var/folders/d0/cymppscj10lcmm48h781wrc80000gn/T//ccIjALm5.s:6230   .text.HAL_TIMEx_ConfigBreakDeadTime:00000000000000f4 $d
/var/folders/d0/cymppscj10lcmm48h781wrc80000gn/T//ccIjALm5.s:6236   .text.HAL_TIMEx_ConfigBreakInput:0000000000000000 $t
/var/folders/d0/cymppscj10lcmm48h781wrc80000gn/T//ccIjALm5.s:6242   .text.HAL_TIMEx_ConfigBreakInput:0000000000000000 HAL_TIMEx_ConfigBreakInput
/var/folders/d0/cymppscj10lcmm48h781wrc80000gn/T//ccIjALm5.s:6289   .text.HAL_TIMEx_ConfigBreakInput:0000000000000038 $d
/var/folders/d0/cymppscj10lcmm48h781wrc80000gn/T//ccIjALm5.s:6297   .text.HAL_TIMEx_ConfigBreakInput:0000000000000058 $t
/var/folders/d0/cymppscj10lcmm48h781wrc80000gn/T//ccIjALm5.s:6538   .text.HAL_TIMEx_RemapConfig:0000000000000000 $t
/var/folders/d0/cymppscj10lcmm48h781wrc80000gn/T//ccIjALm5.s:6544   .text.HAL_TIMEx_RemapConfig:0000000000000000 HAL_TIMEx_RemapConfig
/var/folders/d0/cymppscj10lcmm48h781wrc80000gn/T//ccIjALm5.s:6611   .text.HAL_TIMEx_TISelection:0000000000000000 $t
/var/folders/d0/cymppscj10lcmm48h781wrc80000gn/T//ccIjALm5.s:6617   .text.HAL_TIMEx_TISelection:0000000000000000 HAL_TIMEx_TISelection
/var/folders/d0/cymppscj10lcmm48h781wrc80000gn/T//ccIjALm5.s:6661   .text.HAL_TIMEx_TISelection:0000000000000034 $d
/var/folders/d0/cymppscj10lcmm48h781wrc80000gn/T//ccIjALm5.s:6674   .text.HAL_TIMEx_TISelection:0000000000000068 $t
/var/folders/d0/cymppscj10lcmm48h781wrc80000gn/T//ccIjALm5.s:6759   .text.HAL_TIMEx_GroupChannel5:0000000000000000 $t
/var/folders/d0/cymppscj10lcmm48h781wrc80000gn/T//ccIjALm5.s:6765   .text.HAL_TIMEx_GroupChannel5:0000000000000000 HAL_TIMEx_GroupChannel5
/var/folders/d0/cymppscj10lcmm48h781wrc80000gn/T//ccIjALm5.s:6853   .text.HAL_TIMEx_CommutCallback:0000000000000000 $t
/var/folders/d0/cymppscj10lcmm48h781wrc80000gn/T//ccIjALm5.s:6859   .text.HAL_TIMEx_CommutCallback:0000000000000000 HAL_TIMEx_CommutCallback
/var/folders/d0/cymppscj10lcmm48h781wrc80000gn/T//ccIjALm5.s:6895   .text.HAL_TIMEx_CommutHalfCpltCallback:0000000000000000 $t
/var/folders/d0/cymppscj10lcmm48h781wrc80000gn/T//ccIjALm5.s:6901   .text.HAL_TIMEx_CommutHalfCpltCallback:0000000000000000 HAL_TIMEx_CommutHalfCpltCallback
/var/folders/d0/cymppscj10lcmm48h781wrc80000gn/T//ccIjALm5.s:6937   .text.HAL_TIMEx_BreakCallback:0000000000000000 $t
/var/folders/d0/cymppscj10lcmm48h781wrc80000gn/T//ccIjALm5.s:6943   .text.HAL_TIMEx_BreakCallback:0000000000000000 HAL_TIMEx_BreakCallback
/var/folders/d0/cymppscj10lcmm48h781wrc80000gn/T//ccIjALm5.s:6979   .text.HAL_TIMEx_Break2Callback:0000000000000000 $t
/var/folders/d0/cymppscj10lcmm48h781wrc80000gn/T//ccIjALm5.s:6985   .text.HAL_TIMEx_Break2Callback:0000000000000000 HAL_TIMEx_Break2Callback
/var/folders/d0/cymppscj10lcmm48h781wrc80000gn/T//ccIjALm5.s:7021   .text.HAL_TIMEx_HallSensor_GetState:0000000000000000 $t
/var/folders/d0/cymppscj10lcmm48h781wrc80000gn/T//ccIjALm5.s:7027   .text.HAL_TIMEx_HallSensor_GetState:0000000000000000 HAL_TIMEx_HallSensor_GetState
/var/folders/d0/cymppscj10lcmm48h781wrc80000gn/T//ccIjALm5.s:7067   .text.HAL_TIMEx_GetChannelNState:0000000000000000 $t
/var/folders/d0/cymppscj10lcmm48h781wrc80000gn/T//ccIjALm5.s:7073   .text.HAL_TIMEx_GetChannelNState:0000000000000000 HAL_TIMEx_GetChannelNState
/var/folders/d0/cymppscj10lcmm48h781wrc80000gn/T//ccIjALm5.s:7149   .text.TIMEx_DMACommutationCplt:0000000000000000 $t
/var/folders/d0/cymppscj10lcmm48h781wrc80000gn/T//ccIjALm5.s:7202   .text.TIMEx_DMACommutationHalfCplt:0000000000000000 $t
/var/folders/d0/cymppscj10lcmm48h781wrc80000gn/T//ccIjALm5.s:7255   .text.TIM_DMADelayPulseNCplt:0000000000000000 $t
/var/folders/d0/cymppscj10lcmm48h781wrc80000gn/T//ccIjALm5.s:7398   .text.TIM_DMAErrorCCxN:0000000000000000 $t
/var/folders/d0/cymppscj10lcmm48h781wrc80000gn/T//ccIjALm5.s:7500   .text.TIM_CCxNChannelCmd:0000000000000000 $t
ARM GAS  /var/folders/d0/cymppscj10lcmm48h781wrc80000gn/T//ccIjALm5.s 			page 187



UNDEFINED SYMBOLS
TIM_ResetCallback
TIM_Base_SetConfig
TIM_TI1_SetConfig
TIM_OC2_SetConfig
TIM_CCxChannelCmd
HAL_DMA_Start_IT
TIM_DMACaptureCplt
TIM_DMACaptureHalfCplt
TIM_DMAError
HAL_DMA_Abort_IT
TIM_DMADelayPulseHalfCplt
