ARM GAS  /var/folders/d0/cymppscj10lcmm48h781wrc80000gn/T//ccIjALm5.s 			page 1


   1              		.cpu cortex-m7
   2              		.arch armv7e-m
   3              		.fpu fpv5-d16
   4              		.eabi_attribute 28, 1
   5              		.eabi_attribute 20, 1
   6              		.eabi_attribute 21, 1
   7              		.eabi_attribute 23, 3
   8              		.eabi_attribute 24, 1
   9              		.eabi_attribute 25, 1
  10              		.eabi_attribute 26, 1
  11              		.eabi_attribute 30, 6
  12              		.eabi_attribute 34, 1
  13              		.eabi_attribute 18, 4
  14              		.file	"stm32h7xx_hal_tim_ex.c"
  15              		.text
  16              	.Ltext0:
  17              		.cfi_sections	.debug_frame
  18              		.section	.text.HAL_TIMEx_HallSensor_Init,"ax",%progbits
  19              		.align	1
  20              		.global	HAL_TIMEx_HallSensor_Init
  21              		.syntax unified
  22              		.thumb
  23              		.thumb_func
  25              	HAL_TIMEx_HallSensor_Init:
  26              	.LFB333:
  27              		.file 1 "Drivers/STM32H7xx_HAL_Driver/Src/stm32h7xx_hal_tim_ex.c"
   1:Drivers/STM32H7xx_HAL_Driver/Src/stm32h7xx_hal_tim_ex.c **** /**
   2:Drivers/STM32H7xx_HAL_Driver/Src/stm32h7xx_hal_tim_ex.c ****   ******************************************************************************
   3:Drivers/STM32H7xx_HAL_Driver/Src/stm32h7xx_hal_tim_ex.c ****   * @file    stm32h7xx_hal_tim_ex.c
   4:Drivers/STM32H7xx_HAL_Driver/Src/stm32h7xx_hal_tim_ex.c ****   * @author  MCD Application Team
   5:Drivers/STM32H7xx_HAL_Driver/Src/stm32h7xx_hal_tim_ex.c ****   * @brief   TIM HAL module driver.
   6:Drivers/STM32H7xx_HAL_Driver/Src/stm32h7xx_hal_tim_ex.c ****   *          This file provides firmware functions to manage the following
   7:Drivers/STM32H7xx_HAL_Driver/Src/stm32h7xx_hal_tim_ex.c ****   *          functionalities of the Timer Extended peripheral:
   8:Drivers/STM32H7xx_HAL_Driver/Src/stm32h7xx_hal_tim_ex.c ****   *           + Time Hall Sensor Interface Initialization
   9:Drivers/STM32H7xx_HAL_Driver/Src/stm32h7xx_hal_tim_ex.c ****   *           + Time Hall Sensor Interface Start
  10:Drivers/STM32H7xx_HAL_Driver/Src/stm32h7xx_hal_tim_ex.c ****   *           + Time Complementary signal break and dead time configuration
  11:Drivers/STM32H7xx_HAL_Driver/Src/stm32h7xx_hal_tim_ex.c ****   *           + Time Master and Slave synchronization configuration
  12:Drivers/STM32H7xx_HAL_Driver/Src/stm32h7xx_hal_tim_ex.c ****   *           + Time Output Compare/PWM Channel Configuration (for channels 5 and 6)
  13:Drivers/STM32H7xx_HAL_Driver/Src/stm32h7xx_hal_tim_ex.c ****   *           + Timer remapping capabilities configuration
  14:Drivers/STM32H7xx_HAL_Driver/Src/stm32h7xx_hal_tim_ex.c ****   ******************************************************************************
  15:Drivers/STM32H7xx_HAL_Driver/Src/stm32h7xx_hal_tim_ex.c ****   * @attention
  16:Drivers/STM32H7xx_HAL_Driver/Src/stm32h7xx_hal_tim_ex.c ****   *
  17:Drivers/STM32H7xx_HAL_Driver/Src/stm32h7xx_hal_tim_ex.c ****   * Copyright (c) 2017 STMicroelectronics.
  18:Drivers/STM32H7xx_HAL_Driver/Src/stm32h7xx_hal_tim_ex.c ****   * All rights reserved.
  19:Drivers/STM32H7xx_HAL_Driver/Src/stm32h7xx_hal_tim_ex.c ****   *
  20:Drivers/STM32H7xx_HAL_Driver/Src/stm32h7xx_hal_tim_ex.c ****   * This software is licensed under terms that can be found in the LICENSE file
  21:Drivers/STM32H7xx_HAL_Driver/Src/stm32h7xx_hal_tim_ex.c ****   * in the root directory of this software component.
  22:Drivers/STM32H7xx_HAL_Driver/Src/stm32h7xx_hal_tim_ex.c ****   * If no LICENSE file comes with this software, it is provided AS-IS.
  23:Drivers/STM32H7xx_HAL_Driver/Src/stm32h7xx_hal_tim_ex.c ****   *
  24:Drivers/STM32H7xx_HAL_Driver/Src/stm32h7xx_hal_tim_ex.c ****   ******************************************************************************
  25:Drivers/STM32H7xx_HAL_Driver/Src/stm32h7xx_hal_tim_ex.c ****   @verbatim
  26:Drivers/STM32H7xx_HAL_Driver/Src/stm32h7xx_hal_tim_ex.c ****   ==============================================================================
  27:Drivers/STM32H7xx_HAL_Driver/Src/stm32h7xx_hal_tim_ex.c ****                       ##### TIMER Extended features #####
  28:Drivers/STM32H7xx_HAL_Driver/Src/stm32h7xx_hal_tim_ex.c ****   ==============================================================================
  29:Drivers/STM32H7xx_HAL_Driver/Src/stm32h7xx_hal_tim_ex.c ****   [..]
  30:Drivers/STM32H7xx_HAL_Driver/Src/stm32h7xx_hal_tim_ex.c ****     The Timer Extended features include:
  31:Drivers/STM32H7xx_HAL_Driver/Src/stm32h7xx_hal_tim_ex.c ****     (#) Complementary outputs with programmable dead-time for :
ARM GAS  /var/folders/d0/cymppscj10lcmm48h781wrc80000gn/T//ccIjALm5.s 			page 2


  32:Drivers/STM32H7xx_HAL_Driver/Src/stm32h7xx_hal_tim_ex.c ****         (++) Output Compare
  33:Drivers/STM32H7xx_HAL_Driver/Src/stm32h7xx_hal_tim_ex.c ****         (++) PWM generation (Edge and Center-aligned Mode)
  34:Drivers/STM32H7xx_HAL_Driver/Src/stm32h7xx_hal_tim_ex.c ****         (++) One-pulse mode output
  35:Drivers/STM32H7xx_HAL_Driver/Src/stm32h7xx_hal_tim_ex.c ****     (#) Synchronization circuit to control the timer with external signals and to
  36:Drivers/STM32H7xx_HAL_Driver/Src/stm32h7xx_hal_tim_ex.c ****         interconnect several timers together.
  37:Drivers/STM32H7xx_HAL_Driver/Src/stm32h7xx_hal_tim_ex.c ****     (#) Break input to put the timer output signals in reset state or in a known state.
  38:Drivers/STM32H7xx_HAL_Driver/Src/stm32h7xx_hal_tim_ex.c ****     (#) Supports incremental (quadrature) encoder and hall-sensor circuitry for
  39:Drivers/STM32H7xx_HAL_Driver/Src/stm32h7xx_hal_tim_ex.c ****         positioning purposes
  40:Drivers/STM32H7xx_HAL_Driver/Src/stm32h7xx_hal_tim_ex.c **** 
  41:Drivers/STM32H7xx_HAL_Driver/Src/stm32h7xx_hal_tim_ex.c ****             ##### How to use this driver #####
  42:Drivers/STM32H7xx_HAL_Driver/Src/stm32h7xx_hal_tim_ex.c ****   ==============================================================================
  43:Drivers/STM32H7xx_HAL_Driver/Src/stm32h7xx_hal_tim_ex.c ****     [..]
  44:Drivers/STM32H7xx_HAL_Driver/Src/stm32h7xx_hal_tim_ex.c ****      (#) Initialize the TIM low level resources by implementing the following functions
  45:Drivers/STM32H7xx_HAL_Driver/Src/stm32h7xx_hal_tim_ex.c ****          depending on the selected feature:
  46:Drivers/STM32H7xx_HAL_Driver/Src/stm32h7xx_hal_tim_ex.c ****            (++) Hall Sensor output : HAL_TIMEx_HallSensor_MspInit()
  47:Drivers/STM32H7xx_HAL_Driver/Src/stm32h7xx_hal_tim_ex.c **** 
  48:Drivers/STM32H7xx_HAL_Driver/Src/stm32h7xx_hal_tim_ex.c ****      (#) Initialize the TIM low level resources :
  49:Drivers/STM32H7xx_HAL_Driver/Src/stm32h7xx_hal_tim_ex.c ****         (##) Enable the TIM interface clock using __HAL_RCC_TIMx_CLK_ENABLE();
  50:Drivers/STM32H7xx_HAL_Driver/Src/stm32h7xx_hal_tim_ex.c ****         (##) TIM pins configuration
  51:Drivers/STM32H7xx_HAL_Driver/Src/stm32h7xx_hal_tim_ex.c ****             (+++) Enable the clock for the TIM GPIOs using the following function:
  52:Drivers/STM32H7xx_HAL_Driver/Src/stm32h7xx_hal_tim_ex.c ****               __HAL_RCC_GPIOx_CLK_ENABLE();
  53:Drivers/STM32H7xx_HAL_Driver/Src/stm32h7xx_hal_tim_ex.c ****             (+++) Configure these TIM pins in Alternate function mode using HAL_GPIO_Init();
  54:Drivers/STM32H7xx_HAL_Driver/Src/stm32h7xx_hal_tim_ex.c **** 
  55:Drivers/STM32H7xx_HAL_Driver/Src/stm32h7xx_hal_tim_ex.c ****      (#) The external Clock can be configured, if needed (the default clock is the
  56:Drivers/STM32H7xx_HAL_Driver/Src/stm32h7xx_hal_tim_ex.c ****          internal clock from the APBx), using the following function:
  57:Drivers/STM32H7xx_HAL_Driver/Src/stm32h7xx_hal_tim_ex.c ****          HAL_TIM_ConfigClockSource, the clock configuration should be done before
  58:Drivers/STM32H7xx_HAL_Driver/Src/stm32h7xx_hal_tim_ex.c ****          any start function.
  59:Drivers/STM32H7xx_HAL_Driver/Src/stm32h7xx_hal_tim_ex.c **** 
  60:Drivers/STM32H7xx_HAL_Driver/Src/stm32h7xx_hal_tim_ex.c ****      (#) Configure the TIM in the desired functioning mode using one of the
  61:Drivers/STM32H7xx_HAL_Driver/Src/stm32h7xx_hal_tim_ex.c ****          initialization function of this driver:
  62:Drivers/STM32H7xx_HAL_Driver/Src/stm32h7xx_hal_tim_ex.c ****           (++) HAL_TIMEx_HallSensor_Init() and HAL_TIMEx_ConfigCommutEvent(): to use the
  63:Drivers/STM32H7xx_HAL_Driver/Src/stm32h7xx_hal_tim_ex.c ****                Timer Hall Sensor Interface and the commutation event with the corresponding
  64:Drivers/STM32H7xx_HAL_Driver/Src/stm32h7xx_hal_tim_ex.c ****                Interrupt and DMA request if needed (Note that One Timer is used to interface
  65:Drivers/STM32H7xx_HAL_Driver/Src/stm32h7xx_hal_tim_ex.c ****                with the Hall sensor Interface and another Timer should be used to use
  66:Drivers/STM32H7xx_HAL_Driver/Src/stm32h7xx_hal_tim_ex.c ****                the commutation event).
  67:Drivers/STM32H7xx_HAL_Driver/Src/stm32h7xx_hal_tim_ex.c **** 
  68:Drivers/STM32H7xx_HAL_Driver/Src/stm32h7xx_hal_tim_ex.c ****      (#) Activate the TIM peripheral using one of the start functions:
  69:Drivers/STM32H7xx_HAL_Driver/Src/stm32h7xx_hal_tim_ex.c ****            (++) Complementary Output Compare : HAL_TIMEx_OCN_Start(), HAL_TIMEx_OCN_Start_DMA(),
  70:Drivers/STM32H7xx_HAL_Driver/Src/stm32h7xx_hal_tim_ex.c ****                 HAL_TIMEx_OCN_Start_IT()
  71:Drivers/STM32H7xx_HAL_Driver/Src/stm32h7xx_hal_tim_ex.c ****            (++) Complementary PWM generation : HAL_TIMEx_PWMN_Start(), HAL_TIMEx_PWMN_Start_DMA(),
  72:Drivers/STM32H7xx_HAL_Driver/Src/stm32h7xx_hal_tim_ex.c ****                 HAL_TIMEx_PWMN_Start_IT()
  73:Drivers/STM32H7xx_HAL_Driver/Src/stm32h7xx_hal_tim_ex.c ****            (++) Complementary One-pulse mode output : HAL_TIMEx_OnePulseN_Start(), HAL_TIMEx_OnePul
  74:Drivers/STM32H7xx_HAL_Driver/Src/stm32h7xx_hal_tim_ex.c ****            (++) Hall Sensor output : HAL_TIMEx_HallSensor_Start(), HAL_TIMEx_HallSensor_Start_DMA()
  75:Drivers/STM32H7xx_HAL_Driver/Src/stm32h7xx_hal_tim_ex.c ****                 HAL_TIMEx_HallSensor_Start_IT().
  76:Drivers/STM32H7xx_HAL_Driver/Src/stm32h7xx_hal_tim_ex.c **** 
  77:Drivers/STM32H7xx_HAL_Driver/Src/stm32h7xx_hal_tim_ex.c ****   @endverbatim
  78:Drivers/STM32H7xx_HAL_Driver/Src/stm32h7xx_hal_tim_ex.c ****   ******************************************************************************
  79:Drivers/STM32H7xx_HAL_Driver/Src/stm32h7xx_hal_tim_ex.c ****   */
  80:Drivers/STM32H7xx_HAL_Driver/Src/stm32h7xx_hal_tim_ex.c **** 
  81:Drivers/STM32H7xx_HAL_Driver/Src/stm32h7xx_hal_tim_ex.c **** /* Includes ------------------------------------------------------------------*/
  82:Drivers/STM32H7xx_HAL_Driver/Src/stm32h7xx_hal_tim_ex.c **** #include "stm32h7xx_hal.h"
  83:Drivers/STM32H7xx_HAL_Driver/Src/stm32h7xx_hal_tim_ex.c **** 
  84:Drivers/STM32H7xx_HAL_Driver/Src/stm32h7xx_hal_tim_ex.c **** /** @addtogroup STM32H7xx_HAL_Driver
  85:Drivers/STM32H7xx_HAL_Driver/Src/stm32h7xx_hal_tim_ex.c ****   * @{
  86:Drivers/STM32H7xx_HAL_Driver/Src/stm32h7xx_hal_tim_ex.c ****   */
  87:Drivers/STM32H7xx_HAL_Driver/Src/stm32h7xx_hal_tim_ex.c **** 
  88:Drivers/STM32H7xx_HAL_Driver/Src/stm32h7xx_hal_tim_ex.c **** /** @defgroup TIMEx TIMEx
ARM GAS  /var/folders/d0/cymppscj10lcmm48h781wrc80000gn/T//ccIjALm5.s 			page 3


  89:Drivers/STM32H7xx_HAL_Driver/Src/stm32h7xx_hal_tim_ex.c ****   * @brief TIM Extended HAL module driver
  90:Drivers/STM32H7xx_HAL_Driver/Src/stm32h7xx_hal_tim_ex.c ****   * @{
  91:Drivers/STM32H7xx_HAL_Driver/Src/stm32h7xx_hal_tim_ex.c ****   */
  92:Drivers/STM32H7xx_HAL_Driver/Src/stm32h7xx_hal_tim_ex.c **** 
  93:Drivers/STM32H7xx_HAL_Driver/Src/stm32h7xx_hal_tim_ex.c **** #ifdef HAL_TIM_MODULE_ENABLED
  94:Drivers/STM32H7xx_HAL_Driver/Src/stm32h7xx_hal_tim_ex.c **** 
  95:Drivers/STM32H7xx_HAL_Driver/Src/stm32h7xx_hal_tim_ex.c **** /* Private typedef -----------------------------------------------------------*/
  96:Drivers/STM32H7xx_HAL_Driver/Src/stm32h7xx_hal_tim_ex.c **** /* Private define ------------------------------------------------------------*/
  97:Drivers/STM32H7xx_HAL_Driver/Src/stm32h7xx_hal_tim_ex.c **** #if defined(TIM_BDTR_BKBID)
  98:Drivers/STM32H7xx_HAL_Driver/Src/stm32h7xx_hal_tim_ex.c **** /* Private constants ---------------------------------------------------------*/
  99:Drivers/STM32H7xx_HAL_Driver/Src/stm32h7xx_hal_tim_ex.c **** /** @defgroup TIMEx_Private_Constants TIM Extended Private Constants
 100:Drivers/STM32H7xx_HAL_Driver/Src/stm32h7xx_hal_tim_ex.c ****   * @{
 101:Drivers/STM32H7xx_HAL_Driver/Src/stm32h7xx_hal_tim_ex.c ****   */
 102:Drivers/STM32H7xx_HAL_Driver/Src/stm32h7xx_hal_tim_ex.c **** /* Timeout for break input rearm */
 103:Drivers/STM32H7xx_HAL_Driver/Src/stm32h7xx_hal_tim_ex.c **** #define TIM_BREAKINPUT_REARM_TIMEOUT    5UL /* 5 milliseconds */
 104:Drivers/STM32H7xx_HAL_Driver/Src/stm32h7xx_hal_tim_ex.c **** /**
 105:Drivers/STM32H7xx_HAL_Driver/Src/stm32h7xx_hal_tim_ex.c ****   * @}
 106:Drivers/STM32H7xx_HAL_Driver/Src/stm32h7xx_hal_tim_ex.c ****   */
 107:Drivers/STM32H7xx_HAL_Driver/Src/stm32h7xx_hal_tim_ex.c **** /* End of private constants --------------------------------------------------*/
 108:Drivers/STM32H7xx_HAL_Driver/Src/stm32h7xx_hal_tim_ex.c **** 
 109:Drivers/STM32H7xx_HAL_Driver/Src/stm32h7xx_hal_tim_ex.c **** #endif /* TIM_BDTR_BKBID */
 110:Drivers/STM32H7xx_HAL_Driver/Src/stm32h7xx_hal_tim_ex.c **** /* Private macros ------------------------------------------------------------*/
 111:Drivers/STM32H7xx_HAL_Driver/Src/stm32h7xx_hal_tim_ex.c **** /* Private variables ---------------------------------------------------------*/
 112:Drivers/STM32H7xx_HAL_Driver/Src/stm32h7xx_hal_tim_ex.c **** /* Private function prototypes -----------------------------------------------*/
 113:Drivers/STM32H7xx_HAL_Driver/Src/stm32h7xx_hal_tim_ex.c **** static void TIM_DMADelayPulseNCplt(DMA_HandleTypeDef *hdma);
 114:Drivers/STM32H7xx_HAL_Driver/Src/stm32h7xx_hal_tim_ex.c **** static void TIM_DMAErrorCCxN(DMA_HandleTypeDef *hdma);
 115:Drivers/STM32H7xx_HAL_Driver/Src/stm32h7xx_hal_tim_ex.c **** static void TIM_CCxNChannelCmd(TIM_TypeDef *TIMx, uint32_t Channel, uint32_t ChannelNState);
 116:Drivers/STM32H7xx_HAL_Driver/Src/stm32h7xx_hal_tim_ex.c **** 
 117:Drivers/STM32H7xx_HAL_Driver/Src/stm32h7xx_hal_tim_ex.c **** /* Exported functions --------------------------------------------------------*/
 118:Drivers/STM32H7xx_HAL_Driver/Src/stm32h7xx_hal_tim_ex.c **** /** @defgroup TIMEx_Exported_Functions TIM Extended Exported Functions
 119:Drivers/STM32H7xx_HAL_Driver/Src/stm32h7xx_hal_tim_ex.c ****   * @{
 120:Drivers/STM32H7xx_HAL_Driver/Src/stm32h7xx_hal_tim_ex.c ****   */
 121:Drivers/STM32H7xx_HAL_Driver/Src/stm32h7xx_hal_tim_ex.c **** 
 122:Drivers/STM32H7xx_HAL_Driver/Src/stm32h7xx_hal_tim_ex.c **** /** @defgroup TIMEx_Exported_Functions_Group1 Extended Timer Hall Sensor functions
 123:Drivers/STM32H7xx_HAL_Driver/Src/stm32h7xx_hal_tim_ex.c ****   * @brief    Timer Hall Sensor functions
 124:Drivers/STM32H7xx_HAL_Driver/Src/stm32h7xx_hal_tim_ex.c ****   *
 125:Drivers/STM32H7xx_HAL_Driver/Src/stm32h7xx_hal_tim_ex.c **** @verbatim
 126:Drivers/STM32H7xx_HAL_Driver/Src/stm32h7xx_hal_tim_ex.c ****   ==============================================================================
 127:Drivers/STM32H7xx_HAL_Driver/Src/stm32h7xx_hal_tim_ex.c ****                       ##### Timer Hall Sensor functions #####
 128:Drivers/STM32H7xx_HAL_Driver/Src/stm32h7xx_hal_tim_ex.c ****   ==============================================================================
 129:Drivers/STM32H7xx_HAL_Driver/Src/stm32h7xx_hal_tim_ex.c ****   [..]
 130:Drivers/STM32H7xx_HAL_Driver/Src/stm32h7xx_hal_tim_ex.c ****     This section provides functions allowing to:
 131:Drivers/STM32H7xx_HAL_Driver/Src/stm32h7xx_hal_tim_ex.c ****     (+) Initialize and configure TIM HAL Sensor.
 132:Drivers/STM32H7xx_HAL_Driver/Src/stm32h7xx_hal_tim_ex.c ****     (+) De-initialize TIM HAL Sensor.
 133:Drivers/STM32H7xx_HAL_Driver/Src/stm32h7xx_hal_tim_ex.c ****     (+) Start the Hall Sensor Interface.
 134:Drivers/STM32H7xx_HAL_Driver/Src/stm32h7xx_hal_tim_ex.c ****     (+) Stop the Hall Sensor Interface.
 135:Drivers/STM32H7xx_HAL_Driver/Src/stm32h7xx_hal_tim_ex.c ****     (+) Start the Hall Sensor Interface and enable interrupts.
 136:Drivers/STM32H7xx_HAL_Driver/Src/stm32h7xx_hal_tim_ex.c ****     (+) Stop the Hall Sensor Interface and disable interrupts.
 137:Drivers/STM32H7xx_HAL_Driver/Src/stm32h7xx_hal_tim_ex.c ****     (+) Start the Hall Sensor Interface and enable DMA transfers.
 138:Drivers/STM32H7xx_HAL_Driver/Src/stm32h7xx_hal_tim_ex.c ****     (+) Stop the Hall Sensor Interface and disable DMA transfers.
 139:Drivers/STM32H7xx_HAL_Driver/Src/stm32h7xx_hal_tim_ex.c **** 
 140:Drivers/STM32H7xx_HAL_Driver/Src/stm32h7xx_hal_tim_ex.c **** @endverbatim
 141:Drivers/STM32H7xx_HAL_Driver/Src/stm32h7xx_hal_tim_ex.c ****   * @{
 142:Drivers/STM32H7xx_HAL_Driver/Src/stm32h7xx_hal_tim_ex.c ****   */
 143:Drivers/STM32H7xx_HAL_Driver/Src/stm32h7xx_hal_tim_ex.c **** /**
 144:Drivers/STM32H7xx_HAL_Driver/Src/stm32h7xx_hal_tim_ex.c ****   * @brief  Initializes the TIM Hall Sensor Interface and initialize the associated handle.
 145:Drivers/STM32H7xx_HAL_Driver/Src/stm32h7xx_hal_tim_ex.c ****   * @note   When the timer instance is initialized in Hall Sensor Interface mode,
ARM GAS  /var/folders/d0/cymppscj10lcmm48h781wrc80000gn/T//ccIjALm5.s 			page 4


 146:Drivers/STM32H7xx_HAL_Driver/Src/stm32h7xx_hal_tim_ex.c ****   *         timer channels 1 and channel 2 are reserved and cannot be used for
 147:Drivers/STM32H7xx_HAL_Driver/Src/stm32h7xx_hal_tim_ex.c ****   *         other purpose.
 148:Drivers/STM32H7xx_HAL_Driver/Src/stm32h7xx_hal_tim_ex.c ****   * @param  htim TIM Hall Sensor Interface handle
 149:Drivers/STM32H7xx_HAL_Driver/Src/stm32h7xx_hal_tim_ex.c ****   * @param  sConfig TIM Hall Sensor configuration structure
 150:Drivers/STM32H7xx_HAL_Driver/Src/stm32h7xx_hal_tim_ex.c ****   * @retval HAL status
 151:Drivers/STM32H7xx_HAL_Driver/Src/stm32h7xx_hal_tim_ex.c ****   */
 152:Drivers/STM32H7xx_HAL_Driver/Src/stm32h7xx_hal_tim_ex.c **** HAL_StatusTypeDef HAL_TIMEx_HallSensor_Init(TIM_HandleTypeDef *htim, TIM_HallSensor_InitTypeDef *sC
 153:Drivers/STM32H7xx_HAL_Driver/Src/stm32h7xx_hal_tim_ex.c **** {
  28              		.loc 1 153 1
  29              		.cfi_startproc
  30              		@ args = 0, pretend = 0, frame = 40
  31              		@ frame_needed = 1, uses_anonymous_args = 0
  32 0000 80B5     		push	{r7, lr}
  33              	.LCFI0:
  34              		.cfi_def_cfa_offset 8
  35              		.cfi_offset 7, -8
  36              		.cfi_offset 14, -4
  37 0002 8AB0     		sub	sp, sp, #40
  38              	.LCFI1:
  39              		.cfi_def_cfa_offset 48
  40 0004 00AF     		add	r7, sp, #0
  41              	.LCFI2:
  42              		.cfi_def_cfa_register 7
  43 0006 7860     		str	r0, [r7, #4]
  44 0008 3960     		str	r1, [r7]
 154:Drivers/STM32H7xx_HAL_Driver/Src/stm32h7xx_hal_tim_ex.c ****   TIM_OC_InitTypeDef OC_Config;
 155:Drivers/STM32H7xx_HAL_Driver/Src/stm32h7xx_hal_tim_ex.c **** 
 156:Drivers/STM32H7xx_HAL_Driver/Src/stm32h7xx_hal_tim_ex.c ****   /* Check the TIM handle allocation */
 157:Drivers/STM32H7xx_HAL_Driver/Src/stm32h7xx_hal_tim_ex.c ****   if (htim == NULL)
  45              		.loc 1 157 6
  46 000a 7B68     		ldr	r3, [r7, #4]
  47 000c 002B     		cmp	r3, #0
  48 000e 01D1     		bne	.L2
 158:Drivers/STM32H7xx_HAL_Driver/Src/stm32h7xx_hal_tim_ex.c ****   {
 159:Drivers/STM32H7xx_HAL_Driver/Src/stm32h7xx_hal_tim_ex.c ****     return HAL_ERROR;
  49              		.loc 1 159 12
  50 0010 0123     		movs	r3, #1
  51 0012 A5E0     		b	.L6
  52              	.L2:
 160:Drivers/STM32H7xx_HAL_Driver/Src/stm32h7xx_hal_tim_ex.c ****   }
 161:Drivers/STM32H7xx_HAL_Driver/Src/stm32h7xx_hal_tim_ex.c **** 
 162:Drivers/STM32H7xx_HAL_Driver/Src/stm32h7xx_hal_tim_ex.c ****   /* Check the parameters */
 163:Drivers/STM32H7xx_HAL_Driver/Src/stm32h7xx_hal_tim_ex.c ****   assert_param(IS_TIM_HALL_SENSOR_INTERFACE_INSTANCE(htim->Instance));
 164:Drivers/STM32H7xx_HAL_Driver/Src/stm32h7xx_hal_tim_ex.c ****   assert_param(IS_TIM_COUNTER_MODE(htim->Init.CounterMode));
 165:Drivers/STM32H7xx_HAL_Driver/Src/stm32h7xx_hal_tim_ex.c ****   assert_param(IS_TIM_CLOCKDIVISION_DIV(htim->Init.ClockDivision));
 166:Drivers/STM32H7xx_HAL_Driver/Src/stm32h7xx_hal_tim_ex.c ****   assert_param(IS_TIM_AUTORELOAD_PRELOAD(htim->Init.AutoReloadPreload));
 167:Drivers/STM32H7xx_HAL_Driver/Src/stm32h7xx_hal_tim_ex.c ****   assert_param(IS_TIM_IC_POLARITY(sConfig->IC1Polarity));
 168:Drivers/STM32H7xx_HAL_Driver/Src/stm32h7xx_hal_tim_ex.c ****   assert_param(IS_TIM_IC_PRESCALER(sConfig->IC1Prescaler));
 169:Drivers/STM32H7xx_HAL_Driver/Src/stm32h7xx_hal_tim_ex.c ****   assert_param(IS_TIM_IC_FILTER(sConfig->IC1Filter));
 170:Drivers/STM32H7xx_HAL_Driver/Src/stm32h7xx_hal_tim_ex.c **** 
 171:Drivers/STM32H7xx_HAL_Driver/Src/stm32h7xx_hal_tim_ex.c ****   if (htim->State == HAL_TIM_STATE_RESET)
  53              		.loc 1 171 11
  54 0014 7B68     		ldr	r3, [r7, #4]
  55 0016 93F83D30 		ldrb	r3, [r3, #61]
  56 001a DBB2     		uxtb	r3, r3
  57              		.loc 1 171 6
  58 001c 002B     		cmp	r3, #0
ARM GAS  /var/folders/d0/cymppscj10lcmm48h781wrc80000gn/T//ccIjALm5.s 			page 5


  59 001e 11D1     		bne	.L4
 172:Drivers/STM32H7xx_HAL_Driver/Src/stm32h7xx_hal_tim_ex.c ****   {
 173:Drivers/STM32H7xx_HAL_Driver/Src/stm32h7xx_hal_tim_ex.c ****     /* Allocate lock resource and initialize it */
 174:Drivers/STM32H7xx_HAL_Driver/Src/stm32h7xx_hal_tim_ex.c ****     htim->Lock = HAL_UNLOCKED;
  60              		.loc 1 174 16
  61 0020 7B68     		ldr	r3, [r7, #4]
  62 0022 0022     		movs	r2, #0
  63 0024 83F83C20 		strb	r2, [r3, #60]
 175:Drivers/STM32H7xx_HAL_Driver/Src/stm32h7xx_hal_tim_ex.c **** 
 176:Drivers/STM32H7xx_HAL_Driver/Src/stm32h7xx_hal_tim_ex.c **** #if (USE_HAL_TIM_REGISTER_CALLBACKS == 1)
 177:Drivers/STM32H7xx_HAL_Driver/Src/stm32h7xx_hal_tim_ex.c ****     /* Reset interrupt callbacks to legacy week callbacks */
 178:Drivers/STM32H7xx_HAL_Driver/Src/stm32h7xx_hal_tim_ex.c ****     TIM_ResetCallback(htim);
  64              		.loc 1 178 5
  65 0028 7868     		ldr	r0, [r7, #4]
  66 002a FFF7FEFF 		bl	TIM_ResetCallback
 179:Drivers/STM32H7xx_HAL_Driver/Src/stm32h7xx_hal_tim_ex.c **** 
 180:Drivers/STM32H7xx_HAL_Driver/Src/stm32h7xx_hal_tim_ex.c ****     if (htim->HallSensor_MspInitCallback == NULL)
  67              		.loc 1 180 13
  68 002e 7B68     		ldr	r3, [r7, #4]
  69 0030 DB6F     		ldr	r3, [r3, #124]
  70              		.loc 1 180 8
  71 0032 002B     		cmp	r3, #0
  72 0034 02D1     		bne	.L5
 181:Drivers/STM32H7xx_HAL_Driver/Src/stm32h7xx_hal_tim_ex.c ****     {
 182:Drivers/STM32H7xx_HAL_Driver/Src/stm32h7xx_hal_tim_ex.c ****       htim->HallSensor_MspInitCallback = HAL_TIMEx_HallSensor_MspInit;
  73              		.loc 1 182 40
  74 0036 7B68     		ldr	r3, [r7, #4]
  75 0038 4B4A     		ldr	r2, .L7
  76 003a DA67     		str	r2, [r3, #124]
  77              	.L5:
 183:Drivers/STM32H7xx_HAL_Driver/Src/stm32h7xx_hal_tim_ex.c ****     }
 184:Drivers/STM32H7xx_HAL_Driver/Src/stm32h7xx_hal_tim_ex.c ****     /* Init the low level hardware : GPIO, CLOCK, NVIC */
 185:Drivers/STM32H7xx_HAL_Driver/Src/stm32h7xx_hal_tim_ex.c ****     htim->HallSensor_MspInitCallback(htim);
  78              		.loc 1 185 9
  79 003c 7B68     		ldr	r3, [r7, #4]
  80 003e DB6F     		ldr	r3, [r3, #124]
  81              		.loc 1 185 5
  82 0040 7868     		ldr	r0, [r7, #4]
  83 0042 9847     		blx	r3
  84              	.LVL0:
  85              	.L4:
 186:Drivers/STM32H7xx_HAL_Driver/Src/stm32h7xx_hal_tim_ex.c **** #else
 187:Drivers/STM32H7xx_HAL_Driver/Src/stm32h7xx_hal_tim_ex.c ****     /* Init the low level hardware : GPIO, CLOCK, NVIC and DMA */
 188:Drivers/STM32H7xx_HAL_Driver/Src/stm32h7xx_hal_tim_ex.c ****     HAL_TIMEx_HallSensor_MspInit(htim);
 189:Drivers/STM32H7xx_HAL_Driver/Src/stm32h7xx_hal_tim_ex.c **** #endif /* USE_HAL_TIM_REGISTER_CALLBACKS */
 190:Drivers/STM32H7xx_HAL_Driver/Src/stm32h7xx_hal_tim_ex.c ****   }
 191:Drivers/STM32H7xx_HAL_Driver/Src/stm32h7xx_hal_tim_ex.c **** 
 192:Drivers/STM32H7xx_HAL_Driver/Src/stm32h7xx_hal_tim_ex.c ****   /* Set the TIM state */
 193:Drivers/STM32H7xx_HAL_Driver/Src/stm32h7xx_hal_tim_ex.c ****   htim->State = HAL_TIM_STATE_BUSY;
  86              		.loc 1 193 15
  87 0044 7B68     		ldr	r3, [r7, #4]
  88 0046 0222     		movs	r2, #2
  89 0048 83F83D20 		strb	r2, [r3, #61]
 194:Drivers/STM32H7xx_HAL_Driver/Src/stm32h7xx_hal_tim_ex.c **** 
 195:Drivers/STM32H7xx_HAL_Driver/Src/stm32h7xx_hal_tim_ex.c ****   /* Configure the Time base in the Encoder Mode */
 196:Drivers/STM32H7xx_HAL_Driver/Src/stm32h7xx_hal_tim_ex.c ****   TIM_Base_SetConfig(htim->Instance, &htim->Init);
  90              		.loc 1 196 3
ARM GAS  /var/folders/d0/cymppscj10lcmm48h781wrc80000gn/T//ccIjALm5.s 			page 6


  91 004c 7B68     		ldr	r3, [r7, #4]
  92 004e 1A68     		ldr	r2, [r3]
  93 0050 7B68     		ldr	r3, [r7, #4]
  94 0052 0433     		adds	r3, r3, #4
  95 0054 1946     		mov	r1, r3
  96 0056 1046     		mov	r0, r2
  97 0058 FFF7FEFF 		bl	TIM_Base_SetConfig
 197:Drivers/STM32H7xx_HAL_Driver/Src/stm32h7xx_hal_tim_ex.c **** 
 198:Drivers/STM32H7xx_HAL_Driver/Src/stm32h7xx_hal_tim_ex.c ****   /* Configure the Channel 1 as Input Channel to interface with the three Outputs of the  Hall sens
 199:Drivers/STM32H7xx_HAL_Driver/Src/stm32h7xx_hal_tim_ex.c ****   TIM_TI1_SetConfig(htim->Instance, sConfig->IC1Polarity, TIM_ICSELECTION_TRC, sConfig->IC1Filter);
  98              		.loc 1 199 3
  99 005c 7B68     		ldr	r3, [r7, #4]
 100 005e 1868     		ldr	r0, [r3]
 101 0060 3B68     		ldr	r3, [r7]
 102 0062 1968     		ldr	r1, [r3]
 103 0064 3B68     		ldr	r3, [r7]
 104 0066 9B68     		ldr	r3, [r3, #8]
 105 0068 0322     		movs	r2, #3
 106 006a FFF7FEFF 		bl	TIM_TI1_SetConfig
 200:Drivers/STM32H7xx_HAL_Driver/Src/stm32h7xx_hal_tim_ex.c **** 
 201:Drivers/STM32H7xx_HAL_Driver/Src/stm32h7xx_hal_tim_ex.c ****   /* Reset the IC1PSC Bits */
 202:Drivers/STM32H7xx_HAL_Driver/Src/stm32h7xx_hal_tim_ex.c ****   htim->Instance->CCMR1 &= ~TIM_CCMR1_IC1PSC;
 107              		.loc 1 202 7
 108 006e 7B68     		ldr	r3, [r7, #4]
 109 0070 1B68     		ldr	r3, [r3]
 110              		.loc 1 202 25
 111 0072 9A69     		ldr	r2, [r3, #24]
 112              		.loc 1 202 7
 113 0074 7B68     		ldr	r3, [r7, #4]
 114 0076 1B68     		ldr	r3, [r3]
 115              		.loc 1 202 25
 116 0078 22F00C02 		bic	r2, r2, #12
 117 007c 9A61     		str	r2, [r3, #24]
 203:Drivers/STM32H7xx_HAL_Driver/Src/stm32h7xx_hal_tim_ex.c ****   /* Set the IC1PSC value */
 204:Drivers/STM32H7xx_HAL_Driver/Src/stm32h7xx_hal_tim_ex.c ****   htim->Instance->CCMR1 |= sConfig->IC1Prescaler;
 118              		.loc 1 204 7
 119 007e 7B68     		ldr	r3, [r7, #4]
 120 0080 1B68     		ldr	r3, [r3]
 121              		.loc 1 204 25
 122 0082 9969     		ldr	r1, [r3, #24]
 123              		.loc 1 204 35
 124 0084 3B68     		ldr	r3, [r7]
 125 0086 5A68     		ldr	r2, [r3, #4]
 126              		.loc 1 204 7
 127 0088 7B68     		ldr	r3, [r7, #4]
 128 008a 1B68     		ldr	r3, [r3]
 129              		.loc 1 204 25
 130 008c 0A43     		orrs	r2, r2, r1
 131 008e 9A61     		str	r2, [r3, #24]
 205:Drivers/STM32H7xx_HAL_Driver/Src/stm32h7xx_hal_tim_ex.c **** 
 206:Drivers/STM32H7xx_HAL_Driver/Src/stm32h7xx_hal_tim_ex.c ****   /* Enable the Hall sensor interface (XOR function of the three inputs) */
 207:Drivers/STM32H7xx_HAL_Driver/Src/stm32h7xx_hal_tim_ex.c ****   htim->Instance->CR2 |= TIM_CR2_TI1S;
 132              		.loc 1 207 7
 133 0090 7B68     		ldr	r3, [r7, #4]
 134 0092 1B68     		ldr	r3, [r3]
 135              		.loc 1 207 23
 136 0094 5A68     		ldr	r2, [r3, #4]
ARM GAS  /var/folders/d0/cymppscj10lcmm48h781wrc80000gn/T//ccIjALm5.s 			page 7


 137              		.loc 1 207 7
 138 0096 7B68     		ldr	r3, [r7, #4]
 139 0098 1B68     		ldr	r3, [r3]
 140              		.loc 1 207 23
 141 009a 42F08002 		orr	r2, r2, #128
 142 009e 5A60     		str	r2, [r3, #4]
 208:Drivers/STM32H7xx_HAL_Driver/Src/stm32h7xx_hal_tim_ex.c **** 
 209:Drivers/STM32H7xx_HAL_Driver/Src/stm32h7xx_hal_tim_ex.c ****   /* Select the TIM_TS_TI1F_ED signal as Input trigger for the TIM */
 210:Drivers/STM32H7xx_HAL_Driver/Src/stm32h7xx_hal_tim_ex.c ****   htim->Instance->SMCR &= ~TIM_SMCR_TS;
 143              		.loc 1 210 7
 144 00a0 7B68     		ldr	r3, [r7, #4]
 145 00a2 1B68     		ldr	r3, [r3]
 146              		.loc 1 210 24
 147 00a4 9968     		ldr	r1, [r3, #8]
 148              		.loc 1 210 7
 149 00a6 7B68     		ldr	r3, [r7, #4]
 150 00a8 1A68     		ldr	r2, [r3]
 151              		.loc 1 210 24
 152 00aa 304B     		ldr	r3, .L7+4
 153 00ac 0B40     		ands	r3, r3, r1
 154 00ae 9360     		str	r3, [r2, #8]
 211:Drivers/STM32H7xx_HAL_Driver/Src/stm32h7xx_hal_tim_ex.c ****   htim->Instance->SMCR |= TIM_TS_TI1F_ED;
 155              		.loc 1 211 7
 156 00b0 7B68     		ldr	r3, [r7, #4]
 157 00b2 1B68     		ldr	r3, [r3]
 158              		.loc 1 211 24
 159 00b4 9A68     		ldr	r2, [r3, #8]
 160              		.loc 1 211 7
 161 00b6 7B68     		ldr	r3, [r7, #4]
 162 00b8 1B68     		ldr	r3, [r3]
 163              		.loc 1 211 24
 164 00ba 42F04002 		orr	r2, r2, #64
 165 00be 9A60     		str	r2, [r3, #8]
 212:Drivers/STM32H7xx_HAL_Driver/Src/stm32h7xx_hal_tim_ex.c **** 
 213:Drivers/STM32H7xx_HAL_Driver/Src/stm32h7xx_hal_tim_ex.c ****   /* Use the TIM_TS_TI1F_ED signal to reset the TIM counter each edge detection */
 214:Drivers/STM32H7xx_HAL_Driver/Src/stm32h7xx_hal_tim_ex.c ****   htim->Instance->SMCR &= ~TIM_SMCR_SMS;
 166              		.loc 1 214 7
 167 00c0 7B68     		ldr	r3, [r7, #4]
 168 00c2 1B68     		ldr	r3, [r3]
 169              		.loc 1 214 24
 170 00c4 9968     		ldr	r1, [r3, #8]
 171              		.loc 1 214 7
 172 00c6 7B68     		ldr	r3, [r7, #4]
 173 00c8 1A68     		ldr	r2, [r3]
 174              		.loc 1 214 24
 175 00ca 294B     		ldr	r3, .L7+8
 176 00cc 0B40     		ands	r3, r3, r1
 177 00ce 9360     		str	r3, [r2, #8]
 215:Drivers/STM32H7xx_HAL_Driver/Src/stm32h7xx_hal_tim_ex.c ****   htim->Instance->SMCR |= TIM_SLAVEMODE_RESET;
 178              		.loc 1 215 7
 179 00d0 7B68     		ldr	r3, [r7, #4]
 180 00d2 1B68     		ldr	r3, [r3]
 181              		.loc 1 215 24
 182 00d4 9A68     		ldr	r2, [r3, #8]
 183              		.loc 1 215 7
 184 00d6 7B68     		ldr	r3, [r7, #4]
 185 00d8 1B68     		ldr	r3, [r3]
ARM GAS  /var/folders/d0/cymppscj10lcmm48h781wrc80000gn/T//ccIjALm5.s 			page 8


 186              		.loc 1 215 24
 187 00da 42F00402 		orr	r2, r2, #4
 188 00de 9A60     		str	r2, [r3, #8]
 216:Drivers/STM32H7xx_HAL_Driver/Src/stm32h7xx_hal_tim_ex.c **** 
 217:Drivers/STM32H7xx_HAL_Driver/Src/stm32h7xx_hal_tim_ex.c ****   /* Program channel 2 in PWM 2 mode with the desired Commutation_Delay*/
 218:Drivers/STM32H7xx_HAL_Driver/Src/stm32h7xx_hal_tim_ex.c ****   OC_Config.OCFastMode = TIM_OCFAST_DISABLE;
 189              		.loc 1 218 24
 190 00e0 0023     		movs	r3, #0
 191 00e2 FB61     		str	r3, [r7, #28]
 219:Drivers/STM32H7xx_HAL_Driver/Src/stm32h7xx_hal_tim_ex.c ****   OC_Config.OCIdleState = TIM_OCIDLESTATE_RESET;
 192              		.loc 1 219 25
 193 00e4 0023     		movs	r3, #0
 194 00e6 3B62     		str	r3, [r7, #32]
 220:Drivers/STM32H7xx_HAL_Driver/Src/stm32h7xx_hal_tim_ex.c ****   OC_Config.OCMode = TIM_OCMODE_PWM2;
 195              		.loc 1 220 20
 196 00e8 7023     		movs	r3, #112
 197 00ea FB60     		str	r3, [r7, #12]
 221:Drivers/STM32H7xx_HAL_Driver/Src/stm32h7xx_hal_tim_ex.c ****   OC_Config.OCNIdleState = TIM_OCNIDLESTATE_RESET;
 198              		.loc 1 221 26
 199 00ec 0023     		movs	r3, #0
 200 00ee 7B62     		str	r3, [r7, #36]
 222:Drivers/STM32H7xx_HAL_Driver/Src/stm32h7xx_hal_tim_ex.c ****   OC_Config.OCNPolarity = TIM_OCNPOLARITY_HIGH;
 201              		.loc 1 222 25
 202 00f0 0023     		movs	r3, #0
 203 00f2 BB61     		str	r3, [r7, #24]
 223:Drivers/STM32H7xx_HAL_Driver/Src/stm32h7xx_hal_tim_ex.c ****   OC_Config.OCPolarity = TIM_OCPOLARITY_HIGH;
 204              		.loc 1 223 24
 205 00f4 0023     		movs	r3, #0
 206 00f6 7B61     		str	r3, [r7, #20]
 224:Drivers/STM32H7xx_HAL_Driver/Src/stm32h7xx_hal_tim_ex.c ****   OC_Config.Pulse = sConfig->Commutation_Delay;
 207              		.loc 1 224 28
 208 00f8 3B68     		ldr	r3, [r7]
 209 00fa DB68     		ldr	r3, [r3, #12]
 210              		.loc 1 224 19
 211 00fc 3B61     		str	r3, [r7, #16]
 225:Drivers/STM32H7xx_HAL_Driver/Src/stm32h7xx_hal_tim_ex.c **** 
 226:Drivers/STM32H7xx_HAL_Driver/Src/stm32h7xx_hal_tim_ex.c ****   TIM_OC2_SetConfig(htim->Instance, &OC_Config);
 212              		.loc 1 226 3
 213 00fe 7B68     		ldr	r3, [r7, #4]
 214 0100 1B68     		ldr	r3, [r3]
 215 0102 07F10C02 		add	r2, r7, #12
 216 0106 1146     		mov	r1, r2
 217 0108 1846     		mov	r0, r3
 218 010a FFF7FEFF 		bl	TIM_OC2_SetConfig
 227:Drivers/STM32H7xx_HAL_Driver/Src/stm32h7xx_hal_tim_ex.c **** 
 228:Drivers/STM32H7xx_HAL_Driver/Src/stm32h7xx_hal_tim_ex.c ****   /* Select OC2REF as trigger output on TRGO: write the MMS bits in the TIMx_CR2
 229:Drivers/STM32H7xx_HAL_Driver/Src/stm32h7xx_hal_tim_ex.c ****     register to 101 */
 230:Drivers/STM32H7xx_HAL_Driver/Src/stm32h7xx_hal_tim_ex.c ****   htim->Instance->CR2 &= ~TIM_CR2_MMS;
 219              		.loc 1 230 7
 220 010e 7B68     		ldr	r3, [r7, #4]
 221 0110 1B68     		ldr	r3, [r3]
 222              		.loc 1 230 23
 223 0112 5A68     		ldr	r2, [r3, #4]
 224              		.loc 1 230 7
 225 0114 7B68     		ldr	r3, [r7, #4]
 226 0116 1B68     		ldr	r3, [r3]
 227              		.loc 1 230 23
ARM GAS  /var/folders/d0/cymppscj10lcmm48h781wrc80000gn/T//ccIjALm5.s 			page 9


 228 0118 22F07002 		bic	r2, r2, #112
 229 011c 5A60     		str	r2, [r3, #4]
 231:Drivers/STM32H7xx_HAL_Driver/Src/stm32h7xx_hal_tim_ex.c ****   htim->Instance->CR2 |= TIM_TRGO_OC2REF;
 230              		.loc 1 231 7
 231 011e 7B68     		ldr	r3, [r7, #4]
 232 0120 1B68     		ldr	r3, [r3]
 233              		.loc 1 231 23
 234 0122 5A68     		ldr	r2, [r3, #4]
 235              		.loc 1 231 7
 236 0124 7B68     		ldr	r3, [r7, #4]
 237 0126 1B68     		ldr	r3, [r3]
 238              		.loc 1 231 23
 239 0128 42F05002 		orr	r2, r2, #80
 240 012c 5A60     		str	r2, [r3, #4]
 232:Drivers/STM32H7xx_HAL_Driver/Src/stm32h7xx_hal_tim_ex.c **** 
 233:Drivers/STM32H7xx_HAL_Driver/Src/stm32h7xx_hal_tim_ex.c ****   /* Initialize the DMA burst operation state */
 234:Drivers/STM32H7xx_HAL_Driver/Src/stm32h7xx_hal_tim_ex.c ****   htim->DMABurstState = HAL_DMA_BURST_STATE_READY;
 241              		.loc 1 234 23
 242 012e 7B68     		ldr	r3, [r7, #4]
 243 0130 0122     		movs	r2, #1
 244 0132 83F84820 		strb	r2, [r3, #72]
 235:Drivers/STM32H7xx_HAL_Driver/Src/stm32h7xx_hal_tim_ex.c **** 
 236:Drivers/STM32H7xx_HAL_Driver/Src/stm32h7xx_hal_tim_ex.c ****   /* Initialize the TIM channels state */
 237:Drivers/STM32H7xx_HAL_Driver/Src/stm32h7xx_hal_tim_ex.c ****   TIM_CHANNEL_STATE_SET(htim, TIM_CHANNEL_1, HAL_TIM_CHANNEL_STATE_READY);
 245              		.loc 1 237 3
 246 0136 7B68     		ldr	r3, [r7, #4]
 247 0138 0122     		movs	r2, #1
 248 013a 83F83E20 		strb	r2, [r3, #62]
 238:Drivers/STM32H7xx_HAL_Driver/Src/stm32h7xx_hal_tim_ex.c ****   TIM_CHANNEL_STATE_SET(htim, TIM_CHANNEL_2, HAL_TIM_CHANNEL_STATE_READY);
 249              		.loc 1 238 3
 250 013e 7B68     		ldr	r3, [r7, #4]
 251 0140 0122     		movs	r2, #1
 252 0142 83F83F20 		strb	r2, [r3, #63]
 239:Drivers/STM32H7xx_HAL_Driver/Src/stm32h7xx_hal_tim_ex.c ****   TIM_CHANNEL_N_STATE_SET(htim, TIM_CHANNEL_1, HAL_TIM_CHANNEL_STATE_READY);
 253              		.loc 1 239 3
 254 0146 7B68     		ldr	r3, [r7, #4]
 255 0148 0122     		movs	r2, #1
 256 014a 83F84420 		strb	r2, [r3, #68]
 240:Drivers/STM32H7xx_HAL_Driver/Src/stm32h7xx_hal_tim_ex.c ****   TIM_CHANNEL_N_STATE_SET(htim, TIM_CHANNEL_2, HAL_TIM_CHANNEL_STATE_READY);
 257              		.loc 1 240 3
 258 014e 7B68     		ldr	r3, [r7, #4]
 259 0150 0122     		movs	r2, #1
 260 0152 83F84520 		strb	r2, [r3, #69]
 241:Drivers/STM32H7xx_HAL_Driver/Src/stm32h7xx_hal_tim_ex.c **** 
 242:Drivers/STM32H7xx_HAL_Driver/Src/stm32h7xx_hal_tim_ex.c ****   /* Initialize the TIM state*/
 243:Drivers/STM32H7xx_HAL_Driver/Src/stm32h7xx_hal_tim_ex.c ****   htim->State = HAL_TIM_STATE_READY;
 261              		.loc 1 243 15
 262 0156 7B68     		ldr	r3, [r7, #4]
 263 0158 0122     		movs	r2, #1
 264 015a 83F83D20 		strb	r2, [r3, #61]
 244:Drivers/STM32H7xx_HAL_Driver/Src/stm32h7xx_hal_tim_ex.c **** 
 245:Drivers/STM32H7xx_HAL_Driver/Src/stm32h7xx_hal_tim_ex.c ****   return HAL_OK;
 265              		.loc 1 245 10
 266 015e 0023     		movs	r3, #0
 267              	.L6:
 246:Drivers/STM32H7xx_HAL_Driver/Src/stm32h7xx_hal_tim_ex.c **** }
 268              		.loc 1 246 1 discriminator 1
ARM GAS  /var/folders/d0/cymppscj10lcmm48h781wrc80000gn/T//ccIjALm5.s 			page 10


 269 0160 1846     		mov	r0, r3
 270 0162 2837     		adds	r7, r7, #40
 271              	.LCFI3:
 272              		.cfi_def_cfa_offset 8
 273 0164 BD46     		mov	sp, r7
 274              	.LCFI4:
 275              		.cfi_def_cfa_register 13
 276              		@ sp needed
 277 0166 80BD     		pop	{r7, pc}
 278              	.L8:
 279              		.align	2
 280              	.L7:
 281 0168 00000000 		.word	HAL_TIMEx_HallSensor_MspInit
 282 016c 8FFFCFFF 		.word	-3145841
 283 0170 F8FFFEFF 		.word	-65544
 284              		.cfi_endproc
 285              	.LFE333:
 287              		.section	.text.HAL_TIMEx_HallSensor_DeInit,"ax",%progbits
 288              		.align	1
 289              		.global	HAL_TIMEx_HallSensor_DeInit
 290              		.syntax unified
 291              		.thumb
 292              		.thumb_func
 294              	HAL_TIMEx_HallSensor_DeInit:
 295              	.LFB334:
 247:Drivers/STM32H7xx_HAL_Driver/Src/stm32h7xx_hal_tim_ex.c **** 
 248:Drivers/STM32H7xx_HAL_Driver/Src/stm32h7xx_hal_tim_ex.c **** /**
 249:Drivers/STM32H7xx_HAL_Driver/Src/stm32h7xx_hal_tim_ex.c ****   * @brief  DeInitializes the TIM Hall Sensor interface
 250:Drivers/STM32H7xx_HAL_Driver/Src/stm32h7xx_hal_tim_ex.c ****   * @param  htim TIM Hall Sensor Interface handle
 251:Drivers/STM32H7xx_HAL_Driver/Src/stm32h7xx_hal_tim_ex.c ****   * @retval HAL status
 252:Drivers/STM32H7xx_HAL_Driver/Src/stm32h7xx_hal_tim_ex.c ****   */
 253:Drivers/STM32H7xx_HAL_Driver/Src/stm32h7xx_hal_tim_ex.c **** HAL_StatusTypeDef HAL_TIMEx_HallSensor_DeInit(TIM_HandleTypeDef *htim)
 254:Drivers/STM32H7xx_HAL_Driver/Src/stm32h7xx_hal_tim_ex.c **** {
 296              		.loc 1 254 1
 297              		.cfi_startproc
 298              		@ args = 0, pretend = 0, frame = 8
 299              		@ frame_needed = 1, uses_anonymous_args = 0
 300 0000 80B5     		push	{r7, lr}
 301              	.LCFI5:
 302              		.cfi_def_cfa_offset 8
 303              		.cfi_offset 7, -8
 304              		.cfi_offset 14, -4
 305 0002 82B0     		sub	sp, sp, #8
 306              	.LCFI6:
 307              		.cfi_def_cfa_offset 16
 308 0004 00AF     		add	r7, sp, #0
 309              	.LCFI7:
 310              		.cfi_def_cfa_register 7
 311 0006 7860     		str	r0, [r7, #4]
 255:Drivers/STM32H7xx_HAL_Driver/Src/stm32h7xx_hal_tim_ex.c ****   /* Check the parameters */
 256:Drivers/STM32H7xx_HAL_Driver/Src/stm32h7xx_hal_tim_ex.c ****   assert_param(IS_TIM_INSTANCE(htim->Instance));
 257:Drivers/STM32H7xx_HAL_Driver/Src/stm32h7xx_hal_tim_ex.c **** 
 258:Drivers/STM32H7xx_HAL_Driver/Src/stm32h7xx_hal_tim_ex.c ****   htim->State = HAL_TIM_STATE_BUSY;
 312              		.loc 1 258 15
 313 0008 7B68     		ldr	r3, [r7, #4]
 314 000a 0222     		movs	r2, #2
 315 000c 83F83D20 		strb	r2, [r3, #61]
ARM GAS  /var/folders/d0/cymppscj10lcmm48h781wrc80000gn/T//ccIjALm5.s 			page 11


 259:Drivers/STM32H7xx_HAL_Driver/Src/stm32h7xx_hal_tim_ex.c **** 
 260:Drivers/STM32H7xx_HAL_Driver/Src/stm32h7xx_hal_tim_ex.c ****   /* Disable the TIM Peripheral Clock */
 261:Drivers/STM32H7xx_HAL_Driver/Src/stm32h7xx_hal_tim_ex.c ****   __HAL_TIM_DISABLE(htim);
 316              		.loc 1 261 3
 317 0010 7B68     		ldr	r3, [r7, #4]
 318 0012 1B68     		ldr	r3, [r3]
 319 0014 1A6A     		ldr	r2, [r3, #32]
 320 0016 41F21113 		movw	r3, #4369
 321 001a 1340     		ands	r3, r3, r2
 322 001c 002B     		cmp	r3, #0
 323 001e 0FD1     		bne	.L10
 324              		.loc 1 261 3 is_stmt 0 discriminator 1
 325 0020 7B68     		ldr	r3, [r7, #4]
 326 0022 1B68     		ldr	r3, [r3]
 327 0024 1A6A     		ldr	r2, [r3, #32]
 328 0026 40F24443 		movw	r3, #1092
 329 002a 1340     		ands	r3, r3, r2
 330 002c 002B     		cmp	r3, #0
 331 002e 07D1     		bne	.L10
 332              		.loc 1 261 3 discriminator 2
 333 0030 7B68     		ldr	r3, [r7, #4]
 334 0032 1B68     		ldr	r3, [r3]
 335 0034 1A68     		ldr	r2, [r3]
 336 0036 7B68     		ldr	r3, [r7, #4]
 337 0038 1B68     		ldr	r3, [r3]
 338 003a 22F00102 		bic	r2, r2, #1
 339 003e 1A60     		str	r2, [r3]
 340              	.L10:
 262:Drivers/STM32H7xx_HAL_Driver/Src/stm32h7xx_hal_tim_ex.c **** 
 263:Drivers/STM32H7xx_HAL_Driver/Src/stm32h7xx_hal_tim_ex.c **** #if (USE_HAL_TIM_REGISTER_CALLBACKS == 1)
 264:Drivers/STM32H7xx_HAL_Driver/Src/stm32h7xx_hal_tim_ex.c ****   if (htim->HallSensor_MspDeInitCallback == NULL)
 341              		.loc 1 264 11 is_stmt 1
 342 0040 7B68     		ldr	r3, [r7, #4]
 343 0042 D3F88030 		ldr	r3, [r3, #128]
 344              		.loc 1 264 6
 345 0046 002B     		cmp	r3, #0
 346 0048 03D1     		bne	.L11
 265:Drivers/STM32H7xx_HAL_Driver/Src/stm32h7xx_hal_tim_ex.c ****   {
 266:Drivers/STM32H7xx_HAL_Driver/Src/stm32h7xx_hal_tim_ex.c ****     htim->HallSensor_MspDeInitCallback = HAL_TIMEx_HallSensor_MspDeInit;
 347              		.loc 1 266 40
 348 004a 7B68     		ldr	r3, [r7, #4]
 349 004c 144A     		ldr	r2, .L13
 350 004e C3F88020 		str	r2, [r3, #128]
 351              	.L11:
 267:Drivers/STM32H7xx_HAL_Driver/Src/stm32h7xx_hal_tim_ex.c ****   }
 268:Drivers/STM32H7xx_HAL_Driver/Src/stm32h7xx_hal_tim_ex.c ****   /* DeInit the low level hardware */
 269:Drivers/STM32H7xx_HAL_Driver/Src/stm32h7xx_hal_tim_ex.c ****   htim->HallSensor_MspDeInitCallback(htim);
 352              		.loc 1 269 7
 353 0052 7B68     		ldr	r3, [r7, #4]
 354 0054 D3F88030 		ldr	r3, [r3, #128]
 355              		.loc 1 269 3
 356 0058 7868     		ldr	r0, [r7, #4]
 357 005a 9847     		blx	r3
 358              	.LVL1:
 270:Drivers/STM32H7xx_HAL_Driver/Src/stm32h7xx_hal_tim_ex.c **** #else
 271:Drivers/STM32H7xx_HAL_Driver/Src/stm32h7xx_hal_tim_ex.c ****   /* DeInit the low level hardware: GPIO, CLOCK, NVIC */
 272:Drivers/STM32H7xx_HAL_Driver/Src/stm32h7xx_hal_tim_ex.c ****   HAL_TIMEx_HallSensor_MspDeInit(htim);
ARM GAS  /var/folders/d0/cymppscj10lcmm48h781wrc80000gn/T//ccIjALm5.s 			page 12


 273:Drivers/STM32H7xx_HAL_Driver/Src/stm32h7xx_hal_tim_ex.c **** #endif /* USE_HAL_TIM_REGISTER_CALLBACKS */
 274:Drivers/STM32H7xx_HAL_Driver/Src/stm32h7xx_hal_tim_ex.c **** 
 275:Drivers/STM32H7xx_HAL_Driver/Src/stm32h7xx_hal_tim_ex.c ****   /* Change the DMA burst operation state */
 276:Drivers/STM32H7xx_HAL_Driver/Src/stm32h7xx_hal_tim_ex.c ****   htim->DMABurstState = HAL_DMA_BURST_STATE_RESET;
 359              		.loc 1 276 23
 360 005c 7B68     		ldr	r3, [r7, #4]
 361 005e 0022     		movs	r2, #0
 362 0060 83F84820 		strb	r2, [r3, #72]
 277:Drivers/STM32H7xx_HAL_Driver/Src/stm32h7xx_hal_tim_ex.c **** 
 278:Drivers/STM32H7xx_HAL_Driver/Src/stm32h7xx_hal_tim_ex.c ****   /* Change the TIM channels state */
 279:Drivers/STM32H7xx_HAL_Driver/Src/stm32h7xx_hal_tim_ex.c ****   TIM_CHANNEL_STATE_SET(htim, TIM_CHANNEL_1, HAL_TIM_CHANNEL_STATE_RESET);
 363              		.loc 1 279 3
 364 0064 7B68     		ldr	r3, [r7, #4]
 365 0066 0022     		movs	r2, #0
 366 0068 83F83E20 		strb	r2, [r3, #62]
 280:Drivers/STM32H7xx_HAL_Driver/Src/stm32h7xx_hal_tim_ex.c ****   TIM_CHANNEL_STATE_SET(htim, TIM_CHANNEL_2, HAL_TIM_CHANNEL_STATE_RESET);
 367              		.loc 1 280 3
 368 006c 7B68     		ldr	r3, [r7, #4]
 369 006e 0022     		movs	r2, #0
 370 0070 83F83F20 		strb	r2, [r3, #63]
 281:Drivers/STM32H7xx_HAL_Driver/Src/stm32h7xx_hal_tim_ex.c ****   TIM_CHANNEL_N_STATE_SET(htim, TIM_CHANNEL_1, HAL_TIM_CHANNEL_STATE_RESET);
 371              		.loc 1 281 3
 372 0074 7B68     		ldr	r3, [r7, #4]
 373 0076 0022     		movs	r2, #0
 374 0078 83F84420 		strb	r2, [r3, #68]
 282:Drivers/STM32H7xx_HAL_Driver/Src/stm32h7xx_hal_tim_ex.c ****   TIM_CHANNEL_N_STATE_SET(htim, TIM_CHANNEL_2, HAL_TIM_CHANNEL_STATE_RESET);
 375              		.loc 1 282 3
 376 007c 7B68     		ldr	r3, [r7, #4]
 377 007e 0022     		movs	r2, #0
 378 0080 83F84520 		strb	r2, [r3, #69]
 283:Drivers/STM32H7xx_HAL_Driver/Src/stm32h7xx_hal_tim_ex.c **** 
 284:Drivers/STM32H7xx_HAL_Driver/Src/stm32h7xx_hal_tim_ex.c ****   /* Change TIM state */
 285:Drivers/STM32H7xx_HAL_Driver/Src/stm32h7xx_hal_tim_ex.c ****   htim->State = HAL_TIM_STATE_RESET;
 379              		.loc 1 285 15
 380 0084 7B68     		ldr	r3, [r7, #4]
 381 0086 0022     		movs	r2, #0
 382 0088 83F83D20 		strb	r2, [r3, #61]
 286:Drivers/STM32H7xx_HAL_Driver/Src/stm32h7xx_hal_tim_ex.c **** 
 287:Drivers/STM32H7xx_HAL_Driver/Src/stm32h7xx_hal_tim_ex.c ****   /* Release Lock */
 288:Drivers/STM32H7xx_HAL_Driver/Src/stm32h7xx_hal_tim_ex.c ****   __HAL_UNLOCK(htim);
 383              		.loc 1 288 3
 384 008c 7B68     		ldr	r3, [r7, #4]
 385 008e 0022     		movs	r2, #0
 386 0090 83F83C20 		strb	r2, [r3, #60]
 289:Drivers/STM32H7xx_HAL_Driver/Src/stm32h7xx_hal_tim_ex.c **** 
 290:Drivers/STM32H7xx_HAL_Driver/Src/stm32h7xx_hal_tim_ex.c ****   return HAL_OK;
 387              		.loc 1 290 10
 388 0094 0023     		movs	r3, #0
 291:Drivers/STM32H7xx_HAL_Driver/Src/stm32h7xx_hal_tim_ex.c **** }
 389              		.loc 1 291 1
 390 0096 1846     		mov	r0, r3
 391 0098 0837     		adds	r7, r7, #8
 392              	.LCFI8:
 393              		.cfi_def_cfa_offset 8
 394 009a BD46     		mov	sp, r7
 395              	.LCFI9:
 396              		.cfi_def_cfa_register 13
ARM GAS  /var/folders/d0/cymppscj10lcmm48h781wrc80000gn/T//ccIjALm5.s 			page 13


 397              		@ sp needed
 398 009c 80BD     		pop	{r7, pc}
 399              	.L14:
 400 009e 00BF     		.align	2
 401              	.L13:
 402 00a0 00000000 		.word	HAL_TIMEx_HallSensor_MspDeInit
 403              		.cfi_endproc
 404              	.LFE334:
 406              		.section	.text.HAL_TIMEx_HallSensor_MspInit,"ax",%progbits
 407              		.align	1
 408              		.weak	HAL_TIMEx_HallSensor_MspInit
 409              		.syntax unified
 410              		.thumb
 411              		.thumb_func
 413              	HAL_TIMEx_HallSensor_MspInit:
 414              	.LFB335:
 292:Drivers/STM32H7xx_HAL_Driver/Src/stm32h7xx_hal_tim_ex.c **** 
 293:Drivers/STM32H7xx_HAL_Driver/Src/stm32h7xx_hal_tim_ex.c **** /**
 294:Drivers/STM32H7xx_HAL_Driver/Src/stm32h7xx_hal_tim_ex.c ****   * @brief  Initializes the TIM Hall Sensor MSP.
 295:Drivers/STM32H7xx_HAL_Driver/Src/stm32h7xx_hal_tim_ex.c ****   * @param  htim TIM Hall Sensor Interface handle
 296:Drivers/STM32H7xx_HAL_Driver/Src/stm32h7xx_hal_tim_ex.c ****   * @retval None
 297:Drivers/STM32H7xx_HAL_Driver/Src/stm32h7xx_hal_tim_ex.c ****   */
 298:Drivers/STM32H7xx_HAL_Driver/Src/stm32h7xx_hal_tim_ex.c **** __weak void HAL_TIMEx_HallSensor_MspInit(TIM_HandleTypeDef *htim)
 299:Drivers/STM32H7xx_HAL_Driver/Src/stm32h7xx_hal_tim_ex.c **** {
 415              		.loc 1 299 1
 416              		.cfi_startproc
 417              		@ args = 0, pretend = 0, frame = 8
 418              		@ frame_needed = 1, uses_anonymous_args = 0
 419              		@ link register save eliminated.
 420 0000 80B4     		push	{r7}
 421              	.LCFI10:
 422              		.cfi_def_cfa_offset 4
 423              		.cfi_offset 7, -4
 424 0002 83B0     		sub	sp, sp, #12
 425              	.LCFI11:
 426              		.cfi_def_cfa_offset 16
 427 0004 00AF     		add	r7, sp, #0
 428              	.LCFI12:
 429              		.cfi_def_cfa_register 7
 430 0006 7860     		str	r0, [r7, #4]
 300:Drivers/STM32H7xx_HAL_Driver/Src/stm32h7xx_hal_tim_ex.c ****   /* Prevent unused argument(s) compilation warning */
 301:Drivers/STM32H7xx_HAL_Driver/Src/stm32h7xx_hal_tim_ex.c ****   UNUSED(htim);
 302:Drivers/STM32H7xx_HAL_Driver/Src/stm32h7xx_hal_tim_ex.c **** 
 303:Drivers/STM32H7xx_HAL_Driver/Src/stm32h7xx_hal_tim_ex.c ****   /* NOTE : This function should not be modified, when the callback is needed,
 304:Drivers/STM32H7xx_HAL_Driver/Src/stm32h7xx_hal_tim_ex.c ****             the HAL_TIMEx_HallSensor_MspInit could be implemented in the user file
 305:Drivers/STM32H7xx_HAL_Driver/Src/stm32h7xx_hal_tim_ex.c ****    */
 306:Drivers/STM32H7xx_HAL_Driver/Src/stm32h7xx_hal_tim_ex.c **** }
 431              		.loc 1 306 1
 432 0008 00BF     		nop
 433 000a 0C37     		adds	r7, r7, #12
 434              	.LCFI13:
 435              		.cfi_def_cfa_offset 4
 436 000c BD46     		mov	sp, r7
 437              	.LCFI14:
 438              		.cfi_def_cfa_register 13
 439              		@ sp needed
 440 000e 5DF8047B 		ldr	r7, [sp], #4
ARM GAS  /var/folders/d0/cymppscj10lcmm48h781wrc80000gn/T//ccIjALm5.s 			page 14


 441              	.LCFI15:
 442              		.cfi_restore 7
 443              		.cfi_def_cfa_offset 0
 444 0012 7047     		bx	lr
 445              		.cfi_endproc
 446              	.LFE335:
 448              		.section	.text.HAL_TIMEx_HallSensor_MspDeInit,"ax",%progbits
 449              		.align	1
 450              		.weak	HAL_TIMEx_HallSensor_MspDeInit
 451              		.syntax unified
 452              		.thumb
 453              		.thumb_func
 455              	HAL_TIMEx_HallSensor_MspDeInit:
 456              	.LFB336:
 307:Drivers/STM32H7xx_HAL_Driver/Src/stm32h7xx_hal_tim_ex.c **** 
 308:Drivers/STM32H7xx_HAL_Driver/Src/stm32h7xx_hal_tim_ex.c **** /**
 309:Drivers/STM32H7xx_HAL_Driver/Src/stm32h7xx_hal_tim_ex.c ****   * @brief  DeInitializes TIM Hall Sensor MSP.
 310:Drivers/STM32H7xx_HAL_Driver/Src/stm32h7xx_hal_tim_ex.c ****   * @param  htim TIM Hall Sensor Interface handle
 311:Drivers/STM32H7xx_HAL_Driver/Src/stm32h7xx_hal_tim_ex.c ****   * @retval None
 312:Drivers/STM32H7xx_HAL_Driver/Src/stm32h7xx_hal_tim_ex.c ****   */
 313:Drivers/STM32H7xx_HAL_Driver/Src/stm32h7xx_hal_tim_ex.c **** __weak void HAL_TIMEx_HallSensor_MspDeInit(TIM_HandleTypeDef *htim)
 314:Drivers/STM32H7xx_HAL_Driver/Src/stm32h7xx_hal_tim_ex.c **** {
 457              		.loc 1 314 1
 458              		.cfi_startproc
 459              		@ args = 0, pretend = 0, frame = 8
 460              		@ frame_needed = 1, uses_anonymous_args = 0
 461              		@ link register save eliminated.
 462 0000 80B4     		push	{r7}
 463              	.LCFI16:
 464              		.cfi_def_cfa_offset 4
 465              		.cfi_offset 7, -4
 466 0002 83B0     		sub	sp, sp, #12
 467              	.LCFI17:
 468              		.cfi_def_cfa_offset 16
 469 0004 00AF     		add	r7, sp, #0
 470              	.LCFI18:
 471              		.cfi_def_cfa_register 7
 472 0006 7860     		str	r0, [r7, #4]
 315:Drivers/STM32H7xx_HAL_Driver/Src/stm32h7xx_hal_tim_ex.c ****   /* Prevent unused argument(s) compilation warning */
 316:Drivers/STM32H7xx_HAL_Driver/Src/stm32h7xx_hal_tim_ex.c ****   UNUSED(htim);
 317:Drivers/STM32H7xx_HAL_Driver/Src/stm32h7xx_hal_tim_ex.c **** 
 318:Drivers/STM32H7xx_HAL_Driver/Src/stm32h7xx_hal_tim_ex.c ****   /* NOTE : This function should not be modified, when the callback is needed,
 319:Drivers/STM32H7xx_HAL_Driver/Src/stm32h7xx_hal_tim_ex.c ****             the HAL_TIMEx_HallSensor_MspDeInit could be implemented in the user file
 320:Drivers/STM32H7xx_HAL_Driver/Src/stm32h7xx_hal_tim_ex.c ****    */
 321:Drivers/STM32H7xx_HAL_Driver/Src/stm32h7xx_hal_tim_ex.c **** }
 473              		.loc 1 321 1
 474 0008 00BF     		nop
 475 000a 0C37     		adds	r7, r7, #12
 476              	.LCFI19:
 477              		.cfi_def_cfa_offset 4
 478 000c BD46     		mov	sp, r7
 479              	.LCFI20:
 480              		.cfi_def_cfa_register 13
 481              		@ sp needed
 482 000e 5DF8047B 		ldr	r7, [sp], #4
 483              	.LCFI21:
 484              		.cfi_restore 7
ARM GAS  /var/folders/d0/cymppscj10lcmm48h781wrc80000gn/T//ccIjALm5.s 			page 15


 485              		.cfi_def_cfa_offset 0
 486 0012 7047     		bx	lr
 487              		.cfi_endproc
 488              	.LFE336:
 490              		.section	.text.HAL_TIMEx_HallSensor_Start,"ax",%progbits
 491              		.align	1
 492              		.global	HAL_TIMEx_HallSensor_Start
 493              		.syntax unified
 494              		.thumb
 495              		.thumb_func
 497              	HAL_TIMEx_HallSensor_Start:
 498              	.LFB337:
 322:Drivers/STM32H7xx_HAL_Driver/Src/stm32h7xx_hal_tim_ex.c **** 
 323:Drivers/STM32H7xx_HAL_Driver/Src/stm32h7xx_hal_tim_ex.c **** /**
 324:Drivers/STM32H7xx_HAL_Driver/Src/stm32h7xx_hal_tim_ex.c ****   * @brief  Starts the TIM Hall Sensor Interface.
 325:Drivers/STM32H7xx_HAL_Driver/Src/stm32h7xx_hal_tim_ex.c ****   * @param  htim TIM Hall Sensor Interface handle
 326:Drivers/STM32H7xx_HAL_Driver/Src/stm32h7xx_hal_tim_ex.c ****   * @retval HAL status
 327:Drivers/STM32H7xx_HAL_Driver/Src/stm32h7xx_hal_tim_ex.c ****   */
 328:Drivers/STM32H7xx_HAL_Driver/Src/stm32h7xx_hal_tim_ex.c **** HAL_StatusTypeDef HAL_TIMEx_HallSensor_Start(TIM_HandleTypeDef *htim)
 329:Drivers/STM32H7xx_HAL_Driver/Src/stm32h7xx_hal_tim_ex.c **** {
 499              		.loc 1 329 1
 500              		.cfi_startproc
 501              		@ args = 0, pretend = 0, frame = 16
 502              		@ frame_needed = 1, uses_anonymous_args = 0
 503 0000 80B5     		push	{r7, lr}
 504              	.LCFI22:
 505              		.cfi_def_cfa_offset 8
 506              		.cfi_offset 7, -8
 507              		.cfi_offset 14, -4
 508 0002 84B0     		sub	sp, sp, #16
 509              	.LCFI23:
 510              		.cfi_def_cfa_offset 24
 511 0004 00AF     		add	r7, sp, #0
 512              	.LCFI24:
 513              		.cfi_def_cfa_register 7
 514 0006 7860     		str	r0, [r7, #4]
 330:Drivers/STM32H7xx_HAL_Driver/Src/stm32h7xx_hal_tim_ex.c ****   uint32_t tmpsmcr;
 331:Drivers/STM32H7xx_HAL_Driver/Src/stm32h7xx_hal_tim_ex.c ****   HAL_TIM_ChannelStateTypeDef channel_1_state = TIM_CHANNEL_STATE_GET(htim, TIM_CHANNEL_1);
 515              		.loc 1 331 31
 516 0008 7B68     		ldr	r3, [r7, #4]
 517 000a 93F83E30 		ldrb	r3, [r3, #62]
 518 000e FB73     		strb	r3, [r7, #15]
 332:Drivers/STM32H7xx_HAL_Driver/Src/stm32h7xx_hal_tim_ex.c ****   HAL_TIM_ChannelStateTypeDef channel_2_state = TIM_CHANNEL_STATE_GET(htim, TIM_CHANNEL_2);
 519              		.loc 1 332 31
 520 0010 7B68     		ldr	r3, [r7, #4]
 521 0012 93F83F30 		ldrb	r3, [r3, #63]
 522 0016 BB73     		strb	r3, [r7, #14]
 333:Drivers/STM32H7xx_HAL_Driver/Src/stm32h7xx_hal_tim_ex.c ****   HAL_TIM_ChannelStateTypeDef complementary_channel_1_state = TIM_CHANNEL_N_STATE_GET(htim, TIM_CHA
 523              		.loc 1 333 31
 524 0018 7B68     		ldr	r3, [r7, #4]
 525 001a 93F84430 		ldrb	r3, [r3, #68]
 526 001e 7B73     		strb	r3, [r7, #13]
 334:Drivers/STM32H7xx_HAL_Driver/Src/stm32h7xx_hal_tim_ex.c ****   HAL_TIM_ChannelStateTypeDef complementary_channel_2_state = TIM_CHANNEL_N_STATE_GET(htim, TIM_CHA
 527              		.loc 1 334 31
 528 0020 7B68     		ldr	r3, [r7, #4]
 529 0022 93F84530 		ldrb	r3, [r3, #69]
 530 0026 3B73     		strb	r3, [r7, #12]
ARM GAS  /var/folders/d0/cymppscj10lcmm48h781wrc80000gn/T//ccIjALm5.s 			page 16


 335:Drivers/STM32H7xx_HAL_Driver/Src/stm32h7xx_hal_tim_ex.c **** 
 336:Drivers/STM32H7xx_HAL_Driver/Src/stm32h7xx_hal_tim_ex.c ****   /* Check the parameters */
 337:Drivers/STM32H7xx_HAL_Driver/Src/stm32h7xx_hal_tim_ex.c ****   assert_param(IS_TIM_HALL_SENSOR_INTERFACE_INSTANCE(htim->Instance));
 338:Drivers/STM32H7xx_HAL_Driver/Src/stm32h7xx_hal_tim_ex.c **** 
 339:Drivers/STM32H7xx_HAL_Driver/Src/stm32h7xx_hal_tim_ex.c ****   /* Check the TIM channels state */
 340:Drivers/STM32H7xx_HAL_Driver/Src/stm32h7xx_hal_tim_ex.c ****   if ((channel_1_state != HAL_TIM_CHANNEL_STATE_READY)
 531              		.loc 1 340 6
 532 0028 FB7B     		ldrb	r3, [r7, #15]	@ zero_extendqisi2
 533 002a 012B     		cmp	r3, #1
 534 002c 08D1     		bne	.L18
 341:Drivers/STM32H7xx_HAL_Driver/Src/stm32h7xx_hal_tim_ex.c ****       || (channel_2_state != HAL_TIM_CHANNEL_STATE_READY)
 535              		.loc 1 341 7
 536 002e BB7B     		ldrb	r3, [r7, #14]	@ zero_extendqisi2
 537 0030 012B     		cmp	r3, #1
 538 0032 05D1     		bne	.L18
 342:Drivers/STM32H7xx_HAL_Driver/Src/stm32h7xx_hal_tim_ex.c ****       || (complementary_channel_1_state != HAL_TIM_CHANNEL_STATE_READY)
 539              		.loc 1 342 7
 540 0034 7B7B     		ldrb	r3, [r7, #13]	@ zero_extendqisi2
 541 0036 012B     		cmp	r3, #1
 542 0038 02D1     		bne	.L18
 343:Drivers/STM32H7xx_HAL_Driver/Src/stm32h7xx_hal_tim_ex.c ****       || (complementary_channel_2_state != HAL_TIM_CHANNEL_STATE_READY))
 543              		.loc 1 343 7
 544 003a 3B7B     		ldrb	r3, [r7, #12]	@ zero_extendqisi2
 545 003c 012B     		cmp	r3, #1
 546 003e 01D0     		beq	.L19
 547              	.L18:
 344:Drivers/STM32H7xx_HAL_Driver/Src/stm32h7xx_hal_tim_ex.c ****   {
 345:Drivers/STM32H7xx_HAL_Driver/Src/stm32h7xx_hal_tim_ex.c ****     return HAL_ERROR;
 548              		.loc 1 345 12
 549 0040 0123     		movs	r3, #1
 550 0042 5FE0     		b	.L20
 551              	.L19:
 346:Drivers/STM32H7xx_HAL_Driver/Src/stm32h7xx_hal_tim_ex.c ****   }
 347:Drivers/STM32H7xx_HAL_Driver/Src/stm32h7xx_hal_tim_ex.c **** 
 348:Drivers/STM32H7xx_HAL_Driver/Src/stm32h7xx_hal_tim_ex.c ****   /* Set the TIM channels state */
 349:Drivers/STM32H7xx_HAL_Driver/Src/stm32h7xx_hal_tim_ex.c ****   TIM_CHANNEL_STATE_SET(htim, TIM_CHANNEL_1, HAL_TIM_CHANNEL_STATE_BUSY);
 552              		.loc 1 349 3
 553 0044 7B68     		ldr	r3, [r7, #4]
 554 0046 0222     		movs	r2, #2
 555 0048 83F83E20 		strb	r2, [r3, #62]
 350:Drivers/STM32H7xx_HAL_Driver/Src/stm32h7xx_hal_tim_ex.c ****   TIM_CHANNEL_STATE_SET(htim, TIM_CHANNEL_2, HAL_TIM_CHANNEL_STATE_BUSY);
 556              		.loc 1 350 3
 557 004c 7B68     		ldr	r3, [r7, #4]
 558 004e 0222     		movs	r2, #2
 559 0050 83F83F20 		strb	r2, [r3, #63]
 351:Drivers/STM32H7xx_HAL_Driver/Src/stm32h7xx_hal_tim_ex.c ****   TIM_CHANNEL_N_STATE_SET(htim, TIM_CHANNEL_1, HAL_TIM_CHANNEL_STATE_BUSY);
 560              		.loc 1 351 3
 561 0054 7B68     		ldr	r3, [r7, #4]
 562 0056 0222     		movs	r2, #2
 563 0058 83F84420 		strb	r2, [r3, #68]
 352:Drivers/STM32H7xx_HAL_Driver/Src/stm32h7xx_hal_tim_ex.c ****   TIM_CHANNEL_N_STATE_SET(htim, TIM_CHANNEL_2, HAL_TIM_CHANNEL_STATE_BUSY);
 564              		.loc 1 352 3
 565 005c 7B68     		ldr	r3, [r7, #4]
 566 005e 0222     		movs	r2, #2
 567 0060 83F84520 		strb	r2, [r3, #69]
 353:Drivers/STM32H7xx_HAL_Driver/Src/stm32h7xx_hal_tim_ex.c **** 
 354:Drivers/STM32H7xx_HAL_Driver/Src/stm32h7xx_hal_tim_ex.c ****   /* Enable the Input Capture channel 1
ARM GAS  /var/folders/d0/cymppscj10lcmm48h781wrc80000gn/T//ccIjALm5.s 			page 17


 355:Drivers/STM32H7xx_HAL_Driver/Src/stm32h7xx_hal_tim_ex.c ****   (in the Hall Sensor Interface the three possible channels that can be used are TIM_CHANNEL_1,
 356:Drivers/STM32H7xx_HAL_Driver/Src/stm32h7xx_hal_tim_ex.c ****   TIM_CHANNEL_2 and TIM_CHANNEL_3) */
 357:Drivers/STM32H7xx_HAL_Driver/Src/stm32h7xx_hal_tim_ex.c ****   TIM_CCxChannelCmd(htim->Instance, TIM_CHANNEL_1, TIM_CCx_ENABLE);
 568              		.loc 1 357 3
 569 0064 7B68     		ldr	r3, [r7, #4]
 570 0066 1B68     		ldr	r3, [r3]
 571 0068 0122     		movs	r2, #1
 572 006a 0021     		movs	r1, #0
 573 006c 1846     		mov	r0, r3
 574 006e FFF7FEFF 		bl	TIM_CCxChannelCmd
 358:Drivers/STM32H7xx_HAL_Driver/Src/stm32h7xx_hal_tim_ex.c **** 
 359:Drivers/STM32H7xx_HAL_Driver/Src/stm32h7xx_hal_tim_ex.c ****   /* Enable the Peripheral, except in trigger mode where enable is automatically done with trigger 
 360:Drivers/STM32H7xx_HAL_Driver/Src/stm32h7xx_hal_tim_ex.c ****   if (IS_TIM_SLAVE_INSTANCE(htim->Instance))
 575              		.loc 1 360 7
 576 0072 7B68     		ldr	r3, [r7, #4]
 577 0074 1B68     		ldr	r3, [r3]
 578              		.loc 1 360 6
 579 0076 254A     		ldr	r2, .L26
 580 0078 9342     		cmp	r3, r2
 581 007a 22D0     		beq	.L21
 582              		.loc 1 360 7 discriminator 1
 583 007c 7B68     		ldr	r3, [r7, #4]
 584 007e 1B68     		ldr	r3, [r3]
 585 0080 B3F1804F 		cmp	r3, #1073741824
 586 0084 1DD0     		beq	.L21
 587              		.loc 1 360 7 is_stmt 0 discriminator 2
 588 0086 7B68     		ldr	r3, [r7, #4]
 589 0088 1B68     		ldr	r3, [r3]
 590 008a 214A     		ldr	r2, .L26+4
 591 008c 9342     		cmp	r3, r2
 592 008e 18D0     		beq	.L21
 593              		.loc 1 360 7 discriminator 3
 594 0090 7B68     		ldr	r3, [r7, #4]
 595 0092 1B68     		ldr	r3, [r3]
 596 0094 1F4A     		ldr	r2, .L26+8
 597 0096 9342     		cmp	r3, r2
 598 0098 13D0     		beq	.L21
 599              		.loc 1 360 7 discriminator 4
 600 009a 7B68     		ldr	r3, [r7, #4]
 601 009c 1B68     		ldr	r3, [r3]
 602 009e 1E4A     		ldr	r2, .L26+12
 603 00a0 9342     		cmp	r3, r2
 604 00a2 0ED0     		beq	.L21
 605              		.loc 1 360 7 discriminator 5
 606 00a4 7B68     		ldr	r3, [r7, #4]
 607 00a6 1B68     		ldr	r3, [r3]
 608 00a8 1C4A     		ldr	r2, .L26+16
 609 00aa 9342     		cmp	r3, r2
 610 00ac 09D0     		beq	.L21
 611              		.loc 1 360 7 discriminator 6
 612 00ae 7B68     		ldr	r3, [r7, #4]
 613 00b0 1B68     		ldr	r3, [r3]
 614 00b2 1B4A     		ldr	r2, .L26+20
 615 00b4 9342     		cmp	r3, r2
 616 00b6 04D0     		beq	.L21
 617              		.loc 1 360 7 discriminator 7
 618 00b8 7B68     		ldr	r3, [r7, #4]
ARM GAS  /var/folders/d0/cymppscj10lcmm48h781wrc80000gn/T//ccIjALm5.s 			page 18


 619 00ba 1B68     		ldr	r3, [r3]
 620 00bc 194A     		ldr	r2, .L26+24
 621 00be 9342     		cmp	r3, r2
 622 00c0 15D1     		bne	.L22
 623              	.L21:
 361:Drivers/STM32H7xx_HAL_Driver/Src/stm32h7xx_hal_tim_ex.c ****   {
 362:Drivers/STM32H7xx_HAL_Driver/Src/stm32h7xx_hal_tim_ex.c ****     tmpsmcr = htim->Instance->SMCR & TIM_SMCR_SMS;
 624              		.loc 1 362 19 is_stmt 1
 625 00c2 7B68     		ldr	r3, [r7, #4]
 626 00c4 1B68     		ldr	r3, [r3]
 627              		.loc 1 362 29
 628 00c6 9A68     		ldr	r2, [r3, #8]
 629              		.loc 1 362 13
 630 00c8 174B     		ldr	r3, .L26+28
 631 00ca 1340     		ands	r3, r3, r2
 632 00cc BB60     		str	r3, [r7, #8]
 363:Drivers/STM32H7xx_HAL_Driver/Src/stm32h7xx_hal_tim_ex.c ****     if (!IS_TIM_SLAVEMODE_TRIGGER_ENABLED(tmpsmcr))
 633              		.loc 1 363 8
 634 00ce BB68     		ldr	r3, [r7, #8]
 635 00d0 062B     		cmp	r3, #6
 636 00d2 15D0     		beq	.L25
 637              		.loc 1 363 9 discriminator 1
 638 00d4 BB68     		ldr	r3, [r7, #8]
 639 00d6 B3F5803F 		cmp	r3, #65536
 640 00da 11D0     		beq	.L25
 364:Drivers/STM32H7xx_HAL_Driver/Src/stm32h7xx_hal_tim_ex.c ****     {
 365:Drivers/STM32H7xx_HAL_Driver/Src/stm32h7xx_hal_tim_ex.c ****       __HAL_TIM_ENABLE(htim);
 641              		.loc 1 365 7
 642 00dc 7B68     		ldr	r3, [r7, #4]
 643 00de 1B68     		ldr	r3, [r3]
 644 00e0 1A68     		ldr	r2, [r3]
 645 00e2 7B68     		ldr	r3, [r7, #4]
 646 00e4 1B68     		ldr	r3, [r3]
 647 00e6 42F00102 		orr	r2, r2, #1
 648 00ea 1A60     		str	r2, [r3]
 363:Drivers/STM32H7xx_HAL_Driver/Src/stm32h7xx_hal_tim_ex.c ****     if (!IS_TIM_SLAVEMODE_TRIGGER_ENABLED(tmpsmcr))
 649              		.loc 1 363 8
 650 00ec 08E0     		b	.L25
 651              	.L22:
 366:Drivers/STM32H7xx_HAL_Driver/Src/stm32h7xx_hal_tim_ex.c ****     }
 367:Drivers/STM32H7xx_HAL_Driver/Src/stm32h7xx_hal_tim_ex.c ****   }
 368:Drivers/STM32H7xx_HAL_Driver/Src/stm32h7xx_hal_tim_ex.c ****   else
 369:Drivers/STM32H7xx_HAL_Driver/Src/stm32h7xx_hal_tim_ex.c ****   {
 370:Drivers/STM32H7xx_HAL_Driver/Src/stm32h7xx_hal_tim_ex.c ****     __HAL_TIM_ENABLE(htim);
 652              		.loc 1 370 5
 653 00ee 7B68     		ldr	r3, [r7, #4]
 654 00f0 1B68     		ldr	r3, [r3]
 655 00f2 1A68     		ldr	r2, [r3]
 656 00f4 7B68     		ldr	r3, [r7, #4]
 657 00f6 1B68     		ldr	r3, [r3]
 658 00f8 42F00102 		orr	r2, r2, #1
 659 00fc 1A60     		str	r2, [r3]
 660 00fe 00E0     		b	.L24
 661              	.L25:
 363:Drivers/STM32H7xx_HAL_Driver/Src/stm32h7xx_hal_tim_ex.c ****     {
 662              		.loc 1 363 8
 663 0100 00BF     		nop
ARM GAS  /var/folders/d0/cymppscj10lcmm48h781wrc80000gn/T//ccIjALm5.s 			page 19


 664              	.L24:
 371:Drivers/STM32H7xx_HAL_Driver/Src/stm32h7xx_hal_tim_ex.c ****   }
 372:Drivers/STM32H7xx_HAL_Driver/Src/stm32h7xx_hal_tim_ex.c **** 
 373:Drivers/STM32H7xx_HAL_Driver/Src/stm32h7xx_hal_tim_ex.c ****   /* Return function status */
 374:Drivers/STM32H7xx_HAL_Driver/Src/stm32h7xx_hal_tim_ex.c ****   return HAL_OK;
 665              		.loc 1 374 10
 666 0102 0023     		movs	r3, #0
 667              	.L20:
 375:Drivers/STM32H7xx_HAL_Driver/Src/stm32h7xx_hal_tim_ex.c **** }
 668              		.loc 1 375 1
 669 0104 1846     		mov	r0, r3
 670 0106 1037     		adds	r7, r7, #16
 671              	.LCFI25:
 672              		.cfi_def_cfa_offset 8
 673 0108 BD46     		mov	sp, r7
 674              	.LCFI26:
 675              		.cfi_def_cfa_register 13
 676              		@ sp needed
 677 010a 80BD     		pop	{r7, pc}
 678              	.L27:
 679              		.align	2
 680              	.L26:
 681 010c 00000140 		.word	1073807360
 682 0110 00040040 		.word	1073742848
 683 0114 00080040 		.word	1073743872
 684 0118 000C0040 		.word	1073744896
 685 011c 00040140 		.word	1073808384
 686 0120 00180040 		.word	1073747968
 687 0124 00400140 		.word	1073823744
 688 0128 07000100 		.word	65543
 689              		.cfi_endproc
 690              	.LFE337:
 692              		.section	.text.HAL_TIMEx_HallSensor_Stop,"ax",%progbits
 693              		.align	1
 694              		.global	HAL_TIMEx_HallSensor_Stop
 695              		.syntax unified
 696              		.thumb
 697              		.thumb_func
 699              	HAL_TIMEx_HallSensor_Stop:
 700              	.LFB338:
 376:Drivers/STM32H7xx_HAL_Driver/Src/stm32h7xx_hal_tim_ex.c **** 
 377:Drivers/STM32H7xx_HAL_Driver/Src/stm32h7xx_hal_tim_ex.c **** /**
 378:Drivers/STM32H7xx_HAL_Driver/Src/stm32h7xx_hal_tim_ex.c ****   * @brief  Stops the TIM Hall sensor Interface.
 379:Drivers/STM32H7xx_HAL_Driver/Src/stm32h7xx_hal_tim_ex.c ****   * @param  htim TIM Hall Sensor Interface handle
 380:Drivers/STM32H7xx_HAL_Driver/Src/stm32h7xx_hal_tim_ex.c ****   * @retval HAL status
 381:Drivers/STM32H7xx_HAL_Driver/Src/stm32h7xx_hal_tim_ex.c ****   */
 382:Drivers/STM32H7xx_HAL_Driver/Src/stm32h7xx_hal_tim_ex.c **** HAL_StatusTypeDef HAL_TIMEx_HallSensor_Stop(TIM_HandleTypeDef *htim)
 383:Drivers/STM32H7xx_HAL_Driver/Src/stm32h7xx_hal_tim_ex.c **** {
 701              		.loc 1 383 1
 702              		.cfi_startproc
 703              		@ args = 0, pretend = 0, frame = 8
 704              		@ frame_needed = 1, uses_anonymous_args = 0
 705 0000 80B5     		push	{r7, lr}
 706              	.LCFI27:
 707              		.cfi_def_cfa_offset 8
 708              		.cfi_offset 7, -8
 709              		.cfi_offset 14, -4
ARM GAS  /var/folders/d0/cymppscj10lcmm48h781wrc80000gn/T//ccIjALm5.s 			page 20


 710 0002 82B0     		sub	sp, sp, #8
 711              	.LCFI28:
 712              		.cfi_def_cfa_offset 16
 713 0004 00AF     		add	r7, sp, #0
 714              	.LCFI29:
 715              		.cfi_def_cfa_register 7
 716 0006 7860     		str	r0, [r7, #4]
 384:Drivers/STM32H7xx_HAL_Driver/Src/stm32h7xx_hal_tim_ex.c ****   /* Check the parameters */
 385:Drivers/STM32H7xx_HAL_Driver/Src/stm32h7xx_hal_tim_ex.c ****   assert_param(IS_TIM_HALL_SENSOR_INTERFACE_INSTANCE(htim->Instance));
 386:Drivers/STM32H7xx_HAL_Driver/Src/stm32h7xx_hal_tim_ex.c **** 
 387:Drivers/STM32H7xx_HAL_Driver/Src/stm32h7xx_hal_tim_ex.c ****   /* Disable the Input Capture channels 1, 2 and 3
 388:Drivers/STM32H7xx_HAL_Driver/Src/stm32h7xx_hal_tim_ex.c ****   (in the Hall Sensor Interface the three possible channels that can be used are TIM_CHANNEL_1,
 389:Drivers/STM32H7xx_HAL_Driver/Src/stm32h7xx_hal_tim_ex.c ****   TIM_CHANNEL_2 and TIM_CHANNEL_3) */
 390:Drivers/STM32H7xx_HAL_Driver/Src/stm32h7xx_hal_tim_ex.c ****   TIM_CCxChannelCmd(htim->Instance, TIM_CHANNEL_1, TIM_CCx_DISABLE);
 717              		.loc 1 390 3
 718 0008 7B68     		ldr	r3, [r7, #4]
 719 000a 1B68     		ldr	r3, [r3]
 720 000c 0022     		movs	r2, #0
 721 000e 0021     		movs	r1, #0
 722 0010 1846     		mov	r0, r3
 723 0012 FFF7FEFF 		bl	TIM_CCxChannelCmd
 391:Drivers/STM32H7xx_HAL_Driver/Src/stm32h7xx_hal_tim_ex.c **** 
 392:Drivers/STM32H7xx_HAL_Driver/Src/stm32h7xx_hal_tim_ex.c ****   /* Disable the Peripheral */
 393:Drivers/STM32H7xx_HAL_Driver/Src/stm32h7xx_hal_tim_ex.c ****   __HAL_TIM_DISABLE(htim);
 724              		.loc 1 393 3
 725 0016 7B68     		ldr	r3, [r7, #4]
 726 0018 1B68     		ldr	r3, [r3]
 727 001a 1A6A     		ldr	r2, [r3, #32]
 728 001c 41F21113 		movw	r3, #4369
 729 0020 1340     		ands	r3, r3, r2
 730 0022 002B     		cmp	r3, #0
 731 0024 0FD1     		bne	.L29
 732              		.loc 1 393 3 is_stmt 0 discriminator 1
 733 0026 7B68     		ldr	r3, [r7, #4]
 734 0028 1B68     		ldr	r3, [r3]
 735 002a 1A6A     		ldr	r2, [r3, #32]
 736 002c 40F24443 		movw	r3, #1092
 737 0030 1340     		ands	r3, r3, r2
 738 0032 002B     		cmp	r3, #0
 739 0034 07D1     		bne	.L29
 740              		.loc 1 393 3 discriminator 2
 741 0036 7B68     		ldr	r3, [r7, #4]
 742 0038 1B68     		ldr	r3, [r3]
 743 003a 1A68     		ldr	r2, [r3]
 744 003c 7B68     		ldr	r3, [r7, #4]
 745 003e 1B68     		ldr	r3, [r3]
 746 0040 22F00102 		bic	r2, r2, #1
 747 0044 1A60     		str	r2, [r3]
 748              	.L29:
 394:Drivers/STM32H7xx_HAL_Driver/Src/stm32h7xx_hal_tim_ex.c **** 
 395:Drivers/STM32H7xx_HAL_Driver/Src/stm32h7xx_hal_tim_ex.c ****   /* Set the TIM channels state */
 396:Drivers/STM32H7xx_HAL_Driver/Src/stm32h7xx_hal_tim_ex.c ****   TIM_CHANNEL_STATE_SET(htim, TIM_CHANNEL_1, HAL_TIM_CHANNEL_STATE_READY);
 749              		.loc 1 396 3 is_stmt 1
 750 0046 7B68     		ldr	r3, [r7, #4]
 751 0048 0122     		movs	r2, #1
 752 004a 83F83E20 		strb	r2, [r3, #62]
 397:Drivers/STM32H7xx_HAL_Driver/Src/stm32h7xx_hal_tim_ex.c ****   TIM_CHANNEL_STATE_SET(htim, TIM_CHANNEL_2, HAL_TIM_CHANNEL_STATE_READY);
ARM GAS  /var/folders/d0/cymppscj10lcmm48h781wrc80000gn/T//ccIjALm5.s 			page 21


 753              		.loc 1 397 3
 754 004e 7B68     		ldr	r3, [r7, #4]
 755 0050 0122     		movs	r2, #1
 756 0052 83F83F20 		strb	r2, [r3, #63]
 398:Drivers/STM32H7xx_HAL_Driver/Src/stm32h7xx_hal_tim_ex.c ****   TIM_CHANNEL_N_STATE_SET(htim, TIM_CHANNEL_1, HAL_TIM_CHANNEL_STATE_READY);
 757              		.loc 1 398 3
 758 0056 7B68     		ldr	r3, [r7, #4]
 759 0058 0122     		movs	r2, #1
 760 005a 83F84420 		strb	r2, [r3, #68]
 399:Drivers/STM32H7xx_HAL_Driver/Src/stm32h7xx_hal_tim_ex.c ****   TIM_CHANNEL_N_STATE_SET(htim, TIM_CHANNEL_2, HAL_TIM_CHANNEL_STATE_READY);
 761              		.loc 1 399 3
 762 005e 7B68     		ldr	r3, [r7, #4]
 763 0060 0122     		movs	r2, #1
 764 0062 83F84520 		strb	r2, [r3, #69]
 400:Drivers/STM32H7xx_HAL_Driver/Src/stm32h7xx_hal_tim_ex.c **** 
 401:Drivers/STM32H7xx_HAL_Driver/Src/stm32h7xx_hal_tim_ex.c ****   /* Return function status */
 402:Drivers/STM32H7xx_HAL_Driver/Src/stm32h7xx_hal_tim_ex.c ****   return HAL_OK;
 765              		.loc 1 402 10
 766 0066 0023     		movs	r3, #0
 403:Drivers/STM32H7xx_HAL_Driver/Src/stm32h7xx_hal_tim_ex.c **** }
 767              		.loc 1 403 1
 768 0068 1846     		mov	r0, r3
 769 006a 0837     		adds	r7, r7, #8
 770              	.LCFI30:
 771              		.cfi_def_cfa_offset 8
 772 006c BD46     		mov	sp, r7
 773              	.LCFI31:
 774              		.cfi_def_cfa_register 13
 775              		@ sp needed
 776 006e 80BD     		pop	{r7, pc}
 777              		.cfi_endproc
 778              	.LFE338:
 780              		.section	.text.HAL_TIMEx_HallSensor_Start_IT,"ax",%progbits
 781              		.align	1
 782              		.global	HAL_TIMEx_HallSensor_Start_IT
 783              		.syntax unified
 784              		.thumb
 785              		.thumb_func
 787              	HAL_TIMEx_HallSensor_Start_IT:
 788              	.LFB339:
 404:Drivers/STM32H7xx_HAL_Driver/Src/stm32h7xx_hal_tim_ex.c **** 
 405:Drivers/STM32H7xx_HAL_Driver/Src/stm32h7xx_hal_tim_ex.c **** /**
 406:Drivers/STM32H7xx_HAL_Driver/Src/stm32h7xx_hal_tim_ex.c ****   * @brief  Starts the TIM Hall Sensor Interface in interrupt mode.
 407:Drivers/STM32H7xx_HAL_Driver/Src/stm32h7xx_hal_tim_ex.c ****   * @param  htim TIM Hall Sensor Interface handle
 408:Drivers/STM32H7xx_HAL_Driver/Src/stm32h7xx_hal_tim_ex.c ****   * @retval HAL status
 409:Drivers/STM32H7xx_HAL_Driver/Src/stm32h7xx_hal_tim_ex.c ****   */
 410:Drivers/STM32H7xx_HAL_Driver/Src/stm32h7xx_hal_tim_ex.c **** HAL_StatusTypeDef HAL_TIMEx_HallSensor_Start_IT(TIM_HandleTypeDef *htim)
 411:Drivers/STM32H7xx_HAL_Driver/Src/stm32h7xx_hal_tim_ex.c **** {
 789              		.loc 1 411 1
 790              		.cfi_startproc
 791              		@ args = 0, pretend = 0, frame = 16
 792              		@ frame_needed = 1, uses_anonymous_args = 0
 793 0000 80B5     		push	{r7, lr}
 794              	.LCFI32:
 795              		.cfi_def_cfa_offset 8
 796              		.cfi_offset 7, -8
 797              		.cfi_offset 14, -4
ARM GAS  /var/folders/d0/cymppscj10lcmm48h781wrc80000gn/T//ccIjALm5.s 			page 22


 798 0002 84B0     		sub	sp, sp, #16
 799              	.LCFI33:
 800              		.cfi_def_cfa_offset 24
 801 0004 00AF     		add	r7, sp, #0
 802              	.LCFI34:
 803              		.cfi_def_cfa_register 7
 804 0006 7860     		str	r0, [r7, #4]
 412:Drivers/STM32H7xx_HAL_Driver/Src/stm32h7xx_hal_tim_ex.c ****   uint32_t tmpsmcr;
 413:Drivers/STM32H7xx_HAL_Driver/Src/stm32h7xx_hal_tim_ex.c ****   HAL_TIM_ChannelStateTypeDef channel_1_state = TIM_CHANNEL_STATE_GET(htim, TIM_CHANNEL_1);
 805              		.loc 1 413 31
 806 0008 7B68     		ldr	r3, [r7, #4]
 807 000a 93F83E30 		ldrb	r3, [r3, #62]
 808 000e FB73     		strb	r3, [r7, #15]
 414:Drivers/STM32H7xx_HAL_Driver/Src/stm32h7xx_hal_tim_ex.c ****   HAL_TIM_ChannelStateTypeDef channel_2_state = TIM_CHANNEL_STATE_GET(htim, TIM_CHANNEL_2);
 809              		.loc 1 414 31
 810 0010 7B68     		ldr	r3, [r7, #4]
 811 0012 93F83F30 		ldrb	r3, [r3, #63]
 812 0016 BB73     		strb	r3, [r7, #14]
 415:Drivers/STM32H7xx_HAL_Driver/Src/stm32h7xx_hal_tim_ex.c ****   HAL_TIM_ChannelStateTypeDef complementary_channel_1_state = TIM_CHANNEL_N_STATE_GET(htim, TIM_CHA
 813              		.loc 1 415 31
 814 0018 7B68     		ldr	r3, [r7, #4]
 815 001a 93F84430 		ldrb	r3, [r3, #68]
 816 001e 7B73     		strb	r3, [r7, #13]
 416:Drivers/STM32H7xx_HAL_Driver/Src/stm32h7xx_hal_tim_ex.c ****   HAL_TIM_ChannelStateTypeDef complementary_channel_2_state = TIM_CHANNEL_N_STATE_GET(htim, TIM_CHA
 817              		.loc 1 416 31
 818 0020 7B68     		ldr	r3, [r7, #4]
 819 0022 93F84530 		ldrb	r3, [r3, #69]
 820 0026 3B73     		strb	r3, [r7, #12]
 417:Drivers/STM32H7xx_HAL_Driver/Src/stm32h7xx_hal_tim_ex.c **** 
 418:Drivers/STM32H7xx_HAL_Driver/Src/stm32h7xx_hal_tim_ex.c ****   /* Check the parameters */
 419:Drivers/STM32H7xx_HAL_Driver/Src/stm32h7xx_hal_tim_ex.c ****   assert_param(IS_TIM_HALL_SENSOR_INTERFACE_INSTANCE(htim->Instance));
 420:Drivers/STM32H7xx_HAL_Driver/Src/stm32h7xx_hal_tim_ex.c **** 
 421:Drivers/STM32H7xx_HAL_Driver/Src/stm32h7xx_hal_tim_ex.c ****   /* Check the TIM channels state */
 422:Drivers/STM32H7xx_HAL_Driver/Src/stm32h7xx_hal_tim_ex.c ****   if ((channel_1_state != HAL_TIM_CHANNEL_STATE_READY)
 821              		.loc 1 422 6
 822 0028 FB7B     		ldrb	r3, [r7, #15]	@ zero_extendqisi2
 823 002a 012B     		cmp	r3, #1
 824 002c 08D1     		bne	.L32
 423:Drivers/STM32H7xx_HAL_Driver/Src/stm32h7xx_hal_tim_ex.c ****       || (channel_2_state != HAL_TIM_CHANNEL_STATE_READY)
 825              		.loc 1 423 7
 826 002e BB7B     		ldrb	r3, [r7, #14]	@ zero_extendqisi2
 827 0030 012B     		cmp	r3, #1
 828 0032 05D1     		bne	.L32
 424:Drivers/STM32H7xx_HAL_Driver/Src/stm32h7xx_hal_tim_ex.c ****       || (complementary_channel_1_state != HAL_TIM_CHANNEL_STATE_READY)
 829              		.loc 1 424 7
 830 0034 7B7B     		ldrb	r3, [r7, #13]	@ zero_extendqisi2
 831 0036 012B     		cmp	r3, #1
 832 0038 02D1     		bne	.L32
 425:Drivers/STM32H7xx_HAL_Driver/Src/stm32h7xx_hal_tim_ex.c ****       || (complementary_channel_2_state != HAL_TIM_CHANNEL_STATE_READY))
 833              		.loc 1 425 7
 834 003a 3B7B     		ldrb	r3, [r7, #12]	@ zero_extendqisi2
 835 003c 012B     		cmp	r3, #1
 836 003e 01D0     		beq	.L33
 837              	.L32:
 426:Drivers/STM32H7xx_HAL_Driver/Src/stm32h7xx_hal_tim_ex.c ****   {
 427:Drivers/STM32H7xx_HAL_Driver/Src/stm32h7xx_hal_tim_ex.c ****     return HAL_ERROR;
 838              		.loc 1 427 12
ARM GAS  /var/folders/d0/cymppscj10lcmm48h781wrc80000gn/T//ccIjALm5.s 			page 23


 839 0040 0123     		movs	r3, #1
 840 0042 67E0     		b	.L34
 841              	.L33:
 428:Drivers/STM32H7xx_HAL_Driver/Src/stm32h7xx_hal_tim_ex.c ****   }
 429:Drivers/STM32H7xx_HAL_Driver/Src/stm32h7xx_hal_tim_ex.c **** 
 430:Drivers/STM32H7xx_HAL_Driver/Src/stm32h7xx_hal_tim_ex.c ****   /* Set the TIM channels state */
 431:Drivers/STM32H7xx_HAL_Driver/Src/stm32h7xx_hal_tim_ex.c ****   TIM_CHANNEL_STATE_SET(htim, TIM_CHANNEL_1, HAL_TIM_CHANNEL_STATE_BUSY);
 842              		.loc 1 431 3
 843 0044 7B68     		ldr	r3, [r7, #4]
 844 0046 0222     		movs	r2, #2
 845 0048 83F83E20 		strb	r2, [r3, #62]
 432:Drivers/STM32H7xx_HAL_Driver/Src/stm32h7xx_hal_tim_ex.c ****   TIM_CHANNEL_STATE_SET(htim, TIM_CHANNEL_2, HAL_TIM_CHANNEL_STATE_BUSY);
 846              		.loc 1 432 3
 847 004c 7B68     		ldr	r3, [r7, #4]
 848 004e 0222     		movs	r2, #2
 849 0050 83F83F20 		strb	r2, [r3, #63]
 433:Drivers/STM32H7xx_HAL_Driver/Src/stm32h7xx_hal_tim_ex.c ****   TIM_CHANNEL_N_STATE_SET(htim, TIM_CHANNEL_1, HAL_TIM_CHANNEL_STATE_BUSY);
 850              		.loc 1 433 3
 851 0054 7B68     		ldr	r3, [r7, #4]
 852 0056 0222     		movs	r2, #2
 853 0058 83F84420 		strb	r2, [r3, #68]
 434:Drivers/STM32H7xx_HAL_Driver/Src/stm32h7xx_hal_tim_ex.c ****   TIM_CHANNEL_N_STATE_SET(htim, TIM_CHANNEL_2, HAL_TIM_CHANNEL_STATE_BUSY);
 854              		.loc 1 434 3
 855 005c 7B68     		ldr	r3, [r7, #4]
 856 005e 0222     		movs	r2, #2
 857 0060 83F84520 		strb	r2, [r3, #69]
 435:Drivers/STM32H7xx_HAL_Driver/Src/stm32h7xx_hal_tim_ex.c **** 
 436:Drivers/STM32H7xx_HAL_Driver/Src/stm32h7xx_hal_tim_ex.c ****   /* Enable the capture compare Interrupts 1 event */
 437:Drivers/STM32H7xx_HAL_Driver/Src/stm32h7xx_hal_tim_ex.c ****   __HAL_TIM_ENABLE_IT(htim, TIM_IT_CC1);
 858              		.loc 1 437 3
 859 0064 7B68     		ldr	r3, [r7, #4]
 860 0066 1B68     		ldr	r3, [r3]
 861 0068 DA68     		ldr	r2, [r3, #12]
 862 006a 7B68     		ldr	r3, [r7, #4]
 863 006c 1B68     		ldr	r3, [r3]
 864 006e 42F00202 		orr	r2, r2, #2
 865 0072 DA60     		str	r2, [r3, #12]
 438:Drivers/STM32H7xx_HAL_Driver/Src/stm32h7xx_hal_tim_ex.c **** 
 439:Drivers/STM32H7xx_HAL_Driver/Src/stm32h7xx_hal_tim_ex.c ****   /* Enable the Input Capture channel 1
 440:Drivers/STM32H7xx_HAL_Driver/Src/stm32h7xx_hal_tim_ex.c ****   (in the Hall Sensor Interface the three possible channels that can be used are TIM_CHANNEL_1,
 441:Drivers/STM32H7xx_HAL_Driver/Src/stm32h7xx_hal_tim_ex.c ****   TIM_CHANNEL_2 and TIM_CHANNEL_3) */
 442:Drivers/STM32H7xx_HAL_Driver/Src/stm32h7xx_hal_tim_ex.c ****   TIM_CCxChannelCmd(htim->Instance, TIM_CHANNEL_1, TIM_CCx_ENABLE);
 866              		.loc 1 442 3
 867 0074 7B68     		ldr	r3, [r7, #4]
 868 0076 1B68     		ldr	r3, [r3]
 869 0078 0122     		movs	r2, #1
 870 007a 0021     		movs	r1, #0
 871 007c 1846     		mov	r0, r3
 872 007e FFF7FEFF 		bl	TIM_CCxChannelCmd
 443:Drivers/STM32H7xx_HAL_Driver/Src/stm32h7xx_hal_tim_ex.c **** 
 444:Drivers/STM32H7xx_HAL_Driver/Src/stm32h7xx_hal_tim_ex.c ****   /* Enable the Peripheral, except in trigger mode where enable is automatically done with trigger 
 445:Drivers/STM32H7xx_HAL_Driver/Src/stm32h7xx_hal_tim_ex.c ****   if (IS_TIM_SLAVE_INSTANCE(htim->Instance))
 873              		.loc 1 445 7
 874 0082 7B68     		ldr	r3, [r7, #4]
 875 0084 1B68     		ldr	r3, [r3]
 876              		.loc 1 445 6
 877 0086 254A     		ldr	r2, .L40
ARM GAS  /var/folders/d0/cymppscj10lcmm48h781wrc80000gn/T//ccIjALm5.s 			page 24


 878 0088 9342     		cmp	r3, r2
 879 008a 22D0     		beq	.L35
 880              		.loc 1 445 7 discriminator 1
 881 008c 7B68     		ldr	r3, [r7, #4]
 882 008e 1B68     		ldr	r3, [r3]
 883 0090 B3F1804F 		cmp	r3, #1073741824
 884 0094 1DD0     		beq	.L35
 885              		.loc 1 445 7 is_stmt 0 discriminator 2
 886 0096 7B68     		ldr	r3, [r7, #4]
 887 0098 1B68     		ldr	r3, [r3]
 888 009a 214A     		ldr	r2, .L40+4
 889 009c 9342     		cmp	r3, r2
 890 009e 18D0     		beq	.L35
 891              		.loc 1 445 7 discriminator 3
 892 00a0 7B68     		ldr	r3, [r7, #4]
 893 00a2 1B68     		ldr	r3, [r3]
 894 00a4 1F4A     		ldr	r2, .L40+8
 895 00a6 9342     		cmp	r3, r2
 896 00a8 13D0     		beq	.L35
 897              		.loc 1 445 7 discriminator 4
 898 00aa 7B68     		ldr	r3, [r7, #4]
 899 00ac 1B68     		ldr	r3, [r3]
 900 00ae 1E4A     		ldr	r2, .L40+12
 901 00b0 9342     		cmp	r3, r2
 902 00b2 0ED0     		beq	.L35
 903              		.loc 1 445 7 discriminator 5
 904 00b4 7B68     		ldr	r3, [r7, #4]
 905 00b6 1B68     		ldr	r3, [r3]
 906 00b8 1C4A     		ldr	r2, .L40+16
 907 00ba 9342     		cmp	r3, r2
 908 00bc 09D0     		beq	.L35
 909              		.loc 1 445 7 discriminator 6
 910 00be 7B68     		ldr	r3, [r7, #4]
 911 00c0 1B68     		ldr	r3, [r3]
 912 00c2 1B4A     		ldr	r2, .L40+20
 913 00c4 9342     		cmp	r3, r2
 914 00c6 04D0     		beq	.L35
 915              		.loc 1 445 7 discriminator 7
 916 00c8 7B68     		ldr	r3, [r7, #4]
 917 00ca 1B68     		ldr	r3, [r3]
 918 00cc 194A     		ldr	r2, .L40+24
 919 00ce 9342     		cmp	r3, r2
 920 00d0 15D1     		bne	.L36
 921              	.L35:
 446:Drivers/STM32H7xx_HAL_Driver/Src/stm32h7xx_hal_tim_ex.c ****   {
 447:Drivers/STM32H7xx_HAL_Driver/Src/stm32h7xx_hal_tim_ex.c ****     tmpsmcr = htim->Instance->SMCR & TIM_SMCR_SMS;
 922              		.loc 1 447 19 is_stmt 1
 923 00d2 7B68     		ldr	r3, [r7, #4]
 924 00d4 1B68     		ldr	r3, [r3]
 925              		.loc 1 447 29
 926 00d6 9A68     		ldr	r2, [r3, #8]
 927              		.loc 1 447 13
 928 00d8 174B     		ldr	r3, .L40+28
 929 00da 1340     		ands	r3, r3, r2
 930 00dc BB60     		str	r3, [r7, #8]
 448:Drivers/STM32H7xx_HAL_Driver/Src/stm32h7xx_hal_tim_ex.c ****     if (!IS_TIM_SLAVEMODE_TRIGGER_ENABLED(tmpsmcr))
 931              		.loc 1 448 8
ARM GAS  /var/folders/d0/cymppscj10lcmm48h781wrc80000gn/T//ccIjALm5.s 			page 25


 932 00de BB68     		ldr	r3, [r7, #8]
 933 00e0 062B     		cmp	r3, #6
 934 00e2 15D0     		beq	.L39
 935              		.loc 1 448 9 discriminator 1
 936 00e4 BB68     		ldr	r3, [r7, #8]
 937 00e6 B3F5803F 		cmp	r3, #65536
 938 00ea 11D0     		beq	.L39
 449:Drivers/STM32H7xx_HAL_Driver/Src/stm32h7xx_hal_tim_ex.c ****     {
 450:Drivers/STM32H7xx_HAL_Driver/Src/stm32h7xx_hal_tim_ex.c ****       __HAL_TIM_ENABLE(htim);
 939              		.loc 1 450 7
 940 00ec 7B68     		ldr	r3, [r7, #4]
 941 00ee 1B68     		ldr	r3, [r3]
 942 00f0 1A68     		ldr	r2, [r3]
 943 00f2 7B68     		ldr	r3, [r7, #4]
 944 00f4 1B68     		ldr	r3, [r3]
 945 00f6 42F00102 		orr	r2, r2, #1
 946 00fa 1A60     		str	r2, [r3]
 448:Drivers/STM32H7xx_HAL_Driver/Src/stm32h7xx_hal_tim_ex.c ****     if (!IS_TIM_SLAVEMODE_TRIGGER_ENABLED(tmpsmcr))
 947              		.loc 1 448 8
 948 00fc 08E0     		b	.L39
 949              	.L36:
 451:Drivers/STM32H7xx_HAL_Driver/Src/stm32h7xx_hal_tim_ex.c ****     }
 452:Drivers/STM32H7xx_HAL_Driver/Src/stm32h7xx_hal_tim_ex.c ****   }
 453:Drivers/STM32H7xx_HAL_Driver/Src/stm32h7xx_hal_tim_ex.c ****   else
 454:Drivers/STM32H7xx_HAL_Driver/Src/stm32h7xx_hal_tim_ex.c ****   {
 455:Drivers/STM32H7xx_HAL_Driver/Src/stm32h7xx_hal_tim_ex.c ****     __HAL_TIM_ENABLE(htim);
 950              		.loc 1 455 5
 951 00fe 7B68     		ldr	r3, [r7, #4]
 952 0100 1B68     		ldr	r3, [r3]
 953 0102 1A68     		ldr	r2, [r3]
 954 0104 7B68     		ldr	r3, [r7, #4]
 955 0106 1B68     		ldr	r3, [r3]
 956 0108 42F00102 		orr	r2, r2, #1
 957 010c 1A60     		str	r2, [r3]
 958 010e 00E0     		b	.L38
 959              	.L39:
 448:Drivers/STM32H7xx_HAL_Driver/Src/stm32h7xx_hal_tim_ex.c ****     {
 960              		.loc 1 448 8
 961 0110 00BF     		nop
 962              	.L38:
 456:Drivers/STM32H7xx_HAL_Driver/Src/stm32h7xx_hal_tim_ex.c ****   }
 457:Drivers/STM32H7xx_HAL_Driver/Src/stm32h7xx_hal_tim_ex.c **** 
 458:Drivers/STM32H7xx_HAL_Driver/Src/stm32h7xx_hal_tim_ex.c ****   /* Return function status */
 459:Drivers/STM32H7xx_HAL_Driver/Src/stm32h7xx_hal_tim_ex.c ****   return HAL_OK;
 963              		.loc 1 459 10
 964 0112 0023     		movs	r3, #0
 965              	.L34:
 460:Drivers/STM32H7xx_HAL_Driver/Src/stm32h7xx_hal_tim_ex.c **** }
 966              		.loc 1 460 1
 967 0114 1846     		mov	r0, r3
 968 0116 1037     		adds	r7, r7, #16
 969              	.LCFI35:
 970              		.cfi_def_cfa_offset 8
 971 0118 BD46     		mov	sp, r7
 972              	.LCFI36:
 973              		.cfi_def_cfa_register 13
 974              		@ sp needed
ARM GAS  /var/folders/d0/cymppscj10lcmm48h781wrc80000gn/T//ccIjALm5.s 			page 26


 975 011a 80BD     		pop	{r7, pc}
 976              	.L41:
 977              		.align	2
 978              	.L40:
 979 011c 00000140 		.word	1073807360
 980 0120 00040040 		.word	1073742848
 981 0124 00080040 		.word	1073743872
 982 0128 000C0040 		.word	1073744896
 983 012c 00040140 		.word	1073808384
 984 0130 00180040 		.word	1073747968
 985 0134 00400140 		.word	1073823744
 986 0138 07000100 		.word	65543
 987              		.cfi_endproc
 988              	.LFE339:
 990              		.section	.text.HAL_TIMEx_HallSensor_Stop_IT,"ax",%progbits
 991              		.align	1
 992              		.global	HAL_TIMEx_HallSensor_Stop_IT
 993              		.syntax unified
 994              		.thumb
 995              		.thumb_func
 997              	HAL_TIMEx_HallSensor_Stop_IT:
 998              	.LFB340:
 461:Drivers/STM32H7xx_HAL_Driver/Src/stm32h7xx_hal_tim_ex.c **** 
 462:Drivers/STM32H7xx_HAL_Driver/Src/stm32h7xx_hal_tim_ex.c **** /**
 463:Drivers/STM32H7xx_HAL_Driver/Src/stm32h7xx_hal_tim_ex.c ****   * @brief  Stops the TIM Hall Sensor Interface in interrupt mode.
 464:Drivers/STM32H7xx_HAL_Driver/Src/stm32h7xx_hal_tim_ex.c ****   * @param  htim TIM Hall Sensor Interface handle
 465:Drivers/STM32H7xx_HAL_Driver/Src/stm32h7xx_hal_tim_ex.c ****   * @retval HAL status
 466:Drivers/STM32H7xx_HAL_Driver/Src/stm32h7xx_hal_tim_ex.c ****   */
 467:Drivers/STM32H7xx_HAL_Driver/Src/stm32h7xx_hal_tim_ex.c **** HAL_StatusTypeDef HAL_TIMEx_HallSensor_Stop_IT(TIM_HandleTypeDef *htim)
 468:Drivers/STM32H7xx_HAL_Driver/Src/stm32h7xx_hal_tim_ex.c **** {
 999              		.loc 1 468 1
 1000              		.cfi_startproc
 1001              		@ args = 0, pretend = 0, frame = 8
 1002              		@ frame_needed = 1, uses_anonymous_args = 0
 1003 0000 80B5     		push	{r7, lr}
 1004              	.LCFI37:
 1005              		.cfi_def_cfa_offset 8
 1006              		.cfi_offset 7, -8
 1007              		.cfi_offset 14, -4
 1008 0002 82B0     		sub	sp, sp, #8
 1009              	.LCFI38:
 1010              		.cfi_def_cfa_offset 16
 1011 0004 00AF     		add	r7, sp, #0
 1012              	.LCFI39:
 1013              		.cfi_def_cfa_register 7
 1014 0006 7860     		str	r0, [r7, #4]
 469:Drivers/STM32H7xx_HAL_Driver/Src/stm32h7xx_hal_tim_ex.c ****   /* Check the parameters */
 470:Drivers/STM32H7xx_HAL_Driver/Src/stm32h7xx_hal_tim_ex.c ****   assert_param(IS_TIM_HALL_SENSOR_INTERFACE_INSTANCE(htim->Instance));
 471:Drivers/STM32H7xx_HAL_Driver/Src/stm32h7xx_hal_tim_ex.c **** 
 472:Drivers/STM32H7xx_HAL_Driver/Src/stm32h7xx_hal_tim_ex.c ****   /* Disable the Input Capture channel 1
 473:Drivers/STM32H7xx_HAL_Driver/Src/stm32h7xx_hal_tim_ex.c ****   (in the Hall Sensor Interface the three possible channels that can be used are TIM_CHANNEL_1,
 474:Drivers/STM32H7xx_HAL_Driver/Src/stm32h7xx_hal_tim_ex.c ****   TIM_CHANNEL_2 and TIM_CHANNEL_3) */
 475:Drivers/STM32H7xx_HAL_Driver/Src/stm32h7xx_hal_tim_ex.c ****   TIM_CCxChannelCmd(htim->Instance, TIM_CHANNEL_1, TIM_CCx_DISABLE);
 1015              		.loc 1 475 3
 1016 0008 7B68     		ldr	r3, [r7, #4]
 1017 000a 1B68     		ldr	r3, [r3]
 1018 000c 0022     		movs	r2, #0
ARM GAS  /var/folders/d0/cymppscj10lcmm48h781wrc80000gn/T//ccIjALm5.s 			page 27


 1019 000e 0021     		movs	r1, #0
 1020 0010 1846     		mov	r0, r3
 1021 0012 FFF7FEFF 		bl	TIM_CCxChannelCmd
 476:Drivers/STM32H7xx_HAL_Driver/Src/stm32h7xx_hal_tim_ex.c **** 
 477:Drivers/STM32H7xx_HAL_Driver/Src/stm32h7xx_hal_tim_ex.c ****   /* Disable the capture compare Interrupts event */
 478:Drivers/STM32H7xx_HAL_Driver/Src/stm32h7xx_hal_tim_ex.c ****   __HAL_TIM_DISABLE_IT(htim, TIM_IT_CC1);
 1022              		.loc 1 478 3
 1023 0016 7B68     		ldr	r3, [r7, #4]
 1024 0018 1B68     		ldr	r3, [r3]
 1025 001a DA68     		ldr	r2, [r3, #12]
 1026 001c 7B68     		ldr	r3, [r7, #4]
 1027 001e 1B68     		ldr	r3, [r3]
 1028 0020 22F00202 		bic	r2, r2, #2
 1029 0024 DA60     		str	r2, [r3, #12]
 479:Drivers/STM32H7xx_HAL_Driver/Src/stm32h7xx_hal_tim_ex.c **** 
 480:Drivers/STM32H7xx_HAL_Driver/Src/stm32h7xx_hal_tim_ex.c ****   /* Disable the Peripheral */
 481:Drivers/STM32H7xx_HAL_Driver/Src/stm32h7xx_hal_tim_ex.c ****   __HAL_TIM_DISABLE(htim);
 1030              		.loc 1 481 3
 1031 0026 7B68     		ldr	r3, [r7, #4]
 1032 0028 1B68     		ldr	r3, [r3]
 1033 002a 1A6A     		ldr	r2, [r3, #32]
 1034 002c 41F21113 		movw	r3, #4369
 1035 0030 1340     		ands	r3, r3, r2
 1036 0032 002B     		cmp	r3, #0
 1037 0034 0FD1     		bne	.L43
 1038              		.loc 1 481 3 is_stmt 0 discriminator 1
 1039 0036 7B68     		ldr	r3, [r7, #4]
 1040 0038 1B68     		ldr	r3, [r3]
 1041 003a 1A6A     		ldr	r2, [r3, #32]
 1042 003c 40F24443 		movw	r3, #1092
 1043 0040 1340     		ands	r3, r3, r2
 1044 0042 002B     		cmp	r3, #0
 1045 0044 07D1     		bne	.L43
 1046              		.loc 1 481 3 discriminator 2
 1047 0046 7B68     		ldr	r3, [r7, #4]
 1048 0048 1B68     		ldr	r3, [r3]
 1049 004a 1A68     		ldr	r2, [r3]
 1050 004c 7B68     		ldr	r3, [r7, #4]
 1051 004e 1B68     		ldr	r3, [r3]
 1052 0050 22F00102 		bic	r2, r2, #1
 1053 0054 1A60     		str	r2, [r3]
 1054              	.L43:
 482:Drivers/STM32H7xx_HAL_Driver/Src/stm32h7xx_hal_tim_ex.c **** 
 483:Drivers/STM32H7xx_HAL_Driver/Src/stm32h7xx_hal_tim_ex.c ****   /* Set the TIM channels state */
 484:Drivers/STM32H7xx_HAL_Driver/Src/stm32h7xx_hal_tim_ex.c ****   TIM_CHANNEL_STATE_SET(htim, TIM_CHANNEL_1, HAL_TIM_CHANNEL_STATE_READY);
 1055              		.loc 1 484 3 is_stmt 1
 1056 0056 7B68     		ldr	r3, [r7, #4]
 1057 0058 0122     		movs	r2, #1
 1058 005a 83F83E20 		strb	r2, [r3, #62]
 485:Drivers/STM32H7xx_HAL_Driver/Src/stm32h7xx_hal_tim_ex.c ****   TIM_CHANNEL_STATE_SET(htim, TIM_CHANNEL_2, HAL_TIM_CHANNEL_STATE_READY);
 1059              		.loc 1 485 3
 1060 005e 7B68     		ldr	r3, [r7, #4]
 1061 0060 0122     		movs	r2, #1
 1062 0062 83F83F20 		strb	r2, [r3, #63]
 486:Drivers/STM32H7xx_HAL_Driver/Src/stm32h7xx_hal_tim_ex.c ****   TIM_CHANNEL_N_STATE_SET(htim, TIM_CHANNEL_1, HAL_TIM_CHANNEL_STATE_READY);
 1063              		.loc 1 486 3
 1064 0066 7B68     		ldr	r3, [r7, #4]
ARM GAS  /var/folders/d0/cymppscj10lcmm48h781wrc80000gn/T//ccIjALm5.s 			page 28


 1065 0068 0122     		movs	r2, #1
 1066 006a 83F84420 		strb	r2, [r3, #68]
 487:Drivers/STM32H7xx_HAL_Driver/Src/stm32h7xx_hal_tim_ex.c ****   TIM_CHANNEL_N_STATE_SET(htim, TIM_CHANNEL_2, HAL_TIM_CHANNEL_STATE_READY);
 1067              		.loc 1 487 3
 1068 006e 7B68     		ldr	r3, [r7, #4]
 1069 0070 0122     		movs	r2, #1
 1070 0072 83F84520 		strb	r2, [r3, #69]
 488:Drivers/STM32H7xx_HAL_Driver/Src/stm32h7xx_hal_tim_ex.c **** 
 489:Drivers/STM32H7xx_HAL_Driver/Src/stm32h7xx_hal_tim_ex.c ****   /* Return function status */
 490:Drivers/STM32H7xx_HAL_Driver/Src/stm32h7xx_hal_tim_ex.c ****   return HAL_OK;
 1071              		.loc 1 490 10
 1072 0076 0023     		movs	r3, #0
 491:Drivers/STM32H7xx_HAL_Driver/Src/stm32h7xx_hal_tim_ex.c **** }
 1073              		.loc 1 491 1
 1074 0078 1846     		mov	r0, r3
 1075 007a 0837     		adds	r7, r7, #8
 1076              	.LCFI40:
 1077              		.cfi_def_cfa_offset 8
 1078 007c BD46     		mov	sp, r7
 1079              	.LCFI41:
 1080              		.cfi_def_cfa_register 13
 1081              		@ sp needed
 1082 007e 80BD     		pop	{r7, pc}
 1083              		.cfi_endproc
 1084              	.LFE340:
 1086              		.section	.text.HAL_TIMEx_HallSensor_Start_DMA,"ax",%progbits
 1087              		.align	1
 1088              		.global	HAL_TIMEx_HallSensor_Start_DMA
 1089              		.syntax unified
 1090              		.thumb
 1091              		.thumb_func
 1093              	HAL_TIMEx_HallSensor_Start_DMA:
 1094              	.LFB341:
 492:Drivers/STM32H7xx_HAL_Driver/Src/stm32h7xx_hal_tim_ex.c **** 
 493:Drivers/STM32H7xx_HAL_Driver/Src/stm32h7xx_hal_tim_ex.c **** /**
 494:Drivers/STM32H7xx_HAL_Driver/Src/stm32h7xx_hal_tim_ex.c ****   * @brief  Starts the TIM Hall Sensor Interface in DMA mode.
 495:Drivers/STM32H7xx_HAL_Driver/Src/stm32h7xx_hal_tim_ex.c ****   * @param  htim TIM Hall Sensor Interface handle
 496:Drivers/STM32H7xx_HAL_Driver/Src/stm32h7xx_hal_tim_ex.c ****   * @param  pData The destination Buffer address.
 497:Drivers/STM32H7xx_HAL_Driver/Src/stm32h7xx_hal_tim_ex.c ****   * @param  Length The length of data to be transferred from TIM peripheral to memory.
 498:Drivers/STM32H7xx_HAL_Driver/Src/stm32h7xx_hal_tim_ex.c ****   * @retval HAL status
 499:Drivers/STM32H7xx_HAL_Driver/Src/stm32h7xx_hal_tim_ex.c ****   */
 500:Drivers/STM32H7xx_HAL_Driver/Src/stm32h7xx_hal_tim_ex.c **** HAL_StatusTypeDef HAL_TIMEx_HallSensor_Start_DMA(TIM_HandleTypeDef *htim, uint32_t *pData, uint16_t
 501:Drivers/STM32H7xx_HAL_Driver/Src/stm32h7xx_hal_tim_ex.c **** {
 1095              		.loc 1 501 1
 1096              		.cfi_startproc
 1097              		@ args = 0, pretend = 0, frame = 24
 1098              		@ frame_needed = 1, uses_anonymous_args = 0
 1099 0000 80B5     		push	{r7, lr}
 1100              	.LCFI42:
 1101              		.cfi_def_cfa_offset 8
 1102              		.cfi_offset 7, -8
 1103              		.cfi_offset 14, -4
 1104 0002 86B0     		sub	sp, sp, #24
 1105              	.LCFI43:
 1106              		.cfi_def_cfa_offset 32
 1107 0004 00AF     		add	r7, sp, #0
 1108              	.LCFI44:
ARM GAS  /var/folders/d0/cymppscj10lcmm48h781wrc80000gn/T//ccIjALm5.s 			page 29


 1109              		.cfi_def_cfa_register 7
 1110 0006 F860     		str	r0, [r7, #12]
 1111 0008 B960     		str	r1, [r7, #8]
 1112 000a 1346     		mov	r3, r2
 1113 000c FB80     		strh	r3, [r7, #6]	@ movhi
 502:Drivers/STM32H7xx_HAL_Driver/Src/stm32h7xx_hal_tim_ex.c ****   uint32_t tmpsmcr;
 503:Drivers/STM32H7xx_HAL_Driver/Src/stm32h7xx_hal_tim_ex.c ****   HAL_TIM_ChannelStateTypeDef channel_1_state = TIM_CHANNEL_STATE_GET(htim, TIM_CHANNEL_1);
 1114              		.loc 1 503 31
 1115 000e FB68     		ldr	r3, [r7, #12]
 1116 0010 93F83E30 		ldrb	r3, [r3, #62]
 1117 0014 FB75     		strb	r3, [r7, #23]
 504:Drivers/STM32H7xx_HAL_Driver/Src/stm32h7xx_hal_tim_ex.c ****   HAL_TIM_ChannelStateTypeDef complementary_channel_1_state = TIM_CHANNEL_N_STATE_GET(htim, TIM_CHA
 1118              		.loc 1 504 31
 1119 0016 FB68     		ldr	r3, [r7, #12]
 1120 0018 93F84430 		ldrb	r3, [r3, #68]
 1121 001c BB75     		strb	r3, [r7, #22]
 505:Drivers/STM32H7xx_HAL_Driver/Src/stm32h7xx_hal_tim_ex.c **** 
 506:Drivers/STM32H7xx_HAL_Driver/Src/stm32h7xx_hal_tim_ex.c ****   /* Check the parameters */
 507:Drivers/STM32H7xx_HAL_Driver/Src/stm32h7xx_hal_tim_ex.c ****   assert_param(IS_TIM_HALL_SENSOR_INTERFACE_INSTANCE(htim->Instance));
 508:Drivers/STM32H7xx_HAL_Driver/Src/stm32h7xx_hal_tim_ex.c **** 
 509:Drivers/STM32H7xx_HAL_Driver/Src/stm32h7xx_hal_tim_ex.c ****   /* Set the TIM channel state */
 510:Drivers/STM32H7xx_HAL_Driver/Src/stm32h7xx_hal_tim_ex.c ****   if ((channel_1_state == HAL_TIM_CHANNEL_STATE_BUSY)
 1122              		.loc 1 510 6
 1123 001e FB7D     		ldrb	r3, [r7, #23]	@ zero_extendqisi2
 1124 0020 022B     		cmp	r3, #2
 1125 0022 02D0     		beq	.L46
 511:Drivers/STM32H7xx_HAL_Driver/Src/stm32h7xx_hal_tim_ex.c ****       || (complementary_channel_1_state == HAL_TIM_CHANNEL_STATE_BUSY))
 1126              		.loc 1 511 7
 1127 0024 BB7D     		ldrb	r3, [r7, #22]	@ zero_extendqisi2
 1128 0026 022B     		cmp	r3, #2
 1129 0028 01D1     		bne	.L47
 1130              	.L46:
 512:Drivers/STM32H7xx_HAL_Driver/Src/stm32h7xx_hal_tim_ex.c ****   {
 513:Drivers/STM32H7xx_HAL_Driver/Src/stm32h7xx_hal_tim_ex.c ****     return HAL_BUSY;
 1131              		.loc 1 513 12
 1132 002a 0223     		movs	r3, #2
 1133 002c 8CE0     		b	.L48
 1134              	.L47:
 514:Drivers/STM32H7xx_HAL_Driver/Src/stm32h7xx_hal_tim_ex.c ****   }
 515:Drivers/STM32H7xx_HAL_Driver/Src/stm32h7xx_hal_tim_ex.c ****   else if ((channel_1_state == HAL_TIM_CHANNEL_STATE_READY)
 1135              		.loc 1 515 11
 1136 002e FB7D     		ldrb	r3, [r7, #23]	@ zero_extendqisi2
 1137 0030 012B     		cmp	r3, #1
 1138 0032 34D1     		bne	.L49
 516:Drivers/STM32H7xx_HAL_Driver/Src/stm32h7xx_hal_tim_ex.c ****            && (complementary_channel_1_state == HAL_TIM_CHANNEL_STATE_READY))
 1139              		.loc 1 516 12
 1140 0034 BB7D     		ldrb	r3, [r7, #22]	@ zero_extendqisi2
 1141 0036 012B     		cmp	r3, #1
 1142 0038 31D1     		bne	.L49
 517:Drivers/STM32H7xx_HAL_Driver/Src/stm32h7xx_hal_tim_ex.c ****   {
 518:Drivers/STM32H7xx_HAL_Driver/Src/stm32h7xx_hal_tim_ex.c ****     if ((pData == NULL) && (Length > 0U))
 1143              		.loc 1 518 8
 1144 003a BB68     		ldr	r3, [r7, #8]
 1145 003c 002B     		cmp	r3, #0
 1146 003e 04D1     		bne	.L50
 1147              		.loc 1 518 25 discriminator 1
 1148 0040 FB88     		ldrh	r3, [r7, #6]
ARM GAS  /var/folders/d0/cymppscj10lcmm48h781wrc80000gn/T//ccIjALm5.s 			page 30


 1149 0042 002B     		cmp	r3, #0
 1150 0044 01D0     		beq	.L50
 519:Drivers/STM32H7xx_HAL_Driver/Src/stm32h7xx_hal_tim_ex.c ****     {
 520:Drivers/STM32H7xx_HAL_Driver/Src/stm32h7xx_hal_tim_ex.c ****       return HAL_ERROR;
 1151              		.loc 1 520 14
 1152 0046 0123     		movs	r3, #1
 1153 0048 7EE0     		b	.L48
 1154              	.L50:
 521:Drivers/STM32H7xx_HAL_Driver/Src/stm32h7xx_hal_tim_ex.c ****     }
 522:Drivers/STM32H7xx_HAL_Driver/Src/stm32h7xx_hal_tim_ex.c ****     else
 523:Drivers/STM32H7xx_HAL_Driver/Src/stm32h7xx_hal_tim_ex.c ****     {
 524:Drivers/STM32H7xx_HAL_Driver/Src/stm32h7xx_hal_tim_ex.c ****       TIM_CHANNEL_STATE_SET(htim, TIM_CHANNEL_1, HAL_TIM_CHANNEL_STATE_BUSY);
 1155              		.loc 1 524 7
 1156 004a FB68     		ldr	r3, [r7, #12]
 1157 004c 0222     		movs	r2, #2
 1158 004e 83F83E20 		strb	r2, [r3, #62]
 525:Drivers/STM32H7xx_HAL_Driver/Src/stm32h7xx_hal_tim_ex.c ****       TIM_CHANNEL_N_STATE_SET(htim, TIM_CHANNEL_1, HAL_TIM_CHANNEL_STATE_BUSY);
 1159              		.loc 1 525 7
 1160 0052 FB68     		ldr	r3, [r7, #12]
 1161 0054 0222     		movs	r2, #2
 1162 0056 83F84420 		strb	r2, [r3, #68]
 518:Drivers/STM32H7xx_HAL_Driver/Src/stm32h7xx_hal_tim_ex.c ****     {
 1163              		.loc 1 518 8
 1164 005a 00BF     		nop
 526:Drivers/STM32H7xx_HAL_Driver/Src/stm32h7xx_hal_tim_ex.c ****     }
 527:Drivers/STM32H7xx_HAL_Driver/Src/stm32h7xx_hal_tim_ex.c ****   }
 528:Drivers/STM32H7xx_HAL_Driver/Src/stm32h7xx_hal_tim_ex.c ****   else
 529:Drivers/STM32H7xx_HAL_Driver/Src/stm32h7xx_hal_tim_ex.c ****   {
 530:Drivers/STM32H7xx_HAL_Driver/Src/stm32h7xx_hal_tim_ex.c ****     return HAL_ERROR;
 531:Drivers/STM32H7xx_HAL_Driver/Src/stm32h7xx_hal_tim_ex.c ****   }
 532:Drivers/STM32H7xx_HAL_Driver/Src/stm32h7xx_hal_tim_ex.c **** 
 533:Drivers/STM32H7xx_HAL_Driver/Src/stm32h7xx_hal_tim_ex.c ****   /* Enable the Input Capture channel 1
 534:Drivers/STM32H7xx_HAL_Driver/Src/stm32h7xx_hal_tim_ex.c ****   (in the Hall Sensor Interface the three possible channels that can be used are TIM_CHANNEL_1,
 535:Drivers/STM32H7xx_HAL_Driver/Src/stm32h7xx_hal_tim_ex.c ****   TIM_CHANNEL_2 and TIM_CHANNEL_3) */
 536:Drivers/STM32H7xx_HAL_Driver/Src/stm32h7xx_hal_tim_ex.c ****   TIM_CCxChannelCmd(htim->Instance, TIM_CHANNEL_1, TIM_CCx_ENABLE);
 1165              		.loc 1 536 3
 1166 005c FB68     		ldr	r3, [r7, #12]
 1167 005e 1B68     		ldr	r3, [r3]
 1168 0060 0122     		movs	r2, #1
 1169 0062 0021     		movs	r1, #0
 1170 0064 1846     		mov	r0, r3
 1171 0066 FFF7FEFF 		bl	TIM_CCxChannelCmd
 537:Drivers/STM32H7xx_HAL_Driver/Src/stm32h7xx_hal_tim_ex.c **** 
 538:Drivers/STM32H7xx_HAL_Driver/Src/stm32h7xx_hal_tim_ex.c ****   /* Set the DMA Input Capture 1 Callbacks */
 539:Drivers/STM32H7xx_HAL_Driver/Src/stm32h7xx_hal_tim_ex.c ****   htim->hdma[TIM_DMA_ID_CC1]->XferCpltCallback = TIM_DMACaptureCplt;
 1172              		.loc 1 539 13
 1173 006a FB68     		ldr	r3, [r7, #12]
 1174 006c 5B6A     		ldr	r3, [r3, #36]
 1175              		.loc 1 539 48
 1176 006e 384A     		ldr	r2, .L59
 1177 0070 DA63     		str	r2, [r3, #60]
 540:Drivers/STM32H7xx_HAL_Driver/Src/stm32h7xx_hal_tim_ex.c ****   htim->hdma[TIM_DMA_ID_CC1]->XferHalfCpltCallback = TIM_DMACaptureHalfCplt;
 1178              		.loc 1 540 13
 1179 0072 FB68     		ldr	r3, [r7, #12]
 1180 0074 5B6A     		ldr	r3, [r3, #36]
 1181              		.loc 1 540 52
 1182 0076 374A     		ldr	r2, .L59+4
ARM GAS  /var/folders/d0/cymppscj10lcmm48h781wrc80000gn/T//ccIjALm5.s 			page 31


 1183 0078 1A64     		str	r2, [r3, #64]
 541:Drivers/STM32H7xx_HAL_Driver/Src/stm32h7xx_hal_tim_ex.c ****   /* Set the DMA error callback */
 542:Drivers/STM32H7xx_HAL_Driver/Src/stm32h7xx_hal_tim_ex.c ****   htim->hdma[TIM_DMA_ID_CC1]->XferErrorCallback = TIM_DMAError ;
 1184              		.loc 1 542 13
 1185 007a FB68     		ldr	r3, [r7, #12]
 1186 007c 5B6A     		ldr	r3, [r3, #36]
 1187              		.loc 1 542 49
 1188 007e 364A     		ldr	r2, .L59+8
 1189 0080 DA64     		str	r2, [r3, #76]
 543:Drivers/STM32H7xx_HAL_Driver/Src/stm32h7xx_hal_tim_ex.c **** 
 544:Drivers/STM32H7xx_HAL_Driver/Src/stm32h7xx_hal_tim_ex.c ****   /* Enable the DMA stream for Capture 1*/
 545:Drivers/STM32H7xx_HAL_Driver/Src/stm32h7xx_hal_tim_ex.c ****   if (HAL_DMA_Start_IT(htim->hdma[TIM_DMA_ID_CC1], (uint32_t)&htim->Instance->CCR1, (uint32_t)pData
 1190              		.loc 1 545 7
 1191 0082 FB68     		ldr	r3, [r7, #12]
 1192 0084 586A     		ldr	r0, [r3, #36]
 1193              		.loc 1 545 67
 1194 0086 FB68     		ldr	r3, [r7, #12]
 1195 0088 1B68     		ldr	r3, [r3]
 1196              		.loc 1 545 62
 1197 008a 3433     		adds	r3, r3, #52
 1198              		.loc 1 545 7
 1199 008c 1946     		mov	r1, r3
 1200 008e BA68     		ldr	r2, [r7, #8]
 1201 0090 FB88     		ldrh	r3, [r7, #6]
 1202 0092 FFF7FEFF 		bl	HAL_DMA_Start_IT
 1203 0096 0346     		mov	r3, r0
 1204              		.loc 1 545 6
 1205 0098 002B     		cmp	r3, #0
 1206 009a 04D0     		beq	.L52
 1207 009c 01E0     		b	.L57
 1208              	.L49:
 530:Drivers/STM32H7xx_HAL_Driver/Src/stm32h7xx_hal_tim_ex.c ****   }
 1209              		.loc 1 530 12
 1210 009e 0123     		movs	r3, #1
 1211 00a0 52E0     		b	.L48
 1212              	.L57:
 546:Drivers/STM32H7xx_HAL_Driver/Src/stm32h7xx_hal_tim_ex.c ****   {
 547:Drivers/STM32H7xx_HAL_Driver/Src/stm32h7xx_hal_tim_ex.c ****     /* Return error status */
 548:Drivers/STM32H7xx_HAL_Driver/Src/stm32h7xx_hal_tim_ex.c ****     return HAL_ERROR;
 1213              		.loc 1 548 12
 1214 00a2 0123     		movs	r3, #1
 1215 00a4 50E0     		b	.L48
 1216              	.L52:
 549:Drivers/STM32H7xx_HAL_Driver/Src/stm32h7xx_hal_tim_ex.c ****   }
 550:Drivers/STM32H7xx_HAL_Driver/Src/stm32h7xx_hal_tim_ex.c ****   /* Enable the capture compare 1 Interrupt */
 551:Drivers/STM32H7xx_HAL_Driver/Src/stm32h7xx_hal_tim_ex.c ****   __HAL_TIM_ENABLE_DMA(htim, TIM_DMA_CC1);
 1217              		.loc 1 551 3
 1218 00a6 FB68     		ldr	r3, [r7, #12]
 1219 00a8 1B68     		ldr	r3, [r3]
 1220 00aa DA68     		ldr	r2, [r3, #12]
 1221 00ac FB68     		ldr	r3, [r7, #12]
 1222 00ae 1B68     		ldr	r3, [r3]
 1223 00b0 42F40072 		orr	r2, r2, #512
 1224 00b4 DA60     		str	r2, [r3, #12]
 552:Drivers/STM32H7xx_HAL_Driver/Src/stm32h7xx_hal_tim_ex.c **** 
 553:Drivers/STM32H7xx_HAL_Driver/Src/stm32h7xx_hal_tim_ex.c ****   /* Enable the Peripheral, except in trigger mode where enable is automatically done with trigger 
 554:Drivers/STM32H7xx_HAL_Driver/Src/stm32h7xx_hal_tim_ex.c ****   if (IS_TIM_SLAVE_INSTANCE(htim->Instance))
ARM GAS  /var/folders/d0/cymppscj10lcmm48h781wrc80000gn/T//ccIjALm5.s 			page 32


 1225              		.loc 1 554 7
 1226 00b6 FB68     		ldr	r3, [r7, #12]
 1227 00b8 1B68     		ldr	r3, [r3]
 1228              		.loc 1 554 6
 1229 00ba 284A     		ldr	r2, .L59+12
 1230 00bc 9342     		cmp	r3, r2
 1231 00be 22D0     		beq	.L53
 1232              		.loc 1 554 7 discriminator 1
 1233 00c0 FB68     		ldr	r3, [r7, #12]
 1234 00c2 1B68     		ldr	r3, [r3]
 1235 00c4 B3F1804F 		cmp	r3, #1073741824
 1236 00c8 1DD0     		beq	.L53
 1237              		.loc 1 554 7 is_stmt 0 discriminator 2
 1238 00ca FB68     		ldr	r3, [r7, #12]
 1239 00cc 1B68     		ldr	r3, [r3]
 1240 00ce 244A     		ldr	r2, .L59+16
 1241 00d0 9342     		cmp	r3, r2
 1242 00d2 18D0     		beq	.L53
 1243              		.loc 1 554 7 discriminator 3
 1244 00d4 FB68     		ldr	r3, [r7, #12]
 1245 00d6 1B68     		ldr	r3, [r3]
 1246 00d8 224A     		ldr	r2, .L59+20
 1247 00da 9342     		cmp	r3, r2
 1248 00dc 13D0     		beq	.L53
 1249              		.loc 1 554 7 discriminator 4
 1250 00de FB68     		ldr	r3, [r7, #12]
 1251 00e0 1B68     		ldr	r3, [r3]
 1252 00e2 214A     		ldr	r2, .L59+24
 1253 00e4 9342     		cmp	r3, r2
 1254 00e6 0ED0     		beq	.L53
 1255              		.loc 1 554 7 discriminator 5
 1256 00e8 FB68     		ldr	r3, [r7, #12]
 1257 00ea 1B68     		ldr	r3, [r3]
 1258 00ec 1F4A     		ldr	r2, .L59+28
 1259 00ee 9342     		cmp	r3, r2
 1260 00f0 09D0     		beq	.L53
 1261              		.loc 1 554 7 discriminator 6
 1262 00f2 FB68     		ldr	r3, [r7, #12]
 1263 00f4 1B68     		ldr	r3, [r3]
 1264 00f6 1E4A     		ldr	r2, .L59+32
 1265 00f8 9342     		cmp	r3, r2
 1266 00fa 04D0     		beq	.L53
 1267              		.loc 1 554 7 discriminator 7
 1268 00fc FB68     		ldr	r3, [r7, #12]
 1269 00fe 1B68     		ldr	r3, [r3]
 1270 0100 1C4A     		ldr	r2, .L59+36
 1271 0102 9342     		cmp	r3, r2
 1272 0104 15D1     		bne	.L54
 1273              	.L53:
 555:Drivers/STM32H7xx_HAL_Driver/Src/stm32h7xx_hal_tim_ex.c ****   {
 556:Drivers/STM32H7xx_HAL_Driver/Src/stm32h7xx_hal_tim_ex.c ****     tmpsmcr = htim->Instance->SMCR & TIM_SMCR_SMS;
 1274              		.loc 1 556 19 is_stmt 1
 1275 0106 FB68     		ldr	r3, [r7, #12]
 1276 0108 1B68     		ldr	r3, [r3]
 1277              		.loc 1 556 29
 1278 010a 9A68     		ldr	r2, [r3, #8]
 1279              		.loc 1 556 13
ARM GAS  /var/folders/d0/cymppscj10lcmm48h781wrc80000gn/T//ccIjALm5.s 			page 33


 1280 010c 1A4B     		ldr	r3, .L59+40
 1281 010e 1340     		ands	r3, r3, r2
 1282 0110 3B61     		str	r3, [r7, #16]
 557:Drivers/STM32H7xx_HAL_Driver/Src/stm32h7xx_hal_tim_ex.c ****     if (!IS_TIM_SLAVEMODE_TRIGGER_ENABLED(tmpsmcr))
 1283              		.loc 1 557 8
 1284 0112 3B69     		ldr	r3, [r7, #16]
 1285 0114 062B     		cmp	r3, #6
 1286 0116 15D0     		beq	.L58
 1287              		.loc 1 557 9 discriminator 1
 1288 0118 3B69     		ldr	r3, [r7, #16]
 1289 011a B3F5803F 		cmp	r3, #65536
 1290 011e 11D0     		beq	.L58
 558:Drivers/STM32H7xx_HAL_Driver/Src/stm32h7xx_hal_tim_ex.c ****     {
 559:Drivers/STM32H7xx_HAL_Driver/Src/stm32h7xx_hal_tim_ex.c ****       __HAL_TIM_ENABLE(htim);
 1291              		.loc 1 559 7
 1292 0120 FB68     		ldr	r3, [r7, #12]
 1293 0122 1B68     		ldr	r3, [r3]
 1294 0124 1A68     		ldr	r2, [r3]
 1295 0126 FB68     		ldr	r3, [r7, #12]
 1296 0128 1B68     		ldr	r3, [r3]
 1297 012a 42F00102 		orr	r2, r2, #1
 1298 012e 1A60     		str	r2, [r3]
 557:Drivers/STM32H7xx_HAL_Driver/Src/stm32h7xx_hal_tim_ex.c ****     if (!IS_TIM_SLAVEMODE_TRIGGER_ENABLED(tmpsmcr))
 1299              		.loc 1 557 8
 1300 0130 08E0     		b	.L58
 1301              	.L54:
 560:Drivers/STM32H7xx_HAL_Driver/Src/stm32h7xx_hal_tim_ex.c ****     }
 561:Drivers/STM32H7xx_HAL_Driver/Src/stm32h7xx_hal_tim_ex.c ****   }
 562:Drivers/STM32H7xx_HAL_Driver/Src/stm32h7xx_hal_tim_ex.c ****   else
 563:Drivers/STM32H7xx_HAL_Driver/Src/stm32h7xx_hal_tim_ex.c ****   {
 564:Drivers/STM32H7xx_HAL_Driver/Src/stm32h7xx_hal_tim_ex.c ****     __HAL_TIM_ENABLE(htim);
 1302              		.loc 1 564 5
 1303 0132 FB68     		ldr	r3, [r7, #12]
 1304 0134 1B68     		ldr	r3, [r3]
 1305 0136 1A68     		ldr	r2, [r3]
 1306 0138 FB68     		ldr	r3, [r7, #12]
 1307 013a 1B68     		ldr	r3, [r3]
 1308 013c 42F00102 		orr	r2, r2, #1
 1309 0140 1A60     		str	r2, [r3]
 1310 0142 00E0     		b	.L56
 1311              	.L58:
 557:Drivers/STM32H7xx_HAL_Driver/Src/stm32h7xx_hal_tim_ex.c ****     {
 1312              		.loc 1 557 8
 1313 0144 00BF     		nop
 1314              	.L56:
 565:Drivers/STM32H7xx_HAL_Driver/Src/stm32h7xx_hal_tim_ex.c ****   }
 566:Drivers/STM32H7xx_HAL_Driver/Src/stm32h7xx_hal_tim_ex.c **** 
 567:Drivers/STM32H7xx_HAL_Driver/Src/stm32h7xx_hal_tim_ex.c ****   /* Return function status */
 568:Drivers/STM32H7xx_HAL_Driver/Src/stm32h7xx_hal_tim_ex.c ****   return HAL_OK;
 1315              		.loc 1 568 10
 1316 0146 0023     		movs	r3, #0
 1317              	.L48:
 569:Drivers/STM32H7xx_HAL_Driver/Src/stm32h7xx_hal_tim_ex.c **** }
 1318              		.loc 1 569 1
 1319 0148 1846     		mov	r0, r3
 1320 014a 1837     		adds	r7, r7, #24
 1321              	.LCFI45:
ARM GAS  /var/folders/d0/cymppscj10lcmm48h781wrc80000gn/T//ccIjALm5.s 			page 34


 1322              		.cfi_def_cfa_offset 8
 1323 014c BD46     		mov	sp, r7
 1324              	.LCFI46:
 1325              		.cfi_def_cfa_register 13
 1326              		@ sp needed
 1327 014e 80BD     		pop	{r7, pc}
 1328              	.L60:
 1329              		.align	2
 1330              	.L59:
 1331 0150 00000000 		.word	TIM_DMACaptureCplt
 1332 0154 00000000 		.word	TIM_DMACaptureHalfCplt
 1333 0158 00000000 		.word	TIM_DMAError
 1334 015c 00000140 		.word	1073807360
 1335 0160 00040040 		.word	1073742848
 1336 0164 00080040 		.word	1073743872
 1337 0168 000C0040 		.word	1073744896
 1338 016c 00040140 		.word	1073808384
 1339 0170 00180040 		.word	1073747968
 1340 0174 00400140 		.word	1073823744
 1341 0178 07000100 		.word	65543
 1342              		.cfi_endproc
 1343              	.LFE341:
 1345              		.section	.text.HAL_TIMEx_HallSensor_Stop_DMA,"ax",%progbits
 1346              		.align	1
 1347              		.global	HAL_TIMEx_HallSensor_Stop_DMA
 1348              		.syntax unified
 1349              		.thumb
 1350              		.thumb_func
 1352              	HAL_TIMEx_HallSensor_Stop_DMA:
 1353              	.LFB342:
 570:Drivers/STM32H7xx_HAL_Driver/Src/stm32h7xx_hal_tim_ex.c **** 
 571:Drivers/STM32H7xx_HAL_Driver/Src/stm32h7xx_hal_tim_ex.c **** /**
 572:Drivers/STM32H7xx_HAL_Driver/Src/stm32h7xx_hal_tim_ex.c ****   * @brief  Stops the TIM Hall Sensor Interface in DMA mode.
 573:Drivers/STM32H7xx_HAL_Driver/Src/stm32h7xx_hal_tim_ex.c ****   * @param  htim TIM Hall Sensor Interface handle
 574:Drivers/STM32H7xx_HAL_Driver/Src/stm32h7xx_hal_tim_ex.c ****   * @retval HAL status
 575:Drivers/STM32H7xx_HAL_Driver/Src/stm32h7xx_hal_tim_ex.c ****   */
 576:Drivers/STM32H7xx_HAL_Driver/Src/stm32h7xx_hal_tim_ex.c **** HAL_StatusTypeDef HAL_TIMEx_HallSensor_Stop_DMA(TIM_HandleTypeDef *htim)
 577:Drivers/STM32H7xx_HAL_Driver/Src/stm32h7xx_hal_tim_ex.c **** {
 1354              		.loc 1 577 1
 1355              		.cfi_startproc
 1356              		@ args = 0, pretend = 0, frame = 8
 1357              		@ frame_needed = 1, uses_anonymous_args = 0
 1358 0000 80B5     		push	{r7, lr}
 1359              	.LCFI47:
 1360              		.cfi_def_cfa_offset 8
 1361              		.cfi_offset 7, -8
 1362              		.cfi_offset 14, -4
 1363 0002 82B0     		sub	sp, sp, #8
 1364              	.LCFI48:
 1365              		.cfi_def_cfa_offset 16
 1366 0004 00AF     		add	r7, sp, #0
 1367              	.LCFI49:
 1368              		.cfi_def_cfa_register 7
 1369 0006 7860     		str	r0, [r7, #4]
 578:Drivers/STM32H7xx_HAL_Driver/Src/stm32h7xx_hal_tim_ex.c ****   /* Check the parameters */
 579:Drivers/STM32H7xx_HAL_Driver/Src/stm32h7xx_hal_tim_ex.c ****   assert_param(IS_TIM_HALL_SENSOR_INTERFACE_INSTANCE(htim->Instance));
 580:Drivers/STM32H7xx_HAL_Driver/Src/stm32h7xx_hal_tim_ex.c **** 
ARM GAS  /var/folders/d0/cymppscj10lcmm48h781wrc80000gn/T//ccIjALm5.s 			page 35


 581:Drivers/STM32H7xx_HAL_Driver/Src/stm32h7xx_hal_tim_ex.c ****   /* Disable the Input Capture channel 1
 582:Drivers/STM32H7xx_HAL_Driver/Src/stm32h7xx_hal_tim_ex.c ****   (in the Hall Sensor Interface the three possible channels that can be used are TIM_CHANNEL_1,
 583:Drivers/STM32H7xx_HAL_Driver/Src/stm32h7xx_hal_tim_ex.c ****   TIM_CHANNEL_2 and TIM_CHANNEL_3) */
 584:Drivers/STM32H7xx_HAL_Driver/Src/stm32h7xx_hal_tim_ex.c ****   TIM_CCxChannelCmd(htim->Instance, TIM_CHANNEL_1, TIM_CCx_DISABLE);
 1370              		.loc 1 584 3
 1371 0008 7B68     		ldr	r3, [r7, #4]
 1372 000a 1B68     		ldr	r3, [r3]
 1373 000c 0022     		movs	r2, #0
 1374 000e 0021     		movs	r1, #0
 1375 0010 1846     		mov	r0, r3
 1376 0012 FFF7FEFF 		bl	TIM_CCxChannelCmd
 585:Drivers/STM32H7xx_HAL_Driver/Src/stm32h7xx_hal_tim_ex.c **** 
 586:Drivers/STM32H7xx_HAL_Driver/Src/stm32h7xx_hal_tim_ex.c **** 
 587:Drivers/STM32H7xx_HAL_Driver/Src/stm32h7xx_hal_tim_ex.c ****   /* Disable the capture compare Interrupts 1 event */
 588:Drivers/STM32H7xx_HAL_Driver/Src/stm32h7xx_hal_tim_ex.c ****   __HAL_TIM_DISABLE_DMA(htim, TIM_DMA_CC1);
 1377              		.loc 1 588 3
 1378 0016 7B68     		ldr	r3, [r7, #4]
 1379 0018 1B68     		ldr	r3, [r3]
 1380 001a DA68     		ldr	r2, [r3, #12]
 1381 001c 7B68     		ldr	r3, [r7, #4]
 1382 001e 1B68     		ldr	r3, [r3]
 1383 0020 22F40072 		bic	r2, r2, #512
 1384 0024 DA60     		str	r2, [r3, #12]
 589:Drivers/STM32H7xx_HAL_Driver/Src/stm32h7xx_hal_tim_ex.c **** 
 590:Drivers/STM32H7xx_HAL_Driver/Src/stm32h7xx_hal_tim_ex.c ****   (void)HAL_DMA_Abort_IT(htim->hdma[TIM_DMA_ID_CC1]);
 1385              		.loc 1 590 9
 1386 0026 7B68     		ldr	r3, [r7, #4]
 1387 0028 5B6A     		ldr	r3, [r3, #36]
 1388 002a 1846     		mov	r0, r3
 1389 002c FFF7FEFF 		bl	HAL_DMA_Abort_IT
 591:Drivers/STM32H7xx_HAL_Driver/Src/stm32h7xx_hal_tim_ex.c **** 
 592:Drivers/STM32H7xx_HAL_Driver/Src/stm32h7xx_hal_tim_ex.c ****   /* Disable the Peripheral */
 593:Drivers/STM32H7xx_HAL_Driver/Src/stm32h7xx_hal_tim_ex.c ****   __HAL_TIM_DISABLE(htim);
 1390              		.loc 1 593 3
 1391 0030 7B68     		ldr	r3, [r7, #4]
 1392 0032 1B68     		ldr	r3, [r3]
 1393 0034 1A6A     		ldr	r2, [r3, #32]
 1394 0036 41F21113 		movw	r3, #4369
 1395 003a 1340     		ands	r3, r3, r2
 1396 003c 002B     		cmp	r3, #0
 1397 003e 0FD1     		bne	.L62
 1398              		.loc 1 593 3 is_stmt 0 discriminator 1
 1399 0040 7B68     		ldr	r3, [r7, #4]
 1400 0042 1B68     		ldr	r3, [r3]
 1401 0044 1A6A     		ldr	r2, [r3, #32]
 1402 0046 40F24443 		movw	r3, #1092
 1403 004a 1340     		ands	r3, r3, r2
 1404 004c 002B     		cmp	r3, #0
 1405 004e 07D1     		bne	.L62
 1406              		.loc 1 593 3 discriminator 2
 1407 0050 7B68     		ldr	r3, [r7, #4]
 1408 0052 1B68     		ldr	r3, [r3]
 1409 0054 1A68     		ldr	r2, [r3]
 1410 0056 7B68     		ldr	r3, [r7, #4]
 1411 0058 1B68     		ldr	r3, [r3]
 1412 005a 22F00102 		bic	r2, r2, #1
 1413 005e 1A60     		str	r2, [r3]
ARM GAS  /var/folders/d0/cymppscj10lcmm48h781wrc80000gn/T//ccIjALm5.s 			page 36


 1414              	.L62:
 594:Drivers/STM32H7xx_HAL_Driver/Src/stm32h7xx_hal_tim_ex.c **** 
 595:Drivers/STM32H7xx_HAL_Driver/Src/stm32h7xx_hal_tim_ex.c ****   /* Set the TIM channel state */
 596:Drivers/STM32H7xx_HAL_Driver/Src/stm32h7xx_hal_tim_ex.c ****   TIM_CHANNEL_STATE_SET(htim, TIM_CHANNEL_1, HAL_TIM_CHANNEL_STATE_READY);
 1415              		.loc 1 596 3 is_stmt 1
 1416 0060 7B68     		ldr	r3, [r7, #4]
 1417 0062 0122     		movs	r2, #1
 1418 0064 83F83E20 		strb	r2, [r3, #62]
 597:Drivers/STM32H7xx_HAL_Driver/Src/stm32h7xx_hal_tim_ex.c ****   TIM_CHANNEL_N_STATE_SET(htim, TIM_CHANNEL_1, HAL_TIM_CHANNEL_STATE_READY);
 1419              		.loc 1 597 3
 1420 0068 7B68     		ldr	r3, [r7, #4]
 1421 006a 0122     		movs	r2, #1
 1422 006c 83F84420 		strb	r2, [r3, #68]
 598:Drivers/STM32H7xx_HAL_Driver/Src/stm32h7xx_hal_tim_ex.c **** 
 599:Drivers/STM32H7xx_HAL_Driver/Src/stm32h7xx_hal_tim_ex.c ****   /* Return function status */
 600:Drivers/STM32H7xx_HAL_Driver/Src/stm32h7xx_hal_tim_ex.c ****   return HAL_OK;
 1423              		.loc 1 600 10
 1424 0070 0023     		movs	r3, #0
 601:Drivers/STM32H7xx_HAL_Driver/Src/stm32h7xx_hal_tim_ex.c **** }
 1425              		.loc 1 601 1
 1426 0072 1846     		mov	r0, r3
 1427 0074 0837     		adds	r7, r7, #8
 1428              	.LCFI50:
 1429              		.cfi_def_cfa_offset 8
 1430 0076 BD46     		mov	sp, r7
 1431              	.LCFI51:
 1432              		.cfi_def_cfa_register 13
 1433              		@ sp needed
 1434 0078 80BD     		pop	{r7, pc}
 1435              		.cfi_endproc
 1436              	.LFE342:
 1438              		.section	.text.HAL_TIMEx_OCN_Start,"ax",%progbits
 1439              		.align	1
 1440              		.global	HAL_TIMEx_OCN_Start
 1441              		.syntax unified
 1442              		.thumb
 1443              		.thumb_func
 1445              	HAL_TIMEx_OCN_Start:
 1446              	.LFB343:
 602:Drivers/STM32H7xx_HAL_Driver/Src/stm32h7xx_hal_tim_ex.c **** 
 603:Drivers/STM32H7xx_HAL_Driver/Src/stm32h7xx_hal_tim_ex.c **** /**
 604:Drivers/STM32H7xx_HAL_Driver/Src/stm32h7xx_hal_tim_ex.c ****   * @}
 605:Drivers/STM32H7xx_HAL_Driver/Src/stm32h7xx_hal_tim_ex.c ****   */
 606:Drivers/STM32H7xx_HAL_Driver/Src/stm32h7xx_hal_tim_ex.c **** 
 607:Drivers/STM32H7xx_HAL_Driver/Src/stm32h7xx_hal_tim_ex.c **** /** @defgroup TIMEx_Exported_Functions_Group2 Extended Timer Complementary Output Compare functions
 608:Drivers/STM32H7xx_HAL_Driver/Src/stm32h7xx_hal_tim_ex.c ****   *  @brief   Timer Complementary Output Compare functions
 609:Drivers/STM32H7xx_HAL_Driver/Src/stm32h7xx_hal_tim_ex.c ****   *
 610:Drivers/STM32H7xx_HAL_Driver/Src/stm32h7xx_hal_tim_ex.c **** @verbatim
 611:Drivers/STM32H7xx_HAL_Driver/Src/stm32h7xx_hal_tim_ex.c ****   ==============================================================================
 612:Drivers/STM32H7xx_HAL_Driver/Src/stm32h7xx_hal_tim_ex.c ****               ##### Timer Complementary Output Compare functions #####
 613:Drivers/STM32H7xx_HAL_Driver/Src/stm32h7xx_hal_tim_ex.c ****   ==============================================================================
 614:Drivers/STM32H7xx_HAL_Driver/Src/stm32h7xx_hal_tim_ex.c ****   [..]
 615:Drivers/STM32H7xx_HAL_Driver/Src/stm32h7xx_hal_tim_ex.c ****     This section provides functions allowing to:
 616:Drivers/STM32H7xx_HAL_Driver/Src/stm32h7xx_hal_tim_ex.c ****     (+) Start the Complementary Output Compare/PWM.
 617:Drivers/STM32H7xx_HAL_Driver/Src/stm32h7xx_hal_tim_ex.c ****     (+) Stop the Complementary Output Compare/PWM.
 618:Drivers/STM32H7xx_HAL_Driver/Src/stm32h7xx_hal_tim_ex.c ****     (+) Start the Complementary Output Compare/PWM and enable interrupts.
 619:Drivers/STM32H7xx_HAL_Driver/Src/stm32h7xx_hal_tim_ex.c ****     (+) Stop the Complementary Output Compare/PWM and disable interrupts.
ARM GAS  /var/folders/d0/cymppscj10lcmm48h781wrc80000gn/T//ccIjALm5.s 			page 37


 620:Drivers/STM32H7xx_HAL_Driver/Src/stm32h7xx_hal_tim_ex.c ****     (+) Start the Complementary Output Compare/PWM and enable DMA transfers.
 621:Drivers/STM32H7xx_HAL_Driver/Src/stm32h7xx_hal_tim_ex.c ****     (+) Stop the Complementary Output Compare/PWM and disable DMA transfers.
 622:Drivers/STM32H7xx_HAL_Driver/Src/stm32h7xx_hal_tim_ex.c **** 
 623:Drivers/STM32H7xx_HAL_Driver/Src/stm32h7xx_hal_tim_ex.c **** @endverbatim
 624:Drivers/STM32H7xx_HAL_Driver/Src/stm32h7xx_hal_tim_ex.c ****   * @{
 625:Drivers/STM32H7xx_HAL_Driver/Src/stm32h7xx_hal_tim_ex.c ****   */
 626:Drivers/STM32H7xx_HAL_Driver/Src/stm32h7xx_hal_tim_ex.c **** 
 627:Drivers/STM32H7xx_HAL_Driver/Src/stm32h7xx_hal_tim_ex.c **** /**
 628:Drivers/STM32H7xx_HAL_Driver/Src/stm32h7xx_hal_tim_ex.c ****   * @brief  Starts the TIM Output Compare signal generation on the complementary
 629:Drivers/STM32H7xx_HAL_Driver/Src/stm32h7xx_hal_tim_ex.c ****   *         output.
 630:Drivers/STM32H7xx_HAL_Driver/Src/stm32h7xx_hal_tim_ex.c ****   * @param  htim TIM Output Compare handle
 631:Drivers/STM32H7xx_HAL_Driver/Src/stm32h7xx_hal_tim_ex.c ****   * @param  Channel TIM Channel to be enabled
 632:Drivers/STM32H7xx_HAL_Driver/Src/stm32h7xx_hal_tim_ex.c ****   *          This parameter can be one of the following values:
 633:Drivers/STM32H7xx_HAL_Driver/Src/stm32h7xx_hal_tim_ex.c ****   *            @arg TIM_CHANNEL_1: TIM Channel 1 selected
 634:Drivers/STM32H7xx_HAL_Driver/Src/stm32h7xx_hal_tim_ex.c ****   *            @arg TIM_CHANNEL_2: TIM Channel 2 selected
 635:Drivers/STM32H7xx_HAL_Driver/Src/stm32h7xx_hal_tim_ex.c ****   *            @arg TIM_CHANNEL_3: TIM Channel 3 selected
 636:Drivers/STM32H7xx_HAL_Driver/Src/stm32h7xx_hal_tim_ex.c ****   * @retval HAL status
 637:Drivers/STM32H7xx_HAL_Driver/Src/stm32h7xx_hal_tim_ex.c ****   */
 638:Drivers/STM32H7xx_HAL_Driver/Src/stm32h7xx_hal_tim_ex.c **** HAL_StatusTypeDef HAL_TIMEx_OCN_Start(TIM_HandleTypeDef *htim, uint32_t Channel)
 639:Drivers/STM32H7xx_HAL_Driver/Src/stm32h7xx_hal_tim_ex.c **** {
 1447              		.loc 1 639 1
 1448              		.cfi_startproc
 1449              		@ args = 0, pretend = 0, frame = 16
 1450              		@ frame_needed = 1, uses_anonymous_args = 0
 1451 0000 80B5     		push	{r7, lr}
 1452              	.LCFI52:
 1453              		.cfi_def_cfa_offset 8
 1454              		.cfi_offset 7, -8
 1455              		.cfi_offset 14, -4
 1456 0002 84B0     		sub	sp, sp, #16
 1457              	.LCFI53:
 1458              		.cfi_def_cfa_offset 24
 1459 0004 00AF     		add	r7, sp, #0
 1460              	.LCFI54:
 1461              		.cfi_def_cfa_register 7
 1462 0006 7860     		str	r0, [r7, #4]
 1463 0008 3960     		str	r1, [r7]
 640:Drivers/STM32H7xx_HAL_Driver/Src/stm32h7xx_hal_tim_ex.c ****   uint32_t tmpsmcr;
 641:Drivers/STM32H7xx_HAL_Driver/Src/stm32h7xx_hal_tim_ex.c **** 
 642:Drivers/STM32H7xx_HAL_Driver/Src/stm32h7xx_hal_tim_ex.c ****   /* Check the parameters */
 643:Drivers/STM32H7xx_HAL_Driver/Src/stm32h7xx_hal_tim_ex.c ****   assert_param(IS_TIM_CCXN_INSTANCE(htim->Instance, Channel));
 644:Drivers/STM32H7xx_HAL_Driver/Src/stm32h7xx_hal_tim_ex.c **** 
 645:Drivers/STM32H7xx_HAL_Driver/Src/stm32h7xx_hal_tim_ex.c ****   /* Check the TIM complementary channel state */
 646:Drivers/STM32H7xx_HAL_Driver/Src/stm32h7xx_hal_tim_ex.c ****   if (TIM_CHANNEL_N_STATE_GET(htim, Channel) != HAL_TIM_CHANNEL_STATE_READY)
 1464              		.loc 1 646 46
 1465 000a 3B68     		ldr	r3, [r7]
 1466 000c 002B     		cmp	r3, #0
 1467 000e 09D1     		bne	.L65
 1468              		.loc 1 646 7 discriminator 1
 1469 0010 7B68     		ldr	r3, [r7, #4]
 1470 0012 93F84430 		ldrb	r3, [r3, #68]
 1471 0016 DBB2     		uxtb	r3, r3
 1472              		.loc 1 646 46 discriminator 1
 1473 0018 012B     		cmp	r3, #1
 1474 001a 14BF     		ite	ne
 1475 001c 0123     		movne	r3, #1
 1476 001e 0023     		moveq	r3, #0
ARM GAS  /var/folders/d0/cymppscj10lcmm48h781wrc80000gn/T//ccIjALm5.s 			page 38


 1477 0020 DBB2     		uxtb	r3, r3
 1478 0022 22E0     		b	.L66
 1479              	.L65:
 1480              		.loc 1 646 46 is_stmt 0 discriminator 2
 1481 0024 3B68     		ldr	r3, [r7]
 1482 0026 042B     		cmp	r3, #4
 1483 0028 09D1     		bne	.L67
 1484              		.loc 1 646 7 is_stmt 1 discriminator 4
 1485 002a 7B68     		ldr	r3, [r7, #4]
 1486 002c 93F84530 		ldrb	r3, [r3, #69]
 1487 0030 DBB2     		uxtb	r3, r3
 1488              		.loc 1 646 46 discriminator 4
 1489 0032 012B     		cmp	r3, #1
 1490 0034 14BF     		ite	ne
 1491 0036 0123     		movne	r3, #1
 1492 0038 0023     		moveq	r3, #0
 1493 003a DBB2     		uxtb	r3, r3
 1494 003c 15E0     		b	.L66
 1495              	.L67:
 1496              		.loc 1 646 46 is_stmt 0 discriminator 5
 1497 003e 3B68     		ldr	r3, [r7]
 1498 0040 082B     		cmp	r3, #8
 1499 0042 09D1     		bne	.L69
 1500              		.loc 1 646 7 is_stmt 1 discriminator 7
 1501 0044 7B68     		ldr	r3, [r7, #4]
 1502 0046 93F84630 		ldrb	r3, [r3, #70]
 1503 004a DBB2     		uxtb	r3, r3
 1504              		.loc 1 646 46 discriminator 7
 1505 004c 012B     		cmp	r3, #1
 1506 004e 14BF     		ite	ne
 1507 0050 0123     		movne	r3, #1
 1508 0052 0023     		moveq	r3, #0
 1509 0054 DBB2     		uxtb	r3, r3
 1510 0056 08E0     		b	.L66
 1511              	.L69:
 1512              		.loc 1 646 7 discriminator 8
 1513 0058 7B68     		ldr	r3, [r7, #4]
 1514 005a 93F84730 		ldrb	r3, [r3, #71]
 1515 005e DBB2     		uxtb	r3, r3
 1516              		.loc 1 646 46 discriminator 8
 1517 0060 012B     		cmp	r3, #1
 1518 0062 14BF     		ite	ne
 1519 0064 0123     		movne	r3, #1
 1520 0066 0023     		moveq	r3, #0
 1521 0068 DBB2     		uxtb	r3, r3
 1522              	.L66:
 1523              		.loc 1 646 6 discriminator 12
 1524 006a 002B     		cmp	r3, #0
 1525 006c 01D0     		beq	.L71
 647:Drivers/STM32H7xx_HAL_Driver/Src/stm32h7xx_hal_tim_ex.c ****   {
 648:Drivers/STM32H7xx_HAL_Driver/Src/stm32h7xx_hal_tim_ex.c ****     return HAL_ERROR;
 1526              		.loc 1 648 12
 1527 006e 0123     		movs	r3, #1
 1528 0070 73E0     		b	.L72
 1529              	.L71:
 649:Drivers/STM32H7xx_HAL_Driver/Src/stm32h7xx_hal_tim_ex.c ****   }
 650:Drivers/STM32H7xx_HAL_Driver/Src/stm32h7xx_hal_tim_ex.c **** 
ARM GAS  /var/folders/d0/cymppscj10lcmm48h781wrc80000gn/T//ccIjALm5.s 			page 39


 651:Drivers/STM32H7xx_HAL_Driver/Src/stm32h7xx_hal_tim_ex.c ****   /* Set the TIM complementary channel state */
 652:Drivers/STM32H7xx_HAL_Driver/Src/stm32h7xx_hal_tim_ex.c ****   TIM_CHANNEL_N_STATE_SET(htim, Channel, HAL_TIM_CHANNEL_STATE_BUSY);
 1530              		.loc 1 652 3
 1531 0072 3B68     		ldr	r3, [r7]
 1532 0074 002B     		cmp	r3, #0
 1533 0076 04D1     		bne	.L73
 1534              		.loc 1 652 3 is_stmt 0 discriminator 1
 1535 0078 7B68     		ldr	r3, [r7, #4]
 1536 007a 0222     		movs	r2, #2
 1537 007c 83F84420 		strb	r2, [r3, #68]
 1538 0080 13E0     		b	.L74
 1539              	.L73:
 1540              		.loc 1 652 3 discriminator 2
 1541 0082 3B68     		ldr	r3, [r7]
 1542 0084 042B     		cmp	r3, #4
 1543 0086 04D1     		bne	.L75
 1544              		.loc 1 652 3 discriminator 3
 1545 0088 7B68     		ldr	r3, [r7, #4]
 1546 008a 0222     		movs	r2, #2
 1547 008c 83F84520 		strb	r2, [r3, #69]
 1548 0090 0BE0     		b	.L74
 1549              	.L75:
 1550              		.loc 1 652 3 discriminator 4
 1551 0092 3B68     		ldr	r3, [r7]
 1552 0094 082B     		cmp	r3, #8
 1553 0096 04D1     		bne	.L77
 1554              		.loc 1 652 3 discriminator 6
 1555 0098 7B68     		ldr	r3, [r7, #4]
 1556 009a 0222     		movs	r2, #2
 1557 009c 83F84620 		strb	r2, [r3, #70]
 1558 00a0 03E0     		b	.L74
 1559              	.L77:
 1560              		.loc 1 652 3 discriminator 7
 1561 00a2 7B68     		ldr	r3, [r7, #4]
 1562 00a4 0222     		movs	r2, #2
 1563 00a6 83F84720 		strb	r2, [r3, #71]
 1564              	.L74:
 653:Drivers/STM32H7xx_HAL_Driver/Src/stm32h7xx_hal_tim_ex.c **** 
 654:Drivers/STM32H7xx_HAL_Driver/Src/stm32h7xx_hal_tim_ex.c ****   /* Enable the Capture compare channel N */
 655:Drivers/STM32H7xx_HAL_Driver/Src/stm32h7xx_hal_tim_ex.c ****   TIM_CCxNChannelCmd(htim->Instance, Channel, TIM_CCxN_ENABLE);
 1565              		.loc 1 655 3 is_stmt 1
 1566 00aa 7B68     		ldr	r3, [r7, #4]
 1567 00ac 1B68     		ldr	r3, [r3]
 1568 00ae 0422     		movs	r2, #4
 1569 00b0 3968     		ldr	r1, [r7]
 1570 00b2 1846     		mov	r0, r3
 1571 00b4 FFF7FEFF 		bl	TIM_CCxNChannelCmd
 656:Drivers/STM32H7xx_HAL_Driver/Src/stm32h7xx_hal_tim_ex.c **** 
 657:Drivers/STM32H7xx_HAL_Driver/Src/stm32h7xx_hal_tim_ex.c ****   /* Enable the Main Output */
 658:Drivers/STM32H7xx_HAL_Driver/Src/stm32h7xx_hal_tim_ex.c ****   __HAL_TIM_MOE_ENABLE(htim);
 1572              		.loc 1 658 3
 1573 00b8 7B68     		ldr	r3, [r7, #4]
 1574 00ba 1B68     		ldr	r3, [r3]
 1575 00bc 5A6C     		ldr	r2, [r3, #68]
 1576 00be 7B68     		ldr	r3, [r7, #4]
 1577 00c0 1B68     		ldr	r3, [r3]
 1578 00c2 42F40042 		orr	r2, r2, #32768
ARM GAS  /var/folders/d0/cymppscj10lcmm48h781wrc80000gn/T//ccIjALm5.s 			page 40


 1579 00c6 5A64     		str	r2, [r3, #68]
 659:Drivers/STM32H7xx_HAL_Driver/Src/stm32h7xx_hal_tim_ex.c **** 
 660:Drivers/STM32H7xx_HAL_Driver/Src/stm32h7xx_hal_tim_ex.c ****   /* Enable the Peripheral, except in trigger mode where enable is automatically done with trigger 
 661:Drivers/STM32H7xx_HAL_Driver/Src/stm32h7xx_hal_tim_ex.c ****   if (IS_TIM_SLAVE_INSTANCE(htim->Instance))
 1580              		.loc 1 661 7
 1581 00c8 7B68     		ldr	r3, [r7, #4]
 1582 00ca 1B68     		ldr	r3, [r3]
 1583              		.loc 1 661 6
 1584 00cc 254A     		ldr	r2, .L84
 1585 00ce 9342     		cmp	r3, r2
 1586 00d0 22D0     		beq	.L79
 1587              		.loc 1 661 7 discriminator 1
 1588 00d2 7B68     		ldr	r3, [r7, #4]
 1589 00d4 1B68     		ldr	r3, [r3]
 1590 00d6 B3F1804F 		cmp	r3, #1073741824
 1591 00da 1DD0     		beq	.L79
 1592              		.loc 1 661 7 is_stmt 0 discriminator 2
 1593 00dc 7B68     		ldr	r3, [r7, #4]
 1594 00de 1B68     		ldr	r3, [r3]
 1595 00e0 214A     		ldr	r2, .L84+4
 1596 00e2 9342     		cmp	r3, r2
 1597 00e4 18D0     		beq	.L79
 1598              		.loc 1 661 7 discriminator 3
 1599 00e6 7B68     		ldr	r3, [r7, #4]
 1600 00e8 1B68     		ldr	r3, [r3]
 1601 00ea 204A     		ldr	r2, .L84+8
 1602 00ec 9342     		cmp	r3, r2
 1603 00ee 13D0     		beq	.L79
 1604              		.loc 1 661 7 discriminator 4
 1605 00f0 7B68     		ldr	r3, [r7, #4]
 1606 00f2 1B68     		ldr	r3, [r3]
 1607 00f4 1E4A     		ldr	r2, .L84+12
 1608 00f6 9342     		cmp	r3, r2
 1609 00f8 0ED0     		beq	.L79
 1610              		.loc 1 661 7 discriminator 5
 1611 00fa 7B68     		ldr	r3, [r7, #4]
 1612 00fc 1B68     		ldr	r3, [r3]
 1613 00fe 1D4A     		ldr	r2, .L84+16
 1614 0100 9342     		cmp	r3, r2
 1615 0102 09D0     		beq	.L79
 1616              		.loc 1 661 7 discriminator 6
 1617 0104 7B68     		ldr	r3, [r7, #4]
 1618 0106 1B68     		ldr	r3, [r3]
 1619 0108 1B4A     		ldr	r2, .L84+20
 1620 010a 9342     		cmp	r3, r2
 1621 010c 04D0     		beq	.L79
 1622              		.loc 1 661 7 discriminator 7
 1623 010e 7B68     		ldr	r3, [r7, #4]
 1624 0110 1B68     		ldr	r3, [r3]
 1625 0112 1A4A     		ldr	r2, .L84+24
 1626 0114 9342     		cmp	r3, r2
 1627 0116 15D1     		bne	.L80
 1628              	.L79:
 662:Drivers/STM32H7xx_HAL_Driver/Src/stm32h7xx_hal_tim_ex.c ****   {
 663:Drivers/STM32H7xx_HAL_Driver/Src/stm32h7xx_hal_tim_ex.c ****     tmpsmcr = htim->Instance->SMCR & TIM_SMCR_SMS;
 1629              		.loc 1 663 19 is_stmt 1
 1630 0118 7B68     		ldr	r3, [r7, #4]
ARM GAS  /var/folders/d0/cymppscj10lcmm48h781wrc80000gn/T//ccIjALm5.s 			page 41


 1631 011a 1B68     		ldr	r3, [r3]
 1632              		.loc 1 663 29
 1633 011c 9A68     		ldr	r2, [r3, #8]
 1634              		.loc 1 663 13
 1635 011e 184B     		ldr	r3, .L84+28
 1636 0120 1340     		ands	r3, r3, r2
 1637 0122 FB60     		str	r3, [r7, #12]
 664:Drivers/STM32H7xx_HAL_Driver/Src/stm32h7xx_hal_tim_ex.c ****     if (!IS_TIM_SLAVEMODE_TRIGGER_ENABLED(tmpsmcr))
 1638              		.loc 1 664 8
 1639 0124 FB68     		ldr	r3, [r7, #12]
 1640 0126 062B     		cmp	r3, #6
 1641 0128 15D0     		beq	.L83
 1642              		.loc 1 664 9 discriminator 1
 1643 012a FB68     		ldr	r3, [r7, #12]
 1644 012c B3F5803F 		cmp	r3, #65536
 1645 0130 11D0     		beq	.L83
 665:Drivers/STM32H7xx_HAL_Driver/Src/stm32h7xx_hal_tim_ex.c ****     {
 666:Drivers/STM32H7xx_HAL_Driver/Src/stm32h7xx_hal_tim_ex.c ****       __HAL_TIM_ENABLE(htim);
 1646              		.loc 1 666 7
 1647 0132 7B68     		ldr	r3, [r7, #4]
 1648 0134 1B68     		ldr	r3, [r3]
 1649 0136 1A68     		ldr	r2, [r3]
 1650 0138 7B68     		ldr	r3, [r7, #4]
 1651 013a 1B68     		ldr	r3, [r3]
 1652 013c 42F00102 		orr	r2, r2, #1
 1653 0140 1A60     		str	r2, [r3]
 664:Drivers/STM32H7xx_HAL_Driver/Src/stm32h7xx_hal_tim_ex.c ****     if (!IS_TIM_SLAVEMODE_TRIGGER_ENABLED(tmpsmcr))
 1654              		.loc 1 664 8
 1655 0142 08E0     		b	.L83
 1656              	.L80:
 667:Drivers/STM32H7xx_HAL_Driver/Src/stm32h7xx_hal_tim_ex.c ****     }
 668:Drivers/STM32H7xx_HAL_Driver/Src/stm32h7xx_hal_tim_ex.c ****   }
 669:Drivers/STM32H7xx_HAL_Driver/Src/stm32h7xx_hal_tim_ex.c ****   else
 670:Drivers/STM32H7xx_HAL_Driver/Src/stm32h7xx_hal_tim_ex.c ****   {
 671:Drivers/STM32H7xx_HAL_Driver/Src/stm32h7xx_hal_tim_ex.c ****     __HAL_TIM_ENABLE(htim);
 1657              		.loc 1 671 5
 1658 0144 7B68     		ldr	r3, [r7, #4]
 1659 0146 1B68     		ldr	r3, [r3]
 1660 0148 1A68     		ldr	r2, [r3]
 1661 014a 7B68     		ldr	r3, [r7, #4]
 1662 014c 1B68     		ldr	r3, [r3]
 1663 014e 42F00102 		orr	r2, r2, #1
 1664 0152 1A60     		str	r2, [r3]
 1665 0154 00E0     		b	.L82
 1666              	.L83:
 664:Drivers/STM32H7xx_HAL_Driver/Src/stm32h7xx_hal_tim_ex.c ****     {
 1667              		.loc 1 664 8
 1668 0156 00BF     		nop
 1669              	.L82:
 672:Drivers/STM32H7xx_HAL_Driver/Src/stm32h7xx_hal_tim_ex.c ****   }
 673:Drivers/STM32H7xx_HAL_Driver/Src/stm32h7xx_hal_tim_ex.c **** 
 674:Drivers/STM32H7xx_HAL_Driver/Src/stm32h7xx_hal_tim_ex.c ****   /* Return function status */
 675:Drivers/STM32H7xx_HAL_Driver/Src/stm32h7xx_hal_tim_ex.c ****   return HAL_OK;
 1670              		.loc 1 675 10
 1671 0158 0023     		movs	r3, #0
 1672              	.L72:
 676:Drivers/STM32H7xx_HAL_Driver/Src/stm32h7xx_hal_tim_ex.c **** }
ARM GAS  /var/folders/d0/cymppscj10lcmm48h781wrc80000gn/T//ccIjALm5.s 			page 42


 1673              		.loc 1 676 1
 1674 015a 1846     		mov	r0, r3
 1675 015c 1037     		adds	r7, r7, #16
 1676              	.LCFI55:
 1677              		.cfi_def_cfa_offset 8
 1678 015e BD46     		mov	sp, r7
 1679              	.LCFI56:
 1680              		.cfi_def_cfa_register 13
 1681              		@ sp needed
 1682 0160 80BD     		pop	{r7, pc}
 1683              	.L85:
 1684 0162 00BF     		.align	2
 1685              	.L84:
 1686 0164 00000140 		.word	1073807360
 1687 0168 00040040 		.word	1073742848
 1688 016c 00080040 		.word	1073743872
 1689 0170 000C0040 		.word	1073744896
 1690 0174 00040140 		.word	1073808384
 1691 0178 00180040 		.word	1073747968
 1692 017c 00400140 		.word	1073823744
 1693 0180 07000100 		.word	65543
 1694              		.cfi_endproc
 1695              	.LFE343:
 1697              		.section	.text.HAL_TIMEx_OCN_Stop,"ax",%progbits
 1698              		.align	1
 1699              		.global	HAL_TIMEx_OCN_Stop
 1700              		.syntax unified
 1701              		.thumb
 1702              		.thumb_func
 1704              	HAL_TIMEx_OCN_Stop:
 1705              	.LFB344:
 677:Drivers/STM32H7xx_HAL_Driver/Src/stm32h7xx_hal_tim_ex.c **** 
 678:Drivers/STM32H7xx_HAL_Driver/Src/stm32h7xx_hal_tim_ex.c **** /**
 679:Drivers/STM32H7xx_HAL_Driver/Src/stm32h7xx_hal_tim_ex.c ****   * @brief  Stops the TIM Output Compare signal generation on the complementary
 680:Drivers/STM32H7xx_HAL_Driver/Src/stm32h7xx_hal_tim_ex.c ****   *         output.
 681:Drivers/STM32H7xx_HAL_Driver/Src/stm32h7xx_hal_tim_ex.c ****   * @param  htim TIM handle
 682:Drivers/STM32H7xx_HAL_Driver/Src/stm32h7xx_hal_tim_ex.c ****   * @param  Channel TIM Channel to be disabled
 683:Drivers/STM32H7xx_HAL_Driver/Src/stm32h7xx_hal_tim_ex.c ****   *          This parameter can be one of the following values:
 684:Drivers/STM32H7xx_HAL_Driver/Src/stm32h7xx_hal_tim_ex.c ****   *            @arg TIM_CHANNEL_1: TIM Channel 1 selected
 685:Drivers/STM32H7xx_HAL_Driver/Src/stm32h7xx_hal_tim_ex.c ****   *            @arg TIM_CHANNEL_2: TIM Channel 2 selected
 686:Drivers/STM32H7xx_HAL_Driver/Src/stm32h7xx_hal_tim_ex.c ****   *            @arg TIM_CHANNEL_3: TIM Channel 3 selected
 687:Drivers/STM32H7xx_HAL_Driver/Src/stm32h7xx_hal_tim_ex.c ****   * @retval HAL status
 688:Drivers/STM32H7xx_HAL_Driver/Src/stm32h7xx_hal_tim_ex.c ****   */
 689:Drivers/STM32H7xx_HAL_Driver/Src/stm32h7xx_hal_tim_ex.c **** HAL_StatusTypeDef HAL_TIMEx_OCN_Stop(TIM_HandleTypeDef *htim, uint32_t Channel)
 690:Drivers/STM32H7xx_HAL_Driver/Src/stm32h7xx_hal_tim_ex.c **** {
 1706              		.loc 1 690 1
 1707              		.cfi_startproc
 1708              		@ args = 0, pretend = 0, frame = 8
 1709              		@ frame_needed = 1, uses_anonymous_args = 0
 1710 0000 80B5     		push	{r7, lr}
 1711              	.LCFI57:
 1712              		.cfi_def_cfa_offset 8
 1713              		.cfi_offset 7, -8
 1714              		.cfi_offset 14, -4
 1715 0002 82B0     		sub	sp, sp, #8
 1716              	.LCFI58:
 1717              		.cfi_def_cfa_offset 16
ARM GAS  /var/folders/d0/cymppscj10lcmm48h781wrc80000gn/T//ccIjALm5.s 			page 43


 1718 0004 00AF     		add	r7, sp, #0
 1719              	.LCFI59:
 1720              		.cfi_def_cfa_register 7
 1721 0006 7860     		str	r0, [r7, #4]
 1722 0008 3960     		str	r1, [r7]
 691:Drivers/STM32H7xx_HAL_Driver/Src/stm32h7xx_hal_tim_ex.c ****   /* Check the parameters */
 692:Drivers/STM32H7xx_HAL_Driver/Src/stm32h7xx_hal_tim_ex.c ****   assert_param(IS_TIM_CCXN_INSTANCE(htim->Instance, Channel));
 693:Drivers/STM32H7xx_HAL_Driver/Src/stm32h7xx_hal_tim_ex.c **** 
 694:Drivers/STM32H7xx_HAL_Driver/Src/stm32h7xx_hal_tim_ex.c ****   /* Disable the Capture compare channel N */
 695:Drivers/STM32H7xx_HAL_Driver/Src/stm32h7xx_hal_tim_ex.c ****   TIM_CCxNChannelCmd(htim->Instance, Channel, TIM_CCxN_DISABLE);
 1723              		.loc 1 695 3
 1724 000a 7B68     		ldr	r3, [r7, #4]
 1725 000c 1B68     		ldr	r3, [r3]
 1726 000e 0022     		movs	r2, #0
 1727 0010 3968     		ldr	r1, [r7]
 1728 0012 1846     		mov	r0, r3
 1729 0014 FFF7FEFF 		bl	TIM_CCxNChannelCmd
 696:Drivers/STM32H7xx_HAL_Driver/Src/stm32h7xx_hal_tim_ex.c **** 
 697:Drivers/STM32H7xx_HAL_Driver/Src/stm32h7xx_hal_tim_ex.c ****   /* Disable the Main Output */
 698:Drivers/STM32H7xx_HAL_Driver/Src/stm32h7xx_hal_tim_ex.c ****   __HAL_TIM_MOE_DISABLE(htim);
 1730              		.loc 1 698 3
 1731 0018 7B68     		ldr	r3, [r7, #4]
 1732 001a 1B68     		ldr	r3, [r3]
 1733 001c 1A6A     		ldr	r2, [r3, #32]
 1734 001e 41F21113 		movw	r3, #4369
 1735 0022 1340     		ands	r3, r3, r2
 1736 0024 002B     		cmp	r3, #0
 1737 0026 0FD1     		bne	.L87
 1738              		.loc 1 698 3 is_stmt 0 discriminator 1
 1739 0028 7B68     		ldr	r3, [r7, #4]
 1740 002a 1B68     		ldr	r3, [r3]
 1741 002c 1A6A     		ldr	r2, [r3, #32]
 1742 002e 40F24443 		movw	r3, #1092
 1743 0032 1340     		ands	r3, r3, r2
 1744 0034 002B     		cmp	r3, #0
 1745 0036 07D1     		bne	.L87
 1746              		.loc 1 698 3 discriminator 2
 1747 0038 7B68     		ldr	r3, [r7, #4]
 1748 003a 1B68     		ldr	r3, [r3]
 1749 003c 5A6C     		ldr	r2, [r3, #68]
 1750 003e 7B68     		ldr	r3, [r7, #4]
 1751 0040 1B68     		ldr	r3, [r3]
 1752 0042 22F40042 		bic	r2, r2, #32768
 1753 0046 5A64     		str	r2, [r3, #68]
 1754              	.L87:
 699:Drivers/STM32H7xx_HAL_Driver/Src/stm32h7xx_hal_tim_ex.c **** 
 700:Drivers/STM32H7xx_HAL_Driver/Src/stm32h7xx_hal_tim_ex.c ****   /* Disable the Peripheral */
 701:Drivers/STM32H7xx_HAL_Driver/Src/stm32h7xx_hal_tim_ex.c ****   __HAL_TIM_DISABLE(htim);
 1755              		.loc 1 701 3 is_stmt 1
 1756 0048 7B68     		ldr	r3, [r7, #4]
 1757 004a 1B68     		ldr	r3, [r3]
 1758 004c 1A6A     		ldr	r2, [r3, #32]
 1759 004e 41F21113 		movw	r3, #4369
 1760 0052 1340     		ands	r3, r3, r2
 1761 0054 002B     		cmp	r3, #0
 1762 0056 0FD1     		bne	.L88
 1763              		.loc 1 701 3 is_stmt 0 discriminator 1
ARM GAS  /var/folders/d0/cymppscj10lcmm48h781wrc80000gn/T//ccIjALm5.s 			page 44


 1764 0058 7B68     		ldr	r3, [r7, #4]
 1765 005a 1B68     		ldr	r3, [r3]
 1766 005c 1A6A     		ldr	r2, [r3, #32]
 1767 005e 40F24443 		movw	r3, #1092
 1768 0062 1340     		ands	r3, r3, r2
 1769 0064 002B     		cmp	r3, #0
 1770 0066 07D1     		bne	.L88
 1771              		.loc 1 701 3 discriminator 2
 1772 0068 7B68     		ldr	r3, [r7, #4]
 1773 006a 1B68     		ldr	r3, [r3]
 1774 006c 1A68     		ldr	r2, [r3]
 1775 006e 7B68     		ldr	r3, [r7, #4]
 1776 0070 1B68     		ldr	r3, [r3]
 1777 0072 22F00102 		bic	r2, r2, #1
 1778 0076 1A60     		str	r2, [r3]
 1779              	.L88:
 702:Drivers/STM32H7xx_HAL_Driver/Src/stm32h7xx_hal_tim_ex.c **** 
 703:Drivers/STM32H7xx_HAL_Driver/Src/stm32h7xx_hal_tim_ex.c ****   /* Set the TIM complementary channel state */
 704:Drivers/STM32H7xx_HAL_Driver/Src/stm32h7xx_hal_tim_ex.c ****   TIM_CHANNEL_N_STATE_SET(htim, Channel, HAL_TIM_CHANNEL_STATE_READY);
 1780              		.loc 1 704 3 is_stmt 1
 1781 0078 3B68     		ldr	r3, [r7]
 1782 007a 002B     		cmp	r3, #0
 1783 007c 04D1     		bne	.L89
 1784              		.loc 1 704 3 is_stmt 0 discriminator 1
 1785 007e 7B68     		ldr	r3, [r7, #4]
 1786 0080 0122     		movs	r2, #1
 1787 0082 83F84420 		strb	r2, [r3, #68]
 1788 0086 13E0     		b	.L90
 1789              	.L89:
 1790              		.loc 1 704 3 discriminator 2
 1791 0088 3B68     		ldr	r3, [r7]
 1792 008a 042B     		cmp	r3, #4
 1793 008c 04D1     		bne	.L91
 1794              		.loc 1 704 3 discriminator 3
 1795 008e 7B68     		ldr	r3, [r7, #4]
 1796 0090 0122     		movs	r2, #1
 1797 0092 83F84520 		strb	r2, [r3, #69]
 1798 0096 0BE0     		b	.L90
 1799              	.L91:
 1800              		.loc 1 704 3 discriminator 4
 1801 0098 3B68     		ldr	r3, [r7]
 1802 009a 082B     		cmp	r3, #8
 1803 009c 04D1     		bne	.L93
 1804              		.loc 1 704 3 discriminator 6
 1805 009e 7B68     		ldr	r3, [r7, #4]
 1806 00a0 0122     		movs	r2, #1
 1807 00a2 83F84620 		strb	r2, [r3, #70]
 1808 00a6 03E0     		b	.L90
 1809              	.L93:
 1810              		.loc 1 704 3 discriminator 7
 1811 00a8 7B68     		ldr	r3, [r7, #4]
 1812 00aa 0122     		movs	r2, #1
 1813 00ac 83F84720 		strb	r2, [r3, #71]
 1814              	.L90:
 705:Drivers/STM32H7xx_HAL_Driver/Src/stm32h7xx_hal_tim_ex.c **** 
 706:Drivers/STM32H7xx_HAL_Driver/Src/stm32h7xx_hal_tim_ex.c ****   /* Return function status */
 707:Drivers/STM32H7xx_HAL_Driver/Src/stm32h7xx_hal_tim_ex.c ****   return HAL_OK;
ARM GAS  /var/folders/d0/cymppscj10lcmm48h781wrc80000gn/T//ccIjALm5.s 			page 45


 1815              		.loc 1 707 10 is_stmt 1
 1816 00b0 0023     		movs	r3, #0
 708:Drivers/STM32H7xx_HAL_Driver/Src/stm32h7xx_hal_tim_ex.c **** }
 1817              		.loc 1 708 1
 1818 00b2 1846     		mov	r0, r3
 1819 00b4 0837     		adds	r7, r7, #8
 1820              	.LCFI60:
 1821              		.cfi_def_cfa_offset 8
 1822 00b6 BD46     		mov	sp, r7
 1823              	.LCFI61:
 1824              		.cfi_def_cfa_register 13
 1825              		@ sp needed
 1826 00b8 80BD     		pop	{r7, pc}
 1827              		.cfi_endproc
 1828              	.LFE344:
 1830              		.section	.text.HAL_TIMEx_OCN_Start_IT,"ax",%progbits
 1831              		.align	1
 1832              		.global	HAL_TIMEx_OCN_Start_IT
 1833              		.syntax unified
 1834              		.thumb
 1835              		.thumb_func
 1837              	HAL_TIMEx_OCN_Start_IT:
 1838              	.LFB345:
 709:Drivers/STM32H7xx_HAL_Driver/Src/stm32h7xx_hal_tim_ex.c **** 
 710:Drivers/STM32H7xx_HAL_Driver/Src/stm32h7xx_hal_tim_ex.c **** /**
 711:Drivers/STM32H7xx_HAL_Driver/Src/stm32h7xx_hal_tim_ex.c ****   * @brief  Starts the TIM Output Compare signal generation in interrupt mode
 712:Drivers/STM32H7xx_HAL_Driver/Src/stm32h7xx_hal_tim_ex.c ****   *         on the complementary output.
 713:Drivers/STM32H7xx_HAL_Driver/Src/stm32h7xx_hal_tim_ex.c ****   * @param  htim TIM OC handle
 714:Drivers/STM32H7xx_HAL_Driver/Src/stm32h7xx_hal_tim_ex.c ****   * @param  Channel TIM Channel to be enabled
 715:Drivers/STM32H7xx_HAL_Driver/Src/stm32h7xx_hal_tim_ex.c ****   *          This parameter can be one of the following values:
 716:Drivers/STM32H7xx_HAL_Driver/Src/stm32h7xx_hal_tim_ex.c ****   *            @arg TIM_CHANNEL_1: TIM Channel 1 selected
 717:Drivers/STM32H7xx_HAL_Driver/Src/stm32h7xx_hal_tim_ex.c ****   *            @arg TIM_CHANNEL_2: TIM Channel 2 selected
 718:Drivers/STM32H7xx_HAL_Driver/Src/stm32h7xx_hal_tim_ex.c ****   *            @arg TIM_CHANNEL_3: TIM Channel 3 selected
 719:Drivers/STM32H7xx_HAL_Driver/Src/stm32h7xx_hal_tim_ex.c ****   * @retval HAL status
 720:Drivers/STM32H7xx_HAL_Driver/Src/stm32h7xx_hal_tim_ex.c ****   */
 721:Drivers/STM32H7xx_HAL_Driver/Src/stm32h7xx_hal_tim_ex.c **** HAL_StatusTypeDef HAL_TIMEx_OCN_Start_IT(TIM_HandleTypeDef *htim, uint32_t Channel)
 722:Drivers/STM32H7xx_HAL_Driver/Src/stm32h7xx_hal_tim_ex.c **** {
 1839              		.loc 1 722 1
 1840              		.cfi_startproc
 1841              		@ args = 0, pretend = 0, frame = 16
 1842              		@ frame_needed = 1, uses_anonymous_args = 0
 1843 0000 80B5     		push	{r7, lr}
 1844              	.LCFI62:
 1845              		.cfi_def_cfa_offset 8
 1846              		.cfi_offset 7, -8
 1847              		.cfi_offset 14, -4
 1848 0002 84B0     		sub	sp, sp, #16
 1849              	.LCFI63:
 1850              		.cfi_def_cfa_offset 24
 1851 0004 00AF     		add	r7, sp, #0
 1852              	.LCFI64:
 1853              		.cfi_def_cfa_register 7
 1854 0006 7860     		str	r0, [r7, #4]
 1855 0008 3960     		str	r1, [r7]
 723:Drivers/STM32H7xx_HAL_Driver/Src/stm32h7xx_hal_tim_ex.c ****   HAL_StatusTypeDef status = HAL_OK;
 1856              		.loc 1 723 21
 1857 000a 0023     		movs	r3, #0
ARM GAS  /var/folders/d0/cymppscj10lcmm48h781wrc80000gn/T//ccIjALm5.s 			page 46


 1858 000c FB73     		strb	r3, [r7, #15]
 724:Drivers/STM32H7xx_HAL_Driver/Src/stm32h7xx_hal_tim_ex.c ****   uint32_t tmpsmcr;
 725:Drivers/STM32H7xx_HAL_Driver/Src/stm32h7xx_hal_tim_ex.c **** 
 726:Drivers/STM32H7xx_HAL_Driver/Src/stm32h7xx_hal_tim_ex.c ****   /* Check the parameters */
 727:Drivers/STM32H7xx_HAL_Driver/Src/stm32h7xx_hal_tim_ex.c ****   assert_param(IS_TIM_CCXN_INSTANCE(htim->Instance, Channel));
 728:Drivers/STM32H7xx_HAL_Driver/Src/stm32h7xx_hal_tim_ex.c **** 
 729:Drivers/STM32H7xx_HAL_Driver/Src/stm32h7xx_hal_tim_ex.c ****   /* Check the TIM complementary channel state */
 730:Drivers/STM32H7xx_HAL_Driver/Src/stm32h7xx_hal_tim_ex.c ****   if (TIM_CHANNEL_N_STATE_GET(htim, Channel) != HAL_TIM_CHANNEL_STATE_READY)
 1859              		.loc 1 730 46
 1860 000e 3B68     		ldr	r3, [r7]
 1861 0010 002B     		cmp	r3, #0
 1862 0012 09D1     		bne	.L97
 1863              		.loc 1 730 7 discriminator 1
 1864 0014 7B68     		ldr	r3, [r7, #4]
 1865 0016 93F84430 		ldrb	r3, [r3, #68]
 1866 001a DBB2     		uxtb	r3, r3
 1867              		.loc 1 730 46 discriminator 1
 1868 001c 012B     		cmp	r3, #1
 1869 001e 14BF     		ite	ne
 1870 0020 0123     		movne	r3, #1
 1871 0022 0023     		moveq	r3, #0
 1872 0024 DBB2     		uxtb	r3, r3
 1873 0026 22E0     		b	.L98
 1874              	.L97:
 1875              		.loc 1 730 46 is_stmt 0 discriminator 2
 1876 0028 3B68     		ldr	r3, [r7]
 1877 002a 042B     		cmp	r3, #4
 1878 002c 09D1     		bne	.L99
 1879              		.loc 1 730 7 is_stmt 1 discriminator 4
 1880 002e 7B68     		ldr	r3, [r7, #4]
 1881 0030 93F84530 		ldrb	r3, [r3, #69]
 1882 0034 DBB2     		uxtb	r3, r3
 1883              		.loc 1 730 46 discriminator 4
 1884 0036 012B     		cmp	r3, #1
 1885 0038 14BF     		ite	ne
 1886 003a 0123     		movne	r3, #1
 1887 003c 0023     		moveq	r3, #0
 1888 003e DBB2     		uxtb	r3, r3
 1889 0040 15E0     		b	.L98
 1890              	.L99:
 1891              		.loc 1 730 46 is_stmt 0 discriminator 5
 1892 0042 3B68     		ldr	r3, [r7]
 1893 0044 082B     		cmp	r3, #8
 1894 0046 09D1     		bne	.L101
 1895              		.loc 1 730 7 is_stmt 1 discriminator 7
 1896 0048 7B68     		ldr	r3, [r7, #4]
 1897 004a 93F84630 		ldrb	r3, [r3, #70]
 1898 004e DBB2     		uxtb	r3, r3
 1899              		.loc 1 730 46 discriminator 7
 1900 0050 012B     		cmp	r3, #1
 1901 0052 14BF     		ite	ne
 1902 0054 0123     		movne	r3, #1
 1903 0056 0023     		moveq	r3, #0
 1904 0058 DBB2     		uxtb	r3, r3
 1905 005a 08E0     		b	.L98
 1906              	.L101:
 1907              		.loc 1 730 7 discriminator 8
ARM GAS  /var/folders/d0/cymppscj10lcmm48h781wrc80000gn/T//ccIjALm5.s 			page 47


 1908 005c 7B68     		ldr	r3, [r7, #4]
 1909 005e 93F84730 		ldrb	r3, [r3, #71]
 1910 0062 DBB2     		uxtb	r3, r3
 1911              		.loc 1 730 46 discriminator 8
 1912 0064 012B     		cmp	r3, #1
 1913 0066 14BF     		ite	ne
 1914 0068 0123     		movne	r3, #1
 1915 006a 0023     		moveq	r3, #0
 1916 006c DBB2     		uxtb	r3, r3
 1917              	.L98:
 1918              		.loc 1 730 6 discriminator 12
 1919 006e 002B     		cmp	r3, #0
 1920 0070 01D0     		beq	.L103
 731:Drivers/STM32H7xx_HAL_Driver/Src/stm32h7xx_hal_tim_ex.c ****   {
 732:Drivers/STM32H7xx_HAL_Driver/Src/stm32h7xx_hal_tim_ex.c ****     return HAL_ERROR;
 1921              		.loc 1 732 12
 1922 0072 0123     		movs	r3, #1
 1923 0074 A9E0     		b	.L104
 1924              	.L103:
 733:Drivers/STM32H7xx_HAL_Driver/Src/stm32h7xx_hal_tim_ex.c ****   }
 734:Drivers/STM32H7xx_HAL_Driver/Src/stm32h7xx_hal_tim_ex.c **** 
 735:Drivers/STM32H7xx_HAL_Driver/Src/stm32h7xx_hal_tim_ex.c ****   /* Set the TIM complementary channel state */
 736:Drivers/STM32H7xx_HAL_Driver/Src/stm32h7xx_hal_tim_ex.c ****   TIM_CHANNEL_N_STATE_SET(htim, Channel, HAL_TIM_CHANNEL_STATE_BUSY);
 1925              		.loc 1 736 3
 1926 0076 3B68     		ldr	r3, [r7]
 1927 0078 002B     		cmp	r3, #0
 1928 007a 04D1     		bne	.L105
 1929              		.loc 1 736 3 is_stmt 0 discriminator 1
 1930 007c 7B68     		ldr	r3, [r7, #4]
 1931 007e 0222     		movs	r2, #2
 1932 0080 83F84420 		strb	r2, [r3, #68]
 1933 0084 13E0     		b	.L106
 1934              	.L105:
 1935              		.loc 1 736 3 discriminator 2
 1936 0086 3B68     		ldr	r3, [r7]
 1937 0088 042B     		cmp	r3, #4
 1938 008a 04D1     		bne	.L107
 1939              		.loc 1 736 3 discriminator 3
 1940 008c 7B68     		ldr	r3, [r7, #4]
 1941 008e 0222     		movs	r2, #2
 1942 0090 83F84520 		strb	r2, [r3, #69]
 1943 0094 0BE0     		b	.L106
 1944              	.L107:
 1945              		.loc 1 736 3 discriminator 4
 1946 0096 3B68     		ldr	r3, [r7]
 1947 0098 082B     		cmp	r3, #8
 1948 009a 04D1     		bne	.L109
 1949              		.loc 1 736 3 discriminator 6
 1950 009c 7B68     		ldr	r3, [r7, #4]
 1951 009e 0222     		movs	r2, #2
 1952 00a0 83F84620 		strb	r2, [r3, #70]
 1953 00a4 03E0     		b	.L106
 1954              	.L109:
 1955              		.loc 1 736 3 discriminator 7
 1956 00a6 7B68     		ldr	r3, [r7, #4]
 1957 00a8 0222     		movs	r2, #2
 1958 00aa 83F84720 		strb	r2, [r3, #71]
ARM GAS  /var/folders/d0/cymppscj10lcmm48h781wrc80000gn/T//ccIjALm5.s 			page 48


 1959              	.L106:
 737:Drivers/STM32H7xx_HAL_Driver/Src/stm32h7xx_hal_tim_ex.c **** 
 738:Drivers/STM32H7xx_HAL_Driver/Src/stm32h7xx_hal_tim_ex.c ****   switch (Channel)
 1960              		.loc 1 738 3 is_stmt 1
 1961 00ae 3B68     		ldr	r3, [r7]
 1962 00b0 082B     		cmp	r3, #8
 1963 00b2 1BD0     		beq	.L111
 1964 00b4 3B68     		ldr	r3, [r7]
 1965 00b6 082B     		cmp	r3, #8
 1966 00b8 21D8     		bhi	.L112
 1967 00ba 3B68     		ldr	r3, [r7]
 1968 00bc 002B     		cmp	r3, #0
 1969 00be 03D0     		beq	.L113
 1970 00c0 3B68     		ldr	r3, [r7]
 1971 00c2 042B     		cmp	r3, #4
 1972 00c4 09D0     		beq	.L114
 1973 00c6 1AE0     		b	.L112
 1974              	.L113:
 739:Drivers/STM32H7xx_HAL_Driver/Src/stm32h7xx_hal_tim_ex.c ****   {
 740:Drivers/STM32H7xx_HAL_Driver/Src/stm32h7xx_hal_tim_ex.c ****     case TIM_CHANNEL_1:
 741:Drivers/STM32H7xx_HAL_Driver/Src/stm32h7xx_hal_tim_ex.c ****     {
 742:Drivers/STM32H7xx_HAL_Driver/Src/stm32h7xx_hal_tim_ex.c ****       /* Enable the TIM Output Compare interrupt */
 743:Drivers/STM32H7xx_HAL_Driver/Src/stm32h7xx_hal_tim_ex.c ****       __HAL_TIM_ENABLE_IT(htim, TIM_IT_CC1);
 1975              		.loc 1 743 7
 1976 00c8 7B68     		ldr	r3, [r7, #4]
 1977 00ca 1B68     		ldr	r3, [r3]
 1978 00cc DA68     		ldr	r2, [r3, #12]
 1979 00ce 7B68     		ldr	r3, [r7, #4]
 1980 00d0 1B68     		ldr	r3, [r3]
 1981 00d2 42F00202 		orr	r2, r2, #2
 1982 00d6 DA60     		str	r2, [r3, #12]
 744:Drivers/STM32H7xx_HAL_Driver/Src/stm32h7xx_hal_tim_ex.c ****       break;
 1983              		.loc 1 744 7
 1984 00d8 14E0     		b	.L115
 1985              	.L114:
 745:Drivers/STM32H7xx_HAL_Driver/Src/stm32h7xx_hal_tim_ex.c ****     }
 746:Drivers/STM32H7xx_HAL_Driver/Src/stm32h7xx_hal_tim_ex.c **** 
 747:Drivers/STM32H7xx_HAL_Driver/Src/stm32h7xx_hal_tim_ex.c ****     case TIM_CHANNEL_2:
 748:Drivers/STM32H7xx_HAL_Driver/Src/stm32h7xx_hal_tim_ex.c ****     {
 749:Drivers/STM32H7xx_HAL_Driver/Src/stm32h7xx_hal_tim_ex.c ****       /* Enable the TIM Output Compare interrupt */
 750:Drivers/STM32H7xx_HAL_Driver/Src/stm32h7xx_hal_tim_ex.c ****       __HAL_TIM_ENABLE_IT(htim, TIM_IT_CC2);
 1986              		.loc 1 750 7
 1987 00da 7B68     		ldr	r3, [r7, #4]
 1988 00dc 1B68     		ldr	r3, [r3]
 1989 00de DA68     		ldr	r2, [r3, #12]
 1990 00e0 7B68     		ldr	r3, [r7, #4]
 1991 00e2 1B68     		ldr	r3, [r3]
 1992 00e4 42F00402 		orr	r2, r2, #4
 1993 00e8 DA60     		str	r2, [r3, #12]
 751:Drivers/STM32H7xx_HAL_Driver/Src/stm32h7xx_hal_tim_ex.c ****       break;
 1994              		.loc 1 751 7
 1995 00ea 0BE0     		b	.L115
 1996              	.L111:
 752:Drivers/STM32H7xx_HAL_Driver/Src/stm32h7xx_hal_tim_ex.c ****     }
 753:Drivers/STM32H7xx_HAL_Driver/Src/stm32h7xx_hal_tim_ex.c **** 
 754:Drivers/STM32H7xx_HAL_Driver/Src/stm32h7xx_hal_tim_ex.c ****     case TIM_CHANNEL_3:
 755:Drivers/STM32H7xx_HAL_Driver/Src/stm32h7xx_hal_tim_ex.c ****     {
ARM GAS  /var/folders/d0/cymppscj10lcmm48h781wrc80000gn/T//ccIjALm5.s 			page 49


 756:Drivers/STM32H7xx_HAL_Driver/Src/stm32h7xx_hal_tim_ex.c ****       /* Enable the TIM Output Compare interrupt */
 757:Drivers/STM32H7xx_HAL_Driver/Src/stm32h7xx_hal_tim_ex.c ****       __HAL_TIM_ENABLE_IT(htim, TIM_IT_CC3);
 1997              		.loc 1 757 7
 1998 00ec 7B68     		ldr	r3, [r7, #4]
 1999 00ee 1B68     		ldr	r3, [r3]
 2000 00f0 DA68     		ldr	r2, [r3, #12]
 2001 00f2 7B68     		ldr	r3, [r7, #4]
 2002 00f4 1B68     		ldr	r3, [r3]
 2003 00f6 42F00802 		orr	r2, r2, #8
 2004 00fa DA60     		str	r2, [r3, #12]
 758:Drivers/STM32H7xx_HAL_Driver/Src/stm32h7xx_hal_tim_ex.c ****       break;
 2005              		.loc 1 758 7
 2006 00fc 02E0     		b	.L115
 2007              	.L112:
 759:Drivers/STM32H7xx_HAL_Driver/Src/stm32h7xx_hal_tim_ex.c ****     }
 760:Drivers/STM32H7xx_HAL_Driver/Src/stm32h7xx_hal_tim_ex.c **** 
 761:Drivers/STM32H7xx_HAL_Driver/Src/stm32h7xx_hal_tim_ex.c **** 
 762:Drivers/STM32H7xx_HAL_Driver/Src/stm32h7xx_hal_tim_ex.c ****     default:
 763:Drivers/STM32H7xx_HAL_Driver/Src/stm32h7xx_hal_tim_ex.c ****       status = HAL_ERROR;
 2008              		.loc 1 763 14
 2009 00fe 0123     		movs	r3, #1
 2010 0100 FB73     		strb	r3, [r7, #15]
 764:Drivers/STM32H7xx_HAL_Driver/Src/stm32h7xx_hal_tim_ex.c ****       break;
 2011              		.loc 1 764 7
 2012 0102 00BF     		nop
 2013              	.L115:
 765:Drivers/STM32H7xx_HAL_Driver/Src/stm32h7xx_hal_tim_ex.c ****   }
 766:Drivers/STM32H7xx_HAL_Driver/Src/stm32h7xx_hal_tim_ex.c **** 
 767:Drivers/STM32H7xx_HAL_Driver/Src/stm32h7xx_hal_tim_ex.c ****   if (status == HAL_OK)
 2014              		.loc 1 767 6
 2015 0104 FB7B     		ldrb	r3, [r7, #15]	@ zero_extendqisi2
 2016 0106 002B     		cmp	r3, #0
 2017 0108 5ED1     		bne	.L116
 768:Drivers/STM32H7xx_HAL_Driver/Src/stm32h7xx_hal_tim_ex.c ****   {
 769:Drivers/STM32H7xx_HAL_Driver/Src/stm32h7xx_hal_tim_ex.c ****     /* Enable the TIM Break interrupt */
 770:Drivers/STM32H7xx_HAL_Driver/Src/stm32h7xx_hal_tim_ex.c ****     __HAL_TIM_ENABLE_IT(htim, TIM_IT_BREAK);
 2018              		.loc 1 770 5
 2019 010a 7B68     		ldr	r3, [r7, #4]
 2020 010c 1B68     		ldr	r3, [r3]
 2021 010e DA68     		ldr	r2, [r3, #12]
 2022 0110 7B68     		ldr	r3, [r7, #4]
 2023 0112 1B68     		ldr	r3, [r3]
 2024 0114 42F08002 		orr	r2, r2, #128
 2025 0118 DA60     		str	r2, [r3, #12]
 771:Drivers/STM32H7xx_HAL_Driver/Src/stm32h7xx_hal_tim_ex.c **** 
 772:Drivers/STM32H7xx_HAL_Driver/Src/stm32h7xx_hal_tim_ex.c ****     /* Enable the Capture compare channel N */
 773:Drivers/STM32H7xx_HAL_Driver/Src/stm32h7xx_hal_tim_ex.c ****     TIM_CCxNChannelCmd(htim->Instance, Channel, TIM_CCxN_ENABLE);
 2026              		.loc 1 773 5
 2027 011a 7B68     		ldr	r3, [r7, #4]
 2028 011c 1B68     		ldr	r3, [r3]
 2029 011e 0422     		movs	r2, #4
 2030 0120 3968     		ldr	r1, [r7]
 2031 0122 1846     		mov	r0, r3
 2032 0124 FFF7FEFF 		bl	TIM_CCxNChannelCmd
 774:Drivers/STM32H7xx_HAL_Driver/Src/stm32h7xx_hal_tim_ex.c **** 
 775:Drivers/STM32H7xx_HAL_Driver/Src/stm32h7xx_hal_tim_ex.c ****     /* Enable the Main Output */
 776:Drivers/STM32H7xx_HAL_Driver/Src/stm32h7xx_hal_tim_ex.c ****     __HAL_TIM_MOE_ENABLE(htim);
ARM GAS  /var/folders/d0/cymppscj10lcmm48h781wrc80000gn/T//ccIjALm5.s 			page 50


 2033              		.loc 1 776 5
 2034 0128 7B68     		ldr	r3, [r7, #4]
 2035 012a 1B68     		ldr	r3, [r3]
 2036 012c 5A6C     		ldr	r2, [r3, #68]
 2037 012e 7B68     		ldr	r3, [r7, #4]
 2038 0130 1B68     		ldr	r3, [r3]
 2039 0132 42F40042 		orr	r2, r2, #32768
 2040 0136 5A64     		str	r2, [r3, #68]
 777:Drivers/STM32H7xx_HAL_Driver/Src/stm32h7xx_hal_tim_ex.c **** 
 778:Drivers/STM32H7xx_HAL_Driver/Src/stm32h7xx_hal_tim_ex.c ****     /* Enable the Peripheral, except in trigger mode where enable is automatically done with trigge
 779:Drivers/STM32H7xx_HAL_Driver/Src/stm32h7xx_hal_tim_ex.c ****     if (IS_TIM_SLAVE_INSTANCE(htim->Instance))
 2041              		.loc 1 779 9
 2042 0138 7B68     		ldr	r3, [r7, #4]
 2043 013a 1B68     		ldr	r3, [r3]
 2044              		.loc 1 779 8
 2045 013c 254A     		ldr	r2, .L121
 2046 013e 9342     		cmp	r3, r2
 2047 0140 22D0     		beq	.L117
 2048              		.loc 1 779 9 discriminator 1
 2049 0142 7B68     		ldr	r3, [r7, #4]
 2050 0144 1B68     		ldr	r3, [r3]
 2051 0146 B3F1804F 		cmp	r3, #1073741824
 2052 014a 1DD0     		beq	.L117
 2053              		.loc 1 779 9 is_stmt 0 discriminator 2
 2054 014c 7B68     		ldr	r3, [r7, #4]
 2055 014e 1B68     		ldr	r3, [r3]
 2056 0150 214A     		ldr	r2, .L121+4
 2057 0152 9342     		cmp	r3, r2
 2058 0154 18D0     		beq	.L117
 2059              		.loc 1 779 9 discriminator 3
 2060 0156 7B68     		ldr	r3, [r7, #4]
 2061 0158 1B68     		ldr	r3, [r3]
 2062 015a 204A     		ldr	r2, .L121+8
 2063 015c 9342     		cmp	r3, r2
 2064 015e 13D0     		beq	.L117
 2065              		.loc 1 779 9 discriminator 4
 2066 0160 7B68     		ldr	r3, [r7, #4]
 2067 0162 1B68     		ldr	r3, [r3]
 2068 0164 1E4A     		ldr	r2, .L121+12
 2069 0166 9342     		cmp	r3, r2
 2070 0168 0ED0     		beq	.L117
 2071              		.loc 1 779 9 discriminator 5
 2072 016a 7B68     		ldr	r3, [r7, #4]
 2073 016c 1B68     		ldr	r3, [r3]
 2074 016e 1D4A     		ldr	r2, .L121+16
 2075 0170 9342     		cmp	r3, r2
 2076 0172 09D0     		beq	.L117
 2077              		.loc 1 779 9 discriminator 6
 2078 0174 7B68     		ldr	r3, [r7, #4]
 2079 0176 1B68     		ldr	r3, [r3]
 2080 0178 1B4A     		ldr	r2, .L121+20
 2081 017a 9342     		cmp	r3, r2
 2082 017c 04D0     		beq	.L117
 2083              		.loc 1 779 9 discriminator 7
 2084 017e 7B68     		ldr	r3, [r7, #4]
 2085 0180 1B68     		ldr	r3, [r3]
 2086 0182 1A4A     		ldr	r2, .L121+24
ARM GAS  /var/folders/d0/cymppscj10lcmm48h781wrc80000gn/T//ccIjALm5.s 			page 51


 2087 0184 9342     		cmp	r3, r2
 2088 0186 15D1     		bne	.L118
 2089              	.L117:
 780:Drivers/STM32H7xx_HAL_Driver/Src/stm32h7xx_hal_tim_ex.c ****     {
 781:Drivers/STM32H7xx_HAL_Driver/Src/stm32h7xx_hal_tim_ex.c ****       tmpsmcr = htim->Instance->SMCR & TIM_SMCR_SMS;
 2090              		.loc 1 781 21 is_stmt 1
 2091 0188 7B68     		ldr	r3, [r7, #4]
 2092 018a 1B68     		ldr	r3, [r3]
 2093              		.loc 1 781 31
 2094 018c 9A68     		ldr	r2, [r3, #8]
 2095              		.loc 1 781 15
 2096 018e 184B     		ldr	r3, .L121+28
 2097 0190 1340     		ands	r3, r3, r2
 2098 0192 BB60     		str	r3, [r7, #8]
 782:Drivers/STM32H7xx_HAL_Driver/Src/stm32h7xx_hal_tim_ex.c ****       if (!IS_TIM_SLAVEMODE_TRIGGER_ENABLED(tmpsmcr))
 2099              		.loc 1 782 10
 2100 0194 BB68     		ldr	r3, [r7, #8]
 2101 0196 062B     		cmp	r3, #6
 2102 0198 15D0     		beq	.L120
 2103              		.loc 1 782 11 discriminator 1
 2104 019a BB68     		ldr	r3, [r7, #8]
 2105 019c B3F5803F 		cmp	r3, #65536
 2106 01a0 11D0     		beq	.L120
 783:Drivers/STM32H7xx_HAL_Driver/Src/stm32h7xx_hal_tim_ex.c ****       {
 784:Drivers/STM32H7xx_HAL_Driver/Src/stm32h7xx_hal_tim_ex.c ****         __HAL_TIM_ENABLE(htim);
 2107              		.loc 1 784 9
 2108 01a2 7B68     		ldr	r3, [r7, #4]
 2109 01a4 1B68     		ldr	r3, [r3]
 2110 01a6 1A68     		ldr	r2, [r3]
 2111 01a8 7B68     		ldr	r3, [r7, #4]
 2112 01aa 1B68     		ldr	r3, [r3]
 2113 01ac 42F00102 		orr	r2, r2, #1
 2114 01b0 1A60     		str	r2, [r3]
 782:Drivers/STM32H7xx_HAL_Driver/Src/stm32h7xx_hal_tim_ex.c ****       if (!IS_TIM_SLAVEMODE_TRIGGER_ENABLED(tmpsmcr))
 2115              		.loc 1 782 10
 2116 01b2 08E0     		b	.L120
 2117              	.L118:
 785:Drivers/STM32H7xx_HAL_Driver/Src/stm32h7xx_hal_tim_ex.c ****       }
 786:Drivers/STM32H7xx_HAL_Driver/Src/stm32h7xx_hal_tim_ex.c ****     }
 787:Drivers/STM32H7xx_HAL_Driver/Src/stm32h7xx_hal_tim_ex.c ****     else
 788:Drivers/STM32H7xx_HAL_Driver/Src/stm32h7xx_hal_tim_ex.c ****     {
 789:Drivers/STM32H7xx_HAL_Driver/Src/stm32h7xx_hal_tim_ex.c ****       __HAL_TIM_ENABLE(htim);
 2118              		.loc 1 789 7
 2119 01b4 7B68     		ldr	r3, [r7, #4]
 2120 01b6 1B68     		ldr	r3, [r3]
 2121 01b8 1A68     		ldr	r2, [r3]
 2122 01ba 7B68     		ldr	r3, [r7, #4]
 2123 01bc 1B68     		ldr	r3, [r3]
 2124 01be 42F00102 		orr	r2, r2, #1
 2125 01c2 1A60     		str	r2, [r3]
 2126 01c4 00E0     		b	.L116
 2127              	.L120:
 782:Drivers/STM32H7xx_HAL_Driver/Src/stm32h7xx_hal_tim_ex.c ****       {
 2128              		.loc 1 782 10
 2129 01c6 00BF     		nop
 2130              	.L116:
 790:Drivers/STM32H7xx_HAL_Driver/Src/stm32h7xx_hal_tim_ex.c ****     }
ARM GAS  /var/folders/d0/cymppscj10lcmm48h781wrc80000gn/T//ccIjALm5.s 			page 52


 791:Drivers/STM32H7xx_HAL_Driver/Src/stm32h7xx_hal_tim_ex.c ****   }
 792:Drivers/STM32H7xx_HAL_Driver/Src/stm32h7xx_hal_tim_ex.c **** 
 793:Drivers/STM32H7xx_HAL_Driver/Src/stm32h7xx_hal_tim_ex.c ****   /* Return function status */
 794:Drivers/STM32H7xx_HAL_Driver/Src/stm32h7xx_hal_tim_ex.c ****   return status;
 2131              		.loc 1 794 10
 2132 01c8 FB7B     		ldrb	r3, [r7, #15]	@ zero_extendqisi2
 2133              	.L104:
 795:Drivers/STM32H7xx_HAL_Driver/Src/stm32h7xx_hal_tim_ex.c **** }
 2134              		.loc 1 795 1
 2135 01ca 1846     		mov	r0, r3
 2136 01cc 1037     		adds	r7, r7, #16
 2137              	.LCFI65:
 2138              		.cfi_def_cfa_offset 8
 2139 01ce BD46     		mov	sp, r7
 2140              	.LCFI66:
 2141              		.cfi_def_cfa_register 13
 2142              		@ sp needed
 2143 01d0 80BD     		pop	{r7, pc}
 2144              	.L122:
 2145 01d2 00BF     		.align	2
 2146              	.L121:
 2147 01d4 00000140 		.word	1073807360
 2148 01d8 00040040 		.word	1073742848
 2149 01dc 00080040 		.word	1073743872
 2150 01e0 000C0040 		.word	1073744896
 2151 01e4 00040140 		.word	1073808384
 2152 01e8 00180040 		.word	1073747968
 2153 01ec 00400140 		.word	1073823744
 2154 01f0 07000100 		.word	65543
 2155              		.cfi_endproc
 2156              	.LFE345:
 2158              		.section	.text.HAL_TIMEx_OCN_Stop_IT,"ax",%progbits
 2159              		.align	1
 2160              		.global	HAL_TIMEx_OCN_Stop_IT
 2161              		.syntax unified
 2162              		.thumb
 2163              		.thumb_func
 2165              	HAL_TIMEx_OCN_Stop_IT:
 2166              	.LFB346:
 796:Drivers/STM32H7xx_HAL_Driver/Src/stm32h7xx_hal_tim_ex.c **** 
 797:Drivers/STM32H7xx_HAL_Driver/Src/stm32h7xx_hal_tim_ex.c **** /**
 798:Drivers/STM32H7xx_HAL_Driver/Src/stm32h7xx_hal_tim_ex.c ****   * @brief  Stops the TIM Output Compare signal generation in interrupt mode
 799:Drivers/STM32H7xx_HAL_Driver/Src/stm32h7xx_hal_tim_ex.c ****   *         on the complementary output.
 800:Drivers/STM32H7xx_HAL_Driver/Src/stm32h7xx_hal_tim_ex.c ****   * @param  htim TIM Output Compare handle
 801:Drivers/STM32H7xx_HAL_Driver/Src/stm32h7xx_hal_tim_ex.c ****   * @param  Channel TIM Channel to be disabled
 802:Drivers/STM32H7xx_HAL_Driver/Src/stm32h7xx_hal_tim_ex.c ****   *          This parameter can be one of the following values:
 803:Drivers/STM32H7xx_HAL_Driver/Src/stm32h7xx_hal_tim_ex.c ****   *            @arg TIM_CHANNEL_1: TIM Channel 1 selected
 804:Drivers/STM32H7xx_HAL_Driver/Src/stm32h7xx_hal_tim_ex.c ****   *            @arg TIM_CHANNEL_2: TIM Channel 2 selected
 805:Drivers/STM32H7xx_HAL_Driver/Src/stm32h7xx_hal_tim_ex.c ****   *            @arg TIM_CHANNEL_3: TIM Channel 3 selected
 806:Drivers/STM32H7xx_HAL_Driver/Src/stm32h7xx_hal_tim_ex.c ****   * @retval HAL status
 807:Drivers/STM32H7xx_HAL_Driver/Src/stm32h7xx_hal_tim_ex.c ****   */
 808:Drivers/STM32H7xx_HAL_Driver/Src/stm32h7xx_hal_tim_ex.c **** HAL_StatusTypeDef HAL_TIMEx_OCN_Stop_IT(TIM_HandleTypeDef *htim, uint32_t Channel)
 809:Drivers/STM32H7xx_HAL_Driver/Src/stm32h7xx_hal_tim_ex.c **** {
 2167              		.loc 1 809 1
 2168              		.cfi_startproc
 2169              		@ args = 0, pretend = 0, frame = 16
 2170              		@ frame_needed = 1, uses_anonymous_args = 0
ARM GAS  /var/folders/d0/cymppscj10lcmm48h781wrc80000gn/T//ccIjALm5.s 			page 53


 2171 0000 80B5     		push	{r7, lr}
 2172              	.LCFI67:
 2173              		.cfi_def_cfa_offset 8
 2174              		.cfi_offset 7, -8
 2175              		.cfi_offset 14, -4
 2176 0002 84B0     		sub	sp, sp, #16
 2177              	.LCFI68:
 2178              		.cfi_def_cfa_offset 24
 2179 0004 00AF     		add	r7, sp, #0
 2180              	.LCFI69:
 2181              		.cfi_def_cfa_register 7
 2182 0006 7860     		str	r0, [r7, #4]
 2183 0008 3960     		str	r1, [r7]
 810:Drivers/STM32H7xx_HAL_Driver/Src/stm32h7xx_hal_tim_ex.c ****   HAL_StatusTypeDef status = HAL_OK;
 2184              		.loc 1 810 21
 2185 000a 0023     		movs	r3, #0
 2186 000c FB73     		strb	r3, [r7, #15]
 811:Drivers/STM32H7xx_HAL_Driver/Src/stm32h7xx_hal_tim_ex.c ****   uint32_t tmpccer;
 812:Drivers/STM32H7xx_HAL_Driver/Src/stm32h7xx_hal_tim_ex.c **** 
 813:Drivers/STM32H7xx_HAL_Driver/Src/stm32h7xx_hal_tim_ex.c ****   /* Check the parameters */
 814:Drivers/STM32H7xx_HAL_Driver/Src/stm32h7xx_hal_tim_ex.c ****   assert_param(IS_TIM_CCXN_INSTANCE(htim->Instance, Channel));
 815:Drivers/STM32H7xx_HAL_Driver/Src/stm32h7xx_hal_tim_ex.c **** 
 816:Drivers/STM32H7xx_HAL_Driver/Src/stm32h7xx_hal_tim_ex.c ****   switch (Channel)
 2187              		.loc 1 816 3
 2188 000e 3B68     		ldr	r3, [r7]
 2189 0010 082B     		cmp	r3, #8
 2190 0012 1BD0     		beq	.L124
 2191 0014 3B68     		ldr	r3, [r7]
 2192 0016 082B     		cmp	r3, #8
 2193 0018 21D8     		bhi	.L125
 2194 001a 3B68     		ldr	r3, [r7]
 2195 001c 002B     		cmp	r3, #0
 2196 001e 03D0     		beq	.L126
 2197 0020 3B68     		ldr	r3, [r7]
 2198 0022 042B     		cmp	r3, #4
 2199 0024 09D0     		beq	.L127
 2200 0026 1AE0     		b	.L125
 2201              	.L126:
 817:Drivers/STM32H7xx_HAL_Driver/Src/stm32h7xx_hal_tim_ex.c ****   {
 818:Drivers/STM32H7xx_HAL_Driver/Src/stm32h7xx_hal_tim_ex.c ****     case TIM_CHANNEL_1:
 819:Drivers/STM32H7xx_HAL_Driver/Src/stm32h7xx_hal_tim_ex.c ****     {
 820:Drivers/STM32H7xx_HAL_Driver/Src/stm32h7xx_hal_tim_ex.c ****       /* Disable the TIM Output Compare interrupt */
 821:Drivers/STM32H7xx_HAL_Driver/Src/stm32h7xx_hal_tim_ex.c ****       __HAL_TIM_DISABLE_IT(htim, TIM_IT_CC1);
 2202              		.loc 1 821 7
 2203 0028 7B68     		ldr	r3, [r7, #4]
 2204 002a 1B68     		ldr	r3, [r3]
 2205 002c DA68     		ldr	r2, [r3, #12]
 2206 002e 7B68     		ldr	r3, [r7, #4]
 2207 0030 1B68     		ldr	r3, [r3]
 2208 0032 22F00202 		bic	r2, r2, #2
 2209 0036 DA60     		str	r2, [r3, #12]
 822:Drivers/STM32H7xx_HAL_Driver/Src/stm32h7xx_hal_tim_ex.c ****       break;
 2210              		.loc 1 822 7
 2211 0038 14E0     		b	.L128
 2212              	.L127:
 823:Drivers/STM32H7xx_HAL_Driver/Src/stm32h7xx_hal_tim_ex.c ****     }
 824:Drivers/STM32H7xx_HAL_Driver/Src/stm32h7xx_hal_tim_ex.c **** 
ARM GAS  /var/folders/d0/cymppscj10lcmm48h781wrc80000gn/T//ccIjALm5.s 			page 54


 825:Drivers/STM32H7xx_HAL_Driver/Src/stm32h7xx_hal_tim_ex.c ****     case TIM_CHANNEL_2:
 826:Drivers/STM32H7xx_HAL_Driver/Src/stm32h7xx_hal_tim_ex.c ****     {
 827:Drivers/STM32H7xx_HAL_Driver/Src/stm32h7xx_hal_tim_ex.c ****       /* Disable the TIM Output Compare interrupt */
 828:Drivers/STM32H7xx_HAL_Driver/Src/stm32h7xx_hal_tim_ex.c ****       __HAL_TIM_DISABLE_IT(htim, TIM_IT_CC2);
 2213              		.loc 1 828 7
 2214 003a 7B68     		ldr	r3, [r7, #4]
 2215 003c 1B68     		ldr	r3, [r3]
 2216 003e DA68     		ldr	r2, [r3, #12]
 2217 0040 7B68     		ldr	r3, [r7, #4]
 2218 0042 1B68     		ldr	r3, [r3]
 2219 0044 22F00402 		bic	r2, r2, #4
 2220 0048 DA60     		str	r2, [r3, #12]
 829:Drivers/STM32H7xx_HAL_Driver/Src/stm32h7xx_hal_tim_ex.c ****       break;
 2221              		.loc 1 829 7
 2222 004a 0BE0     		b	.L128
 2223              	.L124:
 830:Drivers/STM32H7xx_HAL_Driver/Src/stm32h7xx_hal_tim_ex.c ****     }
 831:Drivers/STM32H7xx_HAL_Driver/Src/stm32h7xx_hal_tim_ex.c **** 
 832:Drivers/STM32H7xx_HAL_Driver/Src/stm32h7xx_hal_tim_ex.c ****     case TIM_CHANNEL_3:
 833:Drivers/STM32H7xx_HAL_Driver/Src/stm32h7xx_hal_tim_ex.c ****     {
 834:Drivers/STM32H7xx_HAL_Driver/Src/stm32h7xx_hal_tim_ex.c ****       /* Disable the TIM Output Compare interrupt */
 835:Drivers/STM32H7xx_HAL_Driver/Src/stm32h7xx_hal_tim_ex.c ****       __HAL_TIM_DISABLE_IT(htim, TIM_IT_CC3);
 2224              		.loc 1 835 7
 2225 004c 7B68     		ldr	r3, [r7, #4]
 2226 004e 1B68     		ldr	r3, [r3]
 2227 0050 DA68     		ldr	r2, [r3, #12]
 2228 0052 7B68     		ldr	r3, [r7, #4]
 2229 0054 1B68     		ldr	r3, [r3]
 2230 0056 22F00802 		bic	r2, r2, #8
 2231 005a DA60     		str	r2, [r3, #12]
 836:Drivers/STM32H7xx_HAL_Driver/Src/stm32h7xx_hal_tim_ex.c ****       break;
 2232              		.loc 1 836 7
 2233 005c 02E0     		b	.L128
 2234              	.L125:
 837:Drivers/STM32H7xx_HAL_Driver/Src/stm32h7xx_hal_tim_ex.c ****     }
 838:Drivers/STM32H7xx_HAL_Driver/Src/stm32h7xx_hal_tim_ex.c **** 
 839:Drivers/STM32H7xx_HAL_Driver/Src/stm32h7xx_hal_tim_ex.c ****     default:
 840:Drivers/STM32H7xx_HAL_Driver/Src/stm32h7xx_hal_tim_ex.c ****       status = HAL_ERROR;
 2235              		.loc 1 840 14
 2236 005e 0123     		movs	r3, #1
 2237 0060 FB73     		strb	r3, [r7, #15]
 841:Drivers/STM32H7xx_HAL_Driver/Src/stm32h7xx_hal_tim_ex.c ****       break;
 2238              		.loc 1 841 7
 2239 0062 00BF     		nop
 2240              	.L128:
 842:Drivers/STM32H7xx_HAL_Driver/Src/stm32h7xx_hal_tim_ex.c ****   }
 843:Drivers/STM32H7xx_HAL_Driver/Src/stm32h7xx_hal_tim_ex.c **** 
 844:Drivers/STM32H7xx_HAL_Driver/Src/stm32h7xx_hal_tim_ex.c ****   if (status == HAL_OK)
 2241              		.loc 1 844 6
 2242 0064 FB7B     		ldrb	r3, [r7, #15]	@ zero_extendqisi2
 2243 0066 002B     		cmp	r3, #0
 2244 0068 64D1     		bne	.L129
 845:Drivers/STM32H7xx_HAL_Driver/Src/stm32h7xx_hal_tim_ex.c ****   {
 846:Drivers/STM32H7xx_HAL_Driver/Src/stm32h7xx_hal_tim_ex.c ****     /* Disable the Capture compare channel N */
 847:Drivers/STM32H7xx_HAL_Driver/Src/stm32h7xx_hal_tim_ex.c ****     TIM_CCxNChannelCmd(htim->Instance, Channel, TIM_CCxN_DISABLE);
 2245              		.loc 1 847 5
 2246 006a 7B68     		ldr	r3, [r7, #4]
ARM GAS  /var/folders/d0/cymppscj10lcmm48h781wrc80000gn/T//ccIjALm5.s 			page 55


 2247 006c 1B68     		ldr	r3, [r3]
 2248 006e 0022     		movs	r2, #0
 2249 0070 3968     		ldr	r1, [r7]
 2250 0072 1846     		mov	r0, r3
 2251 0074 FFF7FEFF 		bl	TIM_CCxNChannelCmd
 848:Drivers/STM32H7xx_HAL_Driver/Src/stm32h7xx_hal_tim_ex.c **** 
 849:Drivers/STM32H7xx_HAL_Driver/Src/stm32h7xx_hal_tim_ex.c ****     /* Disable the TIM Break interrupt (only if no more channel is active) */
 850:Drivers/STM32H7xx_HAL_Driver/Src/stm32h7xx_hal_tim_ex.c ****     tmpccer = htim->Instance->CCER;
 2252              		.loc 1 850 19
 2253 0078 7B68     		ldr	r3, [r7, #4]
 2254 007a 1B68     		ldr	r3, [r3]
 2255              		.loc 1 850 13
 2256 007c 1B6A     		ldr	r3, [r3, #32]
 2257 007e BB60     		str	r3, [r7, #8]
 851:Drivers/STM32H7xx_HAL_Driver/Src/stm32h7xx_hal_tim_ex.c ****     if ((tmpccer & (TIM_CCER_CC1NE | TIM_CCER_CC2NE | TIM_CCER_CC3NE)) == (uint32_t)RESET)
 2258              		.loc 1 851 18
 2259 0080 BA68     		ldr	r2, [r7, #8]
 2260 0082 40F24443 		movw	r3, #1092
 2261 0086 1340     		ands	r3, r3, r2
 2262              		.loc 1 851 8
 2263 0088 002B     		cmp	r3, #0
 2264 008a 07D1     		bne	.L130
 852:Drivers/STM32H7xx_HAL_Driver/Src/stm32h7xx_hal_tim_ex.c ****     {
 853:Drivers/STM32H7xx_HAL_Driver/Src/stm32h7xx_hal_tim_ex.c ****       __HAL_TIM_DISABLE_IT(htim, TIM_IT_BREAK);
 2265              		.loc 1 853 7
 2266 008c 7B68     		ldr	r3, [r7, #4]
 2267 008e 1B68     		ldr	r3, [r3]
 2268 0090 DA68     		ldr	r2, [r3, #12]
 2269 0092 7B68     		ldr	r3, [r7, #4]
 2270 0094 1B68     		ldr	r3, [r3]
 2271 0096 22F08002 		bic	r2, r2, #128
 2272 009a DA60     		str	r2, [r3, #12]
 2273              	.L130:
 854:Drivers/STM32H7xx_HAL_Driver/Src/stm32h7xx_hal_tim_ex.c ****     }
 855:Drivers/STM32H7xx_HAL_Driver/Src/stm32h7xx_hal_tim_ex.c **** 
 856:Drivers/STM32H7xx_HAL_Driver/Src/stm32h7xx_hal_tim_ex.c ****     /* Disable the Main Output */
 857:Drivers/STM32H7xx_HAL_Driver/Src/stm32h7xx_hal_tim_ex.c ****     __HAL_TIM_MOE_DISABLE(htim);
 2274              		.loc 1 857 5
 2275 009c 7B68     		ldr	r3, [r7, #4]
 2276 009e 1B68     		ldr	r3, [r3]
 2277 00a0 1A6A     		ldr	r2, [r3, #32]
 2278 00a2 41F21113 		movw	r3, #4369
 2279 00a6 1340     		ands	r3, r3, r2
 2280 00a8 002B     		cmp	r3, #0
 2281 00aa 0FD1     		bne	.L131
 2282              		.loc 1 857 5 is_stmt 0 discriminator 1
 2283 00ac 7B68     		ldr	r3, [r7, #4]
 2284 00ae 1B68     		ldr	r3, [r3]
 2285 00b0 1A6A     		ldr	r2, [r3, #32]
 2286 00b2 40F24443 		movw	r3, #1092
 2287 00b6 1340     		ands	r3, r3, r2
 2288 00b8 002B     		cmp	r3, #0
 2289 00ba 07D1     		bne	.L131
 2290              		.loc 1 857 5 discriminator 2
 2291 00bc 7B68     		ldr	r3, [r7, #4]
 2292 00be 1B68     		ldr	r3, [r3]
 2293 00c0 5A6C     		ldr	r2, [r3, #68]
ARM GAS  /var/folders/d0/cymppscj10lcmm48h781wrc80000gn/T//ccIjALm5.s 			page 56


 2294 00c2 7B68     		ldr	r3, [r7, #4]
 2295 00c4 1B68     		ldr	r3, [r3]
 2296 00c6 22F40042 		bic	r2, r2, #32768
 2297 00ca 5A64     		str	r2, [r3, #68]
 2298              	.L131:
 858:Drivers/STM32H7xx_HAL_Driver/Src/stm32h7xx_hal_tim_ex.c **** 
 859:Drivers/STM32H7xx_HAL_Driver/Src/stm32h7xx_hal_tim_ex.c ****     /* Disable the Peripheral */
 860:Drivers/STM32H7xx_HAL_Driver/Src/stm32h7xx_hal_tim_ex.c ****     __HAL_TIM_DISABLE(htim);
 2299              		.loc 1 860 5 is_stmt 1
 2300 00cc 7B68     		ldr	r3, [r7, #4]
 2301 00ce 1B68     		ldr	r3, [r3]
 2302 00d0 1A6A     		ldr	r2, [r3, #32]
 2303 00d2 41F21113 		movw	r3, #4369
 2304 00d6 1340     		ands	r3, r3, r2
 2305 00d8 002B     		cmp	r3, #0
 2306 00da 0FD1     		bne	.L132
 2307              		.loc 1 860 5 is_stmt 0 discriminator 1
 2308 00dc 7B68     		ldr	r3, [r7, #4]
 2309 00de 1B68     		ldr	r3, [r3]
 2310 00e0 1A6A     		ldr	r2, [r3, #32]
 2311 00e2 40F24443 		movw	r3, #1092
 2312 00e6 1340     		ands	r3, r3, r2
 2313 00e8 002B     		cmp	r3, #0
 2314 00ea 07D1     		bne	.L132
 2315              		.loc 1 860 5 discriminator 2
 2316 00ec 7B68     		ldr	r3, [r7, #4]
 2317 00ee 1B68     		ldr	r3, [r3]
 2318 00f0 1A68     		ldr	r2, [r3]
 2319 00f2 7B68     		ldr	r3, [r7, #4]
 2320 00f4 1B68     		ldr	r3, [r3]
 2321 00f6 22F00102 		bic	r2, r2, #1
 2322 00fa 1A60     		str	r2, [r3]
 2323              	.L132:
 861:Drivers/STM32H7xx_HAL_Driver/Src/stm32h7xx_hal_tim_ex.c **** 
 862:Drivers/STM32H7xx_HAL_Driver/Src/stm32h7xx_hal_tim_ex.c ****     /* Set the TIM complementary channel state */
 863:Drivers/STM32H7xx_HAL_Driver/Src/stm32h7xx_hal_tim_ex.c ****     TIM_CHANNEL_N_STATE_SET(htim, Channel, HAL_TIM_CHANNEL_STATE_READY);
 2324              		.loc 1 863 5 is_stmt 1
 2325 00fc 3B68     		ldr	r3, [r7]
 2326 00fe 002B     		cmp	r3, #0
 2327 0100 04D1     		bne	.L133
 2328              		.loc 1 863 5 is_stmt 0 discriminator 1
 2329 0102 7B68     		ldr	r3, [r7, #4]
 2330 0104 0122     		movs	r2, #1
 2331 0106 83F84420 		strb	r2, [r3, #68]
 2332 010a 13E0     		b	.L129
 2333              	.L133:
 2334              		.loc 1 863 5 discriminator 2
 2335 010c 3B68     		ldr	r3, [r7]
 2336 010e 042B     		cmp	r3, #4
 2337 0110 04D1     		bne	.L134
 2338              		.loc 1 863 5 discriminator 3
 2339 0112 7B68     		ldr	r3, [r7, #4]
 2340 0114 0122     		movs	r2, #1
 2341 0116 83F84520 		strb	r2, [r3, #69]
 2342 011a 0BE0     		b	.L129
 2343              	.L134:
 2344              		.loc 1 863 5 discriminator 4
ARM GAS  /var/folders/d0/cymppscj10lcmm48h781wrc80000gn/T//ccIjALm5.s 			page 57


 2345 011c 3B68     		ldr	r3, [r7]
 2346 011e 082B     		cmp	r3, #8
 2347 0120 04D1     		bne	.L136
 2348              		.loc 1 863 5 discriminator 6
 2349 0122 7B68     		ldr	r3, [r7, #4]
 2350 0124 0122     		movs	r2, #1
 2351 0126 83F84620 		strb	r2, [r3, #70]
 2352 012a 03E0     		b	.L129
 2353              	.L136:
 2354              		.loc 1 863 5 discriminator 7
 2355 012c 7B68     		ldr	r3, [r7, #4]
 2356 012e 0122     		movs	r2, #1
 2357 0130 83F84720 		strb	r2, [r3, #71]
 2358              	.L129:
 864:Drivers/STM32H7xx_HAL_Driver/Src/stm32h7xx_hal_tim_ex.c ****   }
 865:Drivers/STM32H7xx_HAL_Driver/Src/stm32h7xx_hal_tim_ex.c **** 
 866:Drivers/STM32H7xx_HAL_Driver/Src/stm32h7xx_hal_tim_ex.c ****   /* Return function status */
 867:Drivers/STM32H7xx_HAL_Driver/Src/stm32h7xx_hal_tim_ex.c ****   return status;
 2359              		.loc 1 867 10 is_stmt 1
 2360 0134 FB7B     		ldrb	r3, [r7, #15]	@ zero_extendqisi2
 868:Drivers/STM32H7xx_HAL_Driver/Src/stm32h7xx_hal_tim_ex.c **** }
 2361              		.loc 1 868 1
 2362 0136 1846     		mov	r0, r3
 2363 0138 1037     		adds	r7, r7, #16
 2364              	.LCFI70:
 2365              		.cfi_def_cfa_offset 8
 2366 013a BD46     		mov	sp, r7
 2367              	.LCFI71:
 2368              		.cfi_def_cfa_register 13
 2369              		@ sp needed
 2370 013c 80BD     		pop	{r7, pc}
 2371              		.cfi_endproc
 2372              	.LFE346:
 2374              		.section	.text.HAL_TIMEx_OCN_Start_DMA,"ax",%progbits
 2375              		.align	1
 2376              		.global	HAL_TIMEx_OCN_Start_DMA
 2377              		.syntax unified
 2378              		.thumb
 2379              		.thumb_func
 2381              	HAL_TIMEx_OCN_Start_DMA:
 2382              	.LFB347:
 869:Drivers/STM32H7xx_HAL_Driver/Src/stm32h7xx_hal_tim_ex.c **** 
 870:Drivers/STM32H7xx_HAL_Driver/Src/stm32h7xx_hal_tim_ex.c **** /**
 871:Drivers/STM32H7xx_HAL_Driver/Src/stm32h7xx_hal_tim_ex.c ****   * @brief  Starts the TIM Output Compare signal generation in DMA mode
 872:Drivers/STM32H7xx_HAL_Driver/Src/stm32h7xx_hal_tim_ex.c ****   *         on the complementary output.
 873:Drivers/STM32H7xx_HAL_Driver/Src/stm32h7xx_hal_tim_ex.c ****   * @param  htim TIM Output Compare handle
 874:Drivers/STM32H7xx_HAL_Driver/Src/stm32h7xx_hal_tim_ex.c ****   * @param  Channel TIM Channel to be enabled
 875:Drivers/STM32H7xx_HAL_Driver/Src/stm32h7xx_hal_tim_ex.c ****   *          This parameter can be one of the following values:
 876:Drivers/STM32H7xx_HAL_Driver/Src/stm32h7xx_hal_tim_ex.c ****   *            @arg TIM_CHANNEL_1: TIM Channel 1 selected
 877:Drivers/STM32H7xx_HAL_Driver/Src/stm32h7xx_hal_tim_ex.c ****   *            @arg TIM_CHANNEL_2: TIM Channel 2 selected
 878:Drivers/STM32H7xx_HAL_Driver/Src/stm32h7xx_hal_tim_ex.c ****   *            @arg TIM_CHANNEL_3: TIM Channel 3 selected
 879:Drivers/STM32H7xx_HAL_Driver/Src/stm32h7xx_hal_tim_ex.c ****   * @param  pData The source Buffer address.
 880:Drivers/STM32H7xx_HAL_Driver/Src/stm32h7xx_hal_tim_ex.c ****   * @param  Length The length of data to be transferred from memory to TIM peripheral
 881:Drivers/STM32H7xx_HAL_Driver/Src/stm32h7xx_hal_tim_ex.c ****   * @retval HAL status
 882:Drivers/STM32H7xx_HAL_Driver/Src/stm32h7xx_hal_tim_ex.c ****   */
 883:Drivers/STM32H7xx_HAL_Driver/Src/stm32h7xx_hal_tim_ex.c **** HAL_StatusTypeDef HAL_TIMEx_OCN_Start_DMA(TIM_HandleTypeDef *htim, uint32_t Channel, uint32_t *pDat
 884:Drivers/STM32H7xx_HAL_Driver/Src/stm32h7xx_hal_tim_ex.c **** {
ARM GAS  /var/folders/d0/cymppscj10lcmm48h781wrc80000gn/T//ccIjALm5.s 			page 58


 2383              		.loc 1 884 1
 2384              		.cfi_startproc
 2385              		@ args = 0, pretend = 0, frame = 24
 2386              		@ frame_needed = 1, uses_anonymous_args = 0
 2387 0000 80B5     		push	{r7, lr}
 2388              	.LCFI72:
 2389              		.cfi_def_cfa_offset 8
 2390              		.cfi_offset 7, -8
 2391              		.cfi_offset 14, -4
 2392 0002 86B0     		sub	sp, sp, #24
 2393              	.LCFI73:
 2394              		.cfi_def_cfa_offset 32
 2395 0004 00AF     		add	r7, sp, #0
 2396              	.LCFI74:
 2397              		.cfi_def_cfa_register 7
 2398 0006 F860     		str	r0, [r7, #12]
 2399 0008 B960     		str	r1, [r7, #8]
 2400 000a 7A60     		str	r2, [r7, #4]
 2401 000c 7B80     		strh	r3, [r7, #2]	@ movhi
 885:Drivers/STM32H7xx_HAL_Driver/Src/stm32h7xx_hal_tim_ex.c ****   HAL_StatusTypeDef status = HAL_OK;
 2402              		.loc 1 885 21
 2403 000e 0023     		movs	r3, #0
 2404 0010 FB75     		strb	r3, [r7, #23]
 886:Drivers/STM32H7xx_HAL_Driver/Src/stm32h7xx_hal_tim_ex.c ****   uint32_t tmpsmcr;
 887:Drivers/STM32H7xx_HAL_Driver/Src/stm32h7xx_hal_tim_ex.c **** 
 888:Drivers/STM32H7xx_HAL_Driver/Src/stm32h7xx_hal_tim_ex.c ****   /* Check the parameters */
 889:Drivers/STM32H7xx_HAL_Driver/Src/stm32h7xx_hal_tim_ex.c ****   assert_param(IS_TIM_CCXN_INSTANCE(htim->Instance, Channel));
 890:Drivers/STM32H7xx_HAL_Driver/Src/stm32h7xx_hal_tim_ex.c **** 
 891:Drivers/STM32H7xx_HAL_Driver/Src/stm32h7xx_hal_tim_ex.c ****   /* Set the TIM complementary channel state */
 892:Drivers/STM32H7xx_HAL_Driver/Src/stm32h7xx_hal_tim_ex.c ****   if (TIM_CHANNEL_N_STATE_GET(htim, Channel) == HAL_TIM_CHANNEL_STATE_BUSY)
 2405              		.loc 1 892 46
 2406 0012 BB68     		ldr	r3, [r7, #8]
 2407 0014 002B     		cmp	r3, #0
 2408 0016 09D1     		bne	.L140
 2409              		.loc 1 892 7 discriminator 1
 2410 0018 FB68     		ldr	r3, [r7, #12]
 2411 001a 93F84430 		ldrb	r3, [r3, #68]
 2412 001e DBB2     		uxtb	r3, r3
 2413              		.loc 1 892 46 discriminator 1
 2414 0020 022B     		cmp	r3, #2
 2415 0022 0CBF     		ite	eq
 2416 0024 0123     		moveq	r3, #1
 2417 0026 0023     		movne	r3, #0
 2418 0028 DBB2     		uxtb	r3, r3
 2419 002a 22E0     		b	.L141
 2420              	.L140:
 2421              		.loc 1 892 46 is_stmt 0 discriminator 2
 2422 002c BB68     		ldr	r3, [r7, #8]
 2423 002e 042B     		cmp	r3, #4
 2424 0030 09D1     		bne	.L142
 2425              		.loc 1 892 7 is_stmt 1 discriminator 4
 2426 0032 FB68     		ldr	r3, [r7, #12]
 2427 0034 93F84530 		ldrb	r3, [r3, #69]
 2428 0038 DBB2     		uxtb	r3, r3
 2429              		.loc 1 892 46 discriminator 4
 2430 003a 022B     		cmp	r3, #2
 2431 003c 0CBF     		ite	eq
ARM GAS  /var/folders/d0/cymppscj10lcmm48h781wrc80000gn/T//ccIjALm5.s 			page 59


 2432 003e 0123     		moveq	r3, #1
 2433 0040 0023     		movne	r3, #0
 2434 0042 DBB2     		uxtb	r3, r3
 2435 0044 15E0     		b	.L141
 2436              	.L142:
 2437              		.loc 1 892 46 is_stmt 0 discriminator 5
 2438 0046 BB68     		ldr	r3, [r7, #8]
 2439 0048 082B     		cmp	r3, #8
 2440 004a 09D1     		bne	.L144
 2441              		.loc 1 892 7 is_stmt 1 discriminator 7
 2442 004c FB68     		ldr	r3, [r7, #12]
 2443 004e 93F84630 		ldrb	r3, [r3, #70]
 2444 0052 DBB2     		uxtb	r3, r3
 2445              		.loc 1 892 46 discriminator 7
 2446 0054 022B     		cmp	r3, #2
 2447 0056 0CBF     		ite	eq
 2448 0058 0123     		moveq	r3, #1
 2449 005a 0023     		movne	r3, #0
 2450 005c DBB2     		uxtb	r3, r3
 2451 005e 08E0     		b	.L141
 2452              	.L144:
 2453              		.loc 1 892 7 discriminator 8
 2454 0060 FB68     		ldr	r3, [r7, #12]
 2455 0062 93F84730 		ldrb	r3, [r3, #71]
 2456 0066 DBB2     		uxtb	r3, r3
 2457              		.loc 1 892 46 discriminator 8
 2458 0068 022B     		cmp	r3, #2
 2459 006a 0CBF     		ite	eq
 2460 006c 0123     		moveq	r3, #1
 2461 006e 0023     		movne	r3, #0
 2462 0070 DBB2     		uxtb	r3, r3
 2463              	.L141:
 2464              		.loc 1 892 6 discriminator 12
 2465 0072 002B     		cmp	r3, #0
 2466 0074 01D0     		beq	.L146
 893:Drivers/STM32H7xx_HAL_Driver/Src/stm32h7xx_hal_tim_ex.c ****   {
 894:Drivers/STM32H7xx_HAL_Driver/Src/stm32h7xx_hal_tim_ex.c ****     return HAL_BUSY;
 2467              		.loc 1 894 12
 2468 0076 0223     		movs	r3, #2
 2469 0078 2FE1     		b	.L147
 2470              	.L146:
 895:Drivers/STM32H7xx_HAL_Driver/Src/stm32h7xx_hal_tim_ex.c ****   }
 896:Drivers/STM32H7xx_HAL_Driver/Src/stm32h7xx_hal_tim_ex.c ****   else if (TIM_CHANNEL_N_STATE_GET(htim, Channel) == HAL_TIM_CHANNEL_STATE_READY)
 2471              		.loc 1 896 51
 2472 007a BB68     		ldr	r3, [r7, #8]
 2473 007c 002B     		cmp	r3, #0
 2474 007e 09D1     		bne	.L148
 2475              		.loc 1 896 12 discriminator 1
 2476 0080 FB68     		ldr	r3, [r7, #12]
 2477 0082 93F84430 		ldrb	r3, [r3, #68]
 2478 0086 DBB2     		uxtb	r3, r3
 2479              		.loc 1 896 51 discriminator 1
 2480 0088 012B     		cmp	r3, #1
 2481 008a 0CBF     		ite	eq
 2482 008c 0123     		moveq	r3, #1
 2483 008e 0023     		movne	r3, #0
 2484 0090 DBB2     		uxtb	r3, r3
ARM GAS  /var/folders/d0/cymppscj10lcmm48h781wrc80000gn/T//ccIjALm5.s 			page 60


 2485 0092 22E0     		b	.L149
 2486              	.L148:
 2487              		.loc 1 896 51 is_stmt 0 discriminator 2
 2488 0094 BB68     		ldr	r3, [r7, #8]
 2489 0096 042B     		cmp	r3, #4
 2490 0098 09D1     		bne	.L150
 2491              		.loc 1 896 12 is_stmt 1 discriminator 4
 2492 009a FB68     		ldr	r3, [r7, #12]
 2493 009c 93F84530 		ldrb	r3, [r3, #69]
 2494 00a0 DBB2     		uxtb	r3, r3
 2495              		.loc 1 896 51 discriminator 4
 2496 00a2 012B     		cmp	r3, #1
 2497 00a4 0CBF     		ite	eq
 2498 00a6 0123     		moveq	r3, #1
 2499 00a8 0023     		movne	r3, #0
 2500 00aa DBB2     		uxtb	r3, r3
 2501 00ac 15E0     		b	.L149
 2502              	.L150:
 2503              		.loc 1 896 51 is_stmt 0 discriminator 5
 2504 00ae BB68     		ldr	r3, [r7, #8]
 2505 00b0 082B     		cmp	r3, #8
 2506 00b2 09D1     		bne	.L152
 2507              		.loc 1 896 12 is_stmt 1 discriminator 7
 2508 00b4 FB68     		ldr	r3, [r7, #12]
 2509 00b6 93F84630 		ldrb	r3, [r3, #70]
 2510 00ba DBB2     		uxtb	r3, r3
 2511              		.loc 1 896 51 discriminator 7
 2512 00bc 012B     		cmp	r3, #1
 2513 00be 0CBF     		ite	eq
 2514 00c0 0123     		moveq	r3, #1
 2515 00c2 0023     		movne	r3, #0
 2516 00c4 DBB2     		uxtb	r3, r3
 2517 00c6 08E0     		b	.L149
 2518              	.L152:
 2519              		.loc 1 896 12 discriminator 8
 2520 00c8 FB68     		ldr	r3, [r7, #12]
 2521 00ca 93F84730 		ldrb	r3, [r3, #71]
 2522 00ce DBB2     		uxtb	r3, r3
 2523              		.loc 1 896 51 discriminator 8
 2524 00d0 012B     		cmp	r3, #1
 2525 00d2 0CBF     		ite	eq
 2526 00d4 0123     		moveq	r3, #1
 2527 00d6 0023     		movne	r3, #0
 2528 00d8 DBB2     		uxtb	r3, r3
 2529              	.L149:
 2530              		.loc 1 896 11 discriminator 12
 2531 00da 002B     		cmp	r3, #0
 2532 00dc 24D0     		beq	.L154
 897:Drivers/STM32H7xx_HAL_Driver/Src/stm32h7xx_hal_tim_ex.c ****   {
 898:Drivers/STM32H7xx_HAL_Driver/Src/stm32h7xx_hal_tim_ex.c ****     if ((pData == NULL) && (Length > 0U))
 2533              		.loc 1 898 8
 2534 00de 7B68     		ldr	r3, [r7, #4]
 2535 00e0 002B     		cmp	r3, #0
 2536 00e2 04D1     		bne	.L155
 2537              		.loc 1 898 25 discriminator 1
 2538 00e4 7B88     		ldrh	r3, [r7, #2]
 2539 00e6 002B     		cmp	r3, #0
ARM GAS  /var/folders/d0/cymppscj10lcmm48h781wrc80000gn/T//ccIjALm5.s 			page 61


 2540 00e8 01D0     		beq	.L155
 899:Drivers/STM32H7xx_HAL_Driver/Src/stm32h7xx_hal_tim_ex.c ****     {
 900:Drivers/STM32H7xx_HAL_Driver/Src/stm32h7xx_hal_tim_ex.c ****       return HAL_ERROR;
 2541              		.loc 1 900 14
 2542 00ea 0123     		movs	r3, #1
 2543 00ec F5E0     		b	.L147
 2544              	.L155:
 901:Drivers/STM32H7xx_HAL_Driver/Src/stm32h7xx_hal_tim_ex.c ****     }
 902:Drivers/STM32H7xx_HAL_Driver/Src/stm32h7xx_hal_tim_ex.c ****     else
 903:Drivers/STM32H7xx_HAL_Driver/Src/stm32h7xx_hal_tim_ex.c ****     {
 904:Drivers/STM32H7xx_HAL_Driver/Src/stm32h7xx_hal_tim_ex.c ****       TIM_CHANNEL_N_STATE_SET(htim, Channel, HAL_TIM_CHANNEL_STATE_BUSY);
 2545              		.loc 1 904 7
 2546 00ee BB68     		ldr	r3, [r7, #8]
 2547 00f0 002B     		cmp	r3, #0
 2548 00f2 04D1     		bne	.L156
 2549              		.loc 1 904 7 is_stmt 0 discriminator 1
 2550 00f4 FB68     		ldr	r3, [r7, #12]
 2551 00f6 0222     		movs	r2, #2
 2552 00f8 83F84420 		strb	r2, [r3, #68]
 2553 00fc 16E0     		b	.L157
 2554              	.L156:
 2555              		.loc 1 904 7 discriminator 2
 2556 00fe BB68     		ldr	r3, [r7, #8]
 2557 0100 042B     		cmp	r3, #4
 2558 0102 04D1     		bne	.L158
 2559              		.loc 1 904 7 discriminator 3
 2560 0104 FB68     		ldr	r3, [r7, #12]
 2561 0106 0222     		movs	r2, #2
 2562 0108 83F84520 		strb	r2, [r3, #69]
 2563 010c 0EE0     		b	.L157
 2564              	.L158:
 2565              		.loc 1 904 7 discriminator 4
 2566 010e BB68     		ldr	r3, [r7, #8]
 2567 0110 082B     		cmp	r3, #8
 2568 0112 04D1     		bne	.L160
 2569              		.loc 1 904 7 discriminator 6
 2570 0114 FB68     		ldr	r3, [r7, #12]
 2571 0116 0222     		movs	r2, #2
 2572 0118 83F84620 		strb	r2, [r3, #70]
 2573 011c 06E0     		b	.L157
 2574              	.L160:
 2575              		.loc 1 904 7 discriminator 7
 2576 011e FB68     		ldr	r3, [r7, #12]
 2577 0120 0222     		movs	r2, #2
 2578 0122 83F84720 		strb	r2, [r3, #71]
 2579 0126 01E0     		b	.L157
 2580              	.L154:
 905:Drivers/STM32H7xx_HAL_Driver/Src/stm32h7xx_hal_tim_ex.c ****     }
 906:Drivers/STM32H7xx_HAL_Driver/Src/stm32h7xx_hal_tim_ex.c ****   }
 907:Drivers/STM32H7xx_HAL_Driver/Src/stm32h7xx_hal_tim_ex.c ****   else
 908:Drivers/STM32H7xx_HAL_Driver/Src/stm32h7xx_hal_tim_ex.c ****   {
 909:Drivers/STM32H7xx_HAL_Driver/Src/stm32h7xx_hal_tim_ex.c ****     return HAL_ERROR;
 2581              		.loc 1 909 12 is_stmt 1
 2582 0128 0123     		movs	r3, #1
 2583 012a D6E0     		b	.L147
 2584              	.L157:
 910:Drivers/STM32H7xx_HAL_Driver/Src/stm32h7xx_hal_tim_ex.c ****   }
ARM GAS  /var/folders/d0/cymppscj10lcmm48h781wrc80000gn/T//ccIjALm5.s 			page 62


 911:Drivers/STM32H7xx_HAL_Driver/Src/stm32h7xx_hal_tim_ex.c **** 
 912:Drivers/STM32H7xx_HAL_Driver/Src/stm32h7xx_hal_tim_ex.c ****   switch (Channel)
 2585              		.loc 1 912 3
 2586 012c BB68     		ldr	r3, [r7, #8]
 2587 012e 082B     		cmp	r3, #8
 2588 0130 51D0     		beq	.L162
 2589 0132 BB68     		ldr	r3, [r7, #8]
 2590 0134 082B     		cmp	r3, #8
 2591 0136 72D8     		bhi	.L163
 2592 0138 BB68     		ldr	r3, [r7, #8]
 2593 013a 002B     		cmp	r3, #0
 2594 013c 03D0     		beq	.L164
 2595 013e BB68     		ldr	r3, [r7, #8]
 2596 0140 042B     		cmp	r3, #4
 2597 0142 24D0     		beq	.L165
 2598 0144 6BE0     		b	.L163
 2599              	.L164:
 913:Drivers/STM32H7xx_HAL_Driver/Src/stm32h7xx_hal_tim_ex.c ****   {
 914:Drivers/STM32H7xx_HAL_Driver/Src/stm32h7xx_hal_tim_ex.c ****     case TIM_CHANNEL_1:
 915:Drivers/STM32H7xx_HAL_Driver/Src/stm32h7xx_hal_tim_ex.c ****     {
 916:Drivers/STM32H7xx_HAL_Driver/Src/stm32h7xx_hal_tim_ex.c ****       /* Set the DMA compare callbacks */
 917:Drivers/STM32H7xx_HAL_Driver/Src/stm32h7xx_hal_tim_ex.c ****       htim->hdma[TIM_DMA_ID_CC1]->XferCpltCallback = TIM_DMADelayPulseNCplt;
 2600              		.loc 1 917 17
 2601 0146 FB68     		ldr	r3, [r7, #12]
 2602 0148 5B6A     		ldr	r3, [r3, #36]
 2603              		.loc 1 917 52
 2604 014a 664A     		ldr	r2, .L175
 2605 014c DA63     		str	r2, [r3, #60]
 918:Drivers/STM32H7xx_HAL_Driver/Src/stm32h7xx_hal_tim_ex.c ****       htim->hdma[TIM_DMA_ID_CC1]->XferHalfCpltCallback = TIM_DMADelayPulseHalfCplt;
 2606              		.loc 1 918 17
 2607 014e FB68     		ldr	r3, [r7, #12]
 2608 0150 5B6A     		ldr	r3, [r3, #36]
 2609              		.loc 1 918 56
 2610 0152 654A     		ldr	r2, .L175+4
 2611 0154 1A64     		str	r2, [r3, #64]
 919:Drivers/STM32H7xx_HAL_Driver/Src/stm32h7xx_hal_tim_ex.c **** 
 920:Drivers/STM32H7xx_HAL_Driver/Src/stm32h7xx_hal_tim_ex.c ****       /* Set the DMA error callback */
 921:Drivers/STM32H7xx_HAL_Driver/Src/stm32h7xx_hal_tim_ex.c ****       htim->hdma[TIM_DMA_ID_CC1]->XferErrorCallback = TIM_DMAErrorCCxN ;
 2612              		.loc 1 921 17
 2613 0156 FB68     		ldr	r3, [r7, #12]
 2614 0158 5B6A     		ldr	r3, [r3, #36]
 2615              		.loc 1 921 53
 2616 015a 644A     		ldr	r2, .L175+8
 2617 015c DA64     		str	r2, [r3, #76]
 922:Drivers/STM32H7xx_HAL_Driver/Src/stm32h7xx_hal_tim_ex.c **** 
 923:Drivers/STM32H7xx_HAL_Driver/Src/stm32h7xx_hal_tim_ex.c ****       /* Enable the DMA stream */
 924:Drivers/STM32H7xx_HAL_Driver/Src/stm32h7xx_hal_tim_ex.c ****       if (HAL_DMA_Start_IT(htim->hdma[TIM_DMA_ID_CC1], (uint32_t)pData, (uint32_t)&htim->Instance->
 2618              		.loc 1 924 11
 2619 015e FB68     		ldr	r3, [r7, #12]
 2620 0160 586A     		ldr	r0, [r3, #36]
 2621 0162 7968     		ldr	r1, [r7, #4]
 2622              		.loc 1 924 88
 2623 0164 FB68     		ldr	r3, [r7, #12]
 2624 0166 1B68     		ldr	r3, [r3]
 2625              		.loc 1 924 83
 2626 0168 3433     		adds	r3, r3, #52
 2627              		.loc 1 924 11
ARM GAS  /var/folders/d0/cymppscj10lcmm48h781wrc80000gn/T//ccIjALm5.s 			page 63


 2628 016a 1A46     		mov	r2, r3
 2629 016c 7B88     		ldrh	r3, [r7, #2]
 2630 016e FFF7FEFF 		bl	HAL_DMA_Start_IT
 2631 0172 0346     		mov	r3, r0
 2632              		.loc 1 924 10
 2633 0174 002B     		cmp	r3, #0
 2634 0176 01D0     		beq	.L166
 925:Drivers/STM32H7xx_HAL_Driver/Src/stm32h7xx_hal_tim_ex.c ****                            Length) != HAL_OK)
 926:Drivers/STM32H7xx_HAL_Driver/Src/stm32h7xx_hal_tim_ex.c ****       {
 927:Drivers/STM32H7xx_HAL_Driver/Src/stm32h7xx_hal_tim_ex.c ****         /* Return error status */
 928:Drivers/STM32H7xx_HAL_Driver/Src/stm32h7xx_hal_tim_ex.c ****         return HAL_ERROR;
 2635              		.loc 1 928 16
 2636 0178 0123     		movs	r3, #1
 2637 017a AEE0     		b	.L147
 2638              	.L166:
 929:Drivers/STM32H7xx_HAL_Driver/Src/stm32h7xx_hal_tim_ex.c ****       }
 930:Drivers/STM32H7xx_HAL_Driver/Src/stm32h7xx_hal_tim_ex.c ****       /* Enable the TIM Output Compare DMA request */
 931:Drivers/STM32H7xx_HAL_Driver/Src/stm32h7xx_hal_tim_ex.c ****       __HAL_TIM_ENABLE_DMA(htim, TIM_DMA_CC1);
 2639              		.loc 1 931 7
 2640 017c FB68     		ldr	r3, [r7, #12]
 2641 017e 1B68     		ldr	r3, [r3]
 2642 0180 DA68     		ldr	r2, [r3, #12]
 2643 0182 FB68     		ldr	r3, [r7, #12]
 2644 0184 1B68     		ldr	r3, [r3]
 2645 0186 42F40072 		orr	r2, r2, #512
 2646 018a DA60     		str	r2, [r3, #12]
 932:Drivers/STM32H7xx_HAL_Driver/Src/stm32h7xx_hal_tim_ex.c ****       break;
 2647              		.loc 1 932 7
 2648 018c 4AE0     		b	.L167
 2649              	.L165:
 933:Drivers/STM32H7xx_HAL_Driver/Src/stm32h7xx_hal_tim_ex.c ****     }
 934:Drivers/STM32H7xx_HAL_Driver/Src/stm32h7xx_hal_tim_ex.c **** 
 935:Drivers/STM32H7xx_HAL_Driver/Src/stm32h7xx_hal_tim_ex.c ****     case TIM_CHANNEL_2:
 936:Drivers/STM32H7xx_HAL_Driver/Src/stm32h7xx_hal_tim_ex.c ****     {
 937:Drivers/STM32H7xx_HAL_Driver/Src/stm32h7xx_hal_tim_ex.c ****       /* Set the DMA compare callbacks */
 938:Drivers/STM32H7xx_HAL_Driver/Src/stm32h7xx_hal_tim_ex.c ****       htim->hdma[TIM_DMA_ID_CC2]->XferCpltCallback = TIM_DMADelayPulseNCplt;
 2650              		.loc 1 938 17
 2651 018e FB68     		ldr	r3, [r7, #12]
 2652 0190 9B6A     		ldr	r3, [r3, #40]
 2653              		.loc 1 938 52
 2654 0192 544A     		ldr	r2, .L175
 2655 0194 DA63     		str	r2, [r3, #60]
 939:Drivers/STM32H7xx_HAL_Driver/Src/stm32h7xx_hal_tim_ex.c ****       htim->hdma[TIM_DMA_ID_CC2]->XferHalfCpltCallback = TIM_DMADelayPulseHalfCplt;
 2656              		.loc 1 939 17
 2657 0196 FB68     		ldr	r3, [r7, #12]
 2658 0198 9B6A     		ldr	r3, [r3, #40]
 2659              		.loc 1 939 56
 2660 019a 534A     		ldr	r2, .L175+4
 2661 019c 1A64     		str	r2, [r3, #64]
 940:Drivers/STM32H7xx_HAL_Driver/Src/stm32h7xx_hal_tim_ex.c **** 
 941:Drivers/STM32H7xx_HAL_Driver/Src/stm32h7xx_hal_tim_ex.c ****       /* Set the DMA error callback */
 942:Drivers/STM32H7xx_HAL_Driver/Src/stm32h7xx_hal_tim_ex.c ****       htim->hdma[TIM_DMA_ID_CC2]->XferErrorCallback = TIM_DMAErrorCCxN ;
 2662              		.loc 1 942 17
 2663 019e FB68     		ldr	r3, [r7, #12]
 2664 01a0 9B6A     		ldr	r3, [r3, #40]
 2665              		.loc 1 942 53
 2666 01a2 524A     		ldr	r2, .L175+8
ARM GAS  /var/folders/d0/cymppscj10lcmm48h781wrc80000gn/T//ccIjALm5.s 			page 64


 2667 01a4 DA64     		str	r2, [r3, #76]
 943:Drivers/STM32H7xx_HAL_Driver/Src/stm32h7xx_hal_tim_ex.c **** 
 944:Drivers/STM32H7xx_HAL_Driver/Src/stm32h7xx_hal_tim_ex.c ****       /* Enable the DMA stream */
 945:Drivers/STM32H7xx_HAL_Driver/Src/stm32h7xx_hal_tim_ex.c ****       if (HAL_DMA_Start_IT(htim->hdma[TIM_DMA_ID_CC2], (uint32_t)pData, (uint32_t)&htim->Instance->
 2668              		.loc 1 945 11
 2669 01a6 FB68     		ldr	r3, [r7, #12]
 2670 01a8 986A     		ldr	r0, [r3, #40]
 2671 01aa 7968     		ldr	r1, [r7, #4]
 2672              		.loc 1 945 88
 2673 01ac FB68     		ldr	r3, [r7, #12]
 2674 01ae 1B68     		ldr	r3, [r3]
 2675              		.loc 1 945 83
 2676 01b0 3833     		adds	r3, r3, #56
 2677              		.loc 1 945 11
 2678 01b2 1A46     		mov	r2, r3
 2679 01b4 7B88     		ldrh	r3, [r7, #2]
 2680 01b6 FFF7FEFF 		bl	HAL_DMA_Start_IT
 2681 01ba 0346     		mov	r3, r0
 2682              		.loc 1 945 10
 2683 01bc 002B     		cmp	r3, #0
 2684 01be 01D0     		beq	.L168
 946:Drivers/STM32H7xx_HAL_Driver/Src/stm32h7xx_hal_tim_ex.c ****                            Length) != HAL_OK)
 947:Drivers/STM32H7xx_HAL_Driver/Src/stm32h7xx_hal_tim_ex.c ****       {
 948:Drivers/STM32H7xx_HAL_Driver/Src/stm32h7xx_hal_tim_ex.c ****         /* Return error status */
 949:Drivers/STM32H7xx_HAL_Driver/Src/stm32h7xx_hal_tim_ex.c ****         return HAL_ERROR;
 2685              		.loc 1 949 16
 2686 01c0 0123     		movs	r3, #1
 2687 01c2 8AE0     		b	.L147
 2688              	.L168:
 950:Drivers/STM32H7xx_HAL_Driver/Src/stm32h7xx_hal_tim_ex.c ****       }
 951:Drivers/STM32H7xx_HAL_Driver/Src/stm32h7xx_hal_tim_ex.c ****       /* Enable the TIM Output Compare DMA request */
 952:Drivers/STM32H7xx_HAL_Driver/Src/stm32h7xx_hal_tim_ex.c ****       __HAL_TIM_ENABLE_DMA(htim, TIM_DMA_CC2);
 2689              		.loc 1 952 7
 2690 01c4 FB68     		ldr	r3, [r7, #12]
 2691 01c6 1B68     		ldr	r3, [r3]
 2692 01c8 DA68     		ldr	r2, [r3, #12]
 2693 01ca FB68     		ldr	r3, [r7, #12]
 2694 01cc 1B68     		ldr	r3, [r3]
 2695 01ce 42F48062 		orr	r2, r2, #1024
 2696 01d2 DA60     		str	r2, [r3, #12]
 953:Drivers/STM32H7xx_HAL_Driver/Src/stm32h7xx_hal_tim_ex.c ****       break;
 2697              		.loc 1 953 7
 2698 01d4 26E0     		b	.L167
 2699              	.L162:
 954:Drivers/STM32H7xx_HAL_Driver/Src/stm32h7xx_hal_tim_ex.c ****     }
 955:Drivers/STM32H7xx_HAL_Driver/Src/stm32h7xx_hal_tim_ex.c **** 
 956:Drivers/STM32H7xx_HAL_Driver/Src/stm32h7xx_hal_tim_ex.c ****     case TIM_CHANNEL_3:
 957:Drivers/STM32H7xx_HAL_Driver/Src/stm32h7xx_hal_tim_ex.c ****     {
 958:Drivers/STM32H7xx_HAL_Driver/Src/stm32h7xx_hal_tim_ex.c ****       /* Set the DMA compare callbacks */
 959:Drivers/STM32H7xx_HAL_Driver/Src/stm32h7xx_hal_tim_ex.c ****       htim->hdma[TIM_DMA_ID_CC3]->XferCpltCallback = TIM_DMADelayPulseNCplt;
 2700              		.loc 1 959 17
 2701 01d6 FB68     		ldr	r3, [r7, #12]
 2702 01d8 DB6A     		ldr	r3, [r3, #44]
 2703              		.loc 1 959 52
 2704 01da 424A     		ldr	r2, .L175
 2705 01dc DA63     		str	r2, [r3, #60]
 960:Drivers/STM32H7xx_HAL_Driver/Src/stm32h7xx_hal_tim_ex.c ****       htim->hdma[TIM_DMA_ID_CC3]->XferHalfCpltCallback = TIM_DMADelayPulseHalfCplt;
ARM GAS  /var/folders/d0/cymppscj10lcmm48h781wrc80000gn/T//ccIjALm5.s 			page 65


 2706              		.loc 1 960 17
 2707 01de FB68     		ldr	r3, [r7, #12]
 2708 01e0 DB6A     		ldr	r3, [r3, #44]
 2709              		.loc 1 960 56
 2710 01e2 414A     		ldr	r2, .L175+4
 2711 01e4 1A64     		str	r2, [r3, #64]
 961:Drivers/STM32H7xx_HAL_Driver/Src/stm32h7xx_hal_tim_ex.c **** 
 962:Drivers/STM32H7xx_HAL_Driver/Src/stm32h7xx_hal_tim_ex.c ****       /* Set the DMA error callback */
 963:Drivers/STM32H7xx_HAL_Driver/Src/stm32h7xx_hal_tim_ex.c ****       htim->hdma[TIM_DMA_ID_CC3]->XferErrorCallback = TIM_DMAErrorCCxN ;
 2712              		.loc 1 963 17
 2713 01e6 FB68     		ldr	r3, [r7, #12]
 2714 01e8 DB6A     		ldr	r3, [r3, #44]
 2715              		.loc 1 963 53
 2716 01ea 404A     		ldr	r2, .L175+8
 2717 01ec DA64     		str	r2, [r3, #76]
 964:Drivers/STM32H7xx_HAL_Driver/Src/stm32h7xx_hal_tim_ex.c **** 
 965:Drivers/STM32H7xx_HAL_Driver/Src/stm32h7xx_hal_tim_ex.c ****       /* Enable the DMA stream */
 966:Drivers/STM32H7xx_HAL_Driver/Src/stm32h7xx_hal_tim_ex.c ****       if (HAL_DMA_Start_IT(htim->hdma[TIM_DMA_ID_CC3], (uint32_t)pData, (uint32_t)&htim->Instance->
 2718              		.loc 1 966 11
 2719 01ee FB68     		ldr	r3, [r7, #12]
 2720 01f0 D86A     		ldr	r0, [r3, #44]
 2721 01f2 7968     		ldr	r1, [r7, #4]
 2722              		.loc 1 966 88
 2723 01f4 FB68     		ldr	r3, [r7, #12]
 2724 01f6 1B68     		ldr	r3, [r3]
 2725              		.loc 1 966 83
 2726 01f8 3C33     		adds	r3, r3, #60
 2727              		.loc 1 966 11
 2728 01fa 1A46     		mov	r2, r3
 2729 01fc 7B88     		ldrh	r3, [r7, #2]
 2730 01fe FFF7FEFF 		bl	HAL_DMA_Start_IT
 2731 0202 0346     		mov	r3, r0
 2732              		.loc 1 966 10
 2733 0204 002B     		cmp	r3, #0
 2734 0206 01D0     		beq	.L169
 967:Drivers/STM32H7xx_HAL_Driver/Src/stm32h7xx_hal_tim_ex.c ****                            Length) != HAL_OK)
 968:Drivers/STM32H7xx_HAL_Driver/Src/stm32h7xx_hal_tim_ex.c ****       {
 969:Drivers/STM32H7xx_HAL_Driver/Src/stm32h7xx_hal_tim_ex.c ****         /* Return error status */
 970:Drivers/STM32H7xx_HAL_Driver/Src/stm32h7xx_hal_tim_ex.c ****         return HAL_ERROR;
 2735              		.loc 1 970 16
 2736 0208 0123     		movs	r3, #1
 2737 020a 66E0     		b	.L147
 2738              	.L169:
 971:Drivers/STM32H7xx_HAL_Driver/Src/stm32h7xx_hal_tim_ex.c ****       }
 972:Drivers/STM32H7xx_HAL_Driver/Src/stm32h7xx_hal_tim_ex.c ****       /* Enable the TIM Output Compare DMA request */
 973:Drivers/STM32H7xx_HAL_Driver/Src/stm32h7xx_hal_tim_ex.c ****       __HAL_TIM_ENABLE_DMA(htim, TIM_DMA_CC3);
 2739              		.loc 1 973 7
 2740 020c FB68     		ldr	r3, [r7, #12]
 2741 020e 1B68     		ldr	r3, [r3]
 2742 0210 DA68     		ldr	r2, [r3, #12]
 2743 0212 FB68     		ldr	r3, [r7, #12]
 2744 0214 1B68     		ldr	r3, [r3]
 2745 0216 42F40062 		orr	r2, r2, #2048
 2746 021a DA60     		str	r2, [r3, #12]
 974:Drivers/STM32H7xx_HAL_Driver/Src/stm32h7xx_hal_tim_ex.c ****       break;
 2747              		.loc 1 974 7
 2748 021c 02E0     		b	.L167
ARM GAS  /var/folders/d0/cymppscj10lcmm48h781wrc80000gn/T//ccIjALm5.s 			page 66


 2749              	.L163:
 975:Drivers/STM32H7xx_HAL_Driver/Src/stm32h7xx_hal_tim_ex.c ****     }
 976:Drivers/STM32H7xx_HAL_Driver/Src/stm32h7xx_hal_tim_ex.c **** 
 977:Drivers/STM32H7xx_HAL_Driver/Src/stm32h7xx_hal_tim_ex.c ****     default:
 978:Drivers/STM32H7xx_HAL_Driver/Src/stm32h7xx_hal_tim_ex.c ****       status = HAL_ERROR;
 2750              		.loc 1 978 14
 2751 021e 0123     		movs	r3, #1
 2752 0220 FB75     		strb	r3, [r7, #23]
 979:Drivers/STM32H7xx_HAL_Driver/Src/stm32h7xx_hal_tim_ex.c ****       break;
 2753              		.loc 1 979 7
 2754 0222 00BF     		nop
 2755              	.L167:
 980:Drivers/STM32H7xx_HAL_Driver/Src/stm32h7xx_hal_tim_ex.c ****   }
 981:Drivers/STM32H7xx_HAL_Driver/Src/stm32h7xx_hal_tim_ex.c **** 
 982:Drivers/STM32H7xx_HAL_Driver/Src/stm32h7xx_hal_tim_ex.c ****   if (status == HAL_OK)
 2756              		.loc 1 982 6
 2757 0224 FB7D     		ldrb	r3, [r7, #23]	@ zero_extendqisi2
 2758 0226 002B     		cmp	r3, #0
 2759 0228 56D1     		bne	.L170
 983:Drivers/STM32H7xx_HAL_Driver/Src/stm32h7xx_hal_tim_ex.c ****   {
 984:Drivers/STM32H7xx_HAL_Driver/Src/stm32h7xx_hal_tim_ex.c ****     /* Enable the Capture compare channel N */
 985:Drivers/STM32H7xx_HAL_Driver/Src/stm32h7xx_hal_tim_ex.c ****     TIM_CCxNChannelCmd(htim->Instance, Channel, TIM_CCxN_ENABLE);
 2760              		.loc 1 985 5
 2761 022a FB68     		ldr	r3, [r7, #12]
 2762 022c 1B68     		ldr	r3, [r3]
 2763 022e 0422     		movs	r2, #4
 2764 0230 B968     		ldr	r1, [r7, #8]
 2765 0232 1846     		mov	r0, r3
 2766 0234 FFF7FEFF 		bl	TIM_CCxNChannelCmd
 986:Drivers/STM32H7xx_HAL_Driver/Src/stm32h7xx_hal_tim_ex.c **** 
 987:Drivers/STM32H7xx_HAL_Driver/Src/stm32h7xx_hal_tim_ex.c ****     /* Enable the Main Output */
 988:Drivers/STM32H7xx_HAL_Driver/Src/stm32h7xx_hal_tim_ex.c ****     __HAL_TIM_MOE_ENABLE(htim);
 2767              		.loc 1 988 5
 2768 0238 FB68     		ldr	r3, [r7, #12]
 2769 023a 1B68     		ldr	r3, [r3]
 2770 023c 5A6C     		ldr	r2, [r3, #68]
 2771 023e FB68     		ldr	r3, [r7, #12]
 2772 0240 1B68     		ldr	r3, [r3]
 2773 0242 42F40042 		orr	r2, r2, #32768
 2774 0246 5A64     		str	r2, [r3, #68]
 989:Drivers/STM32H7xx_HAL_Driver/Src/stm32h7xx_hal_tim_ex.c **** 
 990:Drivers/STM32H7xx_HAL_Driver/Src/stm32h7xx_hal_tim_ex.c ****     /* Enable the Peripheral, except in trigger mode where enable is automatically done with trigge
 991:Drivers/STM32H7xx_HAL_Driver/Src/stm32h7xx_hal_tim_ex.c ****     if (IS_TIM_SLAVE_INSTANCE(htim->Instance))
 2775              		.loc 1 991 9
 2776 0248 FB68     		ldr	r3, [r7, #12]
 2777 024a 1B68     		ldr	r3, [r3]
 2778              		.loc 1 991 8
 2779 024c 284A     		ldr	r2, .L175+12
 2780 024e 9342     		cmp	r3, r2
 2781 0250 22D0     		beq	.L171
 2782              		.loc 1 991 9 discriminator 1
 2783 0252 FB68     		ldr	r3, [r7, #12]
 2784 0254 1B68     		ldr	r3, [r3]
 2785 0256 B3F1804F 		cmp	r3, #1073741824
 2786 025a 1DD0     		beq	.L171
 2787              		.loc 1 991 9 is_stmt 0 discriminator 2
 2788 025c FB68     		ldr	r3, [r7, #12]
ARM GAS  /var/folders/d0/cymppscj10lcmm48h781wrc80000gn/T//ccIjALm5.s 			page 67


 2789 025e 1B68     		ldr	r3, [r3]
 2790 0260 244A     		ldr	r2, .L175+16
 2791 0262 9342     		cmp	r3, r2
 2792 0264 18D0     		beq	.L171
 2793              		.loc 1 991 9 discriminator 3
 2794 0266 FB68     		ldr	r3, [r7, #12]
 2795 0268 1B68     		ldr	r3, [r3]
 2796 026a 234A     		ldr	r2, .L175+20
 2797 026c 9342     		cmp	r3, r2
 2798 026e 13D0     		beq	.L171
 2799              		.loc 1 991 9 discriminator 4
 2800 0270 FB68     		ldr	r3, [r7, #12]
 2801 0272 1B68     		ldr	r3, [r3]
 2802 0274 214A     		ldr	r2, .L175+24
 2803 0276 9342     		cmp	r3, r2
 2804 0278 0ED0     		beq	.L171
 2805              		.loc 1 991 9 discriminator 5
 2806 027a FB68     		ldr	r3, [r7, #12]
 2807 027c 1B68     		ldr	r3, [r3]
 2808 027e 204A     		ldr	r2, .L175+28
 2809 0280 9342     		cmp	r3, r2
 2810 0282 09D0     		beq	.L171
 2811              		.loc 1 991 9 discriminator 6
 2812 0284 FB68     		ldr	r3, [r7, #12]
 2813 0286 1B68     		ldr	r3, [r3]
 2814 0288 1E4A     		ldr	r2, .L175+32
 2815 028a 9342     		cmp	r3, r2
 2816 028c 04D0     		beq	.L171
 2817              		.loc 1 991 9 discriminator 7
 2818 028e FB68     		ldr	r3, [r7, #12]
 2819 0290 1B68     		ldr	r3, [r3]
 2820 0292 1D4A     		ldr	r2, .L175+36
 2821 0294 9342     		cmp	r3, r2
 2822 0296 15D1     		bne	.L172
 2823              	.L171:
 992:Drivers/STM32H7xx_HAL_Driver/Src/stm32h7xx_hal_tim_ex.c ****     {
 993:Drivers/STM32H7xx_HAL_Driver/Src/stm32h7xx_hal_tim_ex.c ****       tmpsmcr = htim->Instance->SMCR & TIM_SMCR_SMS;
 2824              		.loc 1 993 21 is_stmt 1
 2825 0298 FB68     		ldr	r3, [r7, #12]
 2826 029a 1B68     		ldr	r3, [r3]
 2827              		.loc 1 993 31
 2828 029c 9A68     		ldr	r2, [r3, #8]
 2829              		.loc 1 993 15
 2830 029e 1B4B     		ldr	r3, .L175+40
 2831 02a0 1340     		ands	r3, r3, r2
 2832 02a2 3B61     		str	r3, [r7, #16]
 994:Drivers/STM32H7xx_HAL_Driver/Src/stm32h7xx_hal_tim_ex.c ****       if (!IS_TIM_SLAVEMODE_TRIGGER_ENABLED(tmpsmcr))
 2833              		.loc 1 994 10
 2834 02a4 3B69     		ldr	r3, [r7, #16]
 2835 02a6 062B     		cmp	r3, #6
 2836 02a8 15D0     		beq	.L174
 2837              		.loc 1 994 11 discriminator 1
 2838 02aa 3B69     		ldr	r3, [r7, #16]
 2839 02ac B3F5803F 		cmp	r3, #65536
 2840 02b0 11D0     		beq	.L174
 995:Drivers/STM32H7xx_HAL_Driver/Src/stm32h7xx_hal_tim_ex.c ****       {
 996:Drivers/STM32H7xx_HAL_Driver/Src/stm32h7xx_hal_tim_ex.c ****         __HAL_TIM_ENABLE(htim);
ARM GAS  /var/folders/d0/cymppscj10lcmm48h781wrc80000gn/T//ccIjALm5.s 			page 68


 2841              		.loc 1 996 9
 2842 02b2 FB68     		ldr	r3, [r7, #12]
 2843 02b4 1B68     		ldr	r3, [r3]
 2844 02b6 1A68     		ldr	r2, [r3]
 2845 02b8 FB68     		ldr	r3, [r7, #12]
 2846 02ba 1B68     		ldr	r3, [r3]
 2847 02bc 42F00102 		orr	r2, r2, #1
 2848 02c0 1A60     		str	r2, [r3]
 994:Drivers/STM32H7xx_HAL_Driver/Src/stm32h7xx_hal_tim_ex.c ****       if (!IS_TIM_SLAVEMODE_TRIGGER_ENABLED(tmpsmcr))
 2849              		.loc 1 994 10
 2850 02c2 08E0     		b	.L174
 2851              	.L172:
 997:Drivers/STM32H7xx_HAL_Driver/Src/stm32h7xx_hal_tim_ex.c ****       }
 998:Drivers/STM32H7xx_HAL_Driver/Src/stm32h7xx_hal_tim_ex.c ****     }
 999:Drivers/STM32H7xx_HAL_Driver/Src/stm32h7xx_hal_tim_ex.c ****     else
1000:Drivers/STM32H7xx_HAL_Driver/Src/stm32h7xx_hal_tim_ex.c ****     {
1001:Drivers/STM32H7xx_HAL_Driver/Src/stm32h7xx_hal_tim_ex.c ****       __HAL_TIM_ENABLE(htim);
 2852              		.loc 1 1001 7
 2853 02c4 FB68     		ldr	r3, [r7, #12]
 2854 02c6 1B68     		ldr	r3, [r3]
 2855 02c8 1A68     		ldr	r2, [r3]
 2856 02ca FB68     		ldr	r3, [r7, #12]
 2857 02cc 1B68     		ldr	r3, [r3]
 2858 02ce 42F00102 		orr	r2, r2, #1
 2859 02d2 1A60     		str	r2, [r3]
 2860 02d4 00E0     		b	.L170
 2861              	.L174:
 994:Drivers/STM32H7xx_HAL_Driver/Src/stm32h7xx_hal_tim_ex.c ****       {
 2862              		.loc 1 994 10
 2863 02d6 00BF     		nop
 2864              	.L170:
1002:Drivers/STM32H7xx_HAL_Driver/Src/stm32h7xx_hal_tim_ex.c ****     }
1003:Drivers/STM32H7xx_HAL_Driver/Src/stm32h7xx_hal_tim_ex.c ****   }
1004:Drivers/STM32H7xx_HAL_Driver/Src/stm32h7xx_hal_tim_ex.c **** 
1005:Drivers/STM32H7xx_HAL_Driver/Src/stm32h7xx_hal_tim_ex.c ****   /* Return function status */
1006:Drivers/STM32H7xx_HAL_Driver/Src/stm32h7xx_hal_tim_ex.c ****   return status;
 2865              		.loc 1 1006 10
 2866 02d8 FB7D     		ldrb	r3, [r7, #23]	@ zero_extendqisi2
 2867              	.L147:
1007:Drivers/STM32H7xx_HAL_Driver/Src/stm32h7xx_hal_tim_ex.c **** }
 2868              		.loc 1 1007 1
 2869 02da 1846     		mov	r0, r3
 2870 02dc 1837     		adds	r7, r7, #24
 2871              	.LCFI75:
 2872              		.cfi_def_cfa_offset 8
 2873 02de BD46     		mov	sp, r7
 2874              	.LCFI76:
 2875              		.cfi_def_cfa_register 13
 2876              		@ sp needed
 2877 02e0 80BD     		pop	{r7, pc}
 2878              	.L176:
 2879 02e2 00BF     		.align	2
 2880              	.L175:
 2881 02e4 00000000 		.word	TIM_DMADelayPulseNCplt
 2882 02e8 00000000 		.word	TIM_DMADelayPulseHalfCplt
 2883 02ec 00000000 		.word	TIM_DMAErrorCCxN
 2884 02f0 00000140 		.word	1073807360
ARM GAS  /var/folders/d0/cymppscj10lcmm48h781wrc80000gn/T//ccIjALm5.s 			page 69


 2885 02f4 00040040 		.word	1073742848
 2886 02f8 00080040 		.word	1073743872
 2887 02fc 000C0040 		.word	1073744896
 2888 0300 00040140 		.word	1073808384
 2889 0304 00180040 		.word	1073747968
 2890 0308 00400140 		.word	1073823744
 2891 030c 07000100 		.word	65543
 2892              		.cfi_endproc
 2893              	.LFE347:
 2895              		.section	.text.HAL_TIMEx_OCN_Stop_DMA,"ax",%progbits
 2896              		.align	1
 2897              		.global	HAL_TIMEx_OCN_Stop_DMA
 2898              		.syntax unified
 2899              		.thumb
 2900              		.thumb_func
 2902              	HAL_TIMEx_OCN_Stop_DMA:
 2903              	.LFB348:
1008:Drivers/STM32H7xx_HAL_Driver/Src/stm32h7xx_hal_tim_ex.c **** 
1009:Drivers/STM32H7xx_HAL_Driver/Src/stm32h7xx_hal_tim_ex.c **** /**
1010:Drivers/STM32H7xx_HAL_Driver/Src/stm32h7xx_hal_tim_ex.c ****   * @brief  Stops the TIM Output Compare signal generation in DMA mode
1011:Drivers/STM32H7xx_HAL_Driver/Src/stm32h7xx_hal_tim_ex.c ****   *         on the complementary output.
1012:Drivers/STM32H7xx_HAL_Driver/Src/stm32h7xx_hal_tim_ex.c ****   * @param  htim TIM Output Compare handle
1013:Drivers/STM32H7xx_HAL_Driver/Src/stm32h7xx_hal_tim_ex.c ****   * @param  Channel TIM Channel to be disabled
1014:Drivers/STM32H7xx_HAL_Driver/Src/stm32h7xx_hal_tim_ex.c ****   *          This parameter can be one of the following values:
1015:Drivers/STM32H7xx_HAL_Driver/Src/stm32h7xx_hal_tim_ex.c ****   *            @arg TIM_CHANNEL_1: TIM Channel 1 selected
1016:Drivers/STM32H7xx_HAL_Driver/Src/stm32h7xx_hal_tim_ex.c ****   *            @arg TIM_CHANNEL_2: TIM Channel 2 selected
1017:Drivers/STM32H7xx_HAL_Driver/Src/stm32h7xx_hal_tim_ex.c ****   *            @arg TIM_CHANNEL_3: TIM Channel 3 selected
1018:Drivers/STM32H7xx_HAL_Driver/Src/stm32h7xx_hal_tim_ex.c ****   * @retval HAL status
1019:Drivers/STM32H7xx_HAL_Driver/Src/stm32h7xx_hal_tim_ex.c ****   */
1020:Drivers/STM32H7xx_HAL_Driver/Src/stm32h7xx_hal_tim_ex.c **** HAL_StatusTypeDef HAL_TIMEx_OCN_Stop_DMA(TIM_HandleTypeDef *htim, uint32_t Channel)
1021:Drivers/STM32H7xx_HAL_Driver/Src/stm32h7xx_hal_tim_ex.c **** {
 2904              		.loc 1 1021 1
 2905              		.cfi_startproc
 2906              		@ args = 0, pretend = 0, frame = 16
 2907              		@ frame_needed = 1, uses_anonymous_args = 0
 2908 0000 80B5     		push	{r7, lr}
 2909              	.LCFI77:
 2910              		.cfi_def_cfa_offset 8
 2911              		.cfi_offset 7, -8
 2912              		.cfi_offset 14, -4
 2913 0002 84B0     		sub	sp, sp, #16
 2914              	.LCFI78:
 2915              		.cfi_def_cfa_offset 24
 2916 0004 00AF     		add	r7, sp, #0
 2917              	.LCFI79:
 2918              		.cfi_def_cfa_register 7
 2919 0006 7860     		str	r0, [r7, #4]
 2920 0008 3960     		str	r1, [r7]
1022:Drivers/STM32H7xx_HAL_Driver/Src/stm32h7xx_hal_tim_ex.c ****   HAL_StatusTypeDef status = HAL_OK;
 2921              		.loc 1 1022 21
 2922 000a 0023     		movs	r3, #0
 2923 000c FB73     		strb	r3, [r7, #15]
1023:Drivers/STM32H7xx_HAL_Driver/Src/stm32h7xx_hal_tim_ex.c **** 
1024:Drivers/STM32H7xx_HAL_Driver/Src/stm32h7xx_hal_tim_ex.c ****   /* Check the parameters */
1025:Drivers/STM32H7xx_HAL_Driver/Src/stm32h7xx_hal_tim_ex.c ****   assert_param(IS_TIM_CCXN_INSTANCE(htim->Instance, Channel));
1026:Drivers/STM32H7xx_HAL_Driver/Src/stm32h7xx_hal_tim_ex.c **** 
1027:Drivers/STM32H7xx_HAL_Driver/Src/stm32h7xx_hal_tim_ex.c ****   switch (Channel)
ARM GAS  /var/folders/d0/cymppscj10lcmm48h781wrc80000gn/T//ccIjALm5.s 			page 70


 2924              		.loc 1 1027 3
 2925 000e 3B68     		ldr	r3, [r7]
 2926 0010 082B     		cmp	r3, #8
 2927 0012 25D0     		beq	.L178
 2928 0014 3B68     		ldr	r3, [r7]
 2929 0016 082B     		cmp	r3, #8
 2930 0018 30D8     		bhi	.L179
 2931 001a 3B68     		ldr	r3, [r7]
 2932 001c 002B     		cmp	r3, #0
 2933 001e 03D0     		beq	.L180
 2934 0020 3B68     		ldr	r3, [r7]
 2935 0022 042B     		cmp	r3, #4
 2936 0024 0ED0     		beq	.L181
 2937 0026 29E0     		b	.L179
 2938              	.L180:
1028:Drivers/STM32H7xx_HAL_Driver/Src/stm32h7xx_hal_tim_ex.c ****   {
1029:Drivers/STM32H7xx_HAL_Driver/Src/stm32h7xx_hal_tim_ex.c ****     case TIM_CHANNEL_1:
1030:Drivers/STM32H7xx_HAL_Driver/Src/stm32h7xx_hal_tim_ex.c ****     {
1031:Drivers/STM32H7xx_HAL_Driver/Src/stm32h7xx_hal_tim_ex.c ****       /* Disable the TIM Output Compare DMA request */
1032:Drivers/STM32H7xx_HAL_Driver/Src/stm32h7xx_hal_tim_ex.c ****       __HAL_TIM_DISABLE_DMA(htim, TIM_DMA_CC1);
 2939              		.loc 1 1032 7
 2940 0028 7B68     		ldr	r3, [r7, #4]
 2941 002a 1B68     		ldr	r3, [r3]
 2942 002c DA68     		ldr	r2, [r3, #12]
 2943 002e 7B68     		ldr	r3, [r7, #4]
 2944 0030 1B68     		ldr	r3, [r3]
 2945 0032 22F40072 		bic	r2, r2, #512
 2946 0036 DA60     		str	r2, [r3, #12]
1033:Drivers/STM32H7xx_HAL_Driver/Src/stm32h7xx_hal_tim_ex.c ****       (void)HAL_DMA_Abort_IT(htim->hdma[TIM_DMA_ID_CC1]);
 2947              		.loc 1 1033 13
 2948 0038 7B68     		ldr	r3, [r7, #4]
 2949 003a 5B6A     		ldr	r3, [r3, #36]
 2950 003c 1846     		mov	r0, r3
 2951 003e FFF7FEFF 		bl	HAL_DMA_Abort_IT
1034:Drivers/STM32H7xx_HAL_Driver/Src/stm32h7xx_hal_tim_ex.c ****       break;
 2952              		.loc 1 1034 7
 2953 0042 1EE0     		b	.L182
 2954              	.L181:
1035:Drivers/STM32H7xx_HAL_Driver/Src/stm32h7xx_hal_tim_ex.c ****     }
1036:Drivers/STM32H7xx_HAL_Driver/Src/stm32h7xx_hal_tim_ex.c **** 
1037:Drivers/STM32H7xx_HAL_Driver/Src/stm32h7xx_hal_tim_ex.c ****     case TIM_CHANNEL_2:
1038:Drivers/STM32H7xx_HAL_Driver/Src/stm32h7xx_hal_tim_ex.c ****     {
1039:Drivers/STM32H7xx_HAL_Driver/Src/stm32h7xx_hal_tim_ex.c ****       /* Disable the TIM Output Compare DMA request */
1040:Drivers/STM32H7xx_HAL_Driver/Src/stm32h7xx_hal_tim_ex.c ****       __HAL_TIM_DISABLE_DMA(htim, TIM_DMA_CC2);
 2955              		.loc 1 1040 7
 2956 0044 7B68     		ldr	r3, [r7, #4]
 2957 0046 1B68     		ldr	r3, [r3]
 2958 0048 DA68     		ldr	r2, [r3, #12]
 2959 004a 7B68     		ldr	r3, [r7, #4]
 2960 004c 1B68     		ldr	r3, [r3]
 2961 004e 22F48062 		bic	r2, r2, #1024
 2962 0052 DA60     		str	r2, [r3, #12]
1041:Drivers/STM32H7xx_HAL_Driver/Src/stm32h7xx_hal_tim_ex.c ****       (void)HAL_DMA_Abort_IT(htim->hdma[TIM_DMA_ID_CC2]);
 2963              		.loc 1 1041 13
 2964 0054 7B68     		ldr	r3, [r7, #4]
 2965 0056 9B6A     		ldr	r3, [r3, #40]
 2966 0058 1846     		mov	r0, r3
ARM GAS  /var/folders/d0/cymppscj10lcmm48h781wrc80000gn/T//ccIjALm5.s 			page 71


 2967 005a FFF7FEFF 		bl	HAL_DMA_Abort_IT
1042:Drivers/STM32H7xx_HAL_Driver/Src/stm32h7xx_hal_tim_ex.c ****       break;
 2968              		.loc 1 1042 7
 2969 005e 10E0     		b	.L182
 2970              	.L178:
1043:Drivers/STM32H7xx_HAL_Driver/Src/stm32h7xx_hal_tim_ex.c ****     }
1044:Drivers/STM32H7xx_HAL_Driver/Src/stm32h7xx_hal_tim_ex.c **** 
1045:Drivers/STM32H7xx_HAL_Driver/Src/stm32h7xx_hal_tim_ex.c ****     case TIM_CHANNEL_3:
1046:Drivers/STM32H7xx_HAL_Driver/Src/stm32h7xx_hal_tim_ex.c ****     {
1047:Drivers/STM32H7xx_HAL_Driver/Src/stm32h7xx_hal_tim_ex.c ****       /* Disable the TIM Output Compare DMA request */
1048:Drivers/STM32H7xx_HAL_Driver/Src/stm32h7xx_hal_tim_ex.c ****       __HAL_TIM_DISABLE_DMA(htim, TIM_DMA_CC3);
 2971              		.loc 1 1048 7
 2972 0060 7B68     		ldr	r3, [r7, #4]
 2973 0062 1B68     		ldr	r3, [r3]
 2974 0064 DA68     		ldr	r2, [r3, #12]
 2975 0066 7B68     		ldr	r3, [r7, #4]
 2976 0068 1B68     		ldr	r3, [r3]
 2977 006a 22F40062 		bic	r2, r2, #2048
 2978 006e DA60     		str	r2, [r3, #12]
1049:Drivers/STM32H7xx_HAL_Driver/Src/stm32h7xx_hal_tim_ex.c ****       (void)HAL_DMA_Abort_IT(htim->hdma[TIM_DMA_ID_CC3]);
 2979              		.loc 1 1049 13
 2980 0070 7B68     		ldr	r3, [r7, #4]
 2981 0072 DB6A     		ldr	r3, [r3, #44]
 2982 0074 1846     		mov	r0, r3
 2983 0076 FFF7FEFF 		bl	HAL_DMA_Abort_IT
1050:Drivers/STM32H7xx_HAL_Driver/Src/stm32h7xx_hal_tim_ex.c ****       break;
 2984              		.loc 1 1050 7
 2985 007a 02E0     		b	.L182
 2986              	.L179:
1051:Drivers/STM32H7xx_HAL_Driver/Src/stm32h7xx_hal_tim_ex.c ****     }
1052:Drivers/STM32H7xx_HAL_Driver/Src/stm32h7xx_hal_tim_ex.c **** 
1053:Drivers/STM32H7xx_HAL_Driver/Src/stm32h7xx_hal_tim_ex.c ****     default:
1054:Drivers/STM32H7xx_HAL_Driver/Src/stm32h7xx_hal_tim_ex.c ****       status = HAL_ERROR;
 2987              		.loc 1 1054 14
 2988 007c 0123     		movs	r3, #1
 2989 007e FB73     		strb	r3, [r7, #15]
1055:Drivers/STM32H7xx_HAL_Driver/Src/stm32h7xx_hal_tim_ex.c ****       break;
 2990              		.loc 1 1055 7
 2991 0080 00BF     		nop
 2992              	.L182:
1056:Drivers/STM32H7xx_HAL_Driver/Src/stm32h7xx_hal_tim_ex.c ****   }
1057:Drivers/STM32H7xx_HAL_Driver/Src/stm32h7xx_hal_tim_ex.c **** 
1058:Drivers/STM32H7xx_HAL_Driver/Src/stm32h7xx_hal_tim_ex.c ****   if (status == HAL_OK)
 2993              		.loc 1 1058 6
 2994 0082 FB7B     		ldrb	r3, [r7, #15]	@ zero_extendqisi2
 2995 0084 002B     		cmp	r3, #0
 2996 0086 52D1     		bne	.L183
1059:Drivers/STM32H7xx_HAL_Driver/Src/stm32h7xx_hal_tim_ex.c ****   {
1060:Drivers/STM32H7xx_HAL_Driver/Src/stm32h7xx_hal_tim_ex.c ****     /* Disable the Capture compare channel N */
1061:Drivers/STM32H7xx_HAL_Driver/Src/stm32h7xx_hal_tim_ex.c ****     TIM_CCxNChannelCmd(htim->Instance, Channel, TIM_CCxN_DISABLE);
 2997              		.loc 1 1061 5
 2998 0088 7B68     		ldr	r3, [r7, #4]
 2999 008a 1B68     		ldr	r3, [r3]
 3000 008c 0022     		movs	r2, #0
 3001 008e 3968     		ldr	r1, [r7]
 3002 0090 1846     		mov	r0, r3
 3003 0092 FFF7FEFF 		bl	TIM_CCxNChannelCmd
ARM GAS  /var/folders/d0/cymppscj10lcmm48h781wrc80000gn/T//ccIjALm5.s 			page 72


1062:Drivers/STM32H7xx_HAL_Driver/Src/stm32h7xx_hal_tim_ex.c **** 
1063:Drivers/STM32H7xx_HAL_Driver/Src/stm32h7xx_hal_tim_ex.c ****     /* Disable the Main Output */
1064:Drivers/STM32H7xx_HAL_Driver/Src/stm32h7xx_hal_tim_ex.c ****     __HAL_TIM_MOE_DISABLE(htim);
 3004              		.loc 1 1064 5
 3005 0096 7B68     		ldr	r3, [r7, #4]
 3006 0098 1B68     		ldr	r3, [r3]
 3007 009a 1A6A     		ldr	r2, [r3, #32]
 3008 009c 41F21113 		movw	r3, #4369
 3009 00a0 1340     		ands	r3, r3, r2
 3010 00a2 002B     		cmp	r3, #0
 3011 00a4 0FD1     		bne	.L184
 3012              		.loc 1 1064 5 is_stmt 0 discriminator 1
 3013 00a6 7B68     		ldr	r3, [r7, #4]
 3014 00a8 1B68     		ldr	r3, [r3]
 3015 00aa 1A6A     		ldr	r2, [r3, #32]
 3016 00ac 40F24443 		movw	r3, #1092
 3017 00b0 1340     		ands	r3, r3, r2
 3018 00b2 002B     		cmp	r3, #0
 3019 00b4 07D1     		bne	.L184
 3020              		.loc 1 1064 5 discriminator 2
 3021 00b6 7B68     		ldr	r3, [r7, #4]
 3022 00b8 1B68     		ldr	r3, [r3]
 3023 00ba 5A6C     		ldr	r2, [r3, #68]
 3024 00bc 7B68     		ldr	r3, [r7, #4]
 3025 00be 1B68     		ldr	r3, [r3]
 3026 00c0 22F40042 		bic	r2, r2, #32768
 3027 00c4 5A64     		str	r2, [r3, #68]
 3028              	.L184:
1065:Drivers/STM32H7xx_HAL_Driver/Src/stm32h7xx_hal_tim_ex.c **** 
1066:Drivers/STM32H7xx_HAL_Driver/Src/stm32h7xx_hal_tim_ex.c ****     /* Disable the Peripheral */
1067:Drivers/STM32H7xx_HAL_Driver/Src/stm32h7xx_hal_tim_ex.c ****     __HAL_TIM_DISABLE(htim);
 3029              		.loc 1 1067 5 is_stmt 1
 3030 00c6 7B68     		ldr	r3, [r7, #4]
 3031 00c8 1B68     		ldr	r3, [r3]
 3032 00ca 1A6A     		ldr	r2, [r3, #32]
 3033 00cc 41F21113 		movw	r3, #4369
 3034 00d0 1340     		ands	r3, r3, r2
 3035 00d2 002B     		cmp	r3, #0
 3036 00d4 0FD1     		bne	.L185
 3037              		.loc 1 1067 5 is_stmt 0 discriminator 1
 3038 00d6 7B68     		ldr	r3, [r7, #4]
 3039 00d8 1B68     		ldr	r3, [r3]
 3040 00da 1A6A     		ldr	r2, [r3, #32]
 3041 00dc 40F24443 		movw	r3, #1092
 3042 00e0 1340     		ands	r3, r3, r2
 3043 00e2 002B     		cmp	r3, #0
 3044 00e4 07D1     		bne	.L185
 3045              		.loc 1 1067 5 discriminator 2
 3046 00e6 7B68     		ldr	r3, [r7, #4]
 3047 00e8 1B68     		ldr	r3, [r3]
 3048 00ea 1A68     		ldr	r2, [r3]
 3049 00ec 7B68     		ldr	r3, [r7, #4]
 3050 00ee 1B68     		ldr	r3, [r3]
 3051 00f0 22F00102 		bic	r2, r2, #1
 3052 00f4 1A60     		str	r2, [r3]
 3053              	.L185:
1068:Drivers/STM32H7xx_HAL_Driver/Src/stm32h7xx_hal_tim_ex.c **** 
ARM GAS  /var/folders/d0/cymppscj10lcmm48h781wrc80000gn/T//ccIjALm5.s 			page 73


1069:Drivers/STM32H7xx_HAL_Driver/Src/stm32h7xx_hal_tim_ex.c ****     /* Set the TIM complementary channel state */
1070:Drivers/STM32H7xx_HAL_Driver/Src/stm32h7xx_hal_tim_ex.c ****     TIM_CHANNEL_N_STATE_SET(htim, Channel, HAL_TIM_CHANNEL_STATE_READY);
 3054              		.loc 1 1070 5 is_stmt 1
 3055 00f6 3B68     		ldr	r3, [r7]
 3056 00f8 002B     		cmp	r3, #0
 3057 00fa 04D1     		bne	.L186
 3058              		.loc 1 1070 5 is_stmt 0 discriminator 1
 3059 00fc 7B68     		ldr	r3, [r7, #4]
 3060 00fe 0122     		movs	r2, #1
 3061 0100 83F84420 		strb	r2, [r3, #68]
 3062 0104 13E0     		b	.L183
 3063              	.L186:
 3064              		.loc 1 1070 5 discriminator 2
 3065 0106 3B68     		ldr	r3, [r7]
 3066 0108 042B     		cmp	r3, #4
 3067 010a 04D1     		bne	.L187
 3068              		.loc 1 1070 5 discriminator 3
 3069 010c 7B68     		ldr	r3, [r7, #4]
 3070 010e 0122     		movs	r2, #1
 3071 0110 83F84520 		strb	r2, [r3, #69]
 3072 0114 0BE0     		b	.L183
 3073              	.L187:
 3074              		.loc 1 1070 5 discriminator 4
 3075 0116 3B68     		ldr	r3, [r7]
 3076 0118 082B     		cmp	r3, #8
 3077 011a 04D1     		bne	.L189
 3078              		.loc 1 1070 5 discriminator 6
 3079 011c 7B68     		ldr	r3, [r7, #4]
 3080 011e 0122     		movs	r2, #1
 3081 0120 83F84620 		strb	r2, [r3, #70]
 3082 0124 03E0     		b	.L183
 3083              	.L189:
 3084              		.loc 1 1070 5 discriminator 7
 3085 0126 7B68     		ldr	r3, [r7, #4]
 3086 0128 0122     		movs	r2, #1
 3087 012a 83F84720 		strb	r2, [r3, #71]
 3088              	.L183:
1071:Drivers/STM32H7xx_HAL_Driver/Src/stm32h7xx_hal_tim_ex.c ****   }
1072:Drivers/STM32H7xx_HAL_Driver/Src/stm32h7xx_hal_tim_ex.c **** 
1073:Drivers/STM32H7xx_HAL_Driver/Src/stm32h7xx_hal_tim_ex.c ****   /* Return function status */
1074:Drivers/STM32H7xx_HAL_Driver/Src/stm32h7xx_hal_tim_ex.c ****   return status;
 3089              		.loc 1 1074 10 is_stmt 1
 3090 012e FB7B     		ldrb	r3, [r7, #15]	@ zero_extendqisi2
1075:Drivers/STM32H7xx_HAL_Driver/Src/stm32h7xx_hal_tim_ex.c **** }
 3091              		.loc 1 1075 1
 3092 0130 1846     		mov	r0, r3
 3093 0132 1037     		adds	r7, r7, #16
 3094              	.LCFI80:
 3095              		.cfi_def_cfa_offset 8
 3096 0134 BD46     		mov	sp, r7
 3097              	.LCFI81:
 3098              		.cfi_def_cfa_register 13
 3099              		@ sp needed
 3100 0136 80BD     		pop	{r7, pc}
 3101              		.cfi_endproc
 3102              	.LFE348:
 3104              		.section	.text.HAL_TIMEx_PWMN_Start,"ax",%progbits
ARM GAS  /var/folders/d0/cymppscj10lcmm48h781wrc80000gn/T//ccIjALm5.s 			page 74


 3105              		.align	1
 3106              		.global	HAL_TIMEx_PWMN_Start
 3107              		.syntax unified
 3108              		.thumb
 3109              		.thumb_func
 3111              	HAL_TIMEx_PWMN_Start:
 3112              	.LFB349:
1076:Drivers/STM32H7xx_HAL_Driver/Src/stm32h7xx_hal_tim_ex.c **** 
1077:Drivers/STM32H7xx_HAL_Driver/Src/stm32h7xx_hal_tim_ex.c **** /**
1078:Drivers/STM32H7xx_HAL_Driver/Src/stm32h7xx_hal_tim_ex.c ****   * @}
1079:Drivers/STM32H7xx_HAL_Driver/Src/stm32h7xx_hal_tim_ex.c ****   */
1080:Drivers/STM32H7xx_HAL_Driver/Src/stm32h7xx_hal_tim_ex.c **** 
1081:Drivers/STM32H7xx_HAL_Driver/Src/stm32h7xx_hal_tim_ex.c **** /** @defgroup TIMEx_Exported_Functions_Group3 Extended Timer Complementary PWM functions
1082:Drivers/STM32H7xx_HAL_Driver/Src/stm32h7xx_hal_tim_ex.c ****   * @brief    Timer Complementary PWM functions
1083:Drivers/STM32H7xx_HAL_Driver/Src/stm32h7xx_hal_tim_ex.c ****   *
1084:Drivers/STM32H7xx_HAL_Driver/Src/stm32h7xx_hal_tim_ex.c **** @verbatim
1085:Drivers/STM32H7xx_HAL_Driver/Src/stm32h7xx_hal_tim_ex.c ****   ==============================================================================
1086:Drivers/STM32H7xx_HAL_Driver/Src/stm32h7xx_hal_tim_ex.c ****                  ##### Timer Complementary PWM functions #####
1087:Drivers/STM32H7xx_HAL_Driver/Src/stm32h7xx_hal_tim_ex.c ****   ==============================================================================
1088:Drivers/STM32H7xx_HAL_Driver/Src/stm32h7xx_hal_tim_ex.c ****   [..]
1089:Drivers/STM32H7xx_HAL_Driver/Src/stm32h7xx_hal_tim_ex.c ****     This section provides functions allowing to:
1090:Drivers/STM32H7xx_HAL_Driver/Src/stm32h7xx_hal_tim_ex.c ****     (+) Start the Complementary PWM.
1091:Drivers/STM32H7xx_HAL_Driver/Src/stm32h7xx_hal_tim_ex.c ****     (+) Stop the Complementary PWM.
1092:Drivers/STM32H7xx_HAL_Driver/Src/stm32h7xx_hal_tim_ex.c ****     (+) Start the Complementary PWM and enable interrupts.
1093:Drivers/STM32H7xx_HAL_Driver/Src/stm32h7xx_hal_tim_ex.c ****     (+) Stop the Complementary PWM and disable interrupts.
1094:Drivers/STM32H7xx_HAL_Driver/Src/stm32h7xx_hal_tim_ex.c ****     (+) Start the Complementary PWM and enable DMA transfers.
1095:Drivers/STM32H7xx_HAL_Driver/Src/stm32h7xx_hal_tim_ex.c ****     (+) Stop the Complementary PWM and disable DMA transfers.
1096:Drivers/STM32H7xx_HAL_Driver/Src/stm32h7xx_hal_tim_ex.c ****     (+) Start the Complementary Input Capture measurement.
1097:Drivers/STM32H7xx_HAL_Driver/Src/stm32h7xx_hal_tim_ex.c ****     (+) Stop the Complementary Input Capture.
1098:Drivers/STM32H7xx_HAL_Driver/Src/stm32h7xx_hal_tim_ex.c ****     (+) Start the Complementary Input Capture and enable interrupts.
1099:Drivers/STM32H7xx_HAL_Driver/Src/stm32h7xx_hal_tim_ex.c ****     (+) Stop the Complementary Input Capture and disable interrupts.
1100:Drivers/STM32H7xx_HAL_Driver/Src/stm32h7xx_hal_tim_ex.c ****     (+) Start the Complementary Input Capture and enable DMA transfers.
1101:Drivers/STM32H7xx_HAL_Driver/Src/stm32h7xx_hal_tim_ex.c ****     (+) Stop the Complementary Input Capture and disable DMA transfers.
1102:Drivers/STM32H7xx_HAL_Driver/Src/stm32h7xx_hal_tim_ex.c ****     (+) Start the Complementary One Pulse generation.
1103:Drivers/STM32H7xx_HAL_Driver/Src/stm32h7xx_hal_tim_ex.c ****     (+) Stop the Complementary One Pulse.
1104:Drivers/STM32H7xx_HAL_Driver/Src/stm32h7xx_hal_tim_ex.c ****     (+) Start the Complementary One Pulse and enable interrupts.
1105:Drivers/STM32H7xx_HAL_Driver/Src/stm32h7xx_hal_tim_ex.c ****     (+) Stop the Complementary One Pulse and disable interrupts.
1106:Drivers/STM32H7xx_HAL_Driver/Src/stm32h7xx_hal_tim_ex.c **** 
1107:Drivers/STM32H7xx_HAL_Driver/Src/stm32h7xx_hal_tim_ex.c **** @endverbatim
1108:Drivers/STM32H7xx_HAL_Driver/Src/stm32h7xx_hal_tim_ex.c ****   * @{
1109:Drivers/STM32H7xx_HAL_Driver/Src/stm32h7xx_hal_tim_ex.c ****   */
1110:Drivers/STM32H7xx_HAL_Driver/Src/stm32h7xx_hal_tim_ex.c **** 
1111:Drivers/STM32H7xx_HAL_Driver/Src/stm32h7xx_hal_tim_ex.c **** /**
1112:Drivers/STM32H7xx_HAL_Driver/Src/stm32h7xx_hal_tim_ex.c ****   * @brief  Starts the PWM signal generation on the complementary output.
1113:Drivers/STM32H7xx_HAL_Driver/Src/stm32h7xx_hal_tim_ex.c ****   * @param  htim TIM handle
1114:Drivers/STM32H7xx_HAL_Driver/Src/stm32h7xx_hal_tim_ex.c ****   * @param  Channel TIM Channel to be enabled
1115:Drivers/STM32H7xx_HAL_Driver/Src/stm32h7xx_hal_tim_ex.c ****   *          This parameter can be one of the following values:
1116:Drivers/STM32H7xx_HAL_Driver/Src/stm32h7xx_hal_tim_ex.c ****   *            @arg TIM_CHANNEL_1: TIM Channel 1 selected
1117:Drivers/STM32H7xx_HAL_Driver/Src/stm32h7xx_hal_tim_ex.c ****   *            @arg TIM_CHANNEL_2: TIM Channel 2 selected
1118:Drivers/STM32H7xx_HAL_Driver/Src/stm32h7xx_hal_tim_ex.c ****   *            @arg TIM_CHANNEL_3: TIM Channel 3 selected
1119:Drivers/STM32H7xx_HAL_Driver/Src/stm32h7xx_hal_tim_ex.c ****   * @retval HAL status
1120:Drivers/STM32H7xx_HAL_Driver/Src/stm32h7xx_hal_tim_ex.c ****   */
1121:Drivers/STM32H7xx_HAL_Driver/Src/stm32h7xx_hal_tim_ex.c **** HAL_StatusTypeDef HAL_TIMEx_PWMN_Start(TIM_HandleTypeDef *htim, uint32_t Channel)
1122:Drivers/STM32H7xx_HAL_Driver/Src/stm32h7xx_hal_tim_ex.c **** {
 3113              		.loc 1 1122 1
 3114              		.cfi_startproc
 3115              		@ args = 0, pretend = 0, frame = 16
ARM GAS  /var/folders/d0/cymppscj10lcmm48h781wrc80000gn/T//ccIjALm5.s 			page 75


 3116              		@ frame_needed = 1, uses_anonymous_args = 0
 3117 0000 80B5     		push	{r7, lr}
 3118              	.LCFI82:
 3119              		.cfi_def_cfa_offset 8
 3120              		.cfi_offset 7, -8
 3121              		.cfi_offset 14, -4
 3122 0002 84B0     		sub	sp, sp, #16
 3123              	.LCFI83:
 3124              		.cfi_def_cfa_offset 24
 3125 0004 00AF     		add	r7, sp, #0
 3126              	.LCFI84:
 3127              		.cfi_def_cfa_register 7
 3128 0006 7860     		str	r0, [r7, #4]
 3129 0008 3960     		str	r1, [r7]
1123:Drivers/STM32H7xx_HAL_Driver/Src/stm32h7xx_hal_tim_ex.c ****   uint32_t tmpsmcr;
1124:Drivers/STM32H7xx_HAL_Driver/Src/stm32h7xx_hal_tim_ex.c **** 
1125:Drivers/STM32H7xx_HAL_Driver/Src/stm32h7xx_hal_tim_ex.c ****   /* Check the parameters */
1126:Drivers/STM32H7xx_HAL_Driver/Src/stm32h7xx_hal_tim_ex.c ****   assert_param(IS_TIM_CCXN_INSTANCE(htim->Instance, Channel));
1127:Drivers/STM32H7xx_HAL_Driver/Src/stm32h7xx_hal_tim_ex.c **** 
1128:Drivers/STM32H7xx_HAL_Driver/Src/stm32h7xx_hal_tim_ex.c ****   /* Check the TIM complementary channel state */
1129:Drivers/STM32H7xx_HAL_Driver/Src/stm32h7xx_hal_tim_ex.c ****   if (TIM_CHANNEL_N_STATE_GET(htim, Channel) != HAL_TIM_CHANNEL_STATE_READY)
 3130              		.loc 1 1129 46
 3131 000a 3B68     		ldr	r3, [r7]
 3132 000c 002B     		cmp	r3, #0
 3133 000e 09D1     		bne	.L193
 3134              		.loc 1 1129 7 discriminator 1
 3135 0010 7B68     		ldr	r3, [r7, #4]
 3136 0012 93F84430 		ldrb	r3, [r3, #68]
 3137 0016 DBB2     		uxtb	r3, r3
 3138              		.loc 1 1129 46 discriminator 1
 3139 0018 012B     		cmp	r3, #1
 3140 001a 14BF     		ite	ne
 3141 001c 0123     		movne	r3, #1
 3142 001e 0023     		moveq	r3, #0
 3143 0020 DBB2     		uxtb	r3, r3
 3144 0022 22E0     		b	.L194
 3145              	.L193:
 3146              		.loc 1 1129 46 is_stmt 0 discriminator 2
 3147 0024 3B68     		ldr	r3, [r7]
 3148 0026 042B     		cmp	r3, #4
 3149 0028 09D1     		bne	.L195
 3150              		.loc 1 1129 7 is_stmt 1 discriminator 4
 3151 002a 7B68     		ldr	r3, [r7, #4]
 3152 002c 93F84530 		ldrb	r3, [r3, #69]
 3153 0030 DBB2     		uxtb	r3, r3
 3154              		.loc 1 1129 46 discriminator 4
 3155 0032 012B     		cmp	r3, #1
 3156 0034 14BF     		ite	ne
 3157 0036 0123     		movne	r3, #1
 3158 0038 0023     		moveq	r3, #0
 3159 003a DBB2     		uxtb	r3, r3
 3160 003c 15E0     		b	.L194
 3161              	.L195:
 3162              		.loc 1 1129 46 is_stmt 0 discriminator 5
 3163 003e 3B68     		ldr	r3, [r7]
 3164 0040 082B     		cmp	r3, #8
 3165 0042 09D1     		bne	.L197
ARM GAS  /var/folders/d0/cymppscj10lcmm48h781wrc80000gn/T//ccIjALm5.s 			page 76


 3166              		.loc 1 1129 7 is_stmt 1 discriminator 7
 3167 0044 7B68     		ldr	r3, [r7, #4]
 3168 0046 93F84630 		ldrb	r3, [r3, #70]
 3169 004a DBB2     		uxtb	r3, r3
 3170              		.loc 1 1129 46 discriminator 7
 3171 004c 012B     		cmp	r3, #1
 3172 004e 14BF     		ite	ne
 3173 0050 0123     		movne	r3, #1
 3174 0052 0023     		moveq	r3, #0
 3175 0054 DBB2     		uxtb	r3, r3
 3176 0056 08E0     		b	.L194
 3177              	.L197:
 3178              		.loc 1 1129 7 discriminator 8
 3179 0058 7B68     		ldr	r3, [r7, #4]
 3180 005a 93F84730 		ldrb	r3, [r3, #71]
 3181 005e DBB2     		uxtb	r3, r3
 3182              		.loc 1 1129 46 discriminator 8
 3183 0060 012B     		cmp	r3, #1
 3184 0062 14BF     		ite	ne
 3185 0064 0123     		movne	r3, #1
 3186 0066 0023     		moveq	r3, #0
 3187 0068 DBB2     		uxtb	r3, r3
 3188              	.L194:
 3189              		.loc 1 1129 6 discriminator 12
 3190 006a 002B     		cmp	r3, #0
 3191 006c 01D0     		beq	.L199
1130:Drivers/STM32H7xx_HAL_Driver/Src/stm32h7xx_hal_tim_ex.c ****   {
1131:Drivers/STM32H7xx_HAL_Driver/Src/stm32h7xx_hal_tim_ex.c ****     return HAL_ERROR;
 3192              		.loc 1 1131 12
 3193 006e 0123     		movs	r3, #1
 3194 0070 73E0     		b	.L200
 3195              	.L199:
1132:Drivers/STM32H7xx_HAL_Driver/Src/stm32h7xx_hal_tim_ex.c ****   }
1133:Drivers/STM32H7xx_HAL_Driver/Src/stm32h7xx_hal_tim_ex.c **** 
1134:Drivers/STM32H7xx_HAL_Driver/Src/stm32h7xx_hal_tim_ex.c ****   /* Set the TIM complementary channel state */
1135:Drivers/STM32H7xx_HAL_Driver/Src/stm32h7xx_hal_tim_ex.c ****   TIM_CHANNEL_N_STATE_SET(htim, Channel, HAL_TIM_CHANNEL_STATE_BUSY);
 3196              		.loc 1 1135 3
 3197 0072 3B68     		ldr	r3, [r7]
 3198 0074 002B     		cmp	r3, #0
 3199 0076 04D1     		bne	.L201
 3200              		.loc 1 1135 3 is_stmt 0 discriminator 1
 3201 0078 7B68     		ldr	r3, [r7, #4]
 3202 007a 0222     		movs	r2, #2
 3203 007c 83F84420 		strb	r2, [r3, #68]
 3204 0080 13E0     		b	.L202
 3205              	.L201:
 3206              		.loc 1 1135 3 discriminator 2
 3207 0082 3B68     		ldr	r3, [r7]
 3208 0084 042B     		cmp	r3, #4
 3209 0086 04D1     		bne	.L203
 3210              		.loc 1 1135 3 discriminator 3
 3211 0088 7B68     		ldr	r3, [r7, #4]
 3212 008a 0222     		movs	r2, #2
 3213 008c 83F84520 		strb	r2, [r3, #69]
 3214 0090 0BE0     		b	.L202
 3215              	.L203:
 3216              		.loc 1 1135 3 discriminator 4
ARM GAS  /var/folders/d0/cymppscj10lcmm48h781wrc80000gn/T//ccIjALm5.s 			page 77


 3217 0092 3B68     		ldr	r3, [r7]
 3218 0094 082B     		cmp	r3, #8
 3219 0096 04D1     		bne	.L205
 3220              		.loc 1 1135 3 discriminator 6
 3221 0098 7B68     		ldr	r3, [r7, #4]
 3222 009a 0222     		movs	r2, #2
 3223 009c 83F84620 		strb	r2, [r3, #70]
 3224 00a0 03E0     		b	.L202
 3225              	.L205:
 3226              		.loc 1 1135 3 discriminator 7
 3227 00a2 7B68     		ldr	r3, [r7, #4]
 3228 00a4 0222     		movs	r2, #2
 3229 00a6 83F84720 		strb	r2, [r3, #71]
 3230              	.L202:
1136:Drivers/STM32H7xx_HAL_Driver/Src/stm32h7xx_hal_tim_ex.c **** 
1137:Drivers/STM32H7xx_HAL_Driver/Src/stm32h7xx_hal_tim_ex.c ****   /* Enable the complementary PWM output  */
1138:Drivers/STM32H7xx_HAL_Driver/Src/stm32h7xx_hal_tim_ex.c ****   TIM_CCxNChannelCmd(htim->Instance, Channel, TIM_CCxN_ENABLE);
 3231              		.loc 1 1138 3 is_stmt 1
 3232 00aa 7B68     		ldr	r3, [r7, #4]
 3233 00ac 1B68     		ldr	r3, [r3]
 3234 00ae 0422     		movs	r2, #4
 3235 00b0 3968     		ldr	r1, [r7]
 3236 00b2 1846     		mov	r0, r3
 3237 00b4 FFF7FEFF 		bl	TIM_CCxNChannelCmd
1139:Drivers/STM32H7xx_HAL_Driver/Src/stm32h7xx_hal_tim_ex.c **** 
1140:Drivers/STM32H7xx_HAL_Driver/Src/stm32h7xx_hal_tim_ex.c ****   /* Enable the Main Output */
1141:Drivers/STM32H7xx_HAL_Driver/Src/stm32h7xx_hal_tim_ex.c ****   __HAL_TIM_MOE_ENABLE(htim);
 3238              		.loc 1 1141 3
 3239 00b8 7B68     		ldr	r3, [r7, #4]
 3240 00ba 1B68     		ldr	r3, [r3]
 3241 00bc 5A6C     		ldr	r2, [r3, #68]
 3242 00be 7B68     		ldr	r3, [r7, #4]
 3243 00c0 1B68     		ldr	r3, [r3]
 3244 00c2 42F40042 		orr	r2, r2, #32768
 3245 00c6 5A64     		str	r2, [r3, #68]
1142:Drivers/STM32H7xx_HAL_Driver/Src/stm32h7xx_hal_tim_ex.c **** 
1143:Drivers/STM32H7xx_HAL_Driver/Src/stm32h7xx_hal_tim_ex.c ****   /* Enable the Peripheral, except in trigger mode where enable is automatically done with trigger 
1144:Drivers/STM32H7xx_HAL_Driver/Src/stm32h7xx_hal_tim_ex.c ****   if (IS_TIM_SLAVE_INSTANCE(htim->Instance))
 3246              		.loc 1 1144 7
 3247 00c8 7B68     		ldr	r3, [r7, #4]
 3248 00ca 1B68     		ldr	r3, [r3]
 3249              		.loc 1 1144 6
 3250 00cc 254A     		ldr	r2, .L212
 3251 00ce 9342     		cmp	r3, r2
 3252 00d0 22D0     		beq	.L207
 3253              		.loc 1 1144 7 discriminator 1
 3254 00d2 7B68     		ldr	r3, [r7, #4]
 3255 00d4 1B68     		ldr	r3, [r3]
 3256 00d6 B3F1804F 		cmp	r3, #1073741824
 3257 00da 1DD0     		beq	.L207
 3258              		.loc 1 1144 7 is_stmt 0 discriminator 2
 3259 00dc 7B68     		ldr	r3, [r7, #4]
 3260 00de 1B68     		ldr	r3, [r3]
 3261 00e0 214A     		ldr	r2, .L212+4
 3262 00e2 9342     		cmp	r3, r2
 3263 00e4 18D0     		beq	.L207
 3264              		.loc 1 1144 7 discriminator 3
ARM GAS  /var/folders/d0/cymppscj10lcmm48h781wrc80000gn/T//ccIjALm5.s 			page 78


 3265 00e6 7B68     		ldr	r3, [r7, #4]
 3266 00e8 1B68     		ldr	r3, [r3]
 3267 00ea 204A     		ldr	r2, .L212+8
 3268 00ec 9342     		cmp	r3, r2
 3269 00ee 13D0     		beq	.L207
 3270              		.loc 1 1144 7 discriminator 4
 3271 00f0 7B68     		ldr	r3, [r7, #4]
 3272 00f2 1B68     		ldr	r3, [r3]
 3273 00f4 1E4A     		ldr	r2, .L212+12
 3274 00f6 9342     		cmp	r3, r2
 3275 00f8 0ED0     		beq	.L207
 3276              		.loc 1 1144 7 discriminator 5
 3277 00fa 7B68     		ldr	r3, [r7, #4]
 3278 00fc 1B68     		ldr	r3, [r3]
 3279 00fe 1D4A     		ldr	r2, .L212+16
 3280 0100 9342     		cmp	r3, r2
 3281 0102 09D0     		beq	.L207
 3282              		.loc 1 1144 7 discriminator 6
 3283 0104 7B68     		ldr	r3, [r7, #4]
 3284 0106 1B68     		ldr	r3, [r3]
 3285 0108 1B4A     		ldr	r2, .L212+20
 3286 010a 9342     		cmp	r3, r2
 3287 010c 04D0     		beq	.L207
 3288              		.loc 1 1144 7 discriminator 7
 3289 010e 7B68     		ldr	r3, [r7, #4]
 3290 0110 1B68     		ldr	r3, [r3]
 3291 0112 1A4A     		ldr	r2, .L212+24
 3292 0114 9342     		cmp	r3, r2
 3293 0116 15D1     		bne	.L208
 3294              	.L207:
1145:Drivers/STM32H7xx_HAL_Driver/Src/stm32h7xx_hal_tim_ex.c ****   {
1146:Drivers/STM32H7xx_HAL_Driver/Src/stm32h7xx_hal_tim_ex.c ****     tmpsmcr = htim->Instance->SMCR & TIM_SMCR_SMS;
 3295              		.loc 1 1146 19 is_stmt 1
 3296 0118 7B68     		ldr	r3, [r7, #4]
 3297 011a 1B68     		ldr	r3, [r3]
 3298              		.loc 1 1146 29
 3299 011c 9A68     		ldr	r2, [r3, #8]
 3300              		.loc 1 1146 13
 3301 011e 184B     		ldr	r3, .L212+28
 3302 0120 1340     		ands	r3, r3, r2
 3303 0122 FB60     		str	r3, [r7, #12]
1147:Drivers/STM32H7xx_HAL_Driver/Src/stm32h7xx_hal_tim_ex.c ****     if (!IS_TIM_SLAVEMODE_TRIGGER_ENABLED(tmpsmcr))
 3304              		.loc 1 1147 8
 3305 0124 FB68     		ldr	r3, [r7, #12]
 3306 0126 062B     		cmp	r3, #6
 3307 0128 15D0     		beq	.L211
 3308              		.loc 1 1147 9 discriminator 1
 3309 012a FB68     		ldr	r3, [r7, #12]
 3310 012c B3F5803F 		cmp	r3, #65536
 3311 0130 11D0     		beq	.L211
1148:Drivers/STM32H7xx_HAL_Driver/Src/stm32h7xx_hal_tim_ex.c ****     {
1149:Drivers/STM32H7xx_HAL_Driver/Src/stm32h7xx_hal_tim_ex.c ****       __HAL_TIM_ENABLE(htim);
 3312              		.loc 1 1149 7
 3313 0132 7B68     		ldr	r3, [r7, #4]
 3314 0134 1B68     		ldr	r3, [r3]
 3315 0136 1A68     		ldr	r2, [r3]
 3316 0138 7B68     		ldr	r3, [r7, #4]
ARM GAS  /var/folders/d0/cymppscj10lcmm48h781wrc80000gn/T//ccIjALm5.s 			page 79


 3317 013a 1B68     		ldr	r3, [r3]
 3318 013c 42F00102 		orr	r2, r2, #1
 3319 0140 1A60     		str	r2, [r3]
1147:Drivers/STM32H7xx_HAL_Driver/Src/stm32h7xx_hal_tim_ex.c ****     if (!IS_TIM_SLAVEMODE_TRIGGER_ENABLED(tmpsmcr))
 3320              		.loc 1 1147 8
 3321 0142 08E0     		b	.L211
 3322              	.L208:
1150:Drivers/STM32H7xx_HAL_Driver/Src/stm32h7xx_hal_tim_ex.c ****     }
1151:Drivers/STM32H7xx_HAL_Driver/Src/stm32h7xx_hal_tim_ex.c ****   }
1152:Drivers/STM32H7xx_HAL_Driver/Src/stm32h7xx_hal_tim_ex.c ****   else
1153:Drivers/STM32H7xx_HAL_Driver/Src/stm32h7xx_hal_tim_ex.c ****   {
1154:Drivers/STM32H7xx_HAL_Driver/Src/stm32h7xx_hal_tim_ex.c ****     __HAL_TIM_ENABLE(htim);
 3323              		.loc 1 1154 5
 3324 0144 7B68     		ldr	r3, [r7, #4]
 3325 0146 1B68     		ldr	r3, [r3]
 3326 0148 1A68     		ldr	r2, [r3]
 3327 014a 7B68     		ldr	r3, [r7, #4]
 3328 014c 1B68     		ldr	r3, [r3]
 3329 014e 42F00102 		orr	r2, r2, #1
 3330 0152 1A60     		str	r2, [r3]
 3331 0154 00E0     		b	.L210
 3332              	.L211:
1147:Drivers/STM32H7xx_HAL_Driver/Src/stm32h7xx_hal_tim_ex.c ****     {
 3333              		.loc 1 1147 8
 3334 0156 00BF     		nop
 3335              	.L210:
1155:Drivers/STM32H7xx_HAL_Driver/Src/stm32h7xx_hal_tim_ex.c ****   }
1156:Drivers/STM32H7xx_HAL_Driver/Src/stm32h7xx_hal_tim_ex.c **** 
1157:Drivers/STM32H7xx_HAL_Driver/Src/stm32h7xx_hal_tim_ex.c ****   /* Return function status */
1158:Drivers/STM32H7xx_HAL_Driver/Src/stm32h7xx_hal_tim_ex.c ****   return HAL_OK;
 3336              		.loc 1 1158 10
 3337 0158 0023     		movs	r3, #0
 3338              	.L200:
1159:Drivers/STM32H7xx_HAL_Driver/Src/stm32h7xx_hal_tim_ex.c **** }
 3339              		.loc 1 1159 1
 3340 015a 1846     		mov	r0, r3
 3341 015c 1037     		adds	r7, r7, #16
 3342              	.LCFI85:
 3343              		.cfi_def_cfa_offset 8
 3344 015e BD46     		mov	sp, r7
 3345              	.LCFI86:
 3346              		.cfi_def_cfa_register 13
 3347              		@ sp needed
 3348 0160 80BD     		pop	{r7, pc}
 3349              	.L213:
 3350 0162 00BF     		.align	2
 3351              	.L212:
 3352 0164 00000140 		.word	1073807360
 3353 0168 00040040 		.word	1073742848
 3354 016c 00080040 		.word	1073743872
 3355 0170 000C0040 		.word	1073744896
 3356 0174 00040140 		.word	1073808384
 3357 0178 00180040 		.word	1073747968
 3358 017c 00400140 		.word	1073823744
 3359 0180 07000100 		.word	65543
 3360              		.cfi_endproc
 3361              	.LFE349:
ARM GAS  /var/folders/d0/cymppscj10lcmm48h781wrc80000gn/T//ccIjALm5.s 			page 80


 3363              		.section	.text.HAL_TIMEx_PWMN_Stop,"ax",%progbits
 3364              		.align	1
 3365              		.global	HAL_TIMEx_PWMN_Stop
 3366              		.syntax unified
 3367              		.thumb
 3368              		.thumb_func
 3370              	HAL_TIMEx_PWMN_Stop:
 3371              	.LFB350:
1160:Drivers/STM32H7xx_HAL_Driver/Src/stm32h7xx_hal_tim_ex.c **** 
1161:Drivers/STM32H7xx_HAL_Driver/Src/stm32h7xx_hal_tim_ex.c **** /**
1162:Drivers/STM32H7xx_HAL_Driver/Src/stm32h7xx_hal_tim_ex.c ****   * @brief  Stops the PWM signal generation on the complementary output.
1163:Drivers/STM32H7xx_HAL_Driver/Src/stm32h7xx_hal_tim_ex.c ****   * @param  htim TIM handle
1164:Drivers/STM32H7xx_HAL_Driver/Src/stm32h7xx_hal_tim_ex.c ****   * @param  Channel TIM Channel to be disabled
1165:Drivers/STM32H7xx_HAL_Driver/Src/stm32h7xx_hal_tim_ex.c ****   *          This parameter can be one of the following values:
1166:Drivers/STM32H7xx_HAL_Driver/Src/stm32h7xx_hal_tim_ex.c ****   *            @arg TIM_CHANNEL_1: TIM Channel 1 selected
1167:Drivers/STM32H7xx_HAL_Driver/Src/stm32h7xx_hal_tim_ex.c ****   *            @arg TIM_CHANNEL_2: TIM Channel 2 selected
1168:Drivers/STM32H7xx_HAL_Driver/Src/stm32h7xx_hal_tim_ex.c ****   *            @arg TIM_CHANNEL_3: TIM Channel 3 selected
1169:Drivers/STM32H7xx_HAL_Driver/Src/stm32h7xx_hal_tim_ex.c ****   * @retval HAL status
1170:Drivers/STM32H7xx_HAL_Driver/Src/stm32h7xx_hal_tim_ex.c ****   */
1171:Drivers/STM32H7xx_HAL_Driver/Src/stm32h7xx_hal_tim_ex.c **** HAL_StatusTypeDef HAL_TIMEx_PWMN_Stop(TIM_HandleTypeDef *htim, uint32_t Channel)
1172:Drivers/STM32H7xx_HAL_Driver/Src/stm32h7xx_hal_tim_ex.c **** {
 3372              		.loc 1 1172 1
 3373              		.cfi_startproc
 3374              		@ args = 0, pretend = 0, frame = 8
 3375              		@ frame_needed = 1, uses_anonymous_args = 0
 3376 0000 80B5     		push	{r7, lr}
 3377              	.LCFI87:
 3378              		.cfi_def_cfa_offset 8
 3379              		.cfi_offset 7, -8
 3380              		.cfi_offset 14, -4
 3381 0002 82B0     		sub	sp, sp, #8
 3382              	.LCFI88:
 3383              		.cfi_def_cfa_offset 16
 3384 0004 00AF     		add	r7, sp, #0
 3385              	.LCFI89:
 3386              		.cfi_def_cfa_register 7
 3387 0006 7860     		str	r0, [r7, #4]
 3388 0008 3960     		str	r1, [r7]
1173:Drivers/STM32H7xx_HAL_Driver/Src/stm32h7xx_hal_tim_ex.c ****   /* Check the parameters */
1174:Drivers/STM32H7xx_HAL_Driver/Src/stm32h7xx_hal_tim_ex.c ****   assert_param(IS_TIM_CCXN_INSTANCE(htim->Instance, Channel));
1175:Drivers/STM32H7xx_HAL_Driver/Src/stm32h7xx_hal_tim_ex.c **** 
1176:Drivers/STM32H7xx_HAL_Driver/Src/stm32h7xx_hal_tim_ex.c ****   /* Disable the complementary PWM output  */
1177:Drivers/STM32H7xx_HAL_Driver/Src/stm32h7xx_hal_tim_ex.c ****   TIM_CCxNChannelCmd(htim->Instance, Channel, TIM_CCxN_DISABLE);
 3389              		.loc 1 1177 3
 3390 000a 7B68     		ldr	r3, [r7, #4]
 3391 000c 1B68     		ldr	r3, [r3]
 3392 000e 0022     		movs	r2, #0
 3393 0010 3968     		ldr	r1, [r7]
 3394 0012 1846     		mov	r0, r3
 3395 0014 FFF7FEFF 		bl	TIM_CCxNChannelCmd
1178:Drivers/STM32H7xx_HAL_Driver/Src/stm32h7xx_hal_tim_ex.c **** 
1179:Drivers/STM32H7xx_HAL_Driver/Src/stm32h7xx_hal_tim_ex.c ****   /* Disable the Main Output */
1180:Drivers/STM32H7xx_HAL_Driver/Src/stm32h7xx_hal_tim_ex.c ****   __HAL_TIM_MOE_DISABLE(htim);
 3396              		.loc 1 1180 3
 3397 0018 7B68     		ldr	r3, [r7, #4]
 3398 001a 1B68     		ldr	r3, [r3]
 3399 001c 1A6A     		ldr	r2, [r3, #32]
ARM GAS  /var/folders/d0/cymppscj10lcmm48h781wrc80000gn/T//ccIjALm5.s 			page 81


 3400 001e 41F21113 		movw	r3, #4369
 3401 0022 1340     		ands	r3, r3, r2
 3402 0024 002B     		cmp	r3, #0
